
/home/abdullah/RiescueC/riescue/10x_R/sscofpmf/testsuite/sscofpmf/machine/tp_sscofpmf_2:     file format elf64-littleriscv


Disassembly of section .runtime:

0000000041000000 <_start>:
    41000000:	00000093          	li	x1,0
    41000004:	00000113          	li	x2,0
    41000008:	00000193          	li	x3,0
    4100000c:	00000213          	li	x4,0
    41000010:	00000293          	li	x5,0
    41000014:	00000313          	li	x6,0
    41000018:	00000393          	li	x7,0
    4100001c:	00000413          	li	x8,0
    41000020:	00000493          	li	x9,0
    41000024:	00000513          	li	x10,0
    41000028:	00000593          	li	x11,0
    4100002c:	00000613          	li	x12,0
    41000030:	00000693          	li	x13,0
    41000034:	00000713          	li	x14,0
    41000038:	00000793          	li	x15,0
    4100003c:	00000813          	li	x16,0
    41000040:	00000893          	li	x17,0
    41000044:	00000913          	li	x18,0
    41000048:	00000993          	li	x19,0
    4100004c:	00000a13          	li	x20,0
    41000050:	00000a93          	li	x21,0
    41000054:	00000b13          	li	x22,0
    41000058:	00000b93          	li	x23,0
    4100005c:	00000c13          	li	x24,0
    41000060:	00000c93          	li	x25,0
    41000064:	00000d13          	li	x26,0
    41000068:	00000d93          	li	x27,0
    4100006c:	00000e13          	li	x28,0
    41000070:	00000e93          	li	x29,0
    41000074:	00000f13          	li	x30,0
    41000078:	00000f93          	li	x31,0

000000004100007c <loader__load_panic_address>:
    4100007c:	00001297          	auipc	x5,0x1
    41000080:	96028293          	addi	x5,x5,-1696 # 410009dc <eot__failed>
    41000084:	30529073          	csrw	mtvec,x5

0000000041000088 <loader__initialize_runtime>:
    41000088:	00000293          	li	x5,0
    4100008c:	3012a2f3          	csrrs	x5,misa,x5

0000000041000090 <loader__set_mstatus>:
    41000090:	000402b7          	lui	x5,0x40
    41000094:	00a2829b          	addiw	x5,x5,10 # 4000a <pma_region_0_size+0xa>
    41000098:	3002a2f3          	csrrs	x5,mstatus,x5
    4100009c:	44c40237          	lui	x4,0x44c40
    410000a0:	34021073          	csrw	mscratch,x4

00000000410000a4 <loader__setup_tvec>:
    410000a4:	00000297          	auipc	x5,0x0
    410000a8:	42028293          	addi	x5,x5,1056 # 410004c4 <trap_handler_m__trap_entry>
    410000ac:	30529073          	csrw	mtvec,x5

00000000410000b0 <loader__done>:
    410000b0:	1550006f          	j	41000a04 <scheduler__init>

00000000410000b4 <loader__panic>:
    410000b4:	1290006f          	j	410009dc <eot__failed>

00000000410000b8 <syscalls__syscall_check_schedule_next_test>:
    410000b8:	00f0029b          	addiw	x5,x0,15
    410000bc:	01c29293          	slli	x5,x5,0x1c
    410000c0:	00128293          	addi	x5,x5,1
    410000c4:	01f29a63          	bne	x5,x31,410000d8 <syscalls__syscall_check_fail_test>
    410000c8:	00000317          	auipc	x6,0x0
    410000cc:	3fc30313          	addi	x6,x6,1020 # 410004c4 <trap_handler_m__trap_entry>
    410000d0:	30531073          	csrw	mtvec,x6
    410000d4:	6340006f          	j	41000708 <enter_scheduler>

00000000410000d8 <syscalls__syscall_check_fail_test>:
    410000d8:	00f0029b          	addiw	x5,x0,15
    410000dc:	01c29293          	slli	x5,x5,0x1c
    410000e0:	00228293          	addi	x5,x5,2
    410000e4:	01f29a63          	bne	x5,x31,410000f8 <syscalls__syscall_check_end_test_without_failure>
    410000e8:	00000317          	auipc	x6,0x0
    410000ec:	3dc30313          	addi	x6,x6,988 # 410004c4 <trap_handler_m__trap_entry>
    410000f0:	30531073          	csrw	mtvec,x6
    410000f4:	6440006f          	j	41000738 <test_failed>

00000000410000f8 <syscalls__syscall_check_end_test_without_failure>:
    410000f8:	00f0029b          	addiw	x5,x0,15
    410000fc:	01c29293          	slli	x5,x5,0x1c
    41000100:	00328293          	addi	x5,x5,3
    41000104:	01f29a63          	bne	x5,x31,41000118 <syscalls__syscall_check_switch_machine_mode>
    41000108:	00000317          	auipc	x6,0x0
    4100010c:	3bc30313          	addi	x6,x6,956 # 410004c4 <trap_handler_m__trap_entry>
    41000110:	30531073          	csrw	mtvec,x6
    41000114:	6300006f          	j	41000744 <os_end_test>

0000000041000118 <syscalls__syscall_check_switch_machine_mode>:
    41000118:	000f02b7          	lui	x5,0xf0
    4100011c:	0012829b          	addiw	x5,x5,1 # f0001 <pma_region_0_size+0xb0001>
    41000120:	00c29293          	slli	x5,x5,0xc
    41000124:	00128293          	addi	x5,x5,1
    41000128:	0a5f8463          	beq	x31,x5,410001d0 <syscalls__os_fn_f0001001>

000000004100012c <syscalls__syscall_check_switch_super_mode>:
    4100012c:	000f02b7          	lui	x5,0xf0
    41000130:	0012829b          	addiw	x5,x5,1 # f0001 <pma_region_0_size+0xb0001>
    41000134:	00c29293          	slli	x5,x5,0xc
    41000138:	00228293          	addi	x5,x5,2
    4100013c:	085f8e63          	beq	x31,x5,410001d8 <syscalls__os_fn_f0001002>

0000000041000140 <syscalls__syscall_check_switch_user_mode>:
    41000140:	000f02b7          	lui	x5,0xf0
    41000144:	0012829b          	addiw	x5,x5,1 # f0001 <pma_region_0_size+0xb0001>
    41000148:	00c29293          	slli	x5,x5,0xc
    4100014c:	00328293          	addi	x5,x5,3
    41000150:	0a5f8c63          	beq	x31,x5,41000208 <syscalls__os_fn_f0001003>

0000000041000154 <syscalls__syscall_check_switch_test_mode>:
    41000154:	000f02b7          	lui	x5,0xf0
    41000158:	0012829b          	addiw	x5,x5,1 # f0001 <pma_region_0_size+0xb0001>
    4100015c:	00c29293          	slli	x5,x5,0xc
    41000160:	00428293          	addi	x5,x5,4
    41000164:	0c5f8663          	beq	x31,x5,41000230 <syscalls__os_fn_f0001004>

0000000041000168 <syscalls__syscall_machine_csr_rw>:
    41000168:	000f02b7          	lui	x5,0xf0
    4100016c:	0012829b          	addiw	x5,x5,1 # f0001 <pma_region_0_size+0xb0001>
    41000170:	00c29293          	slli	x5,x5,0xc
    41000174:	00528293          	addi	x5,x5,5
    41000178:	0e5f8263          	beq	x31,x5,4100025c <syscalls__os_fn_f0001005>

000000004100017c <syscalls__syscall_supervisor_csr_rw>:
    4100017c:	000f02b7          	lui	x5,0xf0
    41000180:	0012829b          	addiw	x5,x5,1 # f0001 <pma_region_0_size+0xb0001>
    41000184:	00c29293          	slli	x5,x5,0xc
    41000188:	00628293          	addi	x5,x5,6
    4100018c:	0c5f8c63          	beq	x31,x5,41000264 <syscalls__os_fn_f0001006>

0000000041000190 <syscalls__syscall_machine_pte_read>:
    41000190:	000f02b7          	lui	x5,0xf0
    41000194:	0012829b          	addiw	x5,x5,1 # f0001 <pma_region_0_size+0xb0001>
    41000198:	00c29293          	slli	x5,x5,0xc
    4100019c:	00728293          	addi	x5,x5,7
    410001a0:	0e5f8a63          	beq	x31,x5,41000294 <syscalls__os_fn_f0001007>

00000000410001a4 <syscalls__syscall_machine_pte_write>:
    410001a4:	000f02b7          	lui	x5,0xf0
    410001a8:	0012829b          	addiw	x5,x5,1 # f0001 <pma_region_0_size+0xb0001>
    410001ac:	00c29293          	slli	x5,x5,0xc
    410001b0:	00828293          	addi	x5,x5,8
    410001b4:	1a5f8463          	beq	x31,x5,4100035c <syscalls__os_fn_f0001008>

00000000410001b8 <syscalls__syscall_check_get_hart_context>:
    410001b8:	000782b7          	lui	x5,0x78
    410001bc:	0012829b          	addiw	x5,x5,1 # 78001 <pma_region_0_size+0x38001>
    410001c0:	00d29293          	slli	x5,x5,0xd
    410001c4:	00128293          	addi	x5,x5,1
    410001c8:	245f8e63          	beq	x31,x5,41000424 <syscalls__os_get_hart_context>
    410001cc:	4540006f          	j	41000620 <trap_handler_m__check_exception_label>

00000000410001d0 <syscalls__os_fn_f0001001>:
    410001d0:	411942b7          	lui	x5,0x41194
    410001d4:	2600006f          	j	41000434 <syscalls__ret_from_os_fn>

00000000410001d8 <syscalls__os_fn_f0001002>:
    410001d8:	000022b7          	lui	x5,0x2
    410001dc:	8002829b          	addiw	x5,x5,-2048 # 1800 <pma_region_1_size+0x800>
    410001e0:	3002b073          	csrc	mstatus,x5
    410001e4:	000012b7          	lui	x5,0x1
    410001e8:	8002829b          	addiw	x5,x5,-2048 # 800 <XLEN+0x7c0>
    410001ec:	3002a073          	csrs	mstatus,x5
    410001f0:	0010029b          	addiw	x5,x0,1
    410001f4:	02729293          	slli	x5,x5,0x27
    410001f8:	3002b073          	csrc	mstatus,x5
    410001fc:	12000073          	sfence.vma
    41000200:	410942b7          	lui	x5,0x41094
    41000204:	2300006f          	j	41000434 <syscalls__ret_from_os_fn>

0000000041000208 <syscalls__os_fn_f0001003>:
    41000208:	000022b7          	lui	x5,0x2
    4100020c:	8002829b          	addiw	x5,x5,-2048 # 1800 <pma_region_1_size+0x800>
    41000210:	3002b073          	csrc	mstatus,x5
    41000214:	00000293          	li	x5,0
    41000218:	3002a073          	csrs	mstatus,x5
    4100021c:	0010029b          	addiw	x5,x0,1
    41000220:	02729293          	slli	x5,x5,0x27
    41000224:	3002b073          	csrc	mstatus,x5
    41000228:	411142b7          	lui	x5,0x41114
    4100022c:	2080006f          	j	41000434 <syscalls__ret_from_os_fn>

0000000041000230 <syscalls__os_fn_f0001004>:
    41000230:	000022b7          	lui	x5,0x2
    41000234:	8002829b          	addiw	x5,x5,-2048 # 1800 <pma_region_1_size+0x800>
    41000238:	3002b073          	csrc	mstatus,x5
    4100023c:	000022b7          	lui	x5,0x2
    41000240:	8002829b          	addiw	x5,x5,-2048 # 1800 <pma_region_1_size+0x800>
    41000244:	3002a073          	csrs	mstatus,x5
    41000248:	0010029b          	addiw	x5,x0,1
    4100024c:	02729293          	slli	x5,x5,0x27
    41000250:	3002b073          	csrc	mstatus,x5
    41000254:	17823283          	ld	x5,376(x4) # 44c40178 <os_save_ecall_fn_epc>
    41000258:	1dc0006f          	j	41000434 <syscalls__ret_from_os_fn>

000000004100025c <syscalls__os_fn_f0001005>:
    4100025c:	412142b7          	lui	x5,0x41214
    41000260:	1d40006f          	j	41000434 <syscalls__ret_from_os_fn>

0000000041000264 <syscalls__os_fn_f0001006>:
    41000264:	000022b7          	lui	x5,0x2
    41000268:	8002829b          	addiw	x5,x5,-2048 # 1800 <pma_region_1_size+0x800>
    4100026c:	3002b073          	csrc	mstatus,x5
    41000270:	000012b7          	lui	x5,0x1
    41000274:	8002829b          	addiw	x5,x5,-2048 # 800 <XLEN+0x7c0>
    41000278:	3002a073          	csrs	mstatus,x5
    4100027c:	0010029b          	addiw	x5,x0,1
    41000280:	02729293          	slli	x5,x5,0x27
    41000284:	3002b073          	csrc	mstatus,x5
    41000288:	12000073          	sfence.vma
    4100028c:	412152b7          	lui	x5,0x41215
    41000290:	1a40006f          	j	41000434 <syscalls__ret_from_os_fn>

0000000041000294 <syscalls__os_fn_f0001007>:
    41000294:	44db4fb7          	lui	x31,0x44db4
    41000298:	0b8f8f9b          	addiw	x31,x31,184 # 44db40b8 <pte_access_flags>
    4100029c:	000fbf83          	ld	x31,0(x31)
    410002a0:	44db42b7          	lui	x5,0x44db4
    410002a4:	0c02829b          	addiw	x5,x5,192 # 44db40c0 <pte_access_flags+0x8>
    410002a8:	0002b283          	ld	x5,0(x5)
    410002ac:	44db4e37          	lui	x28,0x44db4
    410002b0:	0c8e0e1b          	addiw	x28,x28,200 # 44db40c8 <pte_access_flags+0x10>
    410002b4:	000e3e03          	ld	x28,0(x28)

00000000410002b8 <syscalls__pte_walk_check_paging_disabled_nonvirt_target_level_read>:
    410002b8:	0a029063          	bnez	x5,41000358 <syscalls__pte_walk_fail_read>

00000000410002bc <syscalls__pte_walk_check_glevel_without_gstage_read>:
    410002bc:	fff00f93          	li	x31,-1
    410002c0:	09fe1c63          	bne	x28,x31,41000358 <syscalls__pte_walk_fail_read>

00000000410002c4 <syscalls__pte_walk_loop_read>:
    410002c4:	44db4fb7          	lui	x31,0x44db4
    410002c8:	0b8f8f9b          	addiw	x31,x31,184 # 44db40b8 <pte_access_flags>
    410002cc:	000fbf83          	ld	x31,0(x31)
    410002d0:	01dfdfb3          	srl	x31,x31,x29
    410002d4:	1fffff93          	andi	x31,x31,511
    410002d8:	003f9f93          	slli	x31,x31,0x3
    410002dc:	01f30333          	add	x6,x6,x31
    410002e0:	005f0e63          	beq	x30,x5,410002fc <syscalls__pte_walk_done_read>
    410002e4:	00033f83          	ld	x31,0(x6)
    410002e8:	00afdf93          	srli	x31,x31,0xa
    410002ec:	00cf9313          	slli	x6,x31,0xc
    410002f0:	001f0f13          	addi	x30,x30,1
    410002f4:	ff7e8e93          	addi	x29,x29,-9
    410002f8:	fcdff06f          	j	410002c4 <syscalls__pte_walk_loop_read>

00000000410002fc <syscalls__pte_walk_done_read>:
    410002fc:	fff00f93          	li	x31,-1
    41000300:	05fe0263          	beq	x28,x31,41000344 <syscalls__pte_walk_final_read>

0000000041000304 <syscalls__pte_walk_gstage_read>:
    41000304:	44db4fb7          	lui	x31,0x44db4
    41000308:	0b8f8f9b          	addiw	x31,x31,184 # 44db40b8 <pte_access_flags>
    4100030c:	006fb023          	sd	x6,0(x31)
    41000310:	000e0293          	mv	x5,x28
    41000314:	fff00e13          	li	x28,-1
    41000318:	68002373          	csrr	x6,hgatp
    4100031c:	03c35e93          	srli	x29,x6,0x3c
    41000320:	01431313          	slli	x6,x6,0x14
    41000324:	01435313          	srli	x6,x6,0x14
    41000328:	00c31313          	slli	x6,x6,0xc
    4100032c:	ff8e8e93          	addi	x29,x29,-8
    41000330:	003e9f13          	slli	x30,x29,0x3
    41000334:	01df0eb3          	add	x29,x30,x29
    41000338:	01ee8e93          	addi	x29,x29,30
    4100033c:	00000f13          	li	x30,0
    41000340:	f85ff06f          	j	410002c4 <syscalls__pte_walk_loop_read>

0000000041000344 <syscalls__pte_walk_final_read>:
    41000344:	00033383          	ld	x7,0(x6)
    41000348:	341022f3          	csrr	x5,mepc
    4100034c:	00428293          	addi	x5,x5,4
    41000350:	16523c23          	sd	x5,376(x4) # 178 <XLEN+0x138>
    41000354:	eddff06f          	j	41000230 <syscalls__os_fn_f0001004>

0000000041000358 <syscalls__pte_walk_fail_read>:
    41000358:	3e00006f          	j	41000738 <test_failed>

000000004100035c <syscalls__os_fn_f0001008>:
    4100035c:	44db4fb7          	lui	x31,0x44db4
    41000360:	0b8f8f9b          	addiw	x31,x31,184 # 44db40b8 <pte_access_flags>
    41000364:	000fbf83          	ld	x31,0(x31)
    41000368:	44db42b7          	lui	x5,0x44db4
    4100036c:	0c02829b          	addiw	x5,x5,192 # 44db40c0 <pte_access_flags+0x8>
    41000370:	0002b283          	ld	x5,0(x5)
    41000374:	44db4e37          	lui	x28,0x44db4
    41000378:	0c8e0e1b          	addiw	x28,x28,200 # 44db40c8 <pte_access_flags+0x10>
    4100037c:	000e3e03          	ld	x28,0(x28)

0000000041000380 <syscalls__pte_walk_check_paging_disabled_nonvirt_target_level_write>:
    41000380:	0a029063          	bnez	x5,41000420 <syscalls__pte_walk_fail_write>

0000000041000384 <syscalls__pte_walk_check_glevel_without_gstage_write>:
    41000384:	fff00f93          	li	x31,-1
    41000388:	09fe1c63          	bne	x28,x31,41000420 <syscalls__pte_walk_fail_write>

000000004100038c <syscalls__pte_walk_loop_write>:
    4100038c:	44db4fb7          	lui	x31,0x44db4
    41000390:	0b8f8f9b          	addiw	x31,x31,184 # 44db40b8 <pte_access_flags>
    41000394:	000fbf83          	ld	x31,0(x31)
    41000398:	01dfdfb3          	srl	x31,x31,x29
    4100039c:	1fffff93          	andi	x31,x31,511
    410003a0:	003f9f93          	slli	x31,x31,0x3
    410003a4:	01f30333          	add	x6,x6,x31
    410003a8:	005f0e63          	beq	x30,x5,410003c4 <syscalls__pte_walk_done_write>
    410003ac:	00033f83          	ld	x31,0(x6)
    410003b0:	00afdf93          	srli	x31,x31,0xa
    410003b4:	00cf9313          	slli	x6,x31,0xc
    410003b8:	001f0f13          	addi	x30,x30,1
    410003bc:	ff7e8e93          	addi	x29,x29,-9
    410003c0:	fcdff06f          	j	4100038c <syscalls__pte_walk_loop_write>

00000000410003c4 <syscalls__pte_walk_done_write>:
    410003c4:	fff00f93          	li	x31,-1
    410003c8:	05fe0263          	beq	x28,x31,4100040c <syscalls__pte_walk_final_write>

00000000410003cc <syscalls__pte_walk_gstage_write>:
    410003cc:	44db4fb7          	lui	x31,0x44db4
    410003d0:	0b8f8f9b          	addiw	x31,x31,184 # 44db40b8 <pte_access_flags>
    410003d4:	006fb023          	sd	x6,0(x31)
    410003d8:	000e0293          	mv	x5,x28
    410003dc:	fff00e13          	li	x28,-1
    410003e0:	68002373          	csrr	x6,hgatp
    410003e4:	03c35e93          	srli	x29,x6,0x3c
    410003e8:	01431313          	slli	x6,x6,0x14
    410003ec:	01435313          	srli	x6,x6,0x14
    410003f0:	00c31313          	slli	x6,x6,0xc
    410003f4:	ff8e8e93          	addi	x29,x29,-8
    410003f8:	003e9f13          	slli	x30,x29,0x3
    410003fc:	01df0eb3          	add	x29,x30,x29
    41000400:	01ee8e93          	addi	x29,x29,30
    41000404:	00000f13          	li	x30,0
    41000408:	f85ff06f          	j	4100038c <syscalls__pte_walk_loop_write>

000000004100040c <syscalls__pte_walk_final_write>:
    4100040c:	00733023          	sd	x7,0(x6)
    41000410:	341022f3          	csrr	x5,mepc
    41000414:	00428293          	addi	x5,x5,4
    41000418:	16523c23          	sd	x5,376(x4) # 178 <XLEN+0x138>
    4100041c:	e15ff06f          	j	41000230 <syscalls__os_fn_f0001004>

0000000041000420 <syscalls__pte_walk_fail_write>:
    41000420:	3180006f          	j	41000738 <test_failed>

0000000041000424 <syscalls__os_get_hart_context>:
    41000424:	00020513          	mv	x10,x4
    41000428:	341022f3          	csrr	x5,mepc
    4100042c:	00428293          	addi	x5,x5,4
    41000430:	0040006f          	j	41000434 <syscalls__ret_from_os_fn>

0000000041000434 <syscalls__ret_from_os_fn>:
    41000434:	34102373          	csrr	x6,mepc
    41000438:	00430313          	addi	x6,x6,4
    4100043c:	16623c23          	sd	x6,376(x4) # 178 <XLEN+0x138>
    41000440:	34129073          	csrw	mepc,x5
    41000444:	fff00f93          	li	x31,-1
    41000448:	2a40006f          	j	410006ec <trap_handler_m__skip_xepc_write>

000000004100044c <trap_handler_m__invalid_interrupt>:
    4100044c:	2ec0006f          	j	41000738 <test_failed>

0000000041000450 <trap_handler_m__clear_all_interrupts>:
    41000450:	34401073          	csrw	mip,x0
    41000454:	30200073          	mret

0000000041000458 <trap_handler_m___CLEAR_SSI>:
    41000458:	00200293          	li	x5,2
    4100045c:	3442b073          	csrc	mip,x5
    41000460:	30200073          	mret

0000000041000464 <trap_handler_m___CLEAR_MSI>:
    41000464:	00800293          	li	x5,8
    41000468:	3442b073          	csrc	mip,x5
    4100046c:	30200073          	mret

0000000041000470 <trap_handler_m___CLEAR_STI>:
    41000470:	02000293          	li	x5,32
    41000474:	3442b073          	csrc	mip,x5
    41000478:	30200073          	mret

000000004100047c <trap_handler_m___CLEAR_MTI>:
    4100047c:	08000293          	li	x5,128
    41000480:	3442b073          	csrc	mip,x5
    41000484:	30200073          	mret

0000000041000488 <trap_handler_m___CLEAR_SEI>:
    41000488:	20000293          	li	x5,512
    4100048c:	3442b073          	csrc	mip,x5
    41000490:	30200073          	mret

0000000041000494 <trap_handler_m___CLEAR_MEI>:
    41000494:	000012b7          	lui	x5,0x1
    41000498:	8002829b          	addiw	x5,x5,-2048 # 800 <XLEN+0x7c0>
    4100049c:	3442b073          	csrc	mip,x5
    410004a0:	30200073          	mret

00000000410004a4 <trap_handler_m___CLEAR_COI>:
    410004a4:	000022b7          	lui	x5,0x2
    410004a8:	3442b073          	csrc	mip,x5
    410004ac:	30200073          	mret

00000000410004b0 <trap_handler_m__clear_highest_priority_interrupt>:
    410004b0:	344022f3          	csrr	x5,mip
    410004b4:	40500333          	neg	x6,x5
    410004b8:	0062f2b3          	and	x5,x5,x6
    410004bc:	3442b073          	csrc	mip,x5
    410004c0:	30200073          	mret

00000000410004c4 <trap_handler_m__trap_entry>:
    410004c4:	0fc0006f          	j	410005c0 <trap_handler_m__trap_handler>

00000000410004c8 <trap_handler_m__interrupt_vector_table>:
    410004c8:	f91ff06f          	j	41000458 <trap_handler_m___CLEAR_SSI>
    410004cc:	f81ff06f          	j	4100044c <trap_handler_m__invalid_interrupt>
    410004d0:	f95ff06f          	j	41000464 <trap_handler_m___CLEAR_MSI>
    410004d4:	f79ff06f          	j	4100044c <trap_handler_m__invalid_interrupt>
    410004d8:	f99ff06f          	j	41000470 <trap_handler_m___CLEAR_STI>
    410004dc:	f71ff06f          	j	4100044c <trap_handler_m__invalid_interrupt>
    410004e0:	f9dff06f          	j	4100047c <trap_handler_m___CLEAR_MTI>
    410004e4:	f69ff06f          	j	4100044c <trap_handler_m__invalid_interrupt>
    410004e8:	fa1ff06f          	j	41000488 <trap_handler_m___CLEAR_SEI>
    410004ec:	f61ff06f          	j	4100044c <trap_handler_m__invalid_interrupt>
    410004f0:	fa5ff06f          	j	41000494 <trap_handler_m___CLEAR_MEI>
    410004f4:	f59ff06f          	j	4100044c <trap_handler_m__invalid_interrupt>
    410004f8:	fadff06f          	j	410004a4 <trap_handler_m___CLEAR_COI>
    410004fc:	f51ff06f          	j	4100044c <trap_handler_m__invalid_interrupt>
    41000500:	f4dff06f          	j	4100044c <trap_handler_m__invalid_interrupt>
    41000504:	fadff06f          	j	410004b0 <trap_handler_m__clear_highest_priority_interrupt>
    41000508:	fa9ff06f          	j	410004b0 <trap_handler_m__clear_highest_priority_interrupt>
    4100050c:	fa5ff06f          	j	410004b0 <trap_handler_m__clear_highest_priority_interrupt>
    41000510:	fa1ff06f          	j	410004b0 <trap_handler_m__clear_highest_priority_interrupt>
    41000514:	f9dff06f          	j	410004b0 <trap_handler_m__clear_highest_priority_interrupt>
    41000518:	f99ff06f          	j	410004b0 <trap_handler_m__clear_highest_priority_interrupt>
    4100051c:	f95ff06f          	j	410004b0 <trap_handler_m__clear_highest_priority_interrupt>
    41000520:	f91ff06f          	j	410004b0 <trap_handler_m__clear_highest_priority_interrupt>
    41000524:	f8dff06f          	j	410004b0 <trap_handler_m__clear_highest_priority_interrupt>
    41000528:	f89ff06f          	j	410004b0 <trap_handler_m__clear_highest_priority_interrupt>
    4100052c:	f85ff06f          	j	410004b0 <trap_handler_m__clear_highest_priority_interrupt>
    41000530:	f81ff06f          	j	410004b0 <trap_handler_m__clear_highest_priority_interrupt>
    41000534:	f7dff06f          	j	410004b0 <trap_handler_m__clear_highest_priority_interrupt>
    41000538:	f79ff06f          	j	410004b0 <trap_handler_m__clear_highest_priority_interrupt>
    4100053c:	f75ff06f          	j	410004b0 <trap_handler_m__clear_highest_priority_interrupt>
    41000540:	f71ff06f          	j	410004b0 <trap_handler_m__clear_highest_priority_interrupt>
    41000544:	f6dff06f          	j	410004b0 <trap_handler_m__clear_highest_priority_interrupt>
    41000548:	f69ff06f          	j	410004b0 <trap_handler_m__clear_highest_priority_interrupt>
    4100054c:	f65ff06f          	j	410004b0 <trap_handler_m__clear_highest_priority_interrupt>
    41000550:	f61ff06f          	j	410004b0 <trap_handler_m__clear_highest_priority_interrupt>
    41000554:	f5dff06f          	j	410004b0 <trap_handler_m__clear_highest_priority_interrupt>
    41000558:	f59ff06f          	j	410004b0 <trap_handler_m__clear_highest_priority_interrupt>
    4100055c:	f55ff06f          	j	410004b0 <trap_handler_m__clear_highest_priority_interrupt>
    41000560:	f51ff06f          	j	410004b0 <trap_handler_m__clear_highest_priority_interrupt>
    41000564:	f4dff06f          	j	410004b0 <trap_handler_m__clear_highest_priority_interrupt>
    41000568:	f49ff06f          	j	410004b0 <trap_handler_m__clear_highest_priority_interrupt>
    4100056c:	f45ff06f          	j	410004b0 <trap_handler_m__clear_highest_priority_interrupt>
    41000570:	f41ff06f          	j	410004b0 <trap_handler_m__clear_highest_priority_interrupt>
    41000574:	f3dff06f          	j	410004b0 <trap_handler_m__clear_highest_priority_interrupt>
    41000578:	f39ff06f          	j	410004b0 <trap_handler_m__clear_highest_priority_interrupt>
    4100057c:	f35ff06f          	j	410004b0 <trap_handler_m__clear_highest_priority_interrupt>
    41000580:	f31ff06f          	j	410004b0 <trap_handler_m__clear_highest_priority_interrupt>
    41000584:	f2dff06f          	j	410004b0 <trap_handler_m__clear_highest_priority_interrupt>
    41000588:	f29ff06f          	j	410004b0 <trap_handler_m__clear_highest_priority_interrupt>
    4100058c:	f25ff06f          	j	410004b0 <trap_handler_m__clear_highest_priority_interrupt>
    41000590:	f21ff06f          	j	410004b0 <trap_handler_m__clear_highest_priority_interrupt>
    41000594:	f1dff06f          	j	410004b0 <trap_handler_m__clear_highest_priority_interrupt>
    41000598:	f19ff06f          	j	410004b0 <trap_handler_m__clear_highest_priority_interrupt>
    4100059c:	f15ff06f          	j	410004b0 <trap_handler_m__clear_highest_priority_interrupt>
    410005a0:	f11ff06f          	j	410004b0 <trap_handler_m__clear_highest_priority_interrupt>
    410005a4:	f0dff06f          	j	410004b0 <trap_handler_m__clear_highest_priority_interrupt>
    410005a8:	f09ff06f          	j	410004b0 <trap_handler_m__clear_highest_priority_interrupt>
    410005ac:	f05ff06f          	j	410004b0 <trap_handler_m__clear_highest_priority_interrupt>
    410005b0:	f01ff06f          	j	410004b0 <trap_handler_m__clear_highest_priority_interrupt>
    410005b4:	efdff06f          	j	410004b0 <trap_handler_m__clear_highest_priority_interrupt>
    410005b8:	ef9ff06f          	j	410004b0 <trap_handler_m__clear_highest_priority_interrupt>
    410005bc:	ef5ff06f          	j	410004b0 <trap_handler_m__clear_highest_priority_interrupt>

00000000410005c0 <trap_handler_m__trap_handler>:
    410005c0:	342022f3          	csrr	x5,mcause
    410005c4:	fff0031b          	addiw	x6,x0,-1
    410005c8:	03f31313          	slli	x6,x6,0x3f
    410005cc:	00537333          	and	x6,x6,x5
    410005d0:	02030263          	beqz	x6,410005f4 <trap_handler_m__exception_path>

00000000410005d4 <trap_handler_m__interrupt_handler>:
    410005d4:	fff0031b          	addiw	x6,x0,-1
    410005d8:	03f31313          	slli	x6,x6,0x3f
    410005dc:	0062c2b3          	xor	x5,x5,x6
    410005e0:	00000317          	auipc	x6,0x0
    410005e4:	ee430313          	addi	x6,x6,-284 # 410004c4 <trap_handler_m__trap_entry>
    410005e8:	00229293          	slli	x5,x5,0x2
    410005ec:	005302b3          	add	x5,x6,x5
    410005f0:	00028067          	jr	x5 # 2000 <pma_region_1_size+0x1000>

00000000410005f4 <trap_handler_m__exception_path>:
    410005f4:	34021273          	csrrw	x4,mscratch,x4
    410005f8:	00000297          	auipc	x5,0x0
    410005fc:	10828293          	addi	x5,x5,264 # 41000700 <trap_handler_m__trap_panic>
    41000600:	30529073          	csrw	mtvec,x5
    41000604:	0040006f          	j	41000608 <trap_handler_m__excp_entry>

0000000041000608 <trap_handler_m__excp_entry>:
    41000608:	34202373          	csrr	x6,mcause
    4100060c:	00800293          	li	x5,8
    41000610:	00534863          	blt	x6,x5,41000620 <trap_handler_m__check_exception_label>
    41000614:	00b00293          	li	x5,11
    41000618:	0062c463          	blt	x5,x6,41000620 <trap_handler_m__check_exception_label>
    4100061c:	a9dff06f          	j	410000b8 <syscalls__syscall_check_schedule_next_test>

0000000041000620 <trap_handler_m__check_exception_label>:
    41000620:	04623c23          	sd	x6,88(x4) # 58 <XLEN+0x18>
    41000624:	341022f3          	csrr	x5,mepc
    41000628:	02523423          	sd	x5,40(x4) # 28 <SECURE_ACCESS_PROBABILITY+0xa>
    4100062c:	01820283          	lb	x5,24(x4) # 18 <STORE_GUEST_PAGE_FAULT+0x1>
    41000630:	00029863          	bnez	x5,41000640 <trap_handler_m__check_excp>
    41000634:	00128293          	addi	x5,x5,1
    41000638:	00520c23          	sb	x5,24(x4) # 18 <STORE_GUEST_PAGE_FAULT+0x1>
    4100063c:	0980006f          	j	410006d4 <trap_handler_m__ecall_from_machine>

0000000041000640 <trap_handler_m__check_excp>:
    41000640:	06823283          	ld	x5,104(x4) # 68 <XLEN+0x28>
    41000644:	06023423          	sd	x0,104(x4) # 68 <XLEN+0x28>
    41000648:	00028663          	beqz	x5,41000654 <trap_handler_m__skip_mode_check>
    4100064c:	00100393          	li	x7,1
    41000650:	0e729463          	bne	x5,x7,41000738 <test_failed>

0000000041000654 <trap_handler_m__skip_mode_check>:
    41000654:	05023283          	ld	x5,80(x4) # 50 <XLEN+0x10>
    41000658:	04023823          	sd	x0,80(x4) # 50 <XLEN+0x10>
    4100065c:	0c531e63          	bne	x6,x5,41000738 <test_failed>
    41000660:	03823283          	ld	x5,56(x4) # 38 <SECURE_ACCESS_PROBABILITY+0x1a>
    41000664:	02023c23          	sd	x0,56(x4) # 38 <SECURE_ACCESS_PROBABILITY+0x1a>
    41000668:	06029463          	bnez	x5,410006d0 <trap_handler_m__skip_gva_check>
    4100066c:	02023303          	ld	x6,32(x4) # 20 <SECURE_ACCESS_PROBABILITY+0x2>
    41000670:	02023023          	sd	x0,32(x4) # 20 <SECURE_ACCESS_PROBABILITY+0x2>
    41000674:	02823283          	ld	x5,40(x4) # 28 <SECURE_ACCESS_PROBABILITY+0xa>
    41000678:	02023423          	sd	x0,40(x4) # 28 <SECURE_ACCESS_PROBABILITY+0xa>
    4100067c:	0a531e63          	bne	x6,x5,41000738 <test_failed>
    41000680:	04023283          	ld	x5,64(x4) # 40 <XLEN>
    41000684:	04023023          	sd	x0,64(x4) # 40 <XLEN>
    41000688:	00028663          	beqz	x5,41000694 <trap_handler_m__skip_nonzero_tval_check>

000000004100068c <trap_handler_m__nonzero_tval_check>:
    4100068c:	34302373          	csrr	x6,mtval
    41000690:	0a531463          	bne	x6,x5,41000738 <test_failed>

0000000041000694 <trap_handler_m__skip_nonzero_tval_check>:
    41000694:	04823283          	ld	x5,72(x4) # 48 <XLEN+0x8>
    41000698:	04023423          	sd	x0,72(x4) # 48 <XLEN+0x8>
    4100069c:	00028663          	beqz	x5,410006a8 <trap_handler_m__skip_nonzero_htval_check>

00000000410006a0 <trap_handler_m__nonzero_htval_check>:
    410006a0:	34b02373          	csrr	x6,0x34b
    410006a4:	08531a63          	bne	x6,x5,41000738 <test_failed>

00000000410006a8 <trap_handler_m__skip_nonzero_htval_check>:
    410006a8:	06023283          	ld	x5,96(x4) # 60 <XLEN+0x20>
    410006ac:	06023023          	sd	x0,96(x4) # 60 <XLEN+0x20>
    410006b0:	02028063          	beqz	x5,410006d0 <trap_handler_m__skip_gva_check>

00000000410006b4 <trap_handler_m__gva_check>:
    410006b4:	30002373          	csrr	x6,mstatus
    410006b8:	02635313          	srli	x6,x6,0x26
    410006bc:	00137313          	andi	x6,x6,1
    410006c0:	06030c63          	beqz	x6,41000738 <test_failed>
    410006c4:	0010031b          	addiw	x6,x0,1
    410006c8:	02631313          	slli	x6,x6,0x26
    410006cc:	30033073          	csrc	mstatus,x6

00000000410006d0 <trap_handler_m__skip_gva_check>:
    410006d0:	0040006f          	j	410006d4 <trap_handler_m__ecall_from_machine>

00000000410006d4 <trap_handler_m__ecall_from_machine>:
    410006d4:	03023283          	ld	x5,48(x4) # 30 <SECURE_ACCESS_PROBABILITY+0x12>
    410006d8:	02023823          	sd	x0,48(x4) # 30 <SECURE_ACCESS_PROBABILITY+0x12>
    410006dc:	07023303          	ld	x6,112(x4) # 70 <XLEN+0x30>
    410006e0:	06023823          	sd	x0,112(x4) # 70 <XLEN+0x30>
    410006e4:	00031463          	bnez	x6,410006ec <trap_handler_m__skip_xepc_write>
    410006e8:	34129073          	csrw	mepc,x5

00000000410006ec <trap_handler_m__skip_xepc_write>:
    410006ec:	00000317          	auipc	x6,0x0
    410006f0:	dd830313          	addi	x6,x6,-552 # 410004c4 <trap_handler_m__trap_entry>
    410006f4:	30531073          	csrw	mtvec,x6
    410006f8:	34021273          	csrrw	x4,mscratch,x4
    410006fc:	30200073          	mret

0000000041000700 <trap_handler_m__trap_panic>:
    41000700:	00000193          	li	x3,0
    41000704:	2b40006f          	j	410009b8 <eot__end_test>

0000000041000708 <enter_scheduler>:
    41000708:	0002f337          	lui	x6,0x2f
    4100070c:	ab73031b          	addiw	x6,x6,-1353 # 2eab7 <_all_interrupts+0x2c00d>
    41000710:	00e31313          	slli	x6,x6,0xe
    41000714:	0de30313          	addi	x6,x6,222
    41000718:	02628063          	beq	x5,x6,41000738 <test_failed>
    4100071c:	00000513          	li	x10,0
    41000720:	030000ef          	jal	41000750 <rvcp_print_test_result>
    41000724:	3180006f          	j	41000a3c <scheduler__dispatch>

0000000041000728 <test_passed>:
    41000728:	34021273          	csrrw	x4,mscratch,x4
    4100072c:	00000513          	li	x10,0
    41000730:	020000ef          	jal	41000750 <rvcp_print_test_result>
    41000734:	3080006f          	j	41000a3c <scheduler__dispatch>

0000000041000738 <test_failed>:
    41000738:	34021273          	csrrw	x4,mscratch,x4
    4100073c:	00300193          	li	x3,3
    41000740:	2780006f          	j	410009b8 <eot__end_test>

0000000041000744 <os_end_test>:
    41000744:	34021273          	csrrw	x4,mscratch,x4
    41000748:	00100193          	li	x3,1
    4100074c:	26c0006f          	j	410009b8 <eot__end_test>

0000000041000750 <rvcp_print_test_result>:
    41000750:	00050e13          	mv	x28,x10
    41000754:	18823283          	ld	x5,392(x4) # 188 <XLEN+0x148>
    41000758:	0010031b          	addiw	x6,x0,1
    4100075c:	02031313          	slli	x6,x6,0x20
    41000760:	ffe30313          	addi	x6,x6,-2
    41000764:	1c628063          	beq	x5,x6,41000924 <rvcp_print_test_result+0x1d4>
    41000768:	0010031b          	addiw	x6,x0,1
    4100076c:	02031313          	slli	x6,x6,0x20
    41000770:	fff30313          	addi	x6,x6,-1
    41000774:	1a628863          	beq	x5,x6,41000924 <rvcp_print_test_result+0x1d4>
    41000778:	1a02c663          	bltz	x5,41000924 <rvcp_print_test_result+0x1d4>
    4100077c:	00000317          	auipc	x6,0x0
    41000780:	41830313          	addi	x6,x6,1048 # 41000b94 <dtest_descriptor_table>
    41000784:	00329393          	slli	x7,x5,0x3
    41000788:	00730333          	add	x6,x6,x7
    4100078c:	00033e83          	ld	x29,0(x6)
    41000790:	44db4f37          	lui	x30,0x44db4
    41000794:	030f0f1b          	addiw	x30,x30,48 # 44db4030 <rvcp_prefix_str>
    41000798:	000f4283          	lbu	x5,0(x30)
    4100079c:	02028663          	beqz	x5,410007c8 <rvcp_print_test_result+0x78>
    410007a0:	1010031b          	addiw	x6,x0,257
    410007a4:	03031313          	slli	x6,x6,0x30
    410007a8:	005362b3          	or	x5,x6,x5
    410007ac:	00040317          	auipc	x6,0x40
    410007b0:	85430313          	addi	x6,x6,-1964 # 41040000 <tohost>
    410007b4:	00033383          	ld	x7,0(x6)
    410007b8:	fe039ee3          	bnez	x7,410007b4 <rvcp_print_test_result+0x64>
    410007bc:	00533023          	sd	x5,0(x6)
    410007c0:	001f0f13          	addi	x30,x30,1
    410007c4:	fd5ff06f          	j	41000798 <rvcp_print_test_result+0x48>
    410007c8:	44db4f37          	lui	x30,0x44db4
    410007cc:	041f0f1b          	addiw	x30,x30,65 # 44db4041 <rvcp_testname_str>
    410007d0:	000f4283          	lbu	x5,0(x30)
    410007d4:	02028663          	beqz	x5,41000800 <rvcp_print_test_result+0xb0>
    410007d8:	1010031b          	addiw	x6,x0,257
    410007dc:	03031313          	slli	x6,x6,0x30
    410007e0:	005362b3          	or	x5,x6,x5
    410007e4:	00040317          	auipc	x6,0x40
    410007e8:	81c30313          	addi	x6,x6,-2020 # 41040000 <tohost>
    410007ec:	00033383          	ld	x7,0(x6)
    410007f0:	fe039ee3          	bnez	x7,410007ec <rvcp_print_test_result+0x9c>
    410007f4:	00533023          	sd	x5,0(x6)
    410007f8:	001f0f13          	addi	x30,x30,1
    410007fc:	fd5ff06f          	j	410007d0 <rvcp_print_test_result+0x80>
    41000800:	44db4f37          	lui	x30,0x44db4
    41000804:	05df0f1b          	addiw	x30,x30,93 # 44db405d <rvcp_space_str>
    41000808:	000f4283          	lbu	x5,0(x30)
    4100080c:	02028663          	beqz	x5,41000838 <rvcp_print_test_result+0xe8>
    41000810:	1010031b          	addiw	x6,x0,257
    41000814:	03031313          	slli	x6,x6,0x30
    41000818:	005362b3          	or	x5,x6,x5
    4100081c:	0003f317          	auipc	x6,0x3f
    41000820:	7e430313          	addi	x6,x6,2020 # 41040000 <tohost>
    41000824:	00033383          	ld	x7,0(x6)
    41000828:	fe039ee3          	bnez	x7,41000824 <rvcp_print_test_result+0xd4>
    4100082c:	00533023          	sd	x5,0(x6)
    41000830:	001f0f13          	addi	x30,x30,1
    41000834:	fd5ff06f          	j	41000808 <rvcp_print_test_result+0xb8>
    41000838:	000e8f13          	mv	x30,x29
    4100083c:	000f4283          	lbu	x5,0(x30)
    41000840:	02028663          	beqz	x5,4100086c <rvcp_print_test_result+0x11c>
    41000844:	1010031b          	addiw	x6,x0,257
    41000848:	03031313          	slli	x6,x6,0x30
    4100084c:	005362b3          	or	x5,x6,x5
    41000850:	0003f317          	auipc	x6,0x3f
    41000854:	7b030313          	addi	x6,x6,1968 # 41040000 <tohost>
    41000858:	00033383          	ld	x7,0(x6)
    4100085c:	fe039ee3          	bnez	x7,41000858 <rvcp_print_test_result+0x108>
    41000860:	00533023          	sd	x5,0(x6)
    41000864:	001f0f13          	addi	x30,x30,1
    41000868:	fd5ff06f          	j	4100083c <rvcp_print_test_result+0xec>
    4100086c:	44db4f37          	lui	x30,0x44db4
    41000870:	05df0f1b          	addiw	x30,x30,93 # 44db405d <rvcp_space_str>
    41000874:	000f4283          	lbu	x5,0(x30)
    41000878:	02028663          	beqz	x5,410008a4 <rvcp_print_test_result+0x154>
    4100087c:	1010031b          	addiw	x6,x0,257
    41000880:	03031313          	slli	x6,x6,0x30
    41000884:	005362b3          	or	x5,x6,x5
    41000888:	0003f317          	auipc	x6,0x3f
    4100088c:	77830313          	addi	x6,x6,1912 # 41040000 <tohost>
    41000890:	00033383          	ld	x7,0(x6)
    41000894:	fe039ee3          	bnez	x7,41000890 <rvcp_print_test_result+0x140>
    41000898:	00533023          	sd	x5,0(x6)
    4100089c:	001f0f13          	addi	x30,x30,1
    410008a0:	fd5ff06f          	j	41000874 <rvcp_print_test_result+0x124>
    410008a4:	000e1863          	bnez	x28,410008b4 <rvcp_print_test_result+0x164>
    410008a8:	44db4f37          	lui	x30,0x44db4
    410008ac:	04ff0f1b          	addiw	x30,x30,79 # 44db404f <rvcp_passed_str>
    410008b0:	00c0006f          	j	410008bc <rvcp_print_test_result+0x16c>
    410008b4:	44db4f37          	lui	x30,0x44db4
    410008b8:	056f0f1b          	addiw	x30,x30,86 # 44db4056 <rvcp_failed_str>
    410008bc:	000f4283          	lbu	x5,0(x30)
    410008c0:	02028663          	beqz	x5,410008ec <rvcp_print_test_result+0x19c>
    410008c4:	1010031b          	addiw	x6,x0,257
    410008c8:	03031313          	slli	x6,x6,0x30
    410008cc:	005362b3          	or	x5,x6,x5
    410008d0:	0003f317          	auipc	x6,0x3f
    410008d4:	73030313          	addi	x6,x6,1840 # 41040000 <tohost>
    410008d8:	00033383          	ld	x7,0(x6)
    410008dc:	fe039ee3          	bnez	x7,410008d8 <rvcp_print_test_result+0x188>
    410008e0:	00533023          	sd	x5,0(x6)
    410008e4:	001f0f13          	addi	x30,x30,1
    410008e8:	fd5ff06f          	j	410008bc <rvcp_print_test_result+0x16c>
    410008ec:	44db4f37          	lui	x30,0x44db4
    410008f0:	05ff0f1b          	addiw	x30,x30,95 # 44db405f <rvcp_newline_str>
    410008f4:	000f4283          	lbu	x5,0(x30)
    410008f8:	02028663          	beqz	x5,41000924 <rvcp_print_test_result+0x1d4>
    410008fc:	1010031b          	addiw	x6,x0,257
    41000900:	03031313          	slli	x6,x6,0x30
    41000904:	005362b3          	or	x5,x6,x5
    41000908:	0003f317          	auipc	x6,0x3f
    4100090c:	6f830313          	addi	x6,x6,1784 # 41040000 <tohost>
    41000910:	00033383          	ld	x7,0(x6)
    41000914:	fe039ee3          	bnez	x7,41000910 <rvcp_print_test_result+0x1c0>
    41000918:	00533023          	sd	x5,0(x6)
    4100091c:	001f0f13          	addi	x30,x30,1
    41000920:	fd5ff06f          	j	410008f4 <rvcp_print_test_result+0x1a4>
    41000924:	00008067          	ret

0000000041000928 <os_rng_orig>:
    41000928:	f14023f3          	csrr	x7,mhartid
    4100092c:	00068313          	mv	x6,x13
    41000930:	026383b3          	mul	x7,x7,x6
    41000934:	00058313          	mv	x6,x11
    41000938:	00730333          	add	x6,x6,x7
    4100093c:	00033283          	ld	x5,0(x6)
    41000940:	01529313          	slli	x6,x5,0x15
    41000944:	0062c2b3          	xor	x5,x5,x6
    41000948:	0232d313          	srli	x6,x5,0x23
    4100094c:	0062c2b3          	xor	x5,x5,x6
    41000950:	00429313          	slli	x6,x5,0x4
    41000954:	0062c2b3          	xor	x5,x5,x6
    41000958:	00058313          	mv	x6,x11
    4100095c:	00730333          	add	x6,x6,x7
    41000960:	00533023          	sd	x5,0(x6)
    41000964:	00060313          	mv	x6,x12
    41000968:	0262f2b3          	remu	x5,x5,x6
    4100096c:	00028513          	mv	x10,x5
    41000970:	00008067          	ret
    41000974:	02a00513          	li	x10,42
    41000978:	001965b7          	lui	x11,0x196
    4100097c:	60d5859b          	addiw	x11,x11,1549 # 19660d <pma_region_0_size+0x15660d>
    41000980:	3c6ef637          	lui	x12,0x3c6ef
    41000984:	35f6061b          	addiw	x12,x12,863 # 3c6ef35f <pma_region_2_size+0x386ef35f>
    41000988:	02200693          	li	x13,34
    4100098c:	02b50533          	mul	x10,x10,x11
    41000990:	00c50533          	add	x10,x10,x12
    41000994:	02d56533          	rem	x10,x10,x13
    41000998:	00b00593          	li	x11,11
    4100099c:	02b56533          	rem	x10,x10,x11
    410009a0:	00008067          	ret
    410009a4:	0000                	.insn	2, 0x0000
	...

00000000410009a8 <tohost_mutex>:
	...

00000000410009b0 <tohost_addr_mem>:
    410009b0:	0000                	.insn	2, 0x0000
    410009b2:	4104                	.insn	2, 0x4104
    410009b4:	0000                	.insn	2, 0x0000
	...

00000000410009b8 <eot__end_test>:
    410009b8:	00100293          	li	x5,1
    410009bc:	00328463          	beq	x5,x3,410009c4 <eot__passed>
    410009c0:	01c0006f          	j	410009dc <eot__failed>

00000000410009c4 <eot__passed>:
    410009c4:	0ff0000f          	fence
    410009c8:	00000297          	auipc	x5,0x0
    410009cc:	fe82b283          	ld	x5,-24(x5) # 410009b0 <tohost_addr_mem>
    410009d0:	00100313          	li	x6,1
    410009d4:	0062a023          	sw	x6,0(x5)
    410009d8:	0240006f          	j	410009fc <eot__halt>

00000000410009dc <eot__failed>:
    410009dc:	00100513          	li	x10,1
    410009e0:	d71ff0ef          	jal	41000750 <rvcp_print_test_result>
    410009e4:	0ff0000f          	fence
    410009e8:	00000297          	auipc	x5,0x0
    410009ec:	fc82b283          	ld	x5,-56(x5) # 410009b0 <tohost_addr_mem>
    410009f0:	00300313          	li	x6,3
    410009f4:	0062a023          	sw	x6,0(x5)
    410009f8:	0040006f          	j	410009fc <eot__halt>

00000000410009fc <eot__halt>:
    410009fc:	10500073          	wfi
    41000a00:	ffdff06f          	j	410009fc <eot__halt>

0000000041000a04 <scheduler__init>:
    41000a04:	00000297          	auipc	x5,0x0
    41000a08:	0ec28293          	addi	x5,x5,236 # 41000af0 <scheduler__panic>
    41000a0c:	305292f3          	csrrw	x5,mtvec,x5
    41000a10:	18523023          	sd	x5,384(x4) # 180 <XLEN+0x140>
    41000a14:	01200293          	li	x5,18
    41000a18:	18523823          	sd	x5,400(x4) # 190 <XLEN+0x150>
    41000a1c:	0010029b          	addiw	x5,x0,1
    41000a20:	02029293          	slli	x5,x5,0x20
    41000a24:	ffe28293          	addi	x5,x5,-2
    41000a28:	18523423          	sd	x5,392(x4) # 188 <XLEN+0x148>
    41000a2c:	00000317          	auipc	x6,0x0
    41000a30:	52030313          	addi	x6,x6,1312 # 41000f4c <scheduler__test_setup_ptr>
    41000a34:	00033303          	ld	x6,0(x6)
    41000a38:	08c0006f          	j	41000ac4 <scheduler__execute_test>

0000000041000a3c <scheduler__dispatch>:
    41000a3c:	300472f3          	csrrci	x5,mstatus,8
    41000a40:	0082f293          	andi	x5,x5,8
    41000a44:	00429293          	slli	x5,x5,0x4
    41000a48:	3002a073          	csrs	mstatus,x5
    41000a4c:	00000297          	auipc	x5,0x0
    41000a50:	0a428293          	addi	x5,x5,164 # 41000af0 <scheduler__panic>
    41000a54:	305292f3          	csrrw	x5,mtvec,x5
    41000a58:	18523023          	sd	x5,384(x4) # 180 <XLEN+0x140>

0000000041000a5c <scheduler__csr_read_randomization>:
    41000a5c:	f15022f3          	csrr	x5,0xf15
    41000a60:	142022f3          	csrr	x5,scause
    41000a64:	b02022f3          	csrr	x5,minstret
    41000a68:	144022f3          	csrr	x5,sip
    41000a6c:	106022f3          	csrr	x5,scounteren
    41000a70:	30a022f3          	csrr	x5,0x30a
    41000a74:	342022f3          	csrr	x5,mcause
    41000a78:	142022f3          	csrr	x5,scause
    41000a7c:	f14022f3          	csrr	x5,mhartid
    41000a80:	144022f3          	csrr	x5,sip
    41000a84:	141022f3          	csrr	x5,sepc

0000000041000a88 <scheduler__load_num_runs>:
    41000a88:	19023303          	ld	x6,400(x4) # 190 <XLEN+0x150>
    41000a8c:	04030e63          	beqz	x6,41000ae8 <scheduler__finished>

0000000041000a90 <scheduler__decrement_num_runs>:
    41000a90:	fff30393          	addi	x7,x6,-1
    41000a94:	18723823          	sd	x7,400(x4) # 190 <XLEN+0x150>
    41000a98:	00000e17          	auipc	x28,0x0
    41000a9c:	468e0e13          	addi	x28,x28,1128 # 41000f00 <dtest_index_map>
    41000aa0:	00239e93          	slli	x29,x7,0x2
    41000aa4:	01de0e33          	add	x28,x28,x29
    41000aa8:	000e2e03          	lw	x28,0(x28)
    41000aac:	19c23423          	sd	x28,392(x4) # 188 <XLEN+0x148>

0000000041000ab0 <scheduler__calc_test_pointer>:
    41000ab0:	00339293          	slli	x5,x7,0x3

0000000041000ab4 <scheduler__load_test_addr>:
    41000ab4:	00000317          	auipc	x6,0x0
    41000ab8:	05030313          	addi	x6,x6,80 # 41000b04 <os_test_sequence>
    41000abc:	006282b3          	add	x5,x5,x6
    41000ac0:	0002b303          	ld	x6,0(x5)

0000000041000ac4 <scheduler__execute_test>:
    41000ac4:	18023283          	ld	x5,384(x4) # 180 <XLEN+0x140>
    41000ac8:	30529073          	csrw	mtvec,x5
    41000acc:	34021273          	csrrw	x4,mscratch,x4
    41000ad0:	00000213          	li	x4,0
    41000ad4:	300022f3          	csrr	x5,mstatus
    41000ad8:	0802f293          	andi	x5,x5,128
    41000adc:	0042d293          	srli	x5,x5,0x4
    41000ae0:	3002a073          	csrs	mstatus,x5
    41000ae4:	00030067          	jr	x6

0000000041000ae8 <scheduler__finished>:
    41000ae8:	00100193          	li	x3,1
    41000aec:	ecdff06f          	j	410009b8 <eot__end_test>

0000000041000af0 <scheduler__panic>:
    41000af0:	00000193          	li	x3,0
    41000af4:	ec5ff06f          	j	410009b8 <eot__end_test>
    41000af8:	0000                	.insn	2, 0x0000
	...

0000000041000afc <num_runs>:
    41000afc:	0012                	.insn	2, 0x0012
    41000afe:	0000                	.insn	2, 0x0000
    41000b00:	0000                	.insn	2, 0x0000
	...

0000000041000b04 <os_test_sequence>:
    41000b04:	668c                	.insn	2, 0x668c
    41000b06:	4101                	.insn	2, 0x4101
    41000b08:	0000                	.insn	2, 0x0000
    41000b0a:	0000                	.insn	2, 0x0000
    41000b0c:	648c                	.insn	2, 0x648c
    41000b0e:	4101                	.insn	2, 0x4101
    41000b10:	0000                	.insn	2, 0x0000
    41000b12:	0000                	.insn	2, 0x0000
    41000b14:	63ac                	.insn	2, 0x63ac
    41000b16:	4101                	.insn	2, 0x4101
    41000b18:	0000                	.insn	2, 0x0000
    41000b1a:	0000                	.insn	2, 0x0000
    41000b1c:	5690                	.insn	2, 0x5690
    41000b1e:	4101                	.insn	2, 0x4101
    41000b20:	0000                	.insn	2, 0x0000
    41000b22:	0000                	.insn	2, 0x0000
    41000b24:	6518                	.insn	2, 0x6518
    41000b26:	4101                	.insn	2, 0x4101
    41000b28:	0000                	.insn	2, 0x0000
    41000b2a:	0000                	.insn	2, 0x0000
    41000b2c:	51d0                	.insn	2, 0x51d0
    41000b2e:	4101                	.insn	2, 0x4101
    41000b30:	0000                	.insn	2, 0x0000
    41000b32:	0000                	.insn	2, 0x0000
    41000b34:	4130                	.insn	2, 0x4130
    41000b36:	4101                	.insn	2, 0x4101
    41000b38:	0000                	.insn	2, 0x0000
    41000b3a:	0000                	.insn	2, 0x0000
    41000b3c:	5c94                	.insn	2, 0x5c94
    41000b3e:	4101                	.insn	2, 0x4101
    41000b40:	0000                	.insn	2, 0x0000
    41000b42:	0000                	.insn	2, 0x0000
    41000b44:	427c                	.insn	2, 0x427c
    41000b46:	4101                	.insn	2, 0x4101
    41000b48:	0000                	.insn	2, 0x0000
    41000b4a:	0000                	.insn	2, 0x0000
    41000b4c:	60c4                	.insn	2, 0x60c4
    41000b4e:	4101                	.insn	2, 0x4101
    41000b50:	0000                	.insn	2, 0x0000
    41000b52:	0000                	.insn	2, 0x0000
    41000b54:	4798                	.insn	2, 0x4798
    41000b56:	4101                	.insn	2, 0x4101
    41000b58:	0000                	.insn	2, 0x0000
    41000b5a:	0000                	.insn	2, 0x0000
    41000b5c:	61ac                	.insn	2, 0x61ac
    41000b5e:	4101                	.insn	2, 0x4101
    41000b60:	0000                	.insn	2, 0x0000
    41000b62:	0000                	.insn	2, 0x0000
    41000b64:	62a8                	.insn	2, 0x62a8
    41000b66:	4101                	.insn	2, 0x4101
    41000b68:	0000                	.insn	2, 0x0000
    41000b6a:	0000                	.insn	2, 0x0000
    41000b6c:	65bc                	.insn	2, 0x65bc
    41000b6e:	4101                	.insn	2, 0x4101
    41000b70:	0000                	.insn	2, 0x0000
    41000b72:	0000                	.insn	2, 0x0000
    41000b74:	4c20                	.insn	2, 0x4c20
    41000b76:	4101                	.insn	2, 0x4101
    41000b78:	0000                	.insn	2, 0x0000
    41000b7a:	0000                	.insn	2, 0x0000
    41000b7c:	6618                	.insn	2, 0x6618
    41000b7e:	4101                	.insn	2, 0x4101
    41000b80:	0000                	.insn	2, 0x0000
    41000b82:	0000                	.insn	2, 0x0000
    41000b84:	4204                	.insn	2, 0x4204
    41000b86:	4101                	.insn	2, 0x4101
    41000b88:	0000                	.insn	2, 0x0000
    41000b8a:	0000                	.insn	2, 0x0000
    41000b8c:	4198                	.insn	2, 0x4198
    41000b8e:	4101                	.insn	2, 0x4101
    41000b90:	0000                	.insn	2, 0x0000
	...

0000000041000b94 <dtest_descriptor_table>:
    41000b94:	0c1c                	.insn	2, 0x0c1c
    41000b96:	4100                	.insn	2, 0x4100
    41000b98:	0000                	.insn	2, 0x0000
    41000b9a:	0000                	.insn	2, 0x0000
    41000b9c:	0c40                	.insn	2, 0x0c40
    41000b9e:	4100                	.insn	2, 0x4100
    41000ba0:	0000                	.insn	2, 0x0000
    41000ba2:	0000                	.insn	2, 0x0000
    41000ba4:	0c6a                	.insn	2, 0x0c6a
    41000ba6:	4100                	.insn	2, 0x4100
    41000ba8:	0000                	.insn	2, 0x0000
    41000baa:	0000                	.insn	2, 0x0000
    41000bac:	0c95                	.insn	2, 0x0c95
    41000bae:	4100                	.insn	2, 0x4100
    41000bb0:	0000                	.insn	2, 0x0000
    41000bb2:	0000                	.insn	2, 0x0000
    41000bb4:	0cb8                	.insn	2, 0x0cb8
    41000bb6:	4100                	.insn	2, 0x4100
    41000bb8:	0000                	.insn	2, 0x0000
    41000bba:	0000                	.insn	2, 0x0000
    41000bbc:	0cdd                	.insn	2, 0x0cdd
    41000bbe:	4100                	.insn	2, 0x4100
    41000bc0:	0000                	.insn	2, 0x0000
    41000bc2:	0000                	.insn	2, 0x0000
    41000bc4:	0d09                	.insn	2, 0x0d09
    41000bc6:	4100                	.insn	2, 0x4100
    41000bc8:	0000                	.insn	2, 0x0000
    41000bca:	0000                	.insn	2, 0x0000
    41000bcc:	41000d37          	lui	x26,0x41000
    41000bd0:	0000                	.insn	2, 0x0000
    41000bd2:	0000                	.insn	2, 0x0000
    41000bd4:	0d65                	.insn	2, 0x0d65
    41000bd6:	4100                	.insn	2, 0x4100
    41000bd8:	0000                	.insn	2, 0x0000
    41000bda:	0000                	.insn	2, 0x0000
    41000bdc:	0d95                	.insn	2, 0x0d95
    41000bde:	4100                	.insn	2, 0x4100
    41000be0:	0000                	.insn	2, 0x0000
    41000be2:	0000                	.insn	2, 0x0000
    41000be4:	0dc4                	.insn	2, 0x0dc4
    41000be6:	4100                	.insn	2, 0x4100
    41000be8:	0000                	.insn	2, 0x0000
    41000bea:	0000                	.insn	2, 0x0000
    41000bec:	0df5                	.insn	2, 0x0df5
    41000bee:	4100                	.insn	2, 0x4100
    41000bf0:	0000                	.insn	2, 0x0000
    41000bf2:	0000                	.insn	2, 0x0000
    41000bf4:	0e2e                	.insn	2, 0x0e2e
    41000bf6:	4100                	.insn	2, 0x4100
    41000bf8:	0000                	.insn	2, 0x0000
    41000bfa:	0000                	.insn	2, 0x0000
    41000bfc:	0e5d                	.insn	2, 0x0e5d
    41000bfe:	4100                	.insn	2, 0x4100
    41000c00:	0000                	.insn	2, 0x0000
    41000c02:	0000                	.insn	2, 0x0000
    41000c04:	41000e83          	lb	x29,1040(x0) # 410 <XLEN+0x3d0>
    41000c08:	0000                	.insn	2, 0x0000
    41000c0a:	0000                	.insn	2, 0x0000
    41000c0c:	0ea8                	.insn	2, 0x0ea8
    41000c0e:	4100                	.insn	2, 0x4100
    41000c10:	0000                	.insn	2, 0x0000
    41000c12:	0000                	.insn	2, 0x0000
    41000c14:	41000ed3          	.insn	4, 0x41000ed3
    41000c18:	0000                	.insn	2, 0x0000
	...

0000000041000c1c <dtest_name_0>:
    41000c1c:	5f444953          	.insn	4, 0x5f444953
    41000c20:	4f435353          	.insn	4, 0x4f435353
    41000c24:	5046                	.insn	2, 0x5046
    41000c26:	464d                	.insn	2, 0x464d
    41000c28:	305f 4132 4d5f      	.insn	6, 0x4d5f4132305f
    41000c2e:	4e554f43          	.insn	4, 0x4e554f43
    41000c32:	4954                	.insn	2, 0x4954
    41000c34:	484e                	.insn	2, 0x484e
    41000c36:	4249                	.insn	2, 0x4249
    41000c38:	5449                	.insn	2, 0x5449
    41000c3a:	575f 5241 004c      	.insn	6, 0x004c5241575f

0000000041000c40 <dtest_name_1>:
    41000c40:	5f444953          	.insn	4, 0x5f444953
    41000c44:	4f435353          	.insn	4, 0x4f435353
    41000c48:	5046                	.insn	2, 0x5046
    41000c4a:	464d                	.insn	2, 0x464d
    41000c4c:	305f 4232 4d5f      	.insn	6, 0x4d5f4232305f
    41000c52:	5048                	.insn	2, 0x5048
    41000c54:	454d                	.insn	2, 0x454d
    41000c56:	4556                	.insn	2, 0x4556
    41000c58:	544e                	.insn	2, 0x544e
    41000c5a:	45525f33          	.insn	4, 0x45525f33
    41000c5e:	56524553          	.insn	4, 0x56524553
    41000c62:	4445                	.insn	2, 0x4445
    41000c64:	425f 5449 0053      	.insn	6, 0x00535449425f

0000000041000c6a <dtest_name_2>:
    41000c6a:	5f444953          	.insn	4, 0x5f444953
    41000c6e:	4f435353          	.insn	4, 0x4f435353
    41000c72:	5046                	.insn	2, 0x5046
    41000c74:	464d                	.insn	2, 0x464d
    41000c76:	305f 4332 4d5f      	.insn	6, 0x4d5f4332305f
    41000c7c:	5048                	.insn	2, 0x5048
    41000c7e:	434d                	.insn	2, 0x434d
    41000c80:	544e554f          	fnmadd.h	f10,f28,f4,f10,unknown
    41000c84:	5245                	.insn	2, 0x5245
    41000c86:	52575f33          	.insn	4, 0x52575f33
    41000c8a:	5449                	.insn	2, 0x5449
    41000c8c:	5f45                	.insn	2, 0x5f45
    41000c8e:	43495453          	.insn	4, 0x43495453
    41000c92:	          	fnmsub.d	f6,f0,f16,f10,unknown

0000000041000c95 <dtest_name_3>:
    41000c95:	5f444953          	.insn	4, 0x5f444953
    41000c99:	4f435353          	.insn	4, 0x4f435353
    41000c9d:	5046                	.insn	2, 0x5046
    41000c9f:	464d                	.insn	2, 0x464d
    41000ca1:	305f 4133 4d5f      	.insn	6, 0x4d5f4133305f
    41000ca7:	4e554f43          	.insn	4, 0x4e554f43
    41000cab:	4554                	.insn	2, 0x4554
    41000cad:	4552                	.insn	2, 0x4552
    41000caf:	5f4e                	.insn	2, 0x5f4e
    41000cb1:	434d                	.insn	2, 0x434d
    41000cb3:	4359                	.insn	2, 0x4359
    41000cb5:	454c                	.insn	2, 0x454c
	...

0000000041000cb8 <dtest_name_4>:
    41000cb8:	5f444953          	.insn	4, 0x5f444953
    41000cbc:	4f435353          	.insn	4, 0x4f435353
    41000cc0:	5046                	.insn	2, 0x5046
    41000cc2:	464d                	.insn	2, 0x464d
    41000cc4:	305f 4233 4d5f      	.insn	6, 0x4d5f4233305f
    41000cca:	4e554f43          	.insn	4, 0x4e554f43
    41000cce:	4554                	.insn	2, 0x4554
    41000cd0:	4552                	.insn	2, 0x4552
    41000cd2:	5f4e                	.insn	2, 0x5f4e
    41000cd4:	494d                	.insn	2, 0x494d
    41000cd6:	534e                	.insn	2, 0x534e
    41000cd8:	5254                	.insn	2, 0x5254
    41000cda:	5445                	.insn	2, 0x5445
	...

0000000041000cdd <dtest_name_5>:
    41000cdd:	5f444953          	.insn	4, 0x5f444953
    41000ce1:	4f435353          	.insn	4, 0x4f435353
    41000ce5:	5046                	.insn	2, 0x5046
    41000ce7:	464d                	.insn	2, 0x464d
    41000ce9:	305f 4134 4d5f      	.insn	6, 0x4d5f4134305f
    41000cef:	4e554f43          	.insn	4, 0x4e554f43
    41000cf3:	4954                	.insn	2, 0x4954
    41000cf5:	484e                	.insn	2, 0x484e
    41000cf7:	4249                	.insn	2, 0x4249
    41000cf9:	5449                	.insn	2, 0x5449
    41000cfb:	4d5f 5943 4c43      	.insn	6, 0x4c4359434d5f
    41000d01:	5f45                	.insn	2, 0x5f45
    41000d03:	504f5453          	.insn	4, 0x504f5453
    41000d07:	          	.insn	4, 0x49530053

0000000041000d09 <dtest_name_6>:
    41000d09:	5f444953          	.insn	4, 0x5f444953
    41000d0d:	4f435353          	.insn	4, 0x4f435353
    41000d11:	5046                	.insn	2, 0x5046
    41000d13:	464d                	.insn	2, 0x464d
    41000d15:	305f 4234 4d5f      	.insn	6, 0x4d5f4234305f
    41000d1b:	4e554f43          	.insn	4, 0x4e554f43
    41000d1f:	4954                	.insn	2, 0x4954
    41000d21:	484e                	.insn	2, 0x484e
    41000d23:	4249                	.insn	2, 0x4249
    41000d25:	5449                	.insn	2, 0x5449
    41000d27:	4d5f 5943 4c43      	.insn	6, 0x4c4359434d5f
    41000d2d:	5f45                	.insn	2, 0x5f45
    41000d2f:	4552                	.insn	2, 0x4552
    41000d31:	454d5553          	.insn	4, 0x454d5553
    41000d35:	          	.insn	4, 0x49530053

0000000041000d37 <dtest_name_7>:
    41000d37:	5f444953          	.insn	4, 0x5f444953
    41000d3b:	4f435353          	.insn	4, 0x4f435353
    41000d3f:	5046                	.insn	2, 0x5046
    41000d41:	464d                	.insn	2, 0x464d
    41000d43:	305f 4334 4d5f      	.insn	6, 0x4d5f4334305f
    41000d49:	4e554f43          	.insn	4, 0x4e554f43
    41000d4d:	4954                	.insn	2, 0x4954
    41000d4f:	484e                	.insn	2, 0x484e
    41000d51:	4249                	.insn	2, 0x4249
    41000d53:	5449                	.insn	2, 0x5449
    41000d55:	4d5f 4e49 5453      	.insn	6, 0x54534e494d5f
    41000d5b:	4552                	.insn	2, 0x4552
    41000d5d:	5f54                	.insn	2, 0x5f54
    41000d5f:	504f5453          	.insn	4, 0x504f5453
    41000d63:	          	.insn	4, 0x49530053

0000000041000d65 <dtest_name_8>:
    41000d65:	5f444953          	.insn	4, 0x5f444953
    41000d69:	4f435353          	.insn	4, 0x4f435353
    41000d6d:	5046                	.insn	2, 0x5046
    41000d6f:	464d                	.insn	2, 0x464d
    41000d71:	305f 4434 4d5f      	.insn	6, 0x4d5f4434305f
    41000d77:	4e554f43          	.insn	4, 0x4e554f43
    41000d7b:	4954                	.insn	2, 0x4954
    41000d7d:	484e                	.insn	2, 0x484e
    41000d7f:	4249                	.insn	2, 0x4249
    41000d81:	5449                	.insn	2, 0x5449
    41000d83:	4d5f 4e49 5453      	.insn	6, 0x54534e494d5f
    41000d89:	4552                	.insn	2, 0x4552
    41000d8b:	5f54                	.insn	2, 0x5f54
    41000d8d:	4552                	.insn	2, 0x4552
    41000d8f:	454d5553          	.insn	4, 0x454d5553
    41000d93:	          	.insn	4, 0x49530053

0000000041000d95 <dtest_name_9>:
    41000d95:	5f444953          	.insn	4, 0x5f444953
    41000d99:	4f435353          	.insn	4, 0x4f435353
    41000d9d:	5046                	.insn	2, 0x5046
    41000d9f:	464d                	.insn	2, 0x464d
    41000da1:	305f 4139 4d5f      	.insn	6, 0x4d5f4139305f
    41000da7:	5048                	.insn	2, 0x5048
    41000da9:	454d                	.insn	2, 0x454d
    41000dab:	4556                	.insn	2, 0x4556
    41000dad:	544e                	.insn	2, 0x544e
    41000daf:	52575f33          	.insn	4, 0x52575f33
    41000db3:	5449                	.insn	2, 0x5449
    41000db5:	5345                	.insn	2, 0x5345
    41000db7:	4e5f 5f4f 564f      	.insn	6, 0x564f5f4f4e5f
    41000dbd:	5245                	.insn	2, 0x5245
    41000dbf:	4c46                	.insn	2, 0x4c46
    41000dc1:	          	fnmadd.d	f14,f0,f16,f10,unknown

0000000041000dc4 <dtest_name_10>:
    41000dc4:	5f444953          	.insn	4, 0x5f444953
    41000dc8:	4f435353          	.insn	4, 0x4f435353
    41000dcc:	5046                	.insn	2, 0x5046
    41000dce:	464d                	.insn	2, 0x464d
    41000dd0:	305f 4239 4d5f      	.insn	6, 0x4d5f4239305f
    41000dd6:	5048                	.insn	2, 0x5048
    41000dd8:	434d                	.insn	2, 0x434d
    41000dda:	544e554f          	fnmadd.h	f10,f28,f4,f10,unknown
    41000dde:	5245                	.insn	2, 0x5245
    41000de0:	52575f33          	.insn	4, 0x52575f33
    41000de4:	5449                	.insn	2, 0x5449
    41000de6:	5345                	.insn	2, 0x5345
    41000de8:	4e5f 5f4f 564f      	.insn	6, 0x564f5f4f4e5f
    41000dee:	5245                	.insn	2, 0x5245
    41000df0:	4c46                	.insn	2, 0x4c46
    41000df2:	          	fnmadd.d	f14,f0,f16,f10,unknown

0000000041000df5 <dtest_name_11>:
    41000df5:	5f444953          	.insn	4, 0x5f444953
    41000df9:	4f435353          	.insn	4, 0x4f435353
    41000dfd:	5046                	.insn	2, 0x5046
    41000dff:	464d                	.insn	2, 0x464d
    41000e01:	305f 4339 4d5f      	.insn	6, 0x4d5f4339305f
    41000e07:	5048                	.insn	2, 0x5048
    41000e09:	434d                	.insn	2, 0x434d
    41000e0b:	544e554f          	fnmadd.h	f10,f28,f4,f10,unknown
    41000e0f:	5245                	.insn	2, 0x5245
    41000e11:	45525f33          	.insn	4, 0x45525f33
    41000e15:	4556                	.insn	2, 0x4556
    41000e17:	5352                	.insn	2, 0x5352
    41000e19:	5f45                	.insn	2, 0x5f45
    41000e1b:	54495257          	.insn	4, 0x54495257
    41000e1f:	5345                	.insn	2, 0x5345
    41000e21:	4e5f 5f4f 564f      	.insn	6, 0x564f5f4f4e5f
    41000e27:	5245                	.insn	2, 0x5245
    41000e29:	4c46                	.insn	2, 0x4c46
    41000e2b:	          	fnmadd.d	f14,f0,f16,f10,unknown

0000000041000e2e <dtest_name_12>:
    41000e2e:	5f444953          	.insn	4, 0x5f444953
    41000e32:	4f435353          	.insn	4, 0x4f435353
    41000e36:	5046                	.insn	2, 0x5046
    41000e38:	464d                	.insn	2, 0x464d
    41000e3a:	305f 4138 535f      	.insn	6, 0x535f4138305f
    41000e40:	4e554f43          	.insn	4, 0x4e554f43
    41000e44:	4f54                	.insn	2, 0x4f54
    41000e46:	4656                	.insn	2, 0x4656
    41000e48:	535f 4148 4f44      	.insn	6, 0x4f444148535f
    41000e4e:	4f435f57          	.insn	4, 0x4f435f57
    41000e52:	5950                	.insn	2, 0x5950
    41000e54:	455f 414e 4c42      	.insn	6, 0x4c42414e455f
    41000e5a:	4445                	.insn	2, 0x4445
	...

0000000041000e5d <dtest_name_13>:
    41000e5d:	5f444953          	.insn	4, 0x5f444953
    41000e61:	4f435353          	.insn	4, 0x4f435353
    41000e65:	5046                	.insn	2, 0x5046
    41000e67:	464d                	.insn	2, 0x464d
    41000e69:	305f 4136 4f5f      	.insn	6, 0x4f5f4136305f
    41000e6f:	4556                	.insn	2, 0x4556
    41000e71:	4652                	.insn	2, 0x4652
    41000e73:	4f4c                	.insn	2, 0x4f4c
    41000e75:	45535f57          	.insn	4, 0x45535f57
    41000e79:	5354                	.insn	2, 0x5354
    41000e7b:	4c5f 4f43 4946      	.insn	6, 0x49464f434c5f
    41000e81:	0050                	.insn	2, 0x0050

0000000041000e83 <dtest_name_14>:
    41000e83:	5f444953          	.insn	4, 0x5f444953
    41000e87:	4f435353          	.insn	4, 0x4f435353
    41000e8b:	5046                	.insn	2, 0x5046
    41000e8d:	464d                	.insn	2, 0x464d
    41000e8f:	305f 4137 4f5f      	.insn	6, 0x4f5f4137305f
    41000e95:	5f46                	.insn	2, 0x5f46
    41000e97:	4942                	.insn	2, 0x4942
    41000e99:	5f54                	.insn	2, 0x5f54
    41000e9b:	414d                	.insn	2, 0x414d
    41000e9d:	5f534b53          	.insn	4, 0x5f534b53
    41000ea1:	434c                	.insn	2, 0x434c
    41000ea3:	5049464f          	fnmadd.s	f12,f18,f4,f10,rmm
	...

0000000041000ea8 <dtest_name_15>:
    41000ea8:	5f444953          	.insn	4, 0x5f444953
    41000eac:	4f435353          	.insn	4, 0x4f435353
    41000eb0:	5046                	.insn	2, 0x5046
    41000eb2:	464d                	.insn	2, 0x464d
    41000eb4:	305f 4432 4d5f      	.insn	6, 0x4d5f4432305f
    41000eba:	5048                	.insn	2, 0x5048
    41000ebc:	454d                	.insn	2, 0x454d
    41000ebe:	4556                	.insn	2, 0x4556
    41000ec0:	544e                	.insn	2, 0x544e
    41000ec2:	3131                	.insn	2, 0x3131
    41000ec4:	555f 494e 504d      	.insn	6, 0x504d494e555f
    41000eca:	454c                	.insn	2, 0x454c
    41000ecc:	454d                	.insn	2, 0x454d
    41000ece:	544e                	.insn	2, 0x544e
    41000ed0:	4445                	.insn	2, 0x4445
	...

0000000041000ed3 <dtest_name_16>:
    41000ed3:	5f444953          	.insn	4, 0x5f444953
    41000ed7:	4f435353          	.insn	4, 0x4f435353
    41000edb:	5046                	.insn	2, 0x5046
    41000edd:	464d                	.insn	2, 0x464d
    41000edf:	305f 4532 4d5f      	.insn	6, 0x4d5f4532305f
    41000ee5:	5048                	.insn	2, 0x5048
    41000ee7:	434d                	.insn	2, 0x434d
    41000ee9:	544e554f          	fnmadd.h	f10,f28,f4,f10,unknown
    41000eed:	5245                	.insn	2, 0x5245
    41000eef:	3131                	.insn	2, 0x3131
    41000ef1:	555f 494e 504d      	.insn	6, 0x504d494e555f
    41000ef7:	454c                	.insn	2, 0x454c
    41000ef9:	454d                	.insn	2, 0x454d
    41000efb:	544e                	.insn	2, 0x544e
    41000efd:	4445                	.insn	2, 0x4445
	...

0000000041000f00 <dtest_index_map>:
    41000f00:	ffff                	.insn	2, 0xffff
    41000f02:	ffff                	.insn	2, 0xffff
    41000f04:	000d                	.insn	2, 0x000d
    41000f06:	0000                	.insn	2, 0x0000
    41000f08:	000c                	.insn	2, 0x000c
    41000f0a:	0000                	.insn	2, 0x0000
    41000f0c:	00000007          	vle8.v	v0,(x0),v0.t
    41000f10:	000e                	.insn	2, 0x000e
    41000f12:	0000                	.insn	2, 0x0000
    41000f14:	0006                	.insn	2, 0x0006
    41000f16:	0000                	.insn	2, 0x0000
    41000f18:	0000                	.insn	2, 0x0000
    41000f1a:	0000                	.insn	2, 0x0000
    41000f1c:	0008                	.insn	2, 0x0008
    41000f1e:	0000                	.insn	2, 0x0000
    41000f20:	00000003          	lb	x0,0(x0) # 0 <ALL_4KB_PAGES>
    41000f24:	0009                	.insn	2, 0x0009
    41000f26:	0000                	.insn	2, 0x0000
    41000f28:	0004                	.insn	2, 0x0004
    41000f2a:	0000                	.insn	2, 0x0000
    41000f2c:	000a                	.insn	2, 0x000a
    41000f2e:	0000                	.insn	2, 0x0000
    41000f30:	0000000b          	.insn	4, 0x000b
    41000f34:	0000000f          	fence	unknown,unknown
    41000f38:	0005                	.insn	2, 0x0005
    41000f3a:	0000                	.insn	2, 0x0000
    41000f3c:	0010                	.insn	2, 0x0010
    41000f3e:	0000                	.insn	2, 0x0000
    41000f40:	0002                	.insn	2, 0x0002
    41000f42:	0000                	.insn	2, 0x0000
    41000f44:	0001                	.insn	2, 0x0001
    41000f46:	0000                	.insn	2, 0x0000
    41000f48:	0000                	.insn	2, 0x0000
	...

0000000041000f4c <scheduler__test_setup_ptr>:
    41000f4c:	4120                	.insn	2, 0x4120
    41000f4e:	4101                	.insn	2, 0x4101
    41000f50:	0000                	.insn	2, 0x0000
	...

0000000041000f54 <scheduler__test_cleanup_ptr>:
    41000f54:	668c                	.insn	2, 0x668c
    41000f56:	4101                	.insn	2, 0x4101
    41000f58:	0000                	.insn	2, 0x0000
	...

Disassembly of section .runtime_s:

0000000041010000 <trap_handler_s__invalid_interrupt>:
    41010000:	1740006f          	j	41010174 <trap_handler_s__test_failed>

0000000041010004 <trap_handler_s__clear_all_interrupts>:
    41010004:	14401073          	csrw	sip,x0
    41010008:	10200073          	sret

000000004101000c <trap_handler_s___CLEAR_SSI>:
    4101000c:	00200293          	li	x5,2
    41010010:	1442b073          	csrc	sip,x5
    41010014:	10200073          	sret

0000000041010018 <trap_handler_s___CLEAR_MSI>:
    41010018:	00800293          	li	x5,8
    4101001c:	1442b073          	csrc	sip,x5
    41010020:	10200073          	sret

0000000041010024 <trap_handler_s___CLEAR_STI>:
    41010024:	02000293          	li	x5,32
    41010028:	1442b073          	csrc	sip,x5
    4101002c:	10200073          	sret

0000000041010030 <trap_handler_s___CLEAR_MTI>:
    41010030:	08000293          	li	x5,128
    41010034:	1442b073          	csrc	sip,x5
    41010038:	10200073          	sret

000000004101003c <trap_handler_s___CLEAR_SEI>:
    4101003c:	20000293          	li	x5,512
    41010040:	1442b073          	csrc	sip,x5
    41010044:	10200073          	sret

0000000041010048 <trap_handler_s___CLEAR_MEI>:
    41010048:	000012b7          	lui	x5,0x1
    4101004c:	8002829b          	addiw	x5,x5,-2048 # 800 <XLEN+0x7c0>
    41010050:	1442b073          	csrc	sip,x5
    41010054:	10200073          	sret

0000000041010058 <trap_handler_s___CLEAR_COI>:
    41010058:	000022b7          	lui	x5,0x2
    4101005c:	1442b073          	csrc	sip,x5
    41010060:	10200073          	sret

0000000041010064 <trap_handler_s__clear_highest_priority_interrupt>:
    41010064:	144022f3          	csrr	x5,sip
    41010068:	40500333          	neg	x6,x5
    4101006c:	0062f2b3          	and	x5,x5,x6
    41010070:	1442b073          	csrc	sip,x5
    41010074:	10200073          	sret

0000000041010078 <trap_handler_s__trap_entry>:
    41010078:	10c0006f          	j	41010184 <trap_handler_s__trap_handler>

000000004101007c <trap_handler_s__interrupt_vector_table>:
    4101007c:	f91ff06f          	j	4101000c <trap_handler_s___CLEAR_SSI>
    41010080:	f81ff06f          	j	41010000 <trap_handler_s__invalid_interrupt>
    41010084:	f95ff06f          	j	41010018 <trap_handler_s___CLEAR_MSI>
    41010088:	f79ff06f          	j	41010000 <trap_handler_s__invalid_interrupt>
    4101008c:	f99ff06f          	j	41010024 <trap_handler_s___CLEAR_STI>
    41010090:	f71ff06f          	j	41010000 <trap_handler_s__invalid_interrupt>
    41010094:	f9dff06f          	j	41010030 <trap_handler_s___CLEAR_MTI>
    41010098:	f69ff06f          	j	41010000 <trap_handler_s__invalid_interrupt>
    4101009c:	fa1ff06f          	j	4101003c <trap_handler_s___CLEAR_SEI>
    410100a0:	f61ff06f          	j	41010000 <trap_handler_s__invalid_interrupt>
    410100a4:	fa5ff06f          	j	41010048 <trap_handler_s___CLEAR_MEI>
    410100a8:	f59ff06f          	j	41010000 <trap_handler_s__invalid_interrupt>
    410100ac:	fadff06f          	j	41010058 <trap_handler_s___CLEAR_COI>
    410100b0:	f51ff06f          	j	41010000 <trap_handler_s__invalid_interrupt>
    410100b4:	f4dff06f          	j	41010000 <trap_handler_s__invalid_interrupt>
    410100b8:	fadff06f          	j	41010064 <trap_handler_s__clear_highest_priority_interrupt>
    410100bc:	fa9ff06f          	j	41010064 <trap_handler_s__clear_highest_priority_interrupt>
    410100c0:	fa5ff06f          	j	41010064 <trap_handler_s__clear_highest_priority_interrupt>
    410100c4:	fa1ff06f          	j	41010064 <trap_handler_s__clear_highest_priority_interrupt>
    410100c8:	f9dff06f          	j	41010064 <trap_handler_s__clear_highest_priority_interrupt>
    410100cc:	f99ff06f          	j	41010064 <trap_handler_s__clear_highest_priority_interrupt>
    410100d0:	f95ff06f          	j	41010064 <trap_handler_s__clear_highest_priority_interrupt>
    410100d4:	f91ff06f          	j	41010064 <trap_handler_s__clear_highest_priority_interrupt>
    410100d8:	f8dff06f          	j	41010064 <trap_handler_s__clear_highest_priority_interrupt>
    410100dc:	f89ff06f          	j	41010064 <trap_handler_s__clear_highest_priority_interrupt>
    410100e0:	f85ff06f          	j	41010064 <trap_handler_s__clear_highest_priority_interrupt>
    410100e4:	f81ff06f          	j	41010064 <trap_handler_s__clear_highest_priority_interrupt>
    410100e8:	f7dff06f          	j	41010064 <trap_handler_s__clear_highest_priority_interrupt>
    410100ec:	f79ff06f          	j	41010064 <trap_handler_s__clear_highest_priority_interrupt>
    410100f0:	f75ff06f          	j	41010064 <trap_handler_s__clear_highest_priority_interrupt>
    410100f4:	f71ff06f          	j	41010064 <trap_handler_s__clear_highest_priority_interrupt>
    410100f8:	f6dff06f          	j	41010064 <trap_handler_s__clear_highest_priority_interrupt>
    410100fc:	f69ff06f          	j	41010064 <trap_handler_s__clear_highest_priority_interrupt>
    41010100:	f65ff06f          	j	41010064 <trap_handler_s__clear_highest_priority_interrupt>
    41010104:	f61ff06f          	j	41010064 <trap_handler_s__clear_highest_priority_interrupt>
    41010108:	f5dff06f          	j	41010064 <trap_handler_s__clear_highest_priority_interrupt>
    4101010c:	f59ff06f          	j	41010064 <trap_handler_s__clear_highest_priority_interrupt>
    41010110:	f55ff06f          	j	41010064 <trap_handler_s__clear_highest_priority_interrupt>
    41010114:	f51ff06f          	j	41010064 <trap_handler_s__clear_highest_priority_interrupt>
    41010118:	f4dff06f          	j	41010064 <trap_handler_s__clear_highest_priority_interrupt>
    4101011c:	f49ff06f          	j	41010064 <trap_handler_s__clear_highest_priority_interrupt>
    41010120:	f45ff06f          	j	41010064 <trap_handler_s__clear_highest_priority_interrupt>
    41010124:	f41ff06f          	j	41010064 <trap_handler_s__clear_highest_priority_interrupt>
    41010128:	f3dff06f          	j	41010064 <trap_handler_s__clear_highest_priority_interrupt>
    4101012c:	f39ff06f          	j	41010064 <trap_handler_s__clear_highest_priority_interrupt>
    41010130:	f35ff06f          	j	41010064 <trap_handler_s__clear_highest_priority_interrupt>
    41010134:	f31ff06f          	j	41010064 <trap_handler_s__clear_highest_priority_interrupt>
    41010138:	f2dff06f          	j	41010064 <trap_handler_s__clear_highest_priority_interrupt>
    4101013c:	f29ff06f          	j	41010064 <trap_handler_s__clear_highest_priority_interrupt>
    41010140:	f25ff06f          	j	41010064 <trap_handler_s__clear_highest_priority_interrupt>
    41010144:	f21ff06f          	j	41010064 <trap_handler_s__clear_highest_priority_interrupt>
    41010148:	f1dff06f          	j	41010064 <trap_handler_s__clear_highest_priority_interrupt>
    4101014c:	f19ff06f          	j	41010064 <trap_handler_s__clear_highest_priority_interrupt>
    41010150:	f15ff06f          	j	41010064 <trap_handler_s__clear_highest_priority_interrupt>
    41010154:	f11ff06f          	j	41010064 <trap_handler_s__clear_highest_priority_interrupt>
    41010158:	f0dff06f          	j	41010064 <trap_handler_s__clear_highest_priority_interrupt>
    4101015c:	f09ff06f          	j	41010064 <trap_handler_s__clear_highest_priority_interrupt>
    41010160:	f05ff06f          	j	41010064 <trap_handler_s__clear_highest_priority_interrupt>
    41010164:	f01ff06f          	j	41010064 <trap_handler_s__clear_highest_priority_interrupt>
    41010168:	efdff06f          	j	41010064 <trap_handler_s__clear_highest_priority_interrupt>
    4101016c:	ef9ff06f          	j	41010064 <trap_handler_s__clear_highest_priority_interrupt>
    41010170:	ef5ff06f          	j	41010064 <trap_handler_s__clear_highest_priority_interrupt>

0000000041010174 <trap_handler_s__test_failed>:
    41010174:	00f00f9b          	addiw	x31,x0,15
    41010178:	01cf9f93          	slli	x31,x31,0x1c
    4101017c:	002f8f93          	addi	x31,x31,2
    41010180:	00000073          	ecall

0000000041010184 <trap_handler_s__trap_handler>:
    41010184:	142022f3          	csrr	x5,scause
    41010188:	fff0031b          	addiw	x6,x0,-1
    4101018c:	03f31313          	slli	x6,x6,0x3f
    41010190:	00537333          	and	x6,x6,x5
    41010194:	02030263          	beqz	x6,410101b8 <trap_handler_s__exception_path>

0000000041010198 <trap_handler_s__interrupt_handler>:
    41010198:	fff0031b          	addiw	x6,x0,-1
    4101019c:	03f31313          	slli	x6,x6,0x3f
    410101a0:	0062c2b3          	xor	x5,x5,x6
    410101a4:	00000317          	auipc	x6,0x0
    410101a8:	ed430313          	addi	x6,x6,-300 # 41010078 <trap_handler_s__trap_entry>
    410101ac:	00229293          	slli	x5,x5,0x2
    410101b0:	005302b3          	add	x5,x6,x5
    410101b4:	00028067          	jr	x5 # 2000 <pma_region_1_size+0x1000>

00000000410101b8 <trap_handler_s__exception_path>:
    410101b8:	14021273          	csrrw	x4,sscratch,x4
    410101bc:	00000297          	auipc	x5,0x0
    410101c0:	0cc28293          	addi	x5,x5,204 # 41010288 <trap_handler_s__trap_panic>
    410101c4:	10529073          	csrw	stvec,x5
    410101c8:	0040006f          	j	410101cc <trap_handler_s__excp_entry>

00000000410101cc <trap_handler_s__excp_entry>:
    410101cc:	14202373          	csrr	x6,scause
    410101d0:	00800293          	li	x5,8
    410101d4:	00534863          	blt	x6,x5,410101e4 <trap_handler_s__check_exception_label>
    410101d8:	00b00293          	li	x5,11
    410101dc:	0062c463          	blt	x5,x6,410101e4 <trap_handler_s__check_exception_label>
    410101e0:	0a80006f          	j	41010288 <trap_handler_s__trap_panic>

00000000410101e4 <trap_handler_s__check_exception_label>:
    410101e4:	04623c23          	sd	x6,88(x4) # 58 <XLEN+0x18>
    410101e8:	141022f3          	csrr	x5,sepc
    410101ec:	02523423          	sd	x5,40(x4) # 28 <SECURE_ACCESS_PROBABILITY+0xa>
    410101f0:	01820283          	lb	x5,24(x4) # 18 <STORE_GUEST_PAGE_FAULT+0x1>
    410101f4:	00029863          	bnez	x5,41010204 <trap_handler_s__check_excp>
    410101f8:	00128293          	addi	x5,x5,1
    410101fc:	00520c23          	sb	x5,24(x4) # 18 <STORE_GUEST_PAGE_FAULT+0x1>
    41010200:	05c0006f          	j	4101025c <trap_handler_s__ecall_from_machine>

0000000041010204 <trap_handler_s__check_excp>:
    41010204:	06823283          	ld	x5,104(x4) # 68 <XLEN+0x28>
    41010208:	06023423          	sd	x0,104(x4) # 68 <XLEN+0x28>
    4101020c:	00028663          	beqz	x5,41010218 <trap_handler_s__skip_mode_check>
    41010210:	00300393          	li	x7,3
    41010214:	f67290e3          	bne	x5,x7,41010174 <trap_handler_s__test_failed>

0000000041010218 <trap_handler_s__skip_mode_check>:
    41010218:	05023283          	ld	x5,80(x4) # 50 <XLEN+0x10>
    4101021c:	04023823          	sd	x0,80(x4) # 50 <XLEN+0x10>
    41010220:	f4531ae3          	bne	x6,x5,41010174 <trap_handler_s__test_failed>
    41010224:	03823283          	ld	x5,56(x4) # 38 <SECURE_ACCESS_PROBABILITY+0x1a>
    41010228:	02023c23          	sd	x0,56(x4) # 38 <SECURE_ACCESS_PROBABILITY+0x1a>
    4101022c:	02029663          	bnez	x5,41010258 <trap_handler_s__skip_nonzero_tval_check>
    41010230:	02023303          	ld	x6,32(x4) # 20 <SECURE_ACCESS_PROBABILITY+0x2>
    41010234:	02023023          	sd	x0,32(x4) # 20 <SECURE_ACCESS_PROBABILITY+0x2>
    41010238:	02823283          	ld	x5,40(x4) # 28 <SECURE_ACCESS_PROBABILITY+0xa>
    4101023c:	02023423          	sd	x0,40(x4) # 28 <SECURE_ACCESS_PROBABILITY+0xa>
    41010240:	f2531ae3          	bne	x6,x5,41010174 <trap_handler_s__test_failed>
    41010244:	04023283          	ld	x5,64(x4) # 40 <XLEN>
    41010248:	04023023          	sd	x0,64(x4) # 40 <XLEN>
    4101024c:	00028663          	beqz	x5,41010258 <trap_handler_s__skip_nonzero_tval_check>

0000000041010250 <trap_handler_s__nonzero_tval_check>:
    41010250:	14302373          	csrr	x6,stval
    41010254:	f25310e3          	bne	x6,x5,41010174 <trap_handler_s__test_failed>

0000000041010258 <trap_handler_s__skip_nonzero_tval_check>:
    41010258:	0040006f          	j	4101025c <trap_handler_s__ecall_from_machine>

000000004101025c <trap_handler_s__ecall_from_machine>:
    4101025c:	03023283          	ld	x5,48(x4) # 30 <SECURE_ACCESS_PROBABILITY+0x12>
    41010260:	02023823          	sd	x0,48(x4) # 30 <SECURE_ACCESS_PROBABILITY+0x12>
    41010264:	07023303          	ld	x6,112(x4) # 70 <XLEN+0x30>
    41010268:	06023823          	sd	x0,112(x4) # 70 <XLEN+0x30>
    4101026c:	00031463          	bnez	x6,41010274 <trap_handler_s__skip_xepc_write>
    41010270:	14129073          	csrw	sepc,x5

0000000041010274 <trap_handler_s__skip_xepc_write>:
    41010274:	00000317          	auipc	x6,0x0
    41010278:	e0430313          	addi	x6,x6,-508 # 41010078 <trap_handler_s__trap_entry>
    4101027c:	10531073          	csrw	stvec,x6
    41010280:	14021273          	csrrw	x4,sscratch,x4
    41010284:	10200073          	sret

0000000041010288 <trap_handler_s__trap_panic>:
    41010288:	00000193          	li	x3,0
    4101028c:	00f00f9b          	addiw	x31,x0,15
    41010290:	01cf9f93          	slli	x31,x31,0x1c
    41010294:	002f8f93          	addi	x31,x31,2
    41010298:	00000073          	ecall

Disassembly of section .code:

00000000410140f0 <passed>:
    410140f0:	44db42b7          	lui	x5,0x44db4
    410140f4:	0182829b          	addiw	x5,x5,24 # 44db4018 <os_passed_addr>
    410140f8:	0002b303          	ld	x6,0(x5)
    410140fc:	00030067          	jr	x6

0000000041014100 <failed>:
    41014100:	44db42b7          	lui	x5,0x44db4
    41014104:	0202829b          	addiw	x5,x5,32 # 44db4020 <os_failed_addr>
    41014108:	0002b303          	ld	x6,0(x5)
    4101410c:	00030067          	jr	x6

0000000041014110 <end_test>:
    41014110:	44db42b7          	lui	x5,0x44db4
    41014114:	0282829b          	addiw	x5,x5,40 # 44db4028 <os_end_test_addr>
    41014118:	0002b303          	ld	x6,0(x5)
    4101411c:	00030067          	jr	x6

0000000041014120 <test_setup>:
    41014120:	44db42b7          	lui	x5,0x44db4
    41014124:	0182829b          	addiw	x5,x5,24 # 44db4018 <os_passed_addr>
    41014128:	0002b303          	ld	x6,0(x5)
    4101412c:	00030067          	jr	x6

0000000041014130 <SID_SSCOFPMF_02A_MCOUNTINHIBIT_WARL>:
    41014130:	41216137          	lui	x2,0x41216
    41014134:	320023f3          	csrr	x7,mcountinhibit
    41014138:	00713023          	sd	x7,0(x2) # 41216000 <tp_csr_storage>
    4101413c:	44dad137          	lui	x2,0x44dad
    41014140:	000012b7          	lui	x5,0x1
    41014144:	00510133          	add	x2,x2,x5
    41014148:	ff017113          	andi	x2,x2,-16
    4101414c:	fff00393          	li	x7,-1
    41014150:	320394f3          	csrrw	x9,mcountinhibit,x7
    41014154:	32002573          	csrr	x10,mcountinhibit
    41014158:	00200a13          	li	x20,2
    4101415c:	01457733          	and	x14,x10,x20
    41014160:	00000513          	li	x10,0
    41014164:	00a70a63          	beq	x14,x10,41014178 <pass_label_0>
    41014168:	44db4537          	lui	x10,0x44db4
    4101416c:	0085051b          	addiw	x10,x10,8 # 44db4008 <failed_addr>
    41014170:	00053383          	ld	x7,0(x10)
    41014174:	00038067          	jr	x7

0000000041014178 <pass_label_0>:
    41014178:	320059f3          	csrrwi	x19,mcountinhibit,0
    4101417c:	41216137          	lui	x2,0x41216
    41014180:	00013383          	ld	x7,0(x2) # 41216000 <tp_csr_storage>
    41014184:	320393f3          	csrrw	x7,mcountinhibit,x7

0000000041014188 <SID_SSCOFPMF_02A_MCOUNTINHIBIT_WARL_passed>:
    41014188:	44db42b7          	lui	x5,0x44db4
    4101418c:	0182829b          	addiw	x5,x5,24 # 44db4018 <os_passed_addr>
    41014190:	0002b303          	ld	x6,0(x5)
    41014194:	00030067          	jr	x6

0000000041014198 <SID_SSCOFPMF_02B_MHPMEVENT3_RESERVED_BITS>:
    41014198:	41216137          	lui	x2,0x41216
    4101419c:	323023f3          	csrr	x7,mhpmevent3
    410141a0:	00713023          	sd	x7,0(x2) # 41216000 <tp_csr_storage>
    410141a4:	45002137          	lui	x2,0x45002
    410141a8:	000012b7          	lui	x5,0x1
    410141ac:	00510133          	add	x2,x2,x5
    410141b0:	ff017113          	andi	x2,x2,-16
    410141b4:	fff00713          	li	x14,-1
    410141b8:	32371d73          	csrrw	x26,mhpmevent3,x14
    410141bc:	32302673          	csrr	x12,mhpmevent3
    410141c0:	00300e1b          	addiw	x28,x0,3
    410141c4:	038e1e13          	slli	x28,x28,0x38
    410141c8:	01c673b3          	and	x7,x12,x28
    410141cc:	00000e93          	li	x29,0
    410141d0:	01d38a63          	beq	x7,x29,410141e4 <pass_label_1>
    410141d4:	44db4d37          	lui	x26,0x44db4
    410141d8:	008d0d1b          	addiw	x26,x26,8 # 44db4008 <failed_addr>
    410141dc:	000d3683          	ld	x13,0(x26)
    410141e0:	00068067          	jr	x13

00000000410141e4 <pass_label_1>:
    410141e4:	32305bf3          	csrrwi	x23,mhpmevent3,0
    410141e8:	41216137          	lui	x2,0x41216
    410141ec:	00013383          	ld	x7,0(x2) # 41216000 <tp_csr_storage>
    410141f0:	323393f3          	csrrw	x7,mhpmevent3,x7

00000000410141f4 <SID_SSCOFPMF_02B_MHPMEVENT3_RESERVED_BITS_passed>:
    410141f4:	44db42b7          	lui	x5,0x44db4
    410141f8:	0182829b          	addiw	x5,x5,24 # 44db4018 <os_passed_addr>
    410141fc:	0002b303          	ld	x6,0(x5)
    41014200:	00030067          	jr	x6

0000000041014204 <SID_SSCOFPMF_02C_MHPMCOUNTER3_WRITE_STICKS>:
    41014204:	41216137          	lui	x2,0x41216
    41014208:	b03023f3          	csrr	x7,mhpmcounter3
    4101420c:	00713023          	sd	x7,0(x2) # 41216000 <tp_csr_storage>
    41014210:	44dae137          	lui	x2,0x44dae
    41014214:	000012b7          	lui	x5,0x1
    41014218:	00510133          	add	x2,x2,x5
    4101421c:	ff017113          	andi	x2,x2,-16
    41014220:	00247d37          	lui	x26,0x247
    41014224:	8add0d1b          	addiw	x26,x26,-1875 # 2468ad <pma_region_0_size+0x2068ad>
    41014228:	00ed1d13          	slli	x26,x26,0xe
    4101422c:	c4dd0d13          	addi	x26,x26,-947
    41014230:	00cd1d13          	slli	x26,x26,0xc
    41014234:	5e7d0d13          	addi	x26,x26,1511
    41014238:	00dd1d13          	slli	x26,x26,0xd
    4101423c:	ef0d0d13          	addi	x26,x26,-272
    41014240:	b03d1973          	csrrw	x18,mhpmcounter3,x26
    41014244:	b0302ff3          	csrr	x31,mhpmcounter3
    41014248:	01af8a63          	beq	x31,x26,4101425c <pass_label_2>
    4101424c:	44db4bb7          	lui	x23,0x44db4
    41014250:	008b8b9b          	addiw	x23,x23,8 # 44db4008 <failed_addr>
    41014254:	000bb883          	ld	x17,0(x23)
    41014258:	00088067          	jr	x17

000000004101425c <pass_label_2>:
    4101425c:	b0305df3          	csrrwi	x27,mhpmcounter3,0
    41014260:	41216137          	lui	x2,0x41216
    41014264:	00013383          	ld	x7,0(x2) # 41216000 <tp_csr_storage>
    41014268:	b03393f3          	csrrw	x7,mhpmcounter3,x7

000000004101426c <SID_SSCOFPMF_02C_MHPMCOUNTER3_WRITE_STICKS_passed>:
    4101426c:	44db42b7          	lui	x5,0x44db4
    41014270:	0182829b          	addiw	x5,x5,24 # 44db4018 <os_passed_addr>
    41014274:	0002b303          	ld	x6,0(x5)
    41014278:	00030067          	jr	x6

000000004101427c <SID_SSCOFPMF_03A_MCOUNTEREN_MCYCLE>:
    4101427c:	41216137          	lui	x2,0x41216
    41014280:	306023f3          	csrr	x7,mcounteren
    41014284:	00713023          	sd	x7,0(x2) # 41216000 <tp_csr_storage>
    41014288:	44f56137          	lui	x2,0x44f56
    4101428c:	000012b7          	lui	x5,0x1
    41014290:	00510133          	add	x2,x2,x5
    41014294:	ff017113          	andi	x2,x2,-16
    41014298:	3060f373          	csrrci	x6,mcounteren,1
    4101429c:	b0002973          	csrr	x18,mcycle
    410142a0:	00090d93          	mv	x27,x18
    410142a4:	0003feb7          	lui	x29,0x3f
    410142a8:	c85e8e9b          	addiw	x29,x29,-891 # 3ec85 <_all_interrupts+0x3c1db>
    410142ac:	00ee9e93          	slli	x29,x29,0xe
    410142b0:	7e2e8e93          	addi	x29,x29,2018
    410142b4:	00037937          	lui	x18,0x37
    410142b8:	f959091b          	addiw	x18,x18,-107 # 36f95 <_all_interrupts+0x344eb>
    410142bc:	00e91913          	slli	x18,x18,0xe
    410142c0:	fcd90913          	addi	x18,x18,-51
    410142c4:	0007b537          	lui	x10,0x7b
    410142c8:	1f95051b          	addiw	x10,x10,505 # 7b1f9 <pma_region_0_size+0x3b1f9>
    410142cc:	00d51513          	slli	x10,x10,0xd
    410142d0:	3d350513          	addi	x10,x10,979
    410142d4:	d21e8553          	fcvt.d.wu	f10,x29
    410142d8:	d0197653          	fcvt.s.wu	f12,x18
    410142dc:	d0357953          	fcvt.s.lu	f18,x10
    410142e0:	92c570cf          	fnmadd.d	f1,f10,f12,f18
    410142e4:	721df8b7          	lui	x17,0x721df
    410142e8:	a3e8889b          	addiw	x17,x17,-1474 # 721dea3e <pma_region_2_end+0x2d19da3e>
    410142ec:	29436c37          	lui	x24,0x29436
    410142f0:	5b5c0c1b          	addiw	x24,x24,1461 # 294365b5 <pma_region_2_size+0x254365b5>
    410142f4:	d238fb53          	fcvt.d.lu	f22,x17
    410142f8:	d03c7f53          	fcvt.s.lu	f30,x24
    410142fc:	19eb7cd3          	fdiv.s	f25,f22,f30
    41014300:	0001f8b7          	lui	x17,0x1f
    41014304:	8ed8889b          	addiw	x17,x17,-1811 # 1e8ed <_all_interrupts+0x1be43>
    41014308:	00f89893          	slli	x17,x17,0xf
    4101430c:	f2988893          	addi	x17,x17,-215
    41014310:	000c1437          	lui	x8,0xc1
    41014314:	0674041b          	addiw	x8,x8,103 # c1067 <pma_region_0_size+0x81067>
    41014318:	00c41413          	slli	x8,x8,0xc
    4101431c:	93540413          	addi	x8,x8,-1739
    41014320:	0288e9b3          	rem	x19,x17,x8
    41014324:	665d79b7          	lui	x19,0x665d7
    41014328:	4389899b          	addiw	x19,x19,1080 # 665d7438 <pma_region_2_end+0x21596438>
    4101432c:	6fa98c9b          	addiw	x25,x19,1786
    41014330:	0005c537          	lui	x10,0x5c
    41014334:	8a15051b          	addiw	x10,x10,-1887 # 5b8a1 <pma_region_0_size+0x1b8a1>
    41014338:	00d51513          	slli	x10,x10,0xd
    4101433c:	10f50513          	addi	x10,x10,271
    41014340:	2ec50993          	addi	x19,x10,748
    41014344:	0002f6b7          	lui	x13,0x2f
    41014348:	4516869b          	addiw	x13,x13,1105 # 2f451 <_all_interrupts+0x2c9a7>
    4101434c:	00e69693          	slli	x13,x13,0xe
    41014350:	fac68693          	addi	x13,x13,-84
    41014354:	761ec337          	lui	x6,0x761ec
    41014358:	fd53031b          	addiw	x6,x6,-43 # 761ebfd5 <pma_region_2_end+0x311aafd5>
    4101435c:	0002aa37          	lui	x20,0x2a
    41014360:	ea1a0a1b          	addiw	x20,x20,-351 # 29ea1 <_all_interrupts+0x273f7>
    41014364:	00ea1a13          	slli	x20,x20,0xe
    41014368:	ee3a0a13          	addi	x20,x20,-285
    4101436c:	d226f253          	fcvt.d.l	f4,x13
    41014370:	d2130ed3          	fcvt.d.wu	f29,x6
    41014374:	d23a7fd3          	fcvt.d.lu	f31,x20
    41014378:	fbd277cb          	fnmsub.d	f15,f4,f29,f31
    4101437c:	00044637          	lui	x12,0x44
    41014380:	e2b6061b          	addiw	x12,x12,-469 # 43e2b <pma_region_0_size+0x3e2b>
    41014384:	00d61613          	slli	x12,x12,0xd
    41014388:	47660613          	addi	x12,x12,1142
    4101438c:	3ff993b7          	lui	x7,0x3ff99
    41014390:	ff63839b          	addiw	x7,x7,-10 # 3ff98ff6 <pma_region_2_size+0x3bf98ff6>
    41014394:	02766c3b          	remw	x24,x12,x7
    41014398:	7d719837          	lui	x16,0x7d719
    4101439c:	d768081b          	addiw	x16,x16,-650 # 7d718d76 <pma_region_2_end+0x386d7d76>
    410143a0:	47734537          	lui	x10,0x47734
    410143a4:	e875051b          	addiw	x10,x10,-377 # 47733e87 <pma_region_2_end+0x26f2e87>
    410143a8:	d2287dd3          	fcvt.d.l	f27,x16
    410143ac:	d2257f53          	fcvt.d.l	f30,x10
    410143b0:	1bedf9d3          	fdiv.d	f19,f27,f30
    410143b4:	000edcb7          	lui	x25,0xed
    410143b8:	c1dc8c9b          	addiw	x25,x25,-995 # ecc1d <pma_region_0_size+0xacc1d>
    410143bc:	00cc9c93          	slli	x25,x25,0xc
    410143c0:	b66c8c93          	addi	x25,x25,-1178
    410143c4:	7f8136b7          	lui	x13,0x7f813
    410143c8:	7616869b          	addiw	x13,x13,1889 # 7f813761 <pma_region_2_end+0x3a7d2761>
    410143cc:	d02cf853          	fcvt.s.l	f16,x25
    410143d0:	d21683d3          	fcvt.d.wu	f7,x13
    410143d4:	12787f53          	fmul.d	f30,f16,f7
    410143d8:	00040fb7          	lui	x31,0x40
    410143dc:	1b9f8f9b          	addiw	x31,x31,441 # 401b9 <pma_region_0_size+0x1b9>
    410143e0:	00df9f93          	slli	x31,x31,0xd
    410143e4:	ebcf8f93          	addi	x31,x31,-324
    410143e8:	00021e37          	lui	x28,0x21
    410143ec:	fc3e0e1b          	addiw	x28,x28,-61 # 20fc3 <_all_interrupts+0x1e519>
    410143f0:	00ee1e13          	slli	x28,x28,0xe
    410143f4:	e51e0e13          	addi	x28,x28,-431
    410143f8:	000d5f37          	lui	x30,0xd5
    410143fc:	dedf0f1b          	addiw	x30,x30,-531 # d4ded <pma_region_0_size+0x94ded>
    41014400:	00cf1f13          	slli	x30,x30,0xc
    41014404:	9f2f0f13          	addi	x30,x30,-1550
    41014408:	d23ff0d3          	fcvt.d.lu	f1,x31
    4101440c:	d20e0c53          	fcvt.d.w	f24,x28
    41014410:	d02f7253          	fcvt.s.l	f4,x30
    41014414:	2180f143          	fmadd.s	f2,f1,f24,f4
    41014418:	000ccfb7          	lui	x31,0xcc
    4101441c:	d4df8f9b          	addiw	x31,x31,-691 # cbd4d <pma_region_0_size+0x8bd4d>
    41014420:	00cf9f93          	slli	x31,x31,0xc
    41014424:	3e5f8f93          	addi	x31,x31,997
    41014428:	5a9acc37          	lui	x24,0x5a9ac
    4101442c:	6e1c0c1b          	addiw	x24,x24,1761 # 5a9ac6e1 <pma_region_2_end+0x1596b6e1>
    41014430:	038fdabb          	divuw	x21,x31,x24
    41014434:	0002af37          	lui	x30,0x2a
    41014438:	591f0f1b          	addiw	x30,x30,1425 # 2a591 <_all_interrupts+0x27ae7>
    4101443c:	00ef1f13          	slli	x30,x30,0xe
    41014440:	a2cf0f13          	addi	x30,x30,-1492
    41014444:	0001c5b7          	lui	x11,0x1c
    41014448:	4055859b          	addiw	x11,x11,1029 # 1c405 <_all_interrupts+0x1995b>
    4101444c:	00f59593          	slli	x11,x11,0xf
    41014450:	4a058593          	addi	x11,x11,1184
    41014454:	d21f08d3          	fcvt.d.wu	f17,x30
    41014458:	d21582d3          	fcvt.d.wu	f5,x11
    4101445c:	1058f5d3          	fmul.s	f11,f17,f5
    41014460:	74668d37          	lui	x26,0x74668
    41014464:	c02d0d1b          	addiw	x26,x26,-1022 # 74667c02 <pma_region_2_end+0x2f626c02>
    41014468:	0003aeb7          	lui	x29,0x3a
    4101446c:	94be8e9b          	addiw	x29,x29,-1717 # 3994b <_all_interrupts+0x36ea1>
    41014470:	00ee9e93          	slli	x29,x29,0xe
    41014474:	71de8e93          	addi	x29,x29,1821
    41014478:	03dd4b3b          	divw	x22,x26,x29
    4101447c:	000e7cb7          	lui	x25,0xe7
    41014480:	369c8c9b          	addiw	x25,x25,873 # e7369 <pma_region_0_size+0xa7369>
    41014484:	00cc9c93          	slli	x25,x25,0xc
    41014488:	5c6c8c93          	addi	x25,x25,1478
    4101448c:	7604e5b7          	lui	x11,0x7604e
    41014490:	4b75859b          	addiw	x11,x11,1207 # 7604e4b7 <pma_region_2_end+0x3100d4b7>
    41014494:	02bcb9b3          	mulhu	x19,x25,x11
    41014498:	59cc6c37          	lui	x24,0x59cc6
    4101449c:	0b4c0c1b          	addiw	x24,x24,180 # 59cc60b4 <pma_region_2_end+0x14c850b4>
    410144a0:	000495b7          	lui	x11,0x49
    410144a4:	aa95859b          	addiw	x11,x11,-1367 # 48aa9 <pma_region_0_size+0x8aa9>
    410144a8:	00d59593          	slli	x11,x11,0xd
    410144ac:	e8558593          	addi	x11,x11,-379
    410144b0:	02bc2733          	mulhsu	x14,x24,x11
    410144b4:	0005da37          	lui	x20,0x5d
    410144b8:	e9da0a1b          	addiw	x20,x20,-355 # 5ce9d <pma_region_0_size+0x1ce9d>
    410144bc:	00da1a13          	slli	x20,x20,0xd
    410144c0:	ccda0a13          	addi	x20,x20,-819
    410144c4:	16ca0613          	addi	x12,x20,364
    410144c8:	0003b737          	lui	x14,0x3b
    410144cc:	e6b7071b          	addiw	x14,x14,-405 # 3ae6b <_all_interrupts+0x383c1>
    410144d0:	00e71713          	slli	x14,x14,0xe
    410144d4:	68b70713          	addi	x14,x14,1675
    410144d8:	00024f37          	lui	x30,0x24
    410144dc:	af7f0f1b          	addiw	x30,x30,-1289 # 23af7 <_all_interrupts+0x2104d>
    410144e0:	00ef1f13          	slli	x30,x30,0xe
    410144e4:	fe6f0f13          	addi	x30,x30,-26
    410144e8:	03e76bbb          	remw	x23,x14,x30
    410144ec:	000b9537          	lui	x10,0xb9
    410144f0:	4935051b          	addiw	x10,x10,1171 # b9493 <pma_region_0_size+0x79493>
    410144f4:	00c51513          	slli	x10,x10,0xc
    410144f8:	f2850513          	addi	x10,x10,-216
    410144fc:	74e09937          	lui	x18,0x74e09
    41014500:	8ac9091b          	addiw	x18,x18,-1876 # 74e088ac <pma_region_2_end+0x2fdc78ac>
    41014504:	03254a3b          	divw	x20,x10,x18
    41014508:	7c9266b7          	lui	x13,0x7c926
    4101450c:	0df6869b          	addiw	x13,x13,223 # 7c9260df <pma_region_2_end+0x378e50df>
    41014510:	000a9f37          	lui	x30,0xa9
    41014514:	acbf0f1b          	addiw	x30,x30,-1333 # a8acb <pma_region_0_size+0x68acb>
    41014518:	00cf1f13          	slli	x30,x30,0xc
    4101451c:	516f0f13          	addi	x30,x30,1302
    41014520:	03e6cbb3          	div	x23,x13,x30
    41014524:	38c8a6b7          	lui	x13,0x38c8a
    41014528:	b3b6869b          	addiw	x13,x13,-1221 # 38c89b3b <pma_region_2_size+0x34c89b3b>
    4101452c:	000f1eb7          	lui	x29,0xf1
    41014530:	cafe8e9b          	addiw	x29,x29,-849 # f0caf <pma_region_0_size+0xb0caf>
    41014534:	00ce9e93          	slli	x29,x29,0xc
    41014538:	ef3e8e93          	addi	x29,x29,-269
    4101453c:	d226fbd3          	fcvt.d.l	f23,x13
    41014540:	d00ef3d3          	fcvt.s.w	f7,x29
    41014544:	187bfb53          	fdiv.s	f22,f23,f7
    41014548:	531d6fb7          	lui	x31,0x531d6
    4101454c:	463f8f9b          	addiw	x31,x31,1123 # 531d6463 <pma_region_2_end+0xe195463>
    41014550:	00068737          	lui	x14,0x68
    41014554:	4797071b          	addiw	x14,x14,1145 # 68479 <pma_region_0_size+0x28479>
    41014558:	00d71713          	slli	x14,x14,0xd
    4101455c:	bb570713          	addi	x14,x14,-1099
    41014560:	d22ff153          	fcvt.d.l	f2,x31
    41014564:	d22771d3          	fcvt.d.l	f3,x14
    41014568:	18317753          	fdiv.s	f14,f2,f3
    4101456c:	0005a7b7          	lui	x15,0x5a
    41014570:	8b97879b          	addiw	x15,x15,-1863 # 598b9 <pma_region_0_size+0x198b9>
    41014574:	00d79793          	slli	x15,x15,0xd
    41014578:	06578793          	addi	x15,x15,101
    4101457c:	000d6c37          	lui	x24,0xd6
    41014580:	c45c0c1b          	addiw	x24,x24,-955 # d5c45 <pma_region_0_size+0x95c45>
    41014584:	00cc1c13          	slli	x24,x24,0xc
    41014588:	a51c0c13          	addi	x24,x24,-1455
    4101458c:	d037ffd3          	fcvt.s.lu	f31,x15
    41014590:	d03c7ad3          	fcvt.s.lu	f21,x24
    41014594:	035ff6d3          	fadd.d	f13,f31,f21
    41014598:	2a839a37          	lui	x20,0x2a839
    4101459c:	afba0a1b          	addiw	x20,x20,-1285 # 2a838afb <pma_region_2_size+0x26838afb>
    410145a0:	000e0c37          	lui	x24,0xe0
    410145a4:	6f3c0c1b          	addiw	x24,x24,1779 # e06f3 <pma_region_0_size+0xa06f3>
    410145a8:	00cc1c13          	slli	x24,x24,0xc
    410145ac:	91ec0c13          	addi	x24,x24,-1762
    410145b0:	d20a04d3          	fcvt.d.w	f9,x20
    410145b4:	d21c0953          	fcvt.d.wu	f18,x24
    410145b8:	1924fd53          	fdiv.s	f26,f9,f18
    410145bc:	000e8337          	lui	x6,0xe8
    410145c0:	6ed3031b          	addiw	x6,x6,1773 # e86ed <pma_region_0_size+0xa86ed>
    410145c4:	00c31313          	slli	x6,x6,0xc
    410145c8:	9c930313          	addi	x6,x6,-1591
    410145cc:	0004f4b7          	lui	x9,0x4f
    410145d0:	e474849b          	addiw	x9,x9,-441 # 4ee47 <pma_region_0_size+0xee47>
    410145d4:	00d49493          	slli	x9,x9,0xd
    410145d8:	b4b48493          	addi	x9,x9,-1205
    410145dc:	d2237653          	fcvt.d.l	f12,x6
    410145e0:	d234ffd3          	fcvt.d.lu	f31,x9
    410145e4:	11f677d3          	fmul.s	f15,f12,f31
    410145e8:	44a4b837          	lui	x16,0x44a4b
    410145ec:	8f98081b          	addiw	x16,x16,-1799 # 44a4a8f9 <tp_csr_storage+0x38348f9>
    410145f0:	000c6b37          	lui	x22,0xc6
    410145f4:	e25b0b1b          	addiw	x22,x22,-475 # c5e25 <pma_region_0_size+0x85e25>
    410145f8:	00cb1b13          	slli	x22,x22,0xc
    410145fc:	86fb0b13          	addi	x22,x22,-1937
    41014600:	036848bb          	divw	x17,x16,x22
    41014604:	000e9737          	lui	x14,0xe9
    41014608:	5017071b          	addiw	x14,x14,1281 # e9501 <pma_region_0_size+0xa9501>
    4101460c:	00c71713          	slli	x14,x14,0xc
    41014610:	ecc70713          	addi	x14,x14,-308
    41014614:	7ad1f837          	lui	x16,0x7ad1f
    41014618:	45d8081b          	addiw	x16,x16,1117 # 7ad1f45d <pma_region_2_end+0x35cde45d>
    4101461c:	4f3f8eb7          	lui	x29,0x4f3f8
    41014620:	77ae8e9b          	addiw	x29,x29,1914 # 4f3f877a <pma_region_2_end+0xa3b777a>
    41014624:	d23778d3          	fcvt.d.lu	f17,x14
    41014628:	d2387853          	fcvt.d.lu	f16,x16
    4101462c:	d22efb53          	fcvt.d.l	f22,x29
    41014630:	b308facf          	fnmadd.d	f21,f17,f16,f22
    41014634:	4da4ebb7          	lui	x23,0x4da4e
    41014638:	aeeb8b9b          	addiw	x23,x23,-1298 # 4da4daee <pma_region_2_end+0x8a0caee>
    4101463c:	000f59b7          	lui	x19,0xf5
    41014640:	15b9899b          	addiw	x19,x19,347 # f515b <pma_region_0_size+0xb515b>
    41014644:	00c99993          	slli	x19,x19,0xc
    41014648:	82698993          	addi	x19,x19,-2010
    4101464c:	00033837          	lui	x16,0x33
    41014650:	2718081b          	addiw	x16,x16,625 # 33271 <_all_interrupts+0x307c7>
    41014654:	00e81813          	slli	x16,x16,0xe
    41014658:	adf80813          	addi	x16,x16,-1313
    4101465c:	d22bfb53          	fcvt.d.l	f22,x23
    41014660:	d229f653          	fcvt.d.l	f12,x19
    41014664:	d0387ed3          	fcvt.s.lu	f29,x16
    41014668:	eacb7fc7          	fmsub.d	f31,f22,f12,f29
    4101466c:	0005a7b7          	lui	x15,0x5a
    41014670:	64f7879b          	addiw	x15,x15,1615 # 5a64f <pma_region_0_size+0x1a64f>
    41014674:	00d79793          	slli	x15,x15,0xd
    41014678:	75878793          	addi	x15,x15,1880
    4101467c:	0006aa37          	lui	x20,0x6a
    41014680:	607a0a1b          	addiw	x20,x20,1543 # 6a607 <pma_region_0_size+0x2a607>
    41014684:	00da1a13          	slli	x20,x20,0xd
    41014688:	caba0a13          	addi	x20,x20,-853
    4101468c:	00081b37          	lui	x22,0x81
    41014690:	167b0b1b          	addiw	x22,x22,359 # 81167 <pma_region_0_size+0x41167>
    41014694:	00cb1b13          	slli	x22,x22,0xc
    41014698:	349b0b13          	addi	x22,x22,841
    4101469c:	d027f353          	fcvt.s.l	f6,x15
    410146a0:	d20a06d3          	fcvt.d.w	f13,x20
    410146a4:	d20b04d3          	fcvt.d.w	f9,x22
    410146a8:	48d37a43          	fmadd.s	f20,f6,f13,f9
    410146ac:	00048c37          	lui	x24,0x48
    410146b0:	f5dc0c1b          	addiw	x24,x24,-163 # 47f5d <pma_region_0_size+0x7f5d>
    410146b4:	00dc1c13          	slli	x24,x24,0xd
    410146b8:	94dc0c13          	addi	x24,x24,-1715
    410146bc:	00042737          	lui	x14,0x42
    410146c0:	4597071b          	addiw	x14,x14,1113 # 42459 <pma_region_0_size+0x2459>
    410146c4:	00d71713          	slli	x14,x14,0xd
    410146c8:	dfa70713          	addi	x14,x14,-518
    410146cc:	d20c0d53          	fcvt.d.w	f26,x24
    410146d0:	d22779d3          	fcvt.d.l	f19,x14
    410146d4:	033d7d53          	fadd.d	f26,f26,f19
    410146d8:	00041ab7          	lui	x21,0x41
    410146dc:	f11a8a9b          	addiw	x21,x21,-239 # 40f11 <pma_region_0_size+0xf11>
    410146e0:	00da9a93          	slli	x21,x21,0xd
    410146e4:	0e2a8a93          	addi	x21,x21,226
    410146e8:	00053b37          	lui	x22,0x53
    410146ec:	619b0b1b          	addiw	x22,x22,1561 # 53619 <pma_region_0_size+0x13619>
    410146f0:	00db1b13          	slli	x22,x22,0xd
    410146f4:	81fb0b13          	addi	x22,x22,-2017
    410146f8:	0004feb7          	lui	x29,0x4f
    410146fc:	d2de8e9b          	addiw	x29,x29,-723 # 4ed2d <pma_region_0_size+0xed2d>
    41014700:	00de9e93          	slli	x29,x29,0xd
    41014704:	b77e8e93          	addi	x29,x29,-1161
    41014708:	d00afbd3          	fcvt.s.w	f23,x21
    4101470c:	d22b7453          	fcvt.d.l	f8,x22
    41014710:	d21e88d3          	fcvt.d.wu	f17,x29
    41014714:	888bf8cb          	fnmsub.s	f17,f23,f8,f17
    41014718:	00097d37          	lui	x26,0x97
    4101471c:	839d0d1b          	addiw	x26,x26,-1991 # 96839 <pma_region_0_size+0x56839>
    41014720:	00cd1d13          	slli	x26,x26,0xc
    41014724:	b79d0d13          	addi	x26,x26,-1159
    41014728:	681b9c37          	lui	x24,0x681b9
    4101472c:	f5bc0c1b          	addiw	x24,x24,-165 # 681b8f5b <pma_region_2_end+0x23177f5b>
    41014730:	0b8d3333          	clmulh	x6,x26,x24
    41014734:	4fd506b7          	lui	x13,0x4fd50
    41014738:	7a16869b          	addiw	x13,x13,1953 # 4fd507a1 <pma_region_2_end+0xad0f7a1>
    4101473c:	0002fc37          	lui	x24,0x2f
    41014740:	c79c0c1b          	addiw	x24,x24,-903 # 2ec79 <_all_interrupts+0x2c1cf>
    41014744:	00ec1c13          	slli	x24,x24,0xe
    41014748:	86fc0c13          	addi	x24,x24,-1937
    4101474c:	d2068453          	fcvt.d.w	f8,x13
    41014750:	d22c7153          	fcvt.d.l	f2,x24
    41014754:	022475d3          	fadd.d	f11,f8,f2
    41014758:	b0002473          	csrr	x8,mcycle
    4101475c:	41b40333          	sub	x6,x8,x27
    41014760:	00000813          	li	x16,0
    41014764:	01031a63          	bne	x6,x16,41014778 <pass_label_3>
    41014768:	44db45b7          	lui	x11,0x44db4
    4101476c:	0085859b          	addiw	x11,x11,8 # 44db4008 <failed_addr>
    41014770:	0005b603          	ld	x12,0(x11)
    41014774:	00060067          	jr	x12

0000000041014778 <pass_label_3>:
    41014778:	30605bf3          	csrrwi	x23,mcounteren,0
    4101477c:	41216137          	lui	x2,0x41216
    41014780:	00013383          	ld	x7,0(x2) # 41216000 <tp_csr_storage>
    41014784:	306393f3          	csrrw	x7,mcounteren,x7

0000000041014788 <SID_SSCOFPMF_03A_MCOUNTEREN_MCYCLE_passed>:
    41014788:	44db42b7          	lui	x5,0x44db4
    4101478c:	0182829b          	addiw	x5,x5,24 # 44db4018 <os_passed_addr>
    41014790:	0002b303          	ld	x6,0(x5)
    41014794:	00030067          	jr	x6

0000000041014798 <SID_SSCOFPMF_03B_MCOUNTEREN_MINSTRET>:
    41014798:	41216137          	lui	x2,0x41216
    4101479c:	306023f3          	csrr	x7,mcounteren
    410147a0:	00713023          	sd	x7,0(x2) # 41216000 <tp_csr_storage>
    410147a4:	44daf137          	lui	x2,0x44daf
    410147a8:	000012b7          	lui	x5,0x1
    410147ac:	00510133          	add	x2,x2,x5
    410147b0:	ff017113          	andi	x2,x2,-16
    410147b4:	30627773          	csrrci	x14,mcounteren,4
    410147b8:	b0202ef3          	csrr	x29,minstret
    410147bc:	000e8f93          	mv	x31,x29
    410147c0:	000b1a37          	lui	x20,0xb1
    410147c4:	51ba0a1b          	addiw	x20,x20,1307 # b151b <pma_region_0_size+0x7151b>
    410147c8:	00ca1a13          	slli	x20,x20,0xc
    410147cc:	d78a0a13          	addi	x20,x20,-648
    410147d0:	1afb9737          	lui	x14,0x1afb9
    410147d4:	0977071b          	addiw	x14,x14,151 # 1afb9097 <pma_region_2_size+0x16fb9097>
    410147d8:	02ea0e33          	mul	x28,x20,x14
    410147dc:	0650bbb7          	lui	x23,0x650b
    410147e0:	156b8b9b          	addiw	x23,x23,342 # 650b156 <pma_region_2_size+0x250b156>
    410147e4:	682b8913          	addi	x18,x23,1666
    410147e8:	0009edb7          	lui	x27,0x9e
    410147ec:	413d8d9b          	addiw	x27,x27,1043 # 9e413 <pma_region_0_size+0x5e413>
    410147f0:	00cd9d93          	slli	x27,x27,0xc
    410147f4:	ca0d8d93          	addi	x27,x27,-864
    410147f8:	000a98b7          	lui	x17,0xa9
    410147fc:	beb8889b          	addiw	x17,x17,-1045 # a8beb <pma_region_0_size+0x68beb>
    41014800:	00c89893          	slli	x17,x17,0xc
    41014804:	00688893          	addi	x17,x17,6
    41014808:	786a7937          	lui	x18,0x786a7
    4101480c:	64b9091b          	addiw	x18,x18,1611 # 786a764b <pma_region_2_end+0x3366664b>
    41014810:	d22dfc53          	fcvt.d.l	f24,x27
    41014814:	d2088fd3          	fcvt.d.w	f31,x17
    41014818:	d0297b53          	fcvt.s.l	f22,x18
    4101481c:	b3fc71cf          	fnmadd.d	f3,f24,f31,f22
    41014820:	00063937          	lui	x18,0x63
    41014824:	7bb9091b          	addiw	x18,x18,1979 # 637bb <pma_region_0_size+0x237bb>
    41014828:	00d91913          	slli	x18,x18,0xd
    4101482c:	c8490913          	addi	x18,x18,-892
    41014830:	0b0de8b7          	lui	x17,0xb0de
    41014834:	fd48889b          	addiw	x17,x17,-44 # b0ddfd4 <pma_region_2_size+0x70ddfd4>
    41014838:	011906bb          	addw	x13,x18,x17
    4101483c:	00017a37          	lui	x20,0x17
    41014840:	271a0a1b          	addiw	x20,x20,625 # 17271 <_all_interrupts+0x147c7>
    41014844:	00fa1a13          	slli	x20,x20,0xf
    41014848:	e65a0a13          	addi	x20,x20,-411
    4101484c:	000b5bb7          	lui	x23,0xb5
    41014850:	af9b8b9b          	addiw	x23,x23,-1287 # b4af9 <pma_region_0_size+0x74af9>
    41014854:	00cb9b93          	slli	x23,x23,0xc
    41014858:	aa9b8b93          	addi	x23,x23,-1367
    4101485c:	7f79a637          	lui	x12,0x7f79a
    41014860:	eb26061b          	addiw	x12,x12,-334 # 7f799eb2 <pma_region_2_end+0x3a758eb2>
    41014864:	d00a7753          	fcvt.s.w	f14,x20
    41014868:	d21b8c53          	fcvt.d.wu	f24,x23
    4101486c:	d0367d53          	fcvt.s.lu	f26,x12
    41014870:	d38777c7          	fmsub.d	f15,f14,f24,f26
    41014874:	4a6ec8b7          	lui	x17,0x4a6ec
    41014878:	74d8889b          	addiw	x17,x17,1869 # 4a6ec74d <pma_region_2_end+0x56ab74d>
    4101487c:	5b8ab337          	lui	x6,0x5b8ab
    41014880:	a493031b          	addiw	x6,x6,-1463 # 5b8aaa49 <pma_region_2_end+0x16869a49>
    41014884:	d018f653          	fcvt.s.wu	f12,x17
    41014888:	d20309d3          	fcvt.d.w	f19,x6
    4101488c:	01367bd3          	fadd.s	f23,f12,f19
    41014890:	000f6637          	lui	x12,0xf6
    41014894:	a856061b          	addiw	x12,x12,-1403 # f5a85 <pma_region_0_size+0xb5a85>
    41014898:	00c61613          	slli	x12,x12,0xc
    4101489c:	14260613          	addi	x12,x12,322
    410148a0:	75005eb7          	lui	x29,0x75005
    410148a4:	b02e8e9b          	addiw	x29,x29,-1278 # 75004b02 <pma_region_2_end+0x2ffc3b02>
    410148a8:	24372bb7          	lui	x23,0x24372
    410148ac:	5d4b8b9b          	addiw	x23,x23,1492 # 243725d4 <pma_region_2_size+0x203725d4>
    410148b0:	d02673d3          	fcvt.s.l	f7,x12
    410148b4:	d23ef7d3          	fcvt.d.lu	f15,x29
    410148b8:	d20b82d3          	fcvt.d.w	f5,x23
    410148bc:	2af3f0cb          	fnmsub.d	f1,f7,f15,f5
    410148c0:	000ccd37          	lui	x26,0xcc
    410148c4:	791d0d1b          	addiw	x26,x26,1937 # cc791 <pma_region_0_size+0x8c791>
    410148c8:	00cd1d13          	slli	x26,x26,0xc
    410148cc:	cf7d0d13          	addi	x26,x26,-777
    410148d0:	5ffa4837          	lui	x16,0x5ffa4
    410148d4:	41d8081b          	addiw	x16,x16,1053 # 5ffa441d <pma_region_2_end+0x1af6341d>
    410148d8:	030d1d33          	mulh	x26,x26,x16
    410148dc:	44d978b7          	lui	x17,0x44d97
    410148e0:	a488889b          	addiw	x17,x17,-1464 # 44d96a48 <SID_SSCOFPMF_02E_MHPMCOUNTER11_UNIMPLEMENTED_stack+0x21a48>
    410148e4:	7bf4a637          	lui	x12,0x7bf4a
    410148e8:	2096061b          	addiw	x12,x12,521 # 7bf4a209 <pma_region_2_end+0x36f09209>
    410148ec:	00087737          	lui	x14,0x87
    410148f0:	bbd7071b          	addiw	x14,x14,-1091 # 86bbd <pma_region_0_size+0x46bbd>
    410148f4:	00c71713          	slli	x14,x14,0xc
    410148f8:	7a070713          	addi	x14,x14,1952
    410148fc:	d008f7d3          	fcvt.s.w	f15,x17
    41014900:	d23675d3          	fcvt.d.lu	f11,x12
    41014904:	d03770d3          	fcvt.s.lu	f1,x14
    41014908:	08b7f44b          	fnmsub.s	f8,f15,f11,f1
    4101490c:	0000de17          	auipc	x28,0xd
    41014910:	0006feb7          	lui	x29,0x6f
    41014914:	d25e8e9b          	addiw	x29,x29,-731 # 6ed25 <pma_region_0_size+0x2ed25>
    41014918:	00de9e93          	slli	x29,x29,0xd
    4101491c:	340e8e93          	addi	x29,x29,832
    41014920:	7a4159b7          	lui	x19,0x7a415
    41014924:	7859899b          	addiw	x19,x19,1925 # 7a415785 <pma_region_2_end+0x353d4785>
    41014928:	033efc33          	remu	x24,x29,x19
    4101492c:	0002e9b7          	lui	x19,0x2e
    41014930:	0d19899b          	addiw	x19,x19,209 # 2e0d1 <_all_interrupts+0x2b627>
    41014934:	00e99993          	slli	x19,x19,0xe
    41014938:	86498993          	addi	x19,x19,-1948
    4101493c:	2fe98893          	addi	x17,x19,766
    41014940:	0000f637          	lui	x12,0xf
    41014944:	4676061b          	addiw	x12,x12,1127 # f467 <_all_interrupts+0xc9bd>
    41014948:	01061613          	slli	x12,x12,0x10
    4101494c:	32a60613          	addi	x12,x12,810
    41014950:	000baab7          	lui	x21,0xba
    41014954:	589a8a9b          	addiw	x21,x21,1417 # ba589 <pma_region_0_size+0x7a589>
    41014958:	00ca9a93          	slli	x21,x21,0xc
    4101495c:	a85a8a93          	addi	x21,x21,-1403
    41014960:	0356783b          	remuw	x16,x12,x21
    41014964:	001c3c17          	auipc	x24,0x1c3
    41014968:	000675b7          	lui	x11,0x67
    4101496c:	f4f5859b          	addiw	x11,x11,-177 # 66f4f <pma_region_0_size+0x26f4f>
    41014970:	00d59593          	slli	x11,x11,0xd
    41014974:	14758593          	addi	x11,x11,327
    41014978:	6b4163b7          	lui	x7,0x6b416
    4101497c:	a813839b          	addiw	x7,x7,-1407 # 6b415a81 <pma_region_2_end+0x263d4a81>
    41014980:	d2158753          	fcvt.d.wu	f14,x11
    41014984:	d023f653          	fcvt.s.l	f12,x7
    41014988:	00c77e53          	fadd.s	f28,f14,f12
    4101498c:	000efe37          	lui	x28,0xef
    41014990:	9b1e0e1b          	addiw	x28,x28,-1615 # ee9b1 <pma_region_0_size+0xae9b1>
    41014994:	00ce1e13          	slli	x28,x28,0xc
    41014998:	4f9e0e13          	addi	x28,x28,1273
    4101499c:	7dfbb937          	lui	x18,0x7dfbb
    410149a0:	d9f9091b          	addiw	x18,x18,-609 # 7dfbad9f <pma_region_2_end+0x38f79d9f>
    410149a4:	032e08b3          	mul	x17,x28,x18
    410149a8:	000d6837          	lui	x16,0xd6
    410149ac:	0478081b          	addiw	x16,x16,71 # d6047 <pma_region_0_size+0x96047>
    410149b0:	00c81813          	slli	x16,x16,0xc
    410149b4:	61a80813          	addi	x16,x16,1562
    410149b8:	00057cb7          	lui	x25,0x57
    410149bc:	119c8c9b          	addiw	x25,x25,281 # 57119 <pma_region_0_size+0x17119>
    410149c0:	00dc9c93          	slli	x25,x25,0xd
    410149c4:	1e9c8c93          	addi	x25,x25,489
    410149c8:	419809bb          	subw	x19,x16,x25
    410149cc:	4bf8b837          	lui	x16,0x4bf8b
    410149d0:	43d8081b          	addiw	x16,x16,1085 # 4bf8b43d <pma_region_2_end+0x6f4a43d>
    410149d4:	65093db7          	lui	x27,0x65093
    410149d8:	665d8d9b          	addiw	x27,x27,1637 # 65093665 <pma_region_2_end+0x20052665>
    410149dc:	3b4bf537          	lui	x10,0x3b4bf
    410149e0:	e545051b          	addiw	x10,x10,-428 # 3b4bee54 <pma_region_2_size+0x374bee54>
    410149e4:	d2080cd3          	fcvt.d.w	f25,x16
    410149e8:	d20d8153          	fcvt.d.w	f2,x27
    410149ec:	d0157e53          	fcvt.s.wu	f28,x10
    410149f0:	e02cf1cf          	fnmadd.s	f3,f25,f2,f28
    410149f4:	2809de37          	lui	x28,0x2809d
    410149f8:	c8ce0e1b          	addiw	x28,x28,-884 # 2809cc8c <pma_region_2_size+0x2409cc8c>
    410149fc:	7d215837          	lui	x16,0x7d215
    41014a00:	e9a8081b          	addiw	x16,x16,-358 # 7d214e9a <pma_region_2_end+0x381d3e9a>
    41014a04:	d21e07d3          	fcvt.d.wu	f15,x28
    41014a08:	d00874d3          	fcvt.s.w	f9,x16
    41014a0c:	0297f653          	fadd.d	f12,f15,f9
    41014a10:	0004c8b7          	lui	x17,0x4c
    41014a14:	5bf8889b          	addiw	x17,x17,1471 # 4c5bf <pma_region_0_size+0xc5bf>
    41014a18:	00d89893          	slli	x17,x17,0xd
    41014a1c:	f5288893          	addi	x17,x17,-174
    41014a20:	426865b7          	lui	x11,0x42686
    41014a24:	3725859b          	addiw	x11,x11,882 # 42686372 <tp_csr_storage+0x1470372>
    41014a28:	00012e37          	lui	x28,0x12
    41014a2c:	8dde0e1b          	addiw	x28,x28,-1827 # 118dd <_all_interrupts+0xee33>
    41014a30:	00fe1e13          	slli	x28,x28,0xf
    41014a34:	00ee0e13          	addi	x28,x28,14
    41014a38:	d038f4d3          	fcvt.s.lu	f9,x17
    41014a3c:	d2058ed3          	fcvt.d.w	f29,x11
    41014a40:	d01e7d53          	fcvt.s.wu	f26,x28
    41014a44:	d3d4fac3          	fmadd.d	f21,f9,f29,f26
    41014a48:	6d7ac937          	lui	x18,0x6d7ac
    41014a4c:	8bb9091b          	addiw	x18,x18,-1861 # 6d7ab8bb <pma_region_2_end+0x2876a8bb>
    41014a50:	000b2c37          	lui	x24,0xb2
    41014a54:	141c0c1b          	addiw	x24,x24,321 # b2141 <pma_region_0_size+0x72141>
    41014a58:	00cc1c13          	slli	x24,x24,0xc
    41014a5c:	e4ac0c13          	addi	x24,x24,-438
    41014a60:	00057437          	lui	x8,0x57
    41014a64:	ee14041b          	addiw	x8,x8,-287 # 56ee1 <pma_region_0_size+0x16ee1>
    41014a68:	00d41413          	slli	x8,x8,0xd
    41014a6c:	21140413          	addi	x8,x8,529
    41014a70:	d0197553          	fcvt.s.wu	f10,x18
    41014a74:	d22c7753          	fcvt.d.l	f14,x24
    41014a78:	d0047653          	fcvt.s.w	f12,x8
    41014a7c:	62e57c4b          	fnmsub.d	f24,f10,f14,f12
    41014a80:	000b3a37          	lui	x20,0xb3
    41014a84:	ff1a0a1b          	addiw	x20,x20,-15 # b2ff1 <pma_region_0_size+0x72ff1>
    41014a88:	00ca1a13          	slli	x20,x20,0xc
    41014a8c:	a7da0a13          	addi	x20,x20,-1411
    41014a90:	000eb3b7          	lui	x7,0xeb
    41014a94:	2813839b          	addiw	x7,x7,641 # eb281 <pma_region_0_size+0xab281>
    41014a98:	00c39393          	slli	x7,x7,0xc
    41014a9c:	2f238393          	addi	x7,x7,754
    41014aa0:	027a4733          	div	x14,x20,x7
    41014aa4:	15956437          	lui	x8,0x15956
    41014aa8:	6204041b          	addiw	x8,x8,1568 # 15956620 <pma_region_2_size+0x11956620>
    41014aac:	00096c37          	lui	x24,0x96
    41014ab0:	fd9c0c1b          	addiw	x24,x24,-39 # 95fd9 <pma_region_0_size+0x55fd9>
    41014ab4:	00cc1c13          	slli	x24,x24,0xc
    41014ab8:	48fc0c13          	addi	x24,x24,1167
    41014abc:	0b843433          	clmulh	x8,x8,x24
    41014ac0:	000ba6b7          	lui	x13,0xba
    41014ac4:	5136869b          	addiw	x13,x13,1299 # ba513 <pma_region_0_size+0x7a513>
    41014ac8:	00c69693          	slli	x13,x13,0xc
    41014acc:	8a268693          	addi	x13,x13,-1886
    41014ad0:	000d17b7          	lui	x15,0xd1
    41014ad4:	5ed7879b          	addiw	x15,x15,1517 # d15ed <pma_region_0_size+0x915ed>
    41014ad8:	00c79793          	slli	x15,x15,0xc
    41014adc:	4a778793          	addi	x15,x15,1191
    41014ae0:	00093d37          	lui	x26,0x93
    41014ae4:	647d0d1b          	addiw	x26,x26,1607 # 93647 <pma_region_0_size+0x53647>
    41014ae8:	00cd1d13          	slli	x26,x26,0xc
    41014aec:	be3d0d13          	addi	x26,x26,-1053
    41014af0:	d20685d3          	fcvt.d.w	f11,x13
    41014af4:	d007fbd3          	fcvt.s.w	f23,x15
    41014af8:	d22d70d3          	fcvt.d.l	f1,x26
    41014afc:	0b75fec3          	fmadd.d	f29,f11,f23,f1
    41014b00:	189009b7          	lui	x19,0x18900
    41014b04:	0cc9899b          	addiw	x19,x19,204 # 189000cc <pma_region_2_size+0x149000cc>
    41014b08:	12379bb7          	lui	x23,0x12379
    41014b0c:	868b8b9b          	addiw	x23,x23,-1944 # 12378868 <pma_region_2_size+0xe378868>
    41014b10:	417984bb          	subw	x9,x19,x23
    41014b14:	5b269837          	lui	x16,0x5b269
    41014b18:	1098081b          	addiw	x16,x16,265 # 5b269109 <pma_region_2_end+0x16228109>
    41014b1c:	2d172437          	lui	x8,0x2d172
    41014b20:	4ae4041b          	addiw	x8,x8,1198 # 2d1724ae <pma_region_2_size+0x291724ae>
    41014b24:	028803bb          	mulw	x7,x16,x8
    41014b28:	000ffb37          	lui	x22,0xff
    41014b2c:	6c7b0b1b          	addiw	x22,x22,1735 # ff6c7 <pma_region_0_size+0xbf6c7>
    41014b30:	00cb1b13          	slli	x22,x22,0xc
    41014b34:	a1eb0b13          	addi	x22,x22,-1506
    41014b38:	0008c937          	lui	x18,0x8c
    41014b3c:	9679091b          	addiw	x18,x18,-1689 # 8b967 <pma_region_0_size+0x4b967>
    41014b40:	00c91913          	slli	x18,x18,0xc
    41014b44:	e9f90913          	addi	x18,x18,-353
    41014b48:	412b033b          	subw	x6,x22,x18
    41014b4c:	25811bb7          	lui	x23,0x25811
    41014b50:	7a8b8b9b          	addiw	x23,x23,1960 # 258117a8 <pma_region_2_size+0x218117a8>
    41014b54:	000cec37          	lui	x24,0xce
    41014b58:	69fc0c1b          	addiw	x24,x24,1695 # ce69f <pma_region_0_size+0x8e69f>
    41014b5c:	00cc1c13          	slli	x24,x24,0xc
    41014b60:	78bc0c13          	addi	x24,x24,1931
    41014b64:	418b843b          	subw	x8,x23,x24
    41014b68:	004f1d37          	lui	x26,0x4f1
    41014b6c:	6ab15537          	lui	x10,0x6ab15
    41014b70:	f815051b          	addiw	x10,x10,-127 # 6ab14f81 <pma_region_2_end+0x25ad3f81>
    41014b74:	00039c37          	lui	x24,0x39
    41014b78:	7c3c0c1b          	addiw	x24,x24,1987 # 397c3 <_all_interrupts+0x36d19>
    41014b7c:	00ec1c13          	slli	x24,x24,0xe
    41014b80:	ff9c0c13          	addi	x24,x24,-7
    41014b84:	0b851a33          	clmul	x20,x10,x24
    41014b88:	111c63b7          	lui	x7,0x111c6
    41014b8c:	2e33839b          	addiw	x7,x7,739 # 111c62e3 <pma_region_2_size+0xd1c62e3>
    41014b90:	00066d37          	lui	x26,0x66
    41014b94:	379d0d1b          	addiw	x26,x26,889 # 66379 <pma_region_0_size+0x26379>
    41014b98:	00dd1d13          	slli	x26,x26,0xd
    41014b9c:	e09d0d13          	addi	x26,x26,-503
    41014ba0:	160decb7          	lui	x25,0x160de
    41014ba4:	24ac8c9b          	addiw	x25,x25,586 # 160de24a <pma_region_2_size+0x120de24a>
    41014ba8:	d013fcd3          	fcvt.s.wu	f25,x7
    41014bac:	d02d7553          	fcvt.s.l	f10,x26
    41014bb0:	d00cf1d3          	fcvt.s.w	f3,x25
    41014bb4:	1aacf643          	fmadd.d	f12,f25,f10,f3
    41014bb8:	000e96b7          	lui	x13,0xe9
    41014bbc:	4f56869b          	addiw	x13,x13,1269 # e94f5 <pma_region_0_size+0xa94f5>
    41014bc0:	00c69693          	slli	x13,x13,0xc
    41014bc4:	9a168693          	addi	x13,x13,-1631
    41014bc8:	0001d637          	lui	x12,0x1d
    41014bcc:	a7f6061b          	addiw	x12,x12,-1409 # 1ca7f <_all_interrupts+0x19fd5>
    41014bd0:	00f61613          	slli	x12,x12,0xf
    41014bd4:	2d860613          	addi	x12,x12,728
    41014bd8:	02c697b3          	mulh	x15,x13,x12
    41014bdc:	b0202873          	csrr	x16,minstret
    41014be0:	00080493          	mv	x9,x16
    41014be4:	41f48933          	sub	x18,x9,x31
    41014be8:	00000613          	li	x12,0
    41014bec:	00c91a63          	bne	x18,x12,41014c00 <pass_label_4>
    41014bf0:	44db4637          	lui	x12,0x44db4
    41014bf4:	0086061b          	addiw	x12,x12,8 # 44db4008 <failed_addr>
    41014bf8:	00063b03          	ld	x22,0(x12)
    41014bfc:	000b0067          	jr	x22

0000000041014c00 <pass_label_4>:
    41014c00:	30605873          	csrrwi	x16,mcounteren,0
    41014c04:	41216137          	lui	x2,0x41216
    41014c08:	00013383          	ld	x7,0(x2) # 41216000 <tp_csr_storage>
    41014c0c:	306393f3          	csrrw	x7,mcounteren,x7

0000000041014c10 <SID_SSCOFPMF_03B_MCOUNTEREN_MINSTRET_passed>:
    41014c10:	44db42b7          	lui	x5,0x44db4
    41014c14:	0182829b          	addiw	x5,x5,24 # 44db4018 <os_passed_addr>
    41014c18:	0002b303          	ld	x6,0(x5)
    41014c1c:	00030067          	jr	x6

0000000041014c20 <SID_SSCOFPMF_04A_MCOUNTINHIBIT_MCYCLE_STOPS>:
    41014c20:	41216137          	lui	x2,0x41216
    41014c24:	320023f3          	csrr	x7,mcountinhibit
    41014c28:	00713023          	sd	x7,0(x2) # 41216000 <tp_csr_storage>
    41014c2c:	44d1d137          	lui	x2,0x44d1d
    41014c30:	000012b7          	lui	x5,0x1
    41014c34:	00510133          	add	x2,x2,x5
    41014c38:	ff017113          	andi	x2,x2,-16
    41014c3c:	3200ef73          	csrrsi	x30,mcountinhibit,1
    41014c40:	78093ab7          	lui	x21,0x78093
    41014c44:	ffca8a9b          	addiw	x21,x21,-4 # 78092ffc <pma_region_2_end+0x33051ffc>
    41014c48:	30862b37          	lui	x22,0x30862
    41014c4c:	996b0b1b          	addiw	x22,x22,-1642 # 30861996 <pma_region_2_size+0x2c861996>
    41014c50:	00018db7          	lui	x27,0x18
    41014c54:	131d8d9b          	addiw	x27,x27,305 # 18131 <_all_interrupts+0x15687>
    41014c58:	00fd9d93          	slli	x27,x27,0xf
    41014c5c:	5d8d8d93          	addi	x27,x27,1496
    41014c60:	d00afe53          	fcvt.s.w	f28,x21
    41014c64:	d22b75d3          	fcvt.d.l	f11,x22
    41014c68:	d03df9d3          	fcvt.s.lu	f19,x27
    41014c6c:	9abe7f43          	fmadd.d	f30,f28,f11,f19
    41014c70:	0002be37          	lui	x28,0x2b
    41014c74:	6c1e0e1b          	addiw	x28,x28,1729 # 2b6c1 <_all_interrupts+0x28c17>
    41014c78:	00ee1e13          	slli	x28,x28,0xe
    41014c7c:	0b5e0e13          	addi	x28,x28,181
    41014c80:	00036eb7          	lui	x29,0x36
    41014c84:	287e8e9b          	addiw	x29,x29,647 # 36287 <_all_interrupts+0x337dd>
    41014c88:	00ee9e93          	slli	x29,x29,0xe
    41014c8c:	800e8e93          	addi	x29,x29,-2048
    41014c90:	5fb09437          	lui	x8,0x5fb09
    41014c94:	7914041b          	addiw	x8,x8,1937 # 5fb09791 <pma_region_2_end+0x1aac8791>
    41014c98:	d21e0ad3          	fcvt.d.wu	f21,x28
    41014c9c:	d00ef953          	fcvt.s.w	f18,x29
    41014ca0:	d0247b53          	fcvt.s.l	f22,x8
    41014ca4:	b12afdc3          	fmadd.s	f27,f21,f18,f22
    41014ca8:	00414c37          	lui	x24,0x414
    41014cac:	2f7219b7          	lui	x19,0x2f721
    41014cb0:	3899899b          	addiw	x19,x19,905 # 2f721389 <pma_region_2_size+0x2b721389>
    41014cb4:	5b294eb7          	lui	x29,0x5b294
    41014cb8:	bbde8e9b          	addiw	x29,x29,-1091 # 5b293bbd <pma_region_2_end+0x16252bbd>
    41014cbc:	03d99cb3          	mulh	x25,x19,x29
    41014cc0:	23e71637          	lui	x12,0x23e71
    41014cc4:	0fa6061b          	addiw	x12,x12,250 # 23e710fa <pma_region_2_size+0x1fe710fa>
    41014cc8:	00019d37          	lui	x26,0x19
    41014ccc:	717d0d1b          	addiw	x26,x26,1815 # 19717 <_all_interrupts+0x16c6d>
    41014cd0:	00fd1d13          	slli	x26,x26,0xf
    41014cd4:	4c6d0d13          	addi	x26,x26,1222
    41014cd8:	22a85bb7          	lui	x23,0x22a85
    41014cdc:	499b8b9b          	addiw	x23,x23,1177 # 22a85499 <pma_region_2_size+0x1ea85499>
    41014ce0:	d0167a53          	fcvt.s.wu	f20,x12
    41014ce4:	d20d0853          	fcvt.d.w	f16,x26
    41014ce8:	d03bf153          	fcvt.s.lu	f2,x23
    41014cec:	130a7a43          	fmadd.d	f20,f20,f16,f2
    41014cf0:	3bb13537          	lui	x10,0x3bb13
    41014cf4:	a6e5051b          	addiw	x10,x10,-1426 # 3bb12a6e <pma_region_2_size+0x37b12a6e>
    41014cf8:	44c55b37          	lui	x22,0x44c55
    41014cfc:	d8eb0b1b          	addiw	x22,x22,-626 # 44c54d8e <current_test_index+0x14c06>
    41014d00:	d0357ed3          	fcvt.s.lu	f29,x10
    41014d04:	d21b0353          	fcvt.d.wu	f6,x22
    41014d08:	086ef2d3          	fsub.s	f5,f29,f6
    41014d0c:	00034637          	lui	x12,0x34
    41014d10:	bf16061b          	addiw	x12,x12,-1039 # 33bf1 <_all_interrupts+0x31147>
    41014d14:	00e61613          	slli	x12,x12,0xe
    41014d18:	d5360613          	addi	x12,x12,-685
    41014d1c:	00046437          	lui	x8,0x46
    41014d20:	7a14041b          	addiw	x8,x8,1953 # 467a1 <pma_region_0_size+0x67a1>
    41014d24:	00d41413          	slli	x8,x8,0xd
    41014d28:	b8540413          	addi	x8,x8,-1147
    41014d2c:	000a2737          	lui	x14,0xa2
    41014d30:	0637071b          	addiw	x14,x14,99 # a2063 <pma_region_0_size+0x62063>
    41014d34:	00c71713          	slli	x14,x14,0xc
    41014d38:	bdf70713          	addi	x14,x14,-1057
    41014d3c:	d0167253          	fcvt.s.wu	f4,x12
    41014d40:	d2347c53          	fcvt.d.lu	f24,x8
    41014d44:	d20707d3          	fcvt.d.w	f15,x14
    41014d48:	79827e43          	fmadd.s	f28,f4,f24,f15
    41014d4c:	60c50737          	lui	x14,0x60c50
    41014d50:	6647071b          	addiw	x14,x14,1636 # 60c50664 <pma_region_2_end+0x1bc0f664>
    41014d54:	66777b37          	lui	x22,0x66777
    41014d58:	271b0b1b          	addiw	x22,x22,625 # 66777271 <pma_region_2_end+0x21736271>
    41014d5c:	03675333          	divu	x6,x14,x22
    41014d60:	b0002a73          	csrr	x20,mcycle
    41014d64:	000cf6b7          	lui	x13,0xcf
    41014d68:	f976869b          	addiw	x13,x13,-105 # cef97 <pma_region_0_size+0x8ef97>
    41014d6c:	00c69693          	slli	x13,x13,0xc
    41014d70:	8ed68693          	addi	x13,x13,-1811
    41014d74:	00069737          	lui	x14,0x69
    41014d78:	6917071b          	addiw	x14,x14,1681 # 69691 <pma_region_0_size+0x29691>
    41014d7c:	00d71713          	slli	x14,x14,0xd
    41014d80:	60970713          	addi	x14,x14,1545
    41014d84:	d2168cd3          	fcvt.d.wu	f25,x13
    41014d88:	d03776d3          	fcvt.s.lu	f13,x14
    41014d8c:	18dcf553          	fdiv.s	f10,f25,f13
    41014d90:	002793b7          	lui	x7,0x279
    41014d94:	000c08b7          	lui	x17,0xc0
    41014d98:	d9d8889b          	addiw	x17,x17,-611 # bfd9d <pma_region_0_size+0x7fd9d>
    41014d9c:	00c89893          	slli	x17,x17,0xc
    41014da0:	b1888893          	addi	x17,x17,-1256
    41014da4:	1e088c9b          	addiw	x25,x17,480
    41014da8:	579df737          	lui	x14,0x579df
    41014dac:	8b37071b          	addiw	x14,x14,-1869 # 579de8b3 <pma_region_2_end+0x1299d8b3>
    41014db0:	47dee7b7          	lui	x15,0x47dee
    41014db4:	cf77879b          	addiw	x15,x15,-777 # 47dedcf7 <pma_region_2_end+0x2daccf7>
    41014db8:	000e19b7          	lui	x19,0xe1
    41014dbc:	eab9899b          	addiw	x19,x19,-341 # e0eab <pma_region_0_size+0xa0eab>
    41014dc0:	00c99993          	slli	x19,x19,0xc
    41014dc4:	47398993          	addi	x19,x19,1139
    41014dc8:	d02777d3          	fcvt.s.l	f15,x14
    41014dcc:	d2078a53          	fcvt.d.w	f20,x15
    41014dd0:	d009fad3          	fcvt.s.w	f21,x19
    41014dd4:	ab47f1cb          	fnmsub.d	f3,f15,f20,f21
    41014dd8:	000b8437          	lui	x8,0xb8
    41014ddc:	5674041b          	addiw	x8,x8,1383 # b8567 <pma_region_0_size+0x78567>
    41014de0:	00c41413          	slli	x8,x8,0xc
    41014de4:	40d40413          	addi	x8,x8,1037
    41014de8:	0001edb7          	lui	x27,0x1e
    41014dec:	a13d8d9b          	addiw	x27,x27,-1517 # 1da13 <_all_interrupts+0x1af69>
    41014df0:	00fd9d93          	slli	x27,x27,0xf
    41014df4:	b24d8d93          	addi	x27,x27,-1244
    41014df8:	d0347453          	fcvt.s.lu	f8,x8
    41014dfc:	d02df853          	fcvt.s.l	f16,x27
    41014e00:	11047753          	fmul.s	f14,f8,f16
    41014e04:	000983b7          	lui	x7,0x98
    41014e08:	5853839b          	addiw	x7,x7,1413 # 98585 <pma_region_0_size+0x58585>
    41014e0c:	00c39393          	slli	x7,x7,0xc
    41014e10:	fcf38393          	addi	x7,x7,-49
    41014e14:	000814b7          	lui	x9,0x81
    41014e18:	aad4849b          	addiw	x9,x9,-1363 # 80aad <pma_region_0_size+0x40aad>
    41014e1c:	00c49493          	slli	x9,x9,0xc
    41014e20:	edc48493          	addi	x9,x9,-292
    41014e24:	0293af33          	mulhsu	x30,x7,x9
    41014e28:	000953b7          	lui	x7,0x95
    41014e2c:	b313839b          	addiw	x7,x7,-1231 # 94b31 <pma_region_0_size+0x54b31>
    41014e30:	00c39393          	slli	x7,x7,0xc
    41014e34:	46538393          	addi	x7,x7,1125
    41014e38:	0002ccb7          	lui	x25,0x2c
    41014e3c:	28bc8c9b          	addiw	x25,x25,651 # 2c28b <_all_interrupts+0x297e1>
    41014e40:	00ec9c93          	slli	x25,x25,0xe
    41014e44:	efec8c93          	addi	x25,x25,-258
    41014e48:	000bb7b7          	lui	x15,0xbb
    41014e4c:	6bf7879b          	addiw	x15,x15,1727 # bb6bf <pma_region_0_size+0x7b6bf>
    41014e50:	00c79793          	slli	x15,x15,0xc
    41014e54:	b3678793          	addi	x15,x15,-1226
    41014e58:	d233f3d3          	fcvt.d.lu	f7,x7
    41014e5c:	d03cf4d3          	fcvt.s.lu	f9,x25
    41014e60:	d21785d3          	fcvt.d.wu	f11,x15
    41014e64:	5893fe43          	fmadd.s	f28,f7,f9,f11
    41014e68:	000795b7          	lui	x11,0x79
    41014e6c:	71b5859b          	addiw	x11,x11,1819 # 7971b <pma_region_0_size+0x3971b>
    41014e70:	00d59593          	slli	x11,x11,0xd
    41014e74:	26d58593          	addi	x11,x11,621
    41014e78:	520b79b7          	lui	x19,0x520b7
    41014e7c:	b999899b          	addiw	x19,x19,-1127 # 520b6b99 <pma_region_2_end+0xd075b99>
    41014e80:	0335e633          	rem	x12,x11,x19
    41014e84:	0005f7b7          	lui	x15,0x5f
    41014e88:	0c37879b          	addiw	x15,x15,195 # 5f0c3 <pma_region_0_size+0x1f0c3>
    41014e8c:	00d79793          	slli	x15,x15,0xd
    41014e90:	7ec78793          	addi	x15,x15,2028
    41014e94:	6640bdb7          	lui	x27,0x6640b
    41014e98:	2dcd8d9b          	addiw	x27,x27,732 # 6640b2dc <pma_region_2_end+0x213ca2dc>
    41014e9c:	01b78d3b          	addw	x26,x15,x27
    41014ea0:	00006e37          	lui	x28,0x6
    41014ea4:	021e0e1b          	addiw	x28,x28,33 # 6021 <_all_interrupts+0x3577>
    41014ea8:	011e1e13          	slli	x28,x28,0x11
    41014eac:	f69e0e13          	addi	x28,x28,-151
    41014eb0:	000b78b7          	lui	x17,0xb7
    41014eb4:	bcf8889b          	addiw	x17,x17,-1073 # b6bcf <pma_region_0_size+0x76bcf>
    41014eb8:	00c89893          	slli	x17,x17,0xc
    41014ebc:	51c88893          	addi	x17,x17,1308
    41014ec0:	411e03bb          	subw	x7,x28,x17
    41014ec4:	0006f837          	lui	x16,0x6f
    41014ec8:	4598081b          	addiw	x16,x16,1113 # 6f459 <pma_region_0_size+0x2f459>
    41014ecc:	00d81813          	slli	x16,x16,0xd
    41014ed0:	c3e80813          	addi	x16,x16,-962
    41014ed4:	0005aeb7          	lui	x29,0x5a
    41014ed8:	2d5e8e9b          	addiw	x29,x29,725 # 5a2d5 <pma_region_0_size+0x1a2d5>
    41014edc:	00de9e93          	slli	x29,x29,0xd
    41014ee0:	3a5e8e93          	addi	x29,x29,933
    41014ee4:	41d807bb          	subw	x15,x16,x29
    41014ee8:	000f0c37          	lui	x24,0xf0
    41014eec:	819c0c1b          	addiw	x24,x24,-2023 # ef819 <pma_region_0_size+0xaf819>
    41014ef0:	00cc1c13          	slli	x24,x24,0xc
    41014ef4:	2f2c0c13          	addi	x24,x24,754
    41014ef8:	000a26b7          	lui	x13,0xa2
    41014efc:	d436869b          	addiw	x13,x13,-701 # a1d43 <pma_region_0_size+0x61d43>
    41014f00:	00c69693          	slli	x13,x13,0xc
    41014f04:	42f68693          	addi	x13,x13,1071
    41014f08:	d21c0bd3          	fcvt.d.wu	f23,x24
    41014f0c:	d2168253          	fcvt.d.wu	f4,x13
    41014f10:	1a4bff53          	fdiv.d	f30,f23,f4
    41014f14:	00060fb7          	lui	x31,0x60
    41014f18:	73df8f9b          	addiw	x31,x31,1853 # 6073d <pma_region_0_size+0x2073d>
    41014f1c:	00df9f93          	slli	x31,x31,0xd
    41014f20:	0003e837          	lui	x16,0x3e
    41014f24:	0cb8081b          	addiw	x16,x16,203 # 3e0cb <_all_interrupts+0x3b621>
    41014f28:	00e81813          	slli	x16,x16,0xe
    41014f2c:	25980813          	addi	x16,x16,601
    41014f30:	d22ff953          	fcvt.d.l	f18,x31
    41014f34:	d0387453          	fcvt.s.lu	f8,x16
    41014f38:	02897c53          	fadd.d	f24,f18,f8
    41014f3c:	0003fcb7          	lui	x25,0x3f
    41014f40:	a91c8c9b          	addiw	x25,x25,-1391 # 3ea91 <_all_interrupts+0x3bfe7>
    41014f44:	00ec9c93          	slli	x25,x25,0xe
    41014f48:	732c8c93          	addi	x25,x25,1842
    41014f4c:	000b77b7          	lui	x15,0xb7
    41014f50:	63b7879b          	addiw	x15,x15,1595 # b763b <pma_region_0_size+0x7763b>
    41014f54:	00c79793          	slli	x15,x15,0xc
    41014f58:	e1278793          	addi	x15,x15,-494
    41014f5c:	02fc96b3          	mulh	x13,x25,x15
    41014f60:	4aa6b637          	lui	x12,0x4aa6b
    41014f64:	05b6061b          	addiw	x12,x12,91 # 4aa6b05b <pma_region_2_end+0x5a2a05b>
    41014f68:	000887b7          	lui	x15,0x88
    41014f6c:	2d37879b          	addiw	x15,x15,723 # 882d3 <pma_region_0_size+0x482d3>
    41014f70:	00c79793          	slli	x15,x15,0xc
    41014f74:	eb078793          	addi	x15,x15,-336
    41014f78:	02f663bb          	remw	x7,x12,x15
    41014f7c:	00028eb7          	lui	x29,0x28
    41014f80:	d6de8e9b          	addiw	x29,x29,-659 # 27d6d <_all_interrupts+0x252c3>
    41014f84:	00ee9e93          	slli	x29,x29,0xe
    41014f88:	17be8e93          	addi	x29,x29,379
    41014f8c:	00005637          	lui	x12,0x5
    41014f90:	1896061b          	addiw	x12,x12,393 # 5189 <_all_interrupts+0x26df>
    41014f94:	01161613          	slli	x12,x12,0x11
    41014f98:	ee060613          	addi	x12,x12,-288
    41014f9c:	0aceb333          	clmulh	x6,x29,x12
    41014fa0:	002b0f97          	auipc	x31,0x2b0
    41014fa4:	0002b537          	lui	x10,0x2b
    41014fa8:	ec15051b          	addiw	x10,x10,-319 # 2aec1 <_all_interrupts+0x28417>
    41014fac:	00e51513          	slli	x10,x10,0xe
    41014fb0:	d0950513          	addi	x10,x10,-759
    41014fb4:	129a7737          	lui	x14,0x129a7
    41014fb8:	0f67071b          	addiw	x14,x14,246 # 129a70f6 <pma_region_2_size+0xe9a70f6>
    41014fbc:	5e103637          	lui	x12,0x5e103
    41014fc0:	c236061b          	addiw	x12,x12,-989 # 5e102c23 <pma_region_2_end+0x190c1c23>
    41014fc4:	d0357c53          	fcvt.s.lu	f24,x10
    41014fc8:	d2277b53          	fcvt.d.l	f22,x14
    41014fcc:	d20609d3          	fcvt.d.w	f19,x12
    41014fd0:	9b6c754b          	fnmsub.d	f10,f24,f22,f19
    41014fd4:	4eff7f37          	lui	x30,0x4eff7
    41014fd8:	78af0f1b          	addiw	x30,x30,1930 # 4eff778a <pma_region_2_end+0x9fb678a>
    41014fdc:	652a6d37          	lui	x26,0x652a6
    41014fe0:	f1cd0d1b          	addiw	x26,x26,-228 # 652a5f1c <pma_region_2_end+0x20264f1c>
    41014fe4:	d20f0cd3          	fcvt.d.w	f25,x30
    41014fe8:	d23d7ad3          	fcvt.d.lu	f21,x26
    41014fec:	035cffd3          	fadd.d	f31,f25,f21
    41014ff0:	7be77cb7          	lui	x25,0x7be77
    41014ff4:	a6ec8c9b          	addiw	x25,x25,-1426 # 7be76a6e <pma_region_2_end+0x36e35a6e>
    41014ff8:	2cbe0437          	lui	x8,0x2cbe0
    41014ffc:	0f54041b          	addiw	x8,x8,245 # 2cbe00f5 <pma_region_2_size+0x28be00f5>
    41015000:	028cd6bb          	divuw	x13,x25,x8
    41015004:	42073c37          	lui	x24,0x42073
    41015008:	c98c0c1b          	addiw	x24,x24,-872 # 42072c98 <tp_csr_storage+0xe5cc98>
    4101500c:	0007b8b7          	lui	x17,0x7b
    41015010:	9658889b          	addiw	x17,x17,-1691 # 7a965 <pma_region_0_size+0x3a965>
    41015014:	00d89893          	slli	x17,x17,0xd
    41015018:	20688893          	addi	x17,x17,518
    4101501c:	d00c7b53          	fcvt.s.w	f22,x24
    41015020:	d018fd53          	fcvt.s.wu	f26,x17
    41015024:	01ab7e53          	fadd.s	f28,f22,f26
    41015028:	000e7b37          	lui	x22,0xe7
    4101502c:	bddb0b1b          	addiw	x22,x22,-1059 # e6bdd <pma_region_0_size+0xa6bdd>
    41015030:	00cb1b13          	slli	x22,x22,0xc
    41015034:	5afb0b13          	addi	x22,x22,1455
    41015038:	5aa00737          	lui	x14,0x5aa00
    4101503c:	9987071b          	addiw	x14,x14,-1640 # 5a9ff998 <pma_region_2_end+0x159be998>
    41015040:	70d40837          	lui	x16,0x70d40
    41015044:	ddd8081b          	addiw	x16,x16,-547 # 70d3fddd <pma_region_2_end+0x2bcfeddd>
    41015048:	d02b77d3          	fcvt.s.l	f15,x22
    4101504c:	d2070bd3          	fcvt.d.w	f23,x14
    41015050:	d0387ad3          	fcvt.s.lu	f21,x16
    41015054:	ab77f5cf          	fnmadd.d	f11,f15,f23,f21
    41015058:	7a04b7b7          	lui	x15,0x7a04b
    4101505c:	fdb7879b          	addiw	x15,x15,-37 # 7a04afdb <pma_region_2_end+0x35009fdb>
    41015060:	16735e37          	lui	x28,0x16735
    41015064:	790e0e1b          	addiw	x28,x28,1936 # 16735790 <pma_region_2_size+0x12735790>
    41015068:	03c7ff33          	remu	x30,x15,x28
    4101506c:	000e57b7          	lui	x15,0xe5
    41015070:	c0b7879b          	addiw	x15,x15,-1013 # e4c0b <pma_region_0_size+0xa4c0b>
    41015074:	00c79793          	slli	x15,x15,0xc
    41015078:	e1e78793          	addi	x15,x15,-482
    4101507c:	0001e5b7          	lui	x11,0x1e
    41015080:	8d75859b          	addiw	x11,x11,-1833 # 1d8d7 <_all_interrupts+0x1ae2d>
    41015084:	00f59593          	slli	x11,x11,0xf
    41015088:	f4b58593          	addi	x11,x11,-181
    4101508c:	2fbb3f37          	lui	x30,0x2fbb3
    41015090:	174f0f1b          	addiw	x30,x30,372 # 2fbb3174 <pma_region_2_size+0x2bbb3174>
    41015094:	d237f953          	fcvt.d.lu	f18,x15
    41015098:	d035fcd3          	fcvt.s.lu	f25,x11
    4101509c:	d00f7dd3          	fcvt.s.w	f27,x30
    410150a0:	db9970cb          	fnmsub.d	f1,f18,f25,f27
    410150a4:	509bf737          	lui	x14,0x509bf
    410150a8:	d1e7071b          	addiw	x14,x14,-738 # 509bed1e <pma_region_2_end+0xb97dd1e>
    410150ac:	000f68b7          	lui	x17,0xf6
    410150b0:	ee78889b          	addiw	x17,x17,-281 # f5ee7 <pma_region_0_size+0xb5ee7>
    410150b4:	00c89893          	slli	x17,x17,0xc
    410150b8:	fab88893          	addi	x17,x17,-85
    410150bc:	031748b3          	div	x17,x14,x17
    410150c0:	610713b7          	lui	x7,0x61071
    410150c4:	1283839b          	addiw	x7,x7,296 # 61071128 <pma_region_2_end+0x1c030128>
    410150c8:	2086ceb7          	lui	x29,0x2086c
    410150cc:	975e8e9b          	addiw	x29,x29,-1675 # 2086b975 <pma_region_2_size+0x1c86b975>
    410150d0:	000f8337          	lui	x6,0xf8
    410150d4:	ce33031b          	addiw	x6,x6,-797 # f7ce3 <pma_region_0_size+0xb7ce3>
    410150d8:	00c31313          	slli	x6,x6,0xc
    410150dc:	07530313          	addi	x6,x6,117
    410150e0:	d21384d3          	fcvt.d.wu	f9,x7
    410150e4:	d22effd3          	fcvt.d.l	f31,x29
    410150e8:	d00378d3          	fcvt.s.w	f17,x6
    410150ec:	8bf4f7cf          	fnmadd.d	f15,f9,f31,f17
    410150f0:	072cf9b7          	lui	x19,0x72cf
    410150f4:	1719899b          	addiw	x19,x19,369 # 72cf171 <pma_region_2_size+0x32cf171>
    410150f8:	1ab168b7          	lui	x17,0x1ab16
    410150fc:	5a48889b          	addiw	x17,x17,1444 # 1ab165a4 <pma_region_2_size+0x16b165a4>
    41015100:	03199933          	mulh	x18,x19,x17
    41015104:	59ccb8b7          	lui	x17,0x59ccb
    41015108:	7e88889b          	addiw	x17,x17,2024 # 59ccb7e8 <pma_region_2_end+0x14c8a7e8>
    4101510c:	2ac62cb7          	lui	x25,0x2ac62
    41015110:	f7ac8c9b          	addiw	x25,x25,-134 # 2ac61f7a <pma_region_2_size+0x26c61f7a>
    41015114:	0398e933          	rem	x18,x17,x25
    41015118:	5bf2ecb7          	lui	x25,0x5bf2e
    4101511c:	128c8c9b          	addiw	x25,x25,296 # 5bf2e128 <pma_region_2_end+0x16eed128>
    41015120:	13b8b5b7          	lui	x11,0x13b8b
    41015124:	2565859b          	addiw	x11,x11,598 # 13b8b256 <pma_region_2_size+0xfb8b256>
    41015128:	02bce3bb          	remw	x7,x25,x11
    4101512c:	0003bbb7          	lui	x23,0x3b
    41015130:	babb8b9b          	addiw	x23,x23,-1109 # 3abab <_all_interrupts+0x38101>
    41015134:	00eb9b93          	slli	x23,x23,0xe
    41015138:	ceab8b93          	addi	x23,x23,-790
    4101513c:	000e13b7          	lui	x7,0xe1
    41015140:	df13839b          	addiw	x7,x7,-527 # e0df1 <pma_region_0_size+0xa0df1>
    41015144:	00c39393          	slli	x7,x7,0xc
    41015148:	ff838393          	addi	x7,x7,-8
    4101514c:	027bd3bb          	divuw	x7,x23,x7
    41015150:	0000e437          	lui	x8,0xe
    41015154:	2194041b          	addiw	x8,x8,537 # e219 <_all_interrupts+0xb76f>
    41015158:	01041413          	slli	x8,x8,0x10
    4101515c:	4a840413          	addi	x8,x8,1192
    41015160:	000bb537          	lui	x10,0xbb
    41015164:	7a15051b          	addiw	x10,x10,1953 # bb7a1 <pma_region_0_size+0x7b7a1>
    41015168:	00c51513          	slli	x10,x10,0xc
    4101516c:	d1e50513          	addi	x10,x10,-738
    41015170:	40a40cb3          	sub	x25,x8,x10
    41015174:	000c3e37          	lui	x28,0xc3
    41015178:	f5be0e1b          	addiw	x28,x28,-165 # c2f5b <pma_region_0_size+0x82f5b>
    4101517c:	00ce1e13          	slli	x28,x28,0xc
    41015180:	84ae0e13          	addi	x28,x28,-1974
    41015184:	000154b7          	lui	x9,0x15
    41015188:	db34849b          	addiw	x9,x9,-589 # 14db3 <_all_interrupts+0x12309>
    4101518c:	00f49493          	slli	x9,x9,0xf
    41015190:	a4348493          	addi	x9,x9,-1469
    41015194:	029e3cb3          	mulhu	x25,x28,x9
    41015198:	b0002c73          	csrr	x24,mcycle
    4101519c:	014c0a63          	beq	x24,x20,410151b0 <pass_label_5>
    410151a0:	44db4637          	lui	x12,0x44db4
    410151a4:	0086061b          	addiw	x12,x12,8 # 44db4008 <failed_addr>
    410151a8:	00063683          	ld	x13,0(x12)
    410151ac:	00068067          	jr	x13

00000000410151b0 <pass_label_5>:
    410151b0:	320054f3          	csrrwi	x9,mcountinhibit,0
    410151b4:	41216137          	lui	x2,0x41216
    410151b8:	00013383          	ld	x7,0(x2) # 41216000 <tp_csr_storage>
    410151bc:	320393f3          	csrrw	x7,mcountinhibit,x7

00000000410151c0 <SID_SSCOFPMF_04A_MCOUNTINHIBIT_MCYCLE_STOPS_passed>:
    410151c0:	44db42b7          	lui	x5,0x44db4
    410151c4:	0182829b          	addiw	x5,x5,24 # 44db4018 <os_passed_addr>
    410151c8:	0002b303          	ld	x6,0(x5)
    410151cc:	00030067          	jr	x6

00000000410151d0 <SID_SSCOFPMF_04B_MCOUNTINHIBIT_MCYCLE_RESUMES>:
    410151d0:	41216137          	lui	x2,0x41216
    410151d4:	320023f3          	csrr	x7,mcountinhibit
    410151d8:	00713023          	sd	x7,0(x2) # 41216000 <tp_csr_storage>
    410151dc:	44d40137          	lui	x2,0x44d40
    410151e0:	000012b7          	lui	x5,0x1
    410151e4:	00510133          	add	x2,x2,x5
    410151e8:	ff017113          	andi	x2,x2,-16
    410151ec:	3200e973          	csrrsi	x18,mcountinhibit,1
    410151f0:	3200fef3          	csrrci	x29,mcountinhibit,1
    410151f4:	b0002a73          	csrr	x20,mcycle
    410151f8:	000a0993          	mv	x19,x20
    410151fc:	620316b7          	lui	x13,0x62031
    41015200:	2ef6869b          	addiw	x13,x13,751 # 620312ef <pma_region_2_end+0x1cff02ef>
    41015204:	79267d37          	lui	x26,0x79267
    41015208:	c56d0d1b          	addiw	x26,x26,-938 # 79266c56 <pma_region_2_end+0x34225c56>
    4101520c:	0000a7b7          	lui	x15,0xa
    41015210:	cd97879b          	addiw	x15,x15,-807 # 9cd9 <_all_interrupts+0x722f>
    41015214:	01079793          	slli	x15,x15,0x10
    41015218:	e4f78793          	addi	x15,x15,-433
    4101521c:	d2068253          	fcvt.d.w	f4,x13
    41015220:	d00d76d3          	fcvt.s.w	f13,x26
    41015224:	d237f9d3          	fcvt.d.lu	f19,x15
    41015228:	98d27747          	fmsub.s	f14,f4,f13,f19
    4101522c:	412c1e37          	lui	x28,0x412c1
    41015230:	546e0e1b          	addiw	x28,x28,1350 # 412c1546 <tp_csr_storage+0xab546>
    41015234:	0009ddb7          	lui	x27,0x9d
    41015238:	7afd8d9b          	addiw	x27,x27,1967 # 9d7af <pma_region_0_size+0x5d7af>
    4101523c:	00cd9d93          	slli	x27,x27,0xc
    41015240:	545d8d93          	addi	x27,x27,1349
    41015244:	03be4ebb          	divw	x29,x28,x27
    41015248:	007d5437          	lui	x8,0x7d5
    4101524c:	30db6db7          	lui	x27,0x30db6
    41015250:	af8d8d9b          	addiw	x27,x27,-1288 # 30db5af8 <pma_region_2_size+0x2cdb5af8>
    41015254:	0004af37          	lui	x30,0x4a
    41015258:	583f0f1b          	addiw	x30,x30,1411 # 4a583 <pma_region_0_size+0xa583>
    4101525c:	00df1f13          	slli	x30,x30,0xd
    41015260:	becf0f13          	addi	x30,x30,-1044
    41015264:	79e21437          	lui	x8,0x79e21
    41015268:	e284041b          	addiw	x8,x8,-472 # 79e20e28 <pma_region_2_end+0x34ddfe28>
    4101526c:	d01df4d3          	fcvt.s.wu	f9,x27
    41015270:	d02f75d3          	fcvt.s.l	f11,x30
    41015274:	d23470d3          	fcvt.d.lu	f1,x8
    41015278:	0ab4f14b          	fnmsub.d	f2,f9,f11,f1
    4101527c:	71e7b937          	lui	x18,0x71e7b
    41015280:	0c99091b          	addiw	x18,x18,201 # 71e7b0c9 <pma_region_2_end+0x2ce3a0c9>
    41015284:	312f73b7          	lui	x7,0x312f7
    41015288:	4043839b          	addiw	x7,x7,1028 # 312f7404 <pma_region_2_size+0x2d2f7404>
    4101528c:	02797633          	remu	x12,x18,x7
    41015290:	000c1f37          	lui	x30,0xc1
    41015294:	5b7f0f1b          	addiw	x30,x30,1463 # c15b7 <pma_region_0_size+0x815b7>
    41015298:	00cf1f13          	slli	x30,x30,0xc
    4101529c:	917f0f13          	addi	x30,x30,-1769
    410152a0:	78274737          	lui	x14,0x78274
    410152a4:	9e87071b          	addiw	x14,x14,-1560 # 782739e8 <pma_region_2_end+0x332329e8>
    410152a8:	02ef1ab3          	mulh	x21,x30,x14
    410152ac:	00036fb7          	lui	x31,0x36
    410152b0:	66ff8f9b          	addiw	x31,x31,1647 # 3666f <_all_interrupts+0x33bc5>
    410152b4:	00ef9f93          	slli	x31,x31,0xe
    410152b8:	c78f8f93          	addi	x31,x31,-904
    410152bc:	00093bb7          	lui	x23,0x93
    410152c0:	c45b8b9b          	addiw	x23,x23,-955 # 92c45 <pma_region_0_size+0x52c45>
    410152c4:	00cb9b93          	slli	x23,x23,0xc
    410152c8:	11bb8b93          	addi	x23,x23,283
    410152cc:	037fd93b          	divuw	x18,x31,x23
    410152d0:	567734b7          	lui	x9,0x56773
    410152d4:	f2a4849b          	addiw	x9,x9,-214 # 56772f2a <pma_region_2_end+0x11731f2a>
    410152d8:	4f38e737          	lui	x14,0x4f38e
    410152dc:	0a77071b          	addiw	x14,x14,167 # 4f38e0a7 <pma_region_2_end+0xa34d0a7>
    410152e0:	02e4e8bb          	remw	x17,x9,x14
    410152e4:	121dcbb7          	lui	x23,0x121dc
    410152e8:	ecfb8b9b          	addiw	x23,x23,-305 # 121dbecf <pma_region_2_size+0xe1dbecf>
    410152ec:	2ba0fd37          	lui	x26,0x2ba0f
    410152f0:	630d0d1b          	addiw	x26,x26,1584 # 2ba0f630 <pma_region_2_size+0x27a0f630>
    410152f4:	03abed33          	rem	x26,x23,x26
    410152f8:	5e958837          	lui	x16,0x5e958
    410152fc:	9f48081b          	addiw	x16,x16,-1548 # 5e9579f4 <pma_region_2_end+0x199169f4>
    41015300:	0009b737          	lui	x14,0x9b
    41015304:	e617071b          	addiw	x14,x14,-415 # 9ae61 <pma_region_0_size+0x5ae61>
    41015308:	00c71713          	slli	x14,x14,0xc
    4101530c:	5ff70713          	addi	x14,x14,1535
    41015310:	000a0fb7          	lui	x31,0xa0
    41015314:	543f8f9b          	addiw	x31,x31,1347 # a0543 <pma_region_0_size+0x60543>
    41015318:	00cf9f93          	slli	x31,x31,0xc
    4101531c:	e08f8f93          	addi	x31,x31,-504
    41015320:	d0187d53          	fcvt.s.wu	f26,x16
    41015324:	d0177353          	fcvt.s.wu	f6,x14
    41015328:	d21f8253          	fcvt.d.wu	f4,x31
    4101532c:	206d76c3          	fmadd.s	f13,f26,f6,f4
    41015330:	0006ec37          	lui	x24,0x6e
    41015334:	1a5c0c1b          	addiw	x24,x24,421 # 6e1a5 <pma_region_0_size+0x2e1a5>
    41015338:	00dc1c13          	slli	x24,x24,0xd
    4101533c:	ceec0c13          	addi	x24,x24,-786
    41015340:	78aa0637          	lui	x12,0x78aa0
    41015344:	e3d6061b          	addiw	x12,x12,-451 # 78a9fe3d <pma_region_2_end+0x33a5ee3d>
    41015348:	38e58fb7          	lui	x31,0x38e58
    4101534c:	232f8f9b          	addiw	x31,x31,562 # 38e58232 <pma_region_2_size+0x34e58232>
    41015350:	d20c0553          	fcvt.d.w	f10,x24
    41015354:	d02672d3          	fcvt.s.l	f5,x12
    41015358:	d21f8ad3          	fcvt.d.wu	f21,x31
    4101535c:	a8557f4f          	fnmadd.s	f30,f10,f5,f21
    41015360:	00350717          	auipc	x14,0x350
    41015364:	0000ce37          	lui	x28,0xc
    41015368:	4bfe0e1b          	addiw	x28,x28,1215 # c4bf <_all_interrupts+0x9a15>
    4101536c:	010e1e13          	slli	x28,x28,0x10
    41015370:	390e0e13          	addi	x28,x28,912
    41015374:	000274b7          	lui	x9,0x27
    41015378:	6774849b          	addiw	x9,x9,1655 # 27677 <_all_interrupts+0x24bcd>
    4101537c:	00e49493          	slli	x9,x9,0xe
    41015380:	6a048493          	addi	x9,x9,1696
    41015384:	000a7537          	lui	x10,0xa7
    41015388:	6e95051b          	addiw	x10,x10,1769 # a76e9 <pma_region_0_size+0x676e9>
    4101538c:	00c51513          	slli	x10,x10,0xc
    41015390:	f5050513          	addi	x10,x10,-176
    41015394:	d21e0f53          	fcvt.d.wu	f30,x28
    41015398:	d034f9d3          	fcvt.s.lu	f19,x9
    4101539c:	d0057c53          	fcvt.s.w	f24,x10
    410153a0:	c33f76c7          	fmsub.d	f13,f30,f19,f24
    410153a4:	000a93b7          	lui	x7,0xa9
    410153a8:	9f93839b          	addiw	x7,x7,-1543 # a89f9 <pma_region_0_size+0x689f9>
    410153ac:	00c39393          	slli	x7,x7,0xc
    410153b0:	e6438393          	addi	x7,x7,-412
    410153b4:	3a738e1b          	addiw	x28,x7,935
    410153b8:	0004acb7          	lui	x25,0x4a
    410153bc:	d7bc8c9b          	addiw	x25,x25,-645 # 49d7b <pma_region_0_size+0x9d7b>
    410153c0:	00dc9c93          	slli	x25,x25,0xd
    410153c4:	74ac8c93          	addi	x25,x25,1866
    410153c8:	000e3737          	lui	x14,0xe3
    410153cc:	8537071b          	addiw	x14,x14,-1965 # e2853 <pma_region_0_size+0xa2853>
    410153d0:	00c71713          	slli	x14,x14,0xc
    410153d4:	84270713          	addi	x14,x14,-1982
    410153d8:	02ecf93b          	remuw	x18,x25,x14
    410153dc:	20ca6a37          	lui	x20,0x20ca6
    410153e0:	ac6a0a1b          	addiw	x20,x20,-1338 # 20ca5ac6 <pma_region_2_size+0x1cca5ac6>
    410153e4:	000af3b7          	lui	x7,0xaf
    410153e8:	a193839b          	addiw	x7,x7,-1511 # aea19 <pma_region_0_size+0x6ea19>
    410153ec:	00c39393          	slli	x7,x7,0xc
    410153f0:	d5638393          	addi	x7,x7,-682
    410153f4:	407a0bbb          	subw	x23,x20,x7
    410153f8:	0003cd37          	lui	x26,0x3c
    410153fc:	c83d0d1b          	addiw	x26,x26,-893 # 3bc83 <_all_interrupts+0x391d9>
    41015400:	00ed1d13          	slli	x26,x26,0xe
    41015404:	4f6d0d13          	addi	x26,x26,1270
    41015408:	4ecd5937          	lui	x18,0x4ecd5
    4101540c:	7069091b          	addiw	x18,x18,1798 # 4ecd5706 <pma_region_2_end+0x9c94706>
    41015410:	032d6f33          	rem	x30,x26,x18
    41015414:	000df537          	lui	x10,0xdf
    41015418:	8115051b          	addiw	x10,x10,-2031 # de811 <pma_region_0_size+0x9e811>
    4101541c:	00c51513          	slli	x10,x10,0xc
    41015420:	c1150513          	addi	x10,x10,-1007
    41015424:	1ba50893          	addi	x17,x10,442
    41015428:	35120737          	lui	x14,0x35120
    4101542c:	4027071b          	addiw	x14,x14,1026 # 35120402 <pma_region_2_size+0x31120402>
    41015430:	00009d37          	lui	x26,0x9
    41015434:	909d0d1b          	addiw	x26,x26,-1783 # 8909 <_all_interrupts+0x5e5f>
    41015438:	010d1d13          	slli	x26,x26,0x10
    4101543c:	dfad0d13          	addi	x26,x26,-518
    41015440:	0006b7b7          	lui	x15,0x6b
    41015444:	1e57879b          	addiw	x15,x15,485 # 6b1e5 <pma_region_0_size+0x2b1e5>
    41015448:	00d79793          	slli	x15,x15,0xd
    4101544c:	32978793          	addi	x15,x15,809
    41015450:	d00771d3          	fcvt.s.w	f3,x14
    41015454:	d21d0453          	fcvt.d.wu	f8,x26
    41015458:	d2178dd3          	fcvt.d.wu	f27,x15
    4101545c:	da81f747          	fmsub.d	f14,f3,f8,f27
    41015460:	000d3537          	lui	x10,0xd3
    41015464:	c175051b          	addiw	x10,x10,-1001 # d2c17 <pma_region_0_size+0x92c17>
    41015468:	00c51513          	slli	x10,x10,0xc
    4101546c:	af550513          	addi	x10,x10,-1291
    41015470:	4c969337          	lui	x6,0x4c969
    41015474:	cce3031b          	addiw	x6,x6,-818 # 4c968cce <pma_region_2_end+0x7927cce>
    41015478:	0a6514b3          	clmul	x9,x10,x6
    4101547c:	191d97b7          	lui	x15,0x191d9
    41015480:	50e7879b          	addiw	x15,x15,1294 # 191d950e <pma_region_2_size+0x151d950e>
    41015484:	033b7f37          	lui	x30,0x33b7
    41015488:	e9bf0f1b          	addiw	x30,x30,-357 # 33b6e9b <pma_region_0_size+0x3376e9b>
    4101548c:	03e784bb          	mulw	x9,x15,x30
    41015490:	000cab37          	lui	x22,0xca
    41015494:	f8fb0b1b          	addiw	x22,x22,-113 # c9f8f <pma_region_0_size+0x89f8f>
    41015498:	00cb1b13          	slli	x22,x22,0xc
    4101549c:	c05b0b13          	addi	x22,x22,-1019
    410154a0:	000df7b7          	lui	x15,0xdf
    410154a4:	d5f7879b          	addiw	x15,x15,-673 # ded5f <pma_region_0_size+0x9ed5f>
    410154a8:	00c79793          	slli	x15,x15,0xc
    410154ac:	d2578793          	addi	x15,x15,-731
    410154b0:	076fbeb7          	lui	x29,0x76fb
    410154b4:	590e8e9b          	addiw	x29,x29,1424 # 76fb590 <pma_region_2_size+0x36fb590>
    410154b8:	d22b7ad3          	fcvt.d.l	f21,x22
    410154bc:	d027fd53          	fcvt.s.l	f26,x15
    410154c0:	d21e8153          	fcvt.d.wu	f2,x29
    410154c4:	11aaf2c7          	fmsub.s	f5,f21,f26,f2
    410154c8:	32aa0eb7          	lui	x29,0x32aa0
    410154cc:	0a2e8e9b          	addiw	x29,x29,162 # 32aa00a2 <pma_region_2_size+0x2eaa00a2>
    410154d0:	000febb7          	lui	x23,0xfe
    410154d4:	c3bb8b9b          	addiw	x23,x23,-965 # fdc3b <pma_region_0_size+0xbdc3b>
    410154d8:	00cb9b93          	slli	x23,x23,0xc
    410154dc:	31ab8b93          	addi	x23,x23,794
    410154e0:	50263937          	lui	x18,0x50263
    410154e4:	4fa9091b          	addiw	x18,x18,1274 # 502634fa <pma_region_2_end+0xb2224fa>
    410154e8:	d20e84d3          	fcvt.d.w	f9,x29
    410154ec:	d00bfb53          	fcvt.s.w	f22,x23
    410154f0:	d0097ad3          	fcvt.s.w	f21,x18
    410154f4:	ab64f943          	fmadd.d	f18,f9,f22,f21
    410154f8:	0efe1837          	lui	x16,0xefe1
    410154fc:	d6c8081b          	addiw	x16,x16,-660 # efe0d6c <pma_region_2_size+0xafe0d6c>
    41015500:	51a5db37          	lui	x22,0x51a5d
    41015504:	ad0b0b1b          	addiw	x22,x22,-1328 # 51a5cad0 <pma_region_2_end+0xca1bad0>
    41015508:	000896b7          	lui	x13,0x89
    4101550c:	8a56869b          	addiw	x13,x13,-1883 # 888a5 <pma_region_0_size+0x488a5>
    41015510:	00c69693          	slli	x13,x13,0xc
    41015514:	b0868693          	addi	x13,x13,-1272
    41015518:	d23873d3          	fcvt.d.lu	f7,x16
    4101551c:	d01b76d3          	fcvt.s.wu	f13,x22
    41015520:	d006f2d3          	fcvt.s.w	f5,x13
    41015524:	28d3f2cb          	fnmsub.s	f5,f7,f13,f5
    41015528:	4182cb37          	lui	x22,0x4182c
    4101552c:	aa0b0b1b          	addiw	x22,x22,-1376 # 4182baa0 <tp_csr_storage+0x615aa0>
    41015530:	000658b7          	lui	x17,0x65
    41015534:	6d18889b          	addiw	x17,x17,1745 # 656d1 <pma_region_0_size+0x256d1>
    41015538:	00d89893          	slli	x17,x17,0xd
    4101553c:	f6d88893          	addi	x17,x17,-147
    41015540:	000b9837          	lui	x16,0xb9
    41015544:	6178081b          	addiw	x16,x16,1559 # b9617 <pma_region_0_size+0x79617>
    41015548:	00c81813          	slli	x16,x16,0xc
    4101554c:	59980813          	addi	x16,x16,1433
    41015550:	d00b7bd3          	fcvt.s.w	f23,x22
    41015554:	d018f5d3          	fcvt.s.wu	f11,x17
    41015558:	d0087653          	fcvt.s.w	f12,x16
    4101555c:	60bbfbc3          	fmadd.s	f23,f23,f11,f12
    41015560:	0002bdb7          	lui	x27,0x2b
    41015564:	87fd8d9b          	addiw	x27,x27,-1921 # 2a87f <_all_interrupts+0x27dd5>
    41015568:	00ed9d93          	slli	x27,x27,0xe
    4101556c:	134d8d93          	addi	x27,x27,308
    41015570:	57c46cb7          	lui	x25,0x57c46
    41015574:	81fc8c9b          	addiw	x25,x25,-2017 # 57c4581f <pma_region_2_end+0x12c0481f>
    41015578:	039d8933          	mul	x18,x27,x25
    4101557c:	0001aa37          	lui	x20,0x1a
    41015580:	531a0a1b          	addiw	x20,x20,1329 # 1a531 <_all_interrupts+0x17a87>
    41015584:	00fa1a13          	slli	x20,x20,0xf
    41015588:	3ffa0a13          	addi	x20,x20,1023
    4101558c:	70c93f37          	lui	x30,0x70c93
    41015590:	f2cf0f1b          	addiw	x30,x30,-212 # 70c92f2c <pma_region_2_end+0x2bc51f2c>
    41015594:	d02a78d3          	fcvt.s.l	f17,x20
    41015598:	d21f0bd3          	fcvt.d.wu	f23,x30
    4101559c:	1378ff53          	fmul.d	f30,f17,f23
    410155a0:	126e6c37          	lui	x24,0x126e6
    410155a4:	b0bc0c1b          	addiw	x24,x24,-1269 # 126e5b0b <pma_region_2_size+0xe6e5b0b>
    410155a8:	6b5aadb7          	lui	x27,0x6b5aa
    410155ac:	619d8d9b          	addiw	x27,x27,1561 # 6b5aa619 <pma_region_2_end+0x26569619>
    410155b0:	03bc4ab3          	div	x21,x24,x27
    410155b4:	787bdd37          	lui	x26,0x787bd
    410155b8:	7c6d0d1b          	addiw	x26,x26,1990 # 787bd7c6 <pma_region_2_end+0x3377c7c6>
    410155bc:	000d5537          	lui	x10,0xd5
    410155c0:	5fb5051b          	addiw	x10,x10,1531 # d55fb <pma_region_0_size+0x955fb>
    410155c4:	00c51513          	slli	x10,x10,0xc
    410155c8:	31050513          	addi	x10,x10,784
    410155cc:	02ad593b          	divuw	x18,x26,x10
    410155d0:	0000b737          	lui	x14,0xb
    410155d4:	6317071b          	addiw	x14,x14,1585 # b631 <_all_interrupts+0x8b87>
    410155d8:	01071713          	slli	x14,x14,0x10
    410155dc:	afe70713          	addi	x14,x14,-1282
    410155e0:	04ac7fb7          	lui	x31,0x4ac7
    410155e4:	e08f8f9b          	addiw	x31,x31,-504 # 4ac6e08 <pma_region_2_size+0xac6e08>
    410155e8:	485a35b7          	lui	x11,0x485a3
    410155ec:	da35859b          	addiw	x11,x11,-605 # 485a2da3 <pma_region_2_end+0x3561da3>
    410155f0:	d2170953          	fcvt.d.wu	f18,x14
    410155f4:	d21f8c53          	fcvt.d.wu	f24,x31
    410155f8:	d225fa53          	fcvt.d.l	f20,x11
    410155fc:	a389714f          	fnmadd.d	f2,f18,f24,f20
    41015600:	00094bb7          	lui	x23,0x94
    41015604:	6d9b8b9b          	addiw	x23,x23,1753 # 946d9 <pma_region_0_size+0x546d9>
    41015608:	00cb9b93          	slli	x23,x23,0xc
    4101560c:	d0bb8b93          	addi	x23,x23,-757
    41015610:	00093d37          	lui	x26,0x93
    41015614:	00fd0d1b          	addiw	x26,x26,15 # 9300f <pma_region_0_size+0x5300f>
    41015618:	00cd1d13          	slli	x26,x26,0xc
    4101561c:	b3ad0d13          	addi	x26,x26,-1222
    41015620:	21c13737          	lui	x14,0x21c13
    41015624:	3cb7071b          	addiw	x14,x14,971 # 21c133cb <pma_region_2_size+0x1dc133cb>
    41015628:	d23bf353          	fcvt.d.lu	f6,x23
    4101562c:	d22d7853          	fcvt.d.l	f16,x26
    41015630:	d2277ad3          	fcvt.d.l	f21,x14
    41015634:	ab0373cb          	fnmsub.d	f7,f6,f16,f21
    41015638:	36553db7          	lui	x27,0x36553
    4101563c:	046d8d9b          	addiw	x27,x27,70 # 36553046 <pma_region_2_size+0x32553046>
    41015640:	26894cb7          	lui	x25,0x26894
    41015644:	d9ec8c9b          	addiw	x25,x25,-610 # 26893d9e <pma_region_2_size+0x22893d9e>
    41015648:	0b9dbf33          	clmulh	x30,x27,x25
    4101564c:	b0002373          	csrr	x6,mcycle
    41015650:	00030493          	mv	x9,x6
    41015654:	41348533          	sub	x10,x9,x19
    41015658:	00000793          	li	x15,0
    4101565c:	00f51a63          	bne	x10,x15,41015670 <pass_label_6>
    41015660:	44db45b7          	lui	x11,0x44db4
    41015664:	0085859b          	addiw	x11,x11,8 # 44db4008 <failed_addr>
    41015668:	0005b503          	ld	x10,0(x11)
    4101566c:	00050067          	jr	x10

0000000041015670 <pass_label_6>:
    41015670:	32005af3          	csrrwi	x21,mcountinhibit,0
    41015674:	41216137          	lui	x2,0x41216
    41015678:	00013383          	ld	x7,0(x2) # 41216000 <tp_csr_storage>
    4101567c:	320393f3          	csrrw	x7,mcountinhibit,x7

0000000041015680 <SID_SSCOFPMF_04B_MCOUNTINHIBIT_MCYCLE_RESUMES_passed>:
    41015680:	44db42b7          	lui	x5,0x44db4
    41015684:	0182829b          	addiw	x5,x5,24 # 44db4018 <os_passed_addr>
    41015688:	0002b303          	ld	x6,0(x5)
    4101568c:	00030067          	jr	x6

0000000041015690 <SID_SSCOFPMF_04C_MCOUNTINHIBIT_MINSTRET_STOPS>:
    41015690:	41216137          	lui	x2,0x41216
    41015694:	320023f3          	csrr	x7,mcountinhibit
    41015698:	00713023          	sd	x7,0(x2) # 41216000 <tp_csr_storage>
    4101569c:	44e47137          	lui	x2,0x44e47
    410156a0:	000012b7          	lui	x5,0x1
    410156a4:	00510133          	add	x2,x2,x5
    410156a8:	ff017113          	andi	x2,x2,-16
    410156ac:	320266f3          	csrrsi	x13,mcountinhibit,4
    410156b0:	77620937          	lui	x18,0x77620
    410156b4:	f559091b          	addiw	x18,x18,-171 # 7761ff55 <pma_region_2_end+0x325def55>
    410156b8:	0005b9b7          	lui	x19,0x5b
    410156bc:	26f9899b          	addiw	x19,x19,623 # 5b26f <pma_region_0_size+0x1b26f>
    410156c0:	00d99993          	slli	x19,x19,0xd
    410156c4:	55798993          	addi	x19,x19,1367
    410156c8:	013909bb          	addw	x19,x18,x19
    410156cc:	750005b7          	lui	x11,0x75000
    410156d0:	d725859b          	addiw	x11,x11,-654 # 74fffd72 <pma_region_2_end+0x2ffbed72>
    410156d4:	5d7357b7          	lui	x15,0x5d735
    410156d8:	e4c7879b          	addiw	x15,x15,-436 # 5d734e4c <pma_region_2_end+0x186f3e4c>
    410156dc:	00043e37          	lui	x28,0x43
    410156e0:	cf7e0e1b          	addiw	x28,x28,-777 # 42cf7 <pma_region_0_size+0x2cf7>
    410156e4:	00de1e13          	slli	x28,x28,0xd
    410156e8:	f2de0e13          	addi	x28,x28,-211
    410156ec:	d025fd53          	fcvt.s.l	f26,x11
    410156f0:	d037fad3          	fcvt.s.lu	f21,x15
    410156f4:	d22e7cd3          	fcvt.d.l	f25,x28
    410156f8:	c95d7a4f          	fnmadd.s	f20,f26,f21,f25
    410156fc:	0006c837          	lui	x16,0x6c
    41015700:	6c78081b          	addiw	x16,x16,1735 # 6c6c7 <pma_region_0_size+0x2c6c7>
    41015704:	00d81813          	slli	x16,x16,0xd
    41015708:	76180813          	addi	x16,x16,1889
    4101570c:	0004f737          	lui	x14,0x4f
    41015710:	3037071b          	addiw	x14,x14,771 # 4f303 <pma_region_0_size+0xf303>
    41015714:	00d71713          	slli	x14,x14,0xd
    41015718:	a4370713          	addi	x14,x14,-1469
    4101571c:	02e846bb          	divw	x13,x16,x14
    41015720:	76339db7          	lui	x27,0x76339
    41015724:	d68d8d9b          	addiw	x27,x27,-664 # 76338d68 <pma_region_2_end+0x312f7d68>
    41015728:	00074a37          	lui	x20,0x74
    4101572c:	261a0a1b          	addiw	x20,x20,609 # 74261 <pma_region_0_size+0x34261>
    41015730:	00da1a13          	slli	x20,x20,0xd
    41015734:	75da0a13          	addi	x20,x20,1885
    41015738:	000aad37          	lui	x26,0xaa
    4101573c:	d45d0d1b          	addiw	x26,x26,-699 # a9d45 <pma_region_0_size+0x69d45>
    41015740:	00cd1d13          	slli	x26,x26,0xc
    41015744:	4ecd0d13          	addi	x26,x26,1260
    41015748:	d00dfd53          	fcvt.s.w	f26,x27
    4101574c:	d22a74d3          	fcvt.d.l	f9,x20
    41015750:	d21d0b53          	fcvt.d.wu	f22,x26
    41015754:	b09d73c3          	fmadd.s	f7,f26,f9,f22
    41015758:	3f09e9b7          	lui	x19,0x3f09e
    4101575c:	99f9899b          	addiw	x19,x19,-1633 # 3f09d99f <pma_region_2_size+0x3b09d99f>
    41015760:	00024637          	lui	x12,0x24
    41015764:	9716061b          	addiw	x12,x12,-1679 # 23971 <_all_interrupts+0x20ec7>
    41015768:	00e61613          	slli	x12,x12,0xe
    4101576c:	cf260613          	addi	x12,x12,-782
    41015770:	000d9337          	lui	x6,0xd9
    41015774:	fbf3031b          	addiw	x6,x6,-65 # d8fbf <pma_region_0_size+0x98fbf>
    41015778:	00c31313          	slli	x6,x6,0xc
    4101577c:	4fd30313          	addi	x6,x6,1277
    41015780:	d019f7d3          	fcvt.s.wu	f15,x19
    41015784:	d2367cd3          	fcvt.d.lu	f25,x12
    41015788:	d23379d3          	fcvt.d.lu	f19,x6
    4101578c:	9b97fa4f          	fnmadd.d	f20,f15,f25,f19
    41015790:	00089f37          	lui	x30,0x89
    41015794:	e19f0f1b          	addiw	x30,x30,-487 # 88e19 <pma_region_0_size+0x48e19>
    41015798:	00cf1f13          	slli	x30,x30,0xc
    4101579c:	a1df0f13          	addi	x30,x30,-1507
    410157a0:	28d6aa37          	lui	x20,0x28d6a
    410157a4:	650a0a1b          	addiw	x20,x20,1616 # 28d6a650 <pma_region_2_size+0x24d6a650>
    410157a8:	d22f7353          	fcvt.d.l	f6,x30
    410157ac:	d03a7ad3          	fcvt.s.lu	f21,x20
    410157b0:	13537553          	fmul.d	f10,f6,f21
    410157b4:	75fbb337          	lui	x6,0x75fbb
    410157b8:	3cd3031b          	addiw	x6,x6,973 # 75fbb3cd <pma_region_2_end+0x30f7a3cd>
    410157bc:	49c0d637          	lui	x12,0x49c0d
    410157c0:	9b96061b          	addiw	x12,x12,-1607 # 49c0c9b9 <pma_region_2_end+0x4bcb9b9>
    410157c4:	d0337fd3          	fcvt.s.lu	f31,x6
    410157c8:	d0367553          	fcvt.s.lu	f10,x12
    410157cc:	08aff453          	fsub.s	f8,f31,f10
    410157d0:	000f4e37          	lui	x28,0xf4
    410157d4:	c3be0e1b          	addiw	x28,x28,-965 # f3c3b <pma_region_0_size+0xb3c3b>
    410157d8:	00ce1e13          	slli	x28,x28,0xc
    410157dc:	ce0e0e13          	addi	x28,x28,-800
    410157e0:	00078d37          	lui	x26,0x78
    410157e4:	cb9d0d1b          	addiw	x26,x26,-839 # 77cb9 <pma_region_0_size+0x37cb9>
    410157e8:	00dd1d13          	slli	x26,x26,0xd
    410157ec:	04dd0d13          	addi	x26,x26,77
    410157f0:	000303b7          	lui	x7,0x30
    410157f4:	4eb3839b          	addiw	x7,x7,1259 # 304eb <_all_interrupts+0x2da41>
    410157f8:	00e39393          	slli	x7,x7,0xe
    410157fc:	81938393          	addi	x7,x7,-2023
    41015800:	d00e7a53          	fcvt.s.w	f20,x28
    41015804:	d20d0cd3          	fcvt.d.w	f25,x26
    41015808:	d033f2d3          	fcvt.s.lu	f5,x7
    4101580c:	2b9a7ccf          	fnmadd.d	f25,f20,f25,f5
    41015810:	b0202bf3          	csrr	x23,minstret
    41015814:	5c94be37          	lui	x28,0x5c94b
    41015818:	0f5e0e1b          	addiw	x28,x28,245 # 5c94b0f5 <pma_region_2_end+0x1790a0f5>
    4101581c:	6b796c37          	lui	x24,0x6b796
    41015820:	aabc0c1b          	addiw	x24,x24,-1365 # 6b795aab <pma_region_2_end+0x26754aab>
    41015824:	038e543b          	divuw	x8,x28,x24
    41015828:	1c17b637          	lui	x12,0x1c17b
    4101582c:	2a36061b          	addiw	x12,x12,675 # 1c17b2a3 <pma_region_2_size+0x1817b2a3>
    41015830:	000418b7          	lui	x17,0x41
    41015834:	b038889b          	addiw	x17,x17,-1277 # 40b03 <pma_region_0_size+0xb03>
    41015838:	00d89893          	slli	x17,x17,0xd
    4101583c:	e5288893          	addi	x17,x17,-430
    41015840:	d2367e53          	fcvt.d.lu	f28,x12
    41015844:	d018ffd3          	fcvt.s.wu	f31,x17
    41015848:	01fe77d3          	fadd.s	f15,f28,f31
    4101584c:	00016fb7          	lui	x31,0x16
    41015850:	e7df8f9b          	addiw	x31,x31,-387 # 15e7d <_all_interrupts+0x133d3>
    41015854:	00ff9f93          	slli	x31,x31,0xf
    41015858:	495f8f93          	addi	x31,x31,1173
    4101585c:	000398b7          	lui	x17,0x39
    41015860:	7658889b          	addiw	x17,x17,1893 # 39765 <_all_interrupts+0x36cbb>
    41015864:	00e89893          	slli	x17,x17,0xe
    41015868:	00488893          	addi	x17,x17,4
    4101586c:	d00ff653          	fcvt.s.w	f12,x31
    41015870:	d21888d3          	fcvt.d.wu	f17,x17
    41015874:	09167ed3          	fsub.s	f29,f12,f17
    41015878:	3ee58e37          	lui	x28,0x3ee58
    4101587c:	eb2e0e1b          	addiw	x28,x28,-334 # 3ee57eb2 <pma_region_2_size+0x3ae57eb2>
    41015880:	000604b7          	lui	x9,0x60
    41015884:	9e54849b          	addiw	x9,x9,-1563 # 5f9e5 <pma_region_0_size+0x1f9e5>
    41015888:	00d49493          	slli	x9,x9,0xd
    4101588c:	ed448493          	addi	x9,x9,-300
    41015890:	029e4533          	div	x10,x28,x9
    41015894:	000f89b7          	lui	x19,0xf8
    41015898:	5e79899b          	addiw	x19,x19,1511 # f85e7 <pma_region_0_size+0xb85e7>
    4101589c:	00c99993          	slli	x19,x19,0xc
    410158a0:	e8d98993          	addi	x19,x19,-371
    410158a4:	000a7eb7          	lui	x29,0xa7
    410158a8:	2f9e8e9b          	addiw	x29,x29,761 # a72f9 <pma_region_0_size+0x672f9>
    410158ac:	00ce9e93          	slli	x29,x29,0xc
    410158b0:	593e8e93          	addi	x29,x29,1427
    410158b4:	0bd9bdb3          	clmulh	x27,x19,x29
    410158b8:	000a9b37          	lui	x22,0xa9
    410158bc:	fd5b0b1b          	addiw	x22,x22,-43 # a8fd5 <pma_region_0_size+0x68fd5>
    410158c0:	00cb1b13          	slli	x22,x22,0xc
    410158c4:	bfbb0b13          	addi	x22,x22,-1029
    410158c8:	0001fe37          	lui	x28,0x1f
    410158cc:	aede0e1b          	addiw	x28,x28,-1299 # 1eaed <_all_interrupts+0x1c043>
    410158d0:	00fe1e13          	slli	x28,x28,0xf
    410158d4:	496e0e13          	addi	x28,x28,1174
    410158d8:	03cb5d33          	divu	x26,x22,x28
    410158dc:	6307bfb7          	lui	x31,0x6307b
    410158e0:	533f8f9b          	addiw	x31,x31,1331 # 6307b533 <pma_region_2_end+0x1e03a533>
    410158e4:	205f8c13          	addi	x24,x31,517
    410158e8:	1dfec5b7          	lui	x11,0x1dfec
    410158ec:	06e5859b          	addiw	x11,x11,110 # 1dfec06e <pma_region_2_size+0x19fec06e>
    410158f0:	6ec27937          	lui	x18,0x6ec27
    410158f4:	2469091b          	addiw	x18,x18,582 # 6ec27246 <pma_region_2_end+0x29be6246>
    410158f8:	0325c53b          	divw	x10,x11,x18
    410158fc:	000136b7          	lui	x13,0x13
    41015900:	22d6869b          	addiw	x13,x13,557 # 1322d <_all_interrupts+0x10783>
    41015904:	00f69693          	slli	x13,x13,0xf
    41015908:	bfd68693          	addi	x13,x13,-1027
    4101590c:	76225737          	lui	x14,0x76225
    41015910:	5d97071b          	addiw	x14,x14,1497 # 762255d9 <pma_region_2_end+0x311e45d9>
    41015914:	02e6d733          	divu	x14,x13,x14
    41015918:	000a0db7          	lui	x27,0xa0
    4101591c:	cd5d8d9b          	addiw	x27,x27,-811 # 9fcd5 <pma_region_0_size+0x5fcd5>
    41015920:	00cd9d93          	slli	x27,x27,0xc
    41015924:	13fd8d93          	addi	x27,x27,319
    41015928:	00085937          	lui	x18,0x85
    4101592c:	72f9091b          	addiw	x18,x18,1839 # 8572f <pma_region_0_size+0x4572f>
    41015930:	00c91913          	slli	x18,x18,0xc
    41015934:	65990913          	addi	x18,x18,1625
    41015938:	746207b7          	lui	x15,0x74620
    4101593c:	fe67879b          	addiw	x15,x15,-26 # 7461ffe6 <pma_region_2_end+0x2f5defe6>
    41015940:	d01df953          	fcvt.s.wu	f18,x27
    41015944:	d23975d3          	fcvt.d.lu	f11,x18
    41015948:	d227f8d3          	fcvt.d.l	f17,x15
    4101594c:	8ab979c7          	fmsub.d	f19,f18,f11,f17
    41015950:	17145c37          	lui	x24,0x17145
    41015954:	3cbc0c1b          	addiw	x24,x24,971 # 171453cb <pma_region_2_size+0x131453cb>
    41015958:	0007b837          	lui	x16,0x7b
    4101595c:	4a18081b          	addiw	x16,x16,1185 # 7b4a1 <pma_region_0_size+0x3b4a1>
    41015960:	00d81813          	slli	x16,x16,0xd
    41015964:	9ff80813          	addi	x16,x16,-1537
    41015968:	000185b7          	lui	x11,0x18
    4101596c:	bdb5859b          	addiw	x11,x11,-1061 # 17bdb <_all_interrupts+0x15131>
    41015970:	00f59593          	slli	x11,x11,0xf
    41015974:	fcb58593          	addi	x11,x11,-53
    41015978:	d03c7e53          	fcvt.s.lu	f28,x24
    4101597c:	d2287ed3          	fcvt.d.l	f29,x16
    41015980:	d025fdd3          	fcvt.s.l	f27,x11
    41015984:	d9de7f4f          	fnmadd.s	f30,f28,f29,f27
    41015988:	0003eab7          	lui	x21,0x3e
    4101598c:	eb1a8a9b          	addiw	x21,x21,-335 # 3deb1 <_all_interrupts+0x3b407>
    41015990:	00ea9a93          	slli	x21,x21,0xe
    41015994:	0cfa8a93          	addi	x21,x21,207
    41015998:	00035737          	lui	x14,0x35
    4101599c:	5057071b          	addiw	x14,x14,1285 # 35505 <_all_interrupts+0x32a5b>
    410159a0:	00e71713          	slli	x14,x14,0xe
    410159a4:	f5770713          	addi	x14,x14,-169
    410159a8:	02ea8dbb          	mulw	x27,x21,x14
    410159ac:	63fbe637          	lui	x12,0x63fbe
    410159b0:	7f16061b          	addiw	x12,x12,2033 # 63fbe7f1 <pma_region_2_end+0x1ef7d7f1>
    410159b4:	73da1a37          	lui	x20,0x73da1
    410159b8:	6b5a0a1b          	addiw	x20,x20,1717 # 73da16b5 <pma_region_2_end+0x2ed606b5>
    410159bc:	0009e537          	lui	x10,0x9e
    410159c0:	c555051b          	addiw	x10,x10,-939 # 9dc55 <pma_region_0_size+0x5dc55>
    410159c4:	00c51513          	slli	x10,x10,0xc
    410159c8:	54b50513          	addi	x10,x10,1355
    410159cc:	d0167dd3          	fcvt.s.wu	f27,x12
    410159d0:	d20a06d3          	fcvt.d.w	f13,x20
    410159d4:	d2257853          	fcvt.d.l	f16,x10
    410159d8:	82ddffcf          	fnmadd.d	f31,f27,f13,f16
    410159dc:	0003cb37          	lui	x22,0x3c
    410159e0:	415b0b1b          	addiw	x22,x22,1045 # 3c415 <_all_interrupts+0x3996b>
    410159e4:	00eb1b13          	slli	x22,x22,0xe
    410159e8:	93ab0b13          	addi	x22,x22,-1734
    410159ec:	000c47b7          	lui	x15,0xc4
    410159f0:	0677879b          	addiw	x15,x15,103 # c4067 <pma_region_0_size+0x84067>
    410159f4:	00c79793          	slli	x15,x15,0xc
    410159f8:	0fb78793          	addi	x15,x15,251
    410159fc:	d22b7853          	fcvt.d.l	f16,x22
    41015a00:	d037fc53          	fcvt.s.lu	f24,x15
    41015a04:	0b8876d3          	fsub.d	f13,f16,f24
    41015a08:	00017f37          	lui	x30,0x17
    41015a0c:	c37f0f1b          	addiw	x30,x30,-969 # 16c37 <_all_interrupts+0x1418d>
    41015a10:	00ff1f13          	slli	x30,x30,0xf
    41015a14:	955f0f13          	addi	x30,x30,-1707
    41015a18:	00016b37          	lui	x22,0x16
    41015a1c:	469b0b1b          	addiw	x22,x22,1129 # 16469 <_all_interrupts+0x139bf>
    41015a20:	00fb1b13          	slli	x22,x22,0xf
    41015a24:	b5eb0b13          	addi	x22,x22,-1186
    41015a28:	000bdfb7          	lui	x31,0xbd
    41015a2c:	371f8f9b          	addiw	x31,x31,881 # bd371 <pma_region_0_size+0x7d371>
    41015a30:	00cf9f93          	slli	x31,x31,0xc
    41015a34:	88ef8f93          	addi	x31,x31,-1906
    41015a38:	d00f7a53          	fcvt.s.w	f20,x30
    41015a3c:	d01b7dd3          	fcvt.s.wu	f27,x22
    41015a40:	d22ff153          	fcvt.d.l	f2,x31
    41015a44:	13ba7bcb          	fnmsub.d	f23,f20,f27,f2
    41015a48:	5cdcdeb7          	lui	x29,0x5cdcd
    41015a4c:	c31e8e9b          	addiw	x29,x29,-975 # 5cdccc31 <pma_region_2_end+0x17d8bc31>
    41015a50:	000ea537          	lui	x10,0xea
    41015a54:	cc55051b          	addiw	x10,x10,-827 # e9cc5 <pma_region_0_size+0xa9cc5>
    41015a58:	00c51513          	slli	x10,x10,0xc
    41015a5c:	e8250513          	addi	x10,x10,-382
    41015a60:	02ae8c33          	mul	x24,x29,x10
    41015a64:	00066b37          	lui	x22,0x66
    41015a68:	2bfb0b1b          	addiw	x22,x22,703 # 662bf <pma_region_0_size+0x262bf>
    41015a6c:	00db1b13          	slli	x22,x22,0xd
    41015a70:	acab0b13          	addi	x22,x22,-1334
    41015a74:	0008f6b7          	lui	x13,0x8f
    41015a78:	98d6869b          	addiw	x13,x13,-1651 # 8e98d <pma_region_0_size+0x4e98d>
    41015a7c:	00c69693          	slli	x13,x13,0xc
    41015a80:	13668693          	addi	x13,x13,310
    41015a84:	d01b7c53          	fcvt.s.wu	f24,x22
    41015a88:	d2168f53          	fcvt.d.wu	f30,x13
    41015a8c:	13ec7e53          	fmul.d	f28,f24,f30
    41015a90:	594ae437          	lui	x8,0x594ae
    41015a94:	e2b4041b          	addiw	x8,x8,-469 # 594ade2b <pma_region_2_end+0x1446ce2b>
    41015a98:	2a62ee37          	lui	x28,0x2a62e
    41015a9c:	fa1e0e1b          	addiw	x28,x28,-95 # 2a62dfa1 <pma_region_2_size+0x2662dfa1>
    41015aa0:	d2140d53          	fcvt.d.wu	f26,x8
    41015aa4:	d03e7bd3          	fcvt.s.lu	f23,x28
    41015aa8:	137d7d53          	fmul.d	f26,f26,f23
    41015aac:	259ba937          	lui	x18,0x259ba
    41015ab0:	aa49091b          	addiw	x18,x18,-1372 # 259b9aa4 <pma_region_2_size+0x219b9aa4>
    41015ab4:	3bc1dcb7          	lui	x25,0x3bc1d
    41015ab8:	4dec8c9b          	addiw	x25,x25,1246 # 3bc1d4de <pma_region_2_size+0x37c1d4de>
    41015abc:	03996db3          	rem	x27,x18,x25
    41015ac0:	0002b4b7          	lui	x9,0x2b
    41015ac4:	8854849b          	addiw	x9,x9,-1915 # 2a885 <_all_interrupts+0x27ddb>
    41015ac8:	00e49493          	slli	x9,x9,0xe
    41015acc:	d1f48493          	addi	x9,x9,-737
    41015ad0:	000e5737          	lui	x14,0xe5
    41015ad4:	7657071b          	addiw	x14,x14,1893 # e5765 <pma_region_0_size+0xa5765>
    41015ad8:	00c71713          	slli	x14,x14,0xc
    41015adc:	36470713          	addi	x14,x14,868
    41015ae0:	02e4a9b3          	mulhsu	x19,x9,x14
    41015ae4:	0002afb7          	lui	x31,0x2a
    41015ae8:	8d3f8f9b          	addiw	x31,x31,-1837 # 298d3 <_all_interrupts+0x26e29>
    41015aec:	00ef9f93          	slli	x31,x31,0xe
    41015af0:	fcbf8f93          	addi	x31,x31,-53
    41015af4:	2c8498b7          	lui	x17,0x2c849
    41015af8:	b838889b          	addiw	x17,x17,-1149 # 2c848b83 <pma_region_2_size+0x28848b83>
    41015afc:	0b1fbe33          	clmulh	x28,x31,x17
    41015b00:	68939fb7          	lui	x31,0x68939
    41015b04:	272f8f9b          	addiw	x31,x31,626 # 68939272 <pma_region_2_end+0x238f8272>
    41015b08:	694f849b          	addiw	x9,x31,1684
    41015b0c:	737ea5b7          	lui	x11,0x737ea
    41015b10:	28b5859b          	addiw	x11,x11,651 # 737ea28b <pma_region_2_end+0x2e7a928b>
    41015b14:	7fb47c37          	lui	x24,0x7fb47
    41015b18:	848c0c1b          	addiw	x24,x24,-1976 # 7fb46848 <pma_region_2_end+0x3ab05848>
    41015b1c:	0005bab7          	lui	x21,0x5b
    41015b20:	a99a8a9b          	addiw	x21,x21,-1383 # 5aa99 <pma_region_0_size+0x1aa99>
    41015b24:	00da9a93          	slli	x21,x21,0xd
    41015b28:	3dfa8a93          	addi	x21,x21,991
    41015b2c:	d2058d53          	fcvt.d.w	f26,x11
    41015b30:	d03c77d3          	fcvt.s.lu	f15,x24
    41015b34:	d02afdd3          	fcvt.s.l	f27,x21
    41015b38:	dafd7143          	fmadd.d	f2,f26,f15,f27
    41015b3c:	000fd7b7          	lui	x15,0xfd
    41015b40:	e8d7879b          	addiw	x15,x15,-371 # fce8d <pma_region_0_size+0xbce8d>
    41015b44:	00c79793          	slli	x15,x15,0xc
    41015b48:	35878793          	addi	x15,x15,856
    41015b4c:	36c78b13          	addi	x22,x15,876
    41015b50:	000b9e37          	lui	x28,0xb9
    41015b54:	d7be0e1b          	addiw	x28,x28,-645 # b8d7b <pma_region_0_size+0x78d7b>
    41015b58:	00ce1e13          	slli	x28,x28,0xc
    41015b5c:	02ae0e13          	addi	x28,x28,42
    41015b60:	0001a337          	lui	x6,0x1a
    41015b64:	dbb3031b          	addiw	x6,x6,-581 # 19dbb <_all_interrupts+0x17311>
    41015b68:	00f31313          	slli	x6,x6,0xf
    41015b6c:	90230313          	addi	x6,x6,-1790
    41015b70:	026e733b          	remuw	x6,x28,x6
    41015b74:	2c3223b7          	lui	x7,0x2c322
    41015b78:	06f3839b          	addiw	x7,x7,111 # 2c32206f <pma_region_2_size+0x2832206f>
    41015b7c:	7cb38c93          	addi	x25,x7,1995
    41015b80:	68312b37          	lui	x22,0x68312
    41015b84:	0b3b0b1b          	addiw	x22,x22,179 # 683120b3 <pma_region_2_end+0x232d10b3>
    41015b88:	4393df37          	lui	x30,0x4393d
    41015b8c:	20bf0f1b          	addiw	x30,x30,523 # 4393d20b <tp_csr_storage+0x272720b>
    41015b90:	d00b7c53          	fcvt.s.w	f24,x22
    41015b94:	d01f7253          	fcvt.s.wu	f4,x30
    41015b98:	104c7dd3          	fmul.s	f27,f24,f4
    41015b9c:	000e9ab7          	lui	x21,0xe9
    41015ba0:	65da8a9b          	addiw	x21,x21,1629 # e965d <pma_region_0_size+0xa965d>
    41015ba4:	00ca9a93          	slli	x21,x21,0xc
    41015ba8:	457a8a93          	addi	x21,x21,1111
    41015bac:	50062837          	lui	x16,0x50062
    41015bb0:	e2a8081b          	addiw	x16,x16,-470 # 50061e2a <pma_region_2_end+0xb020e2a>
    41015bb4:	d01afb53          	fcvt.s.wu	f22,x21
    41015bb8:	d0287bd3          	fcvt.s.l	f23,x16
    41015bbc:	0b7b79d3          	fsub.d	f19,f22,f23
    41015bc0:	000924b7          	lui	x9,0x92
    41015bc4:	01f4849b          	addiw	x9,x9,31 # 9201f <pma_region_0_size+0x5201f>
    41015bc8:	00c49493          	slli	x9,x9,0xc
    41015bcc:	3a148493          	addi	x9,x9,929
    41015bd0:	00075f37          	lui	x30,0x75
    41015bd4:	4e5f0f1b          	addiw	x30,x30,1253 # 754e5 <pma_region_0_size+0x354e5>
    41015bd8:	00df1f13          	slli	x30,x30,0xd
    41015bdc:	ed5f0f13          	addi	x30,x30,-299
    41015be0:	67a8f8b7          	lui	x17,0x67a8f
    41015be4:	71b8889b          	addiw	x17,x17,1819 # 67a8f71b <pma_region_2_end+0x22a4e71b>
    41015be8:	d234fed3          	fcvt.d.lu	f29,x9
    41015bec:	d21f0d53          	fcvt.d.wu	f26,x30
    41015bf0:	d038f2d3          	fcvt.s.lu	f5,x17
    41015bf4:	29aefccf          	fnmadd.s	f25,f29,f26,f5
    41015bf8:	4c97ca37          	lui	x20,0x4c97c
    41015bfc:	44fa0a1b          	addiw	x20,x20,1103 # 4c97c44f <pma_region_2_end+0x793b44f>
    41015c00:	000a6837          	lui	x16,0xa6
    41015c04:	9798081b          	addiw	x16,x16,-1671 # a5979 <pma_region_0_size+0x65979>
    41015c08:	00c81813          	slli	x16,x16,0xc
    41015c0c:	a8480813          	addi	x16,x16,-1404
    41015c10:	030a06bb          	mulw	x13,x20,x16
    41015c14:	000b7837          	lui	x16,0xb7
    41015c18:	e1f8081b          	addiw	x16,x16,-481 # b6e1f <pma_region_0_size+0x76e1f>
    41015c1c:	00c81813          	slli	x16,x16,0xc
    41015c20:	f9580813          	addi	x16,x16,-107
    41015c24:	000c9537          	lui	x10,0xc9
    41015c28:	9895051b          	addiw	x10,x10,-1655 # c8989 <pma_region_0_size+0x88989>
    41015c2c:	00c51513          	slli	x10,x10,0xc
    41015c30:	25c50513          	addi	x10,x10,604
    41015c34:	02a86d33          	rem	x26,x16,x10
    41015c38:	000f8437          	lui	x8,0xf8
    41015c3c:	3d14041b          	addiw	x8,x8,977 # f83d1 <pma_region_0_size+0xb83d1>
    41015c40:	00c41413          	slli	x8,x8,0xc
    41015c44:	d8640413          	addi	x8,x8,-634
    41015c48:	000e5737          	lui	x14,0xe5
    41015c4c:	72d7071b          	addiw	x14,x14,1837 # e572d <pma_region_0_size+0xa572d>
    41015c50:	00c71713          	slli	x14,x14,0xc
    41015c54:	47570713          	addi	x14,x14,1141
    41015c58:	02e433b3          	mulhu	x7,x8,x14
    41015c5c:	b0202473          	csrr	x8,minstret
    41015c60:	01740a63          	beq	x8,x23,41015c74 <pass_label_7>
    41015c64:	44db49b7          	lui	x19,0x44db4
    41015c68:	0089899b          	addiw	x19,x19,8 # 44db4008 <failed_addr>
    41015c6c:	0009b303          	ld	x6,0(x19)
    41015c70:	00030067          	jr	x6

0000000041015c74 <pass_label_7>:
    41015c74:	320059f3          	csrrwi	x19,mcountinhibit,0
    41015c78:	41216137          	lui	x2,0x41216
    41015c7c:	00013383          	ld	x7,0(x2) # 41216000 <tp_csr_storage>
    41015c80:	320393f3          	csrrw	x7,mcountinhibit,x7

0000000041015c84 <SID_SSCOFPMF_04C_MCOUNTINHIBIT_MINSTRET_STOPS_passed>:
    41015c84:	44db42b7          	lui	x5,0x44db4
    41015c88:	0182829b          	addiw	x5,x5,24 # 44db4018 <os_passed_addr>
    41015c8c:	0002b303          	ld	x6,0(x5)
    41015c90:	00030067          	jr	x6

0000000041015c94 <SID_SSCOFPMF_04D_MCOUNTINHIBIT_MINSTRET_RESUMES>:
    41015c94:	41216137          	lui	x2,0x41216
    41015c98:	320023f3          	csrr	x7,mcountinhibit
    41015c9c:	00713023          	sd	x7,0(x2) # 41216000 <tp_csr_storage>
    41015ca0:	44f70137          	lui	x2,0x44f70
    41015ca4:	000012b7          	lui	x5,0x1
    41015ca8:	00510133          	add	x2,x2,x5
    41015cac:	ff017113          	andi	x2,x2,-16
    41015cb0:	32026b73          	csrrsi	x22,mcountinhibit,4
    41015cb4:	32027c73          	csrrci	x24,mcountinhibit,4
    41015cb8:	b0202af3          	csrr	x21,minstret
    41015cbc:	000a8c93          	mv	x25,x21
    41015cc0:	000b8f37          	lui	x30,0xb8
    41015cc4:	73bf0f1b          	addiw	x30,x30,1851 # b873b <pma_region_0_size+0x7873b>
    41015cc8:	00cf1f13          	slli	x30,x30,0xc
    41015ccc:	165f0f13          	addi	x30,x30,357
    41015cd0:	0004f737          	lui	x14,0x4f
    41015cd4:	3b37071b          	addiw	x14,x14,947 # 4f3b3 <pma_region_0_size+0xf3b3>
    41015cd8:	00d71713          	slli	x14,x14,0xd
    41015cdc:	29c70713          	addi	x14,x14,668
    41015ce0:	2d63a5b7          	lui	x11,0x2d63a
    41015ce4:	41d5859b          	addiw	x11,x11,1053 # 2d63a41d <pma_region_2_size+0x2963a41d>
    41015ce8:	d23f7fd3          	fcvt.d.lu	f31,x30
    41015cec:	d22773d3          	fcvt.d.l	f7,x14
    41015cf0:	d21586d3          	fcvt.d.wu	f13,x11
    41015cf4:	687ffecf          	fnmadd.s	f29,f31,f7,f13
    41015cf8:	32e144b7          	lui	x9,0x32e14
    41015cfc:	afe4849b          	addiw	x9,x9,-1282 # 32e13afe <pma_region_2_size+0x2ee13afe>
    41015d00:	000555b7          	lui	x11,0x55
    41015d04:	b3d5859b          	addiw	x11,x11,-1219 # 54b3d <pma_region_0_size+0x14b3d>
    41015d08:	00d59593          	slli	x11,x11,0xd
    41015d0c:	eef58593          	addi	x11,x11,-273
    41015d10:	000fb837          	lui	x16,0xfb
    41015d14:	fcd8081b          	addiw	x16,x16,-51 # fafcd <pma_region_0_size+0xbafcd>
    41015d18:	00c81813          	slli	x16,x16,0xc
    41015d1c:	05080813          	addi	x16,x16,80
    41015d20:	d004f453          	fcvt.s.w	f8,x9
    41015d24:	d225f8d3          	fcvt.d.l	f17,x11
    41015d28:	d21802d3          	fcvt.d.wu	f5,x16
    41015d2c:	29147b47          	fmsub.s	f22,f8,f17,f5
    41015d30:	000147b7          	lui	x15,0x14
    41015d34:	e057879b          	addiw	x15,x15,-507 # 13e05 <_all_interrupts+0x1135b>
    41015d38:	00f79793          	slli	x15,x15,0xf
    41015d3c:	74078793          	addi	x15,x15,1856
    41015d40:	000adb37          	lui	x22,0xad
    41015d44:	b7db0b1b          	addiw	x22,x22,-1155 # acb7d <pma_region_0_size+0x6cb7d>
    41015d48:	00cb1b13          	slli	x22,x22,0xc
    41015d4c:	00eb0b13          	addi	x22,x22,14
    41015d50:	0367cdb3          	div	x27,x15,x22
    41015d54:	007f26b7          	lui	x13,0x7f2
    41015d58:	0005b437          	lui	x8,0x5b
    41015d5c:	d6f4041b          	addiw	x8,x8,-657 # 5ad6f <pma_region_0_size+0x1ad6f>
    41015d60:	00d41413          	slli	x8,x8,0xd
    41015d64:	89240413          	addi	x8,x8,-1902
    41015d68:	12834d37          	lui	x26,0x12834
    41015d6c:	550d0d1b          	addiw	x26,x26,1360 # 12834550 <pma_region_2_size+0xe834550>
    41015d70:	03a42f33          	mulhsu	x30,x8,x26
    41015d74:	0008a8b7          	lui	x17,0x8a
    41015d78:	80d8889b          	addiw	x17,x17,-2035 # 8980d <pma_region_0_size+0x4980d>
    41015d7c:	00c89893          	slli	x17,x17,0xc
    41015d80:	2ec88893          	addi	x17,x17,748
    41015d84:	0003d837          	lui	x16,0x3d
    41015d88:	9418081b          	addiw	x16,x16,-1727 # 3c941 <_all_interrupts+0x39e97>
    41015d8c:	00e81813          	slli	x16,x16,0xe
    41015d90:	cb180813          	addi	x16,x16,-847
    41015d94:	504d6537          	lui	x10,0x504d6
    41015d98:	4bc5051b          	addiw	x10,x10,1212 # 504d64bc <pma_region_2_end+0xb4954bc>
    41015d9c:	d008ffd3          	fcvt.s.w	f31,x17
    41015da0:	d0387853          	fcvt.s.lu	f16,x16
    41015da4:	d2050f53          	fcvt.d.w	f30,x10
    41015da8:	f10ff4cf          	fnmadd.s	f9,f31,f16,f30
    41015dac:	211ace37          	lui	x28,0x211ac
    41015db0:	31be0e1b          	addiw	x28,x28,795 # 211ac31b <pma_region_2_size+0x1d1ac31b>
    41015db4:	000816b7          	lui	x13,0x81
    41015db8:	a9f6869b          	addiw	x13,x13,-1377 # 80a9f <pma_region_0_size+0x40a9f>
    41015dbc:	00c69693          	slli	x13,x13,0xc
    41015dc0:	baa68693          	addi	x13,x13,-1110
    41015dc4:	02de23b3          	mulhsu	x7,x28,x13
    41015dc8:	3cbd87b7          	lui	x15,0x3cbd8
    41015dcc:	1267879b          	addiw	x15,x15,294 # 3cbd8126 <pma_region_2_size+0x38bd8126>
    41015dd0:	3cdddf37          	lui	x30,0x3cddd
    41015dd4:	e42f0f1b          	addiw	x30,x30,-446 # 3cddce42 <pma_region_2_size+0x38ddce42>
    41015dd8:	0be79633          	clmul	x12,x15,x30
    41015ddc:	00703b37          	lui	x22,0x703
    41015de0:	00016537          	lui	x10,0x16
    41015de4:	b0d5051b          	addiw	x10,x10,-1267 # 15b0d <_all_interrupts+0x13063>
    41015de8:	00f51513          	slli	x10,x10,0xf
    41015dec:	6de50513          	addi	x10,x10,1758
    41015df0:	74901737          	lui	x14,0x74901
    41015df4:	32b7071b          	addiw	x14,x14,811 # 7490132b <pma_region_2_end+0x2f8c032b>
    41015df8:	02e54c3b          	divw	x24,x10,x14
    41015dfc:	000aceb7          	lui	x29,0xac
    41015e00:	581e8e9b          	addiw	x29,x29,1409 # ac581 <pma_region_0_size+0x6c581>
    41015e04:	00ce9e93          	slli	x29,x29,0xc
    41015e08:	955e8e93          	addi	x29,x29,-1707
    41015e0c:	67f55c37          	lui	x24,0x67f55
    41015e10:	e98c0c1b          	addiw	x24,x24,-360 # 67f54e98 <pma_region_2_end+0x22f13e98>
    41015e14:	d20e8a53          	fcvt.d.w	f20,x29
    41015e18:	d02c7b53          	fcvt.s.l	f22,x24
    41015e1c:	136a7653          	fmul.d	f12,f20,f22
    41015e20:	74b8dab7          	lui	x21,0x74b8d
    41015e24:	956a8a9b          	addiw	x21,x21,-1706 # 74b8c956 <pma_region_2_end+0x2fb4b956>
    41015e28:	1b4f9637          	lui	x12,0x1b4f9
    41015e2c:	9c86061b          	addiw	x12,x12,-1592 # 1b4f89c8 <pma_region_2_size+0x174f89c8>
    41015e30:	02ca95b3          	mulh	x11,x21,x12
    41015e34:	504a6f37          	lui	x30,0x504a6
    41015e38:	c82f0f1b          	addiw	x30,x30,-894 # 504a5c82 <pma_region_2_end+0xb464c82>
    41015e3c:	3b68e437          	lui	x8,0x3b68e
    41015e40:	f224041b          	addiw	x8,x8,-222 # 3b68df22 <pma_region_2_size+0x3768df22>
    41015e44:	0c391737          	lui	x14,0xc391
    41015e48:	0817071b          	addiw	x14,x14,129 # c391081 <pma_region_2_size+0x8391081>
    41015e4c:	d02f77d3          	fcvt.s.l	f15,x30
    41015e50:	d0247ed3          	fcvt.s.l	f29,x8
    41015e54:	d2170953          	fcvt.d.wu	f18,x14
    41015e58:	93d7f547          	fmsub.d	f10,f15,f29,f18
    41015e5c:	58292337          	lui	x6,0x58292
    41015e60:	bf53031b          	addiw	x6,x6,-1035 # 58291bf5 <pma_region_2_end+0x13250bf5>
    41015e64:	6ae3059b          	addiw	x11,x6,1710
    41015e68:	1b623637          	lui	x12,0x1b623
    41015e6c:	ef26061b          	addiw	x12,x12,-270 # 1b622ef2 <pma_region_2_size+0x17622ef2>
    41015e70:	64c773b7          	lui	x7,0x64c77
    41015e74:	79f3839b          	addiw	x7,x7,1951 # 64c7779f <pma_region_2_end+0x1fc3679f>
    41015e78:	0a761c33          	clmul	x24,x12,x7
    41015e7c:	04ab9637          	lui	x12,0x4ab9
    41015e80:	1b76061b          	addiw	x12,x12,439 # 4ab91b7 <pma_region_2_size+0xab91b7>
    41015e84:	000909b7          	lui	x19,0x90
    41015e88:	32b9899b          	addiw	x19,x19,811 # 9032b <pma_region_0_size+0x5032b>
    41015e8c:	00c99993          	slli	x19,x19,0xc
    41015e90:	f6b98993          	addi	x19,x19,-149
    41015e94:	d0267153          	fcvt.s.l	f2,x12
    41015e98:	d029f653          	fcvt.s.l	f12,x19
    41015e9c:	12c176d3          	fmul.d	f13,f2,f12
    41015ea0:	1df82d37          	lui	x26,0x1df82
    41015ea4:	37cd0d1b          	addiw	x26,x26,892 # 1df8237c <pma_region_2_size+0x19f8237c>
    41015ea8:	000bf737          	lui	x14,0xbf
    41015eac:	2b97071b          	addiw	x14,x14,697 # bf2b9 <pma_region_0_size+0x7f2b9>
    41015eb0:	00c71713          	slli	x14,x14,0xc
    41015eb4:	3af70713          	addi	x14,x14,943
    41015eb8:	d00d7cd3          	fcvt.s.w	f25,x26
    41015ebc:	d0177c53          	fcvt.s.wu	f24,x14
    41015ec0:	018cfed3          	fadd.s	f29,f25,f24
    41015ec4:	0000dc37          	lui	x24,0xd
    41015ec8:	fa9c0c1b          	addiw	x24,x24,-87 # cfa9 <_all_interrupts+0xa4ff>
    41015ecc:	010c1c13          	slli	x24,x24,0x10
    41015ed0:	8f7c0c13          	addi	x24,x24,-1801
    41015ed4:	4252aa37          	lui	x20,0x4252a
    41015ed8:	a55a0a1b          	addiw	x20,x20,-1451 # 42529a55 <tp_csr_storage+0x1313a55>
    41015edc:	d01c78d3          	fcvt.s.wu	f17,x24
    41015ee0:	d00a7dd3          	fcvt.s.w	f27,x20
    41015ee4:	11b8f753          	fmul.s	f14,f17,f27
    41015ee8:	5a6b5f37          	lui	x30,0x5a6b5
    41015eec:	7e1f0f1b          	addiw	x30,x30,2017 # 5a6b57e1 <pma_region_2_end+0x156747e1>
    41015ef0:	04700b9b          	addiw	x23,x0,71
    41015ef4:	019b9b93          	slli	x23,x23,0x19
    41015ef8:	eabb8b93          	addi	x23,x23,-341
    41015efc:	0b7f3e33          	clmulh	x28,x30,x23
    41015f00:	3d972ab7          	lui	x21,0x3d972
    41015f04:	c1ca8a9b          	addiw	x21,x21,-996 # 3d971c1c <pma_region_2_size+0x39971c1c>
    41015f08:	567a5b37          	lui	x22,0x567a5
    41015f0c:	5f8b0b1b          	addiw	x22,x22,1528 # 567a55f8 <pma_region_2_end+0x117645f8>
    41015f10:	036acabb          	divw	x21,x21,x22
    41015f14:	6c4f3637          	lui	x12,0x6c4f3
    41015f18:	0696061b          	addiw	x12,x12,105 # 6c4f3069 <pma_region_2_end+0x274b2069>
    41015f1c:	3a068537          	lui	x10,0x3a068
    41015f20:	45b5051b          	addiw	x10,x10,1115 # 3a06845b <pma_region_2_size+0x3606845b>
    41015f24:	0b208b37          	lui	x22,0xb208
    41015f28:	53fb0b1b          	addiw	x22,x22,1343 # b20853f <pma_region_2_size+0x720853f>
    41015f2c:	d02674d3          	fcvt.s.l	f9,x12
    41015f30:	d0057dd3          	fcvt.s.w	f27,x10
    41015f34:	d20b0d53          	fcvt.d.w	f26,x22
    41015f38:	d1b4f1c3          	fmadd.s	f3,f9,f27,f26
    41015f3c:	23cb7537          	lui	x10,0x23cb7
    41015f40:	d865051b          	addiw	x10,x10,-634 # 23cb6d86 <pma_region_2_size+0x1fcb6d86>
    41015f44:	2ad79337          	lui	x6,0x2ad79
    41015f48:	2c73031b          	addiw	x6,x6,711 # 2ad792c7 <pma_region_2_size+0x26d792c7>
    41015f4c:	4065093b          	subw	x18,x10,x6
    41015f50:	0007b737          	lui	x14,0x7b
    41015f54:	db37071b          	addiw	x14,x14,-589 # 7adb3 <pma_region_0_size+0x3adb3>
    41015f58:	00d71713          	slli	x14,x14,0xd
    41015f5c:	5ca70713          	addi	x14,x14,1482
    41015f60:	10370b1b          	addiw	x22,x14,259
    41015f64:	217a1eb7          	lui	x29,0x217a1
    41015f68:	e9fe8e9b          	addiw	x29,x29,-353 # 217a0e9f <pma_region_2_size+0x1d7a0e9f>
    41015f6c:	000776b7          	lui	x13,0x77
    41015f70:	5616869b          	addiw	x13,x13,1377 # 77561 <pma_region_0_size+0x37561>
    41015f74:	00d69693          	slli	x13,x13,0xd
    41015f78:	c5268693          	addi	x13,x13,-942
    41015f7c:	d00ef853          	fcvt.s.w	f16,x29
    41015f80:	d026fc53          	fcvt.s.l	f24,x13
    41015f84:	1b887cd3          	fdiv.d	f25,f16,f24
    41015f88:	00017e37          	lui	x28,0x17
    41015f8c:	4dfe0e1b          	addiw	x28,x28,1247 # 174df <_all_interrupts+0x14a35>
    41015f90:	00fe1e13          	slli	x28,x28,0xf
    41015f94:	7dae0e13          	addi	x28,x28,2010
    41015f98:	000d5837          	lui	x16,0xd5
    41015f9c:	b278081b          	addiw	x16,x16,-1241 # d4b27 <pma_region_0_size+0x94b27>
    41015fa0:	00c81813          	slli	x16,x16,0xc
    41015fa4:	c7480813          	addi	x16,x16,-908
    41015fa8:	030e5bb3          	divu	x23,x28,x16
    41015fac:	000f1e37          	lui	x28,0xf1
    41015fb0:	af5e0e1b          	addiw	x28,x28,-1291 # f0af5 <pma_region_0_size+0xb0af5>
    41015fb4:	00ce1e13          	slli	x28,x28,0xc
    41015fb8:	384e0e13          	addi	x28,x28,900
    41015fbc:	2bea8d37          	lui	x26,0x2bea8
    41015fc0:	a0bd0d1b          	addiw	x26,x26,-1525 # 2bea7a0b <pma_region_2_size+0x27ea7a0b>
    41015fc4:	64510db7          	lui	x27,0x64510
    41015fc8:	38ad8d9b          	addiw	x27,x27,906 # 6451038a <pma_region_2_end+0x1f4cf38a>
    41015fcc:	d01e7ed3          	fcvt.s.wu	f29,x28
    41015fd0:	d00d7ad3          	fcvt.s.w	f21,x26
    41015fd4:	d03dfd53          	fcvt.s.lu	f26,x27
    41015fd8:	d35ef847          	fmsub.d	f16,f29,f21,f26
    41015fdc:	26a874b7          	lui	x9,0x26a87
    41015fe0:	f524849b          	addiw	x9,x9,-174 # 26a86f52 <pma_region_2_size+0x22a86f52>
    41015fe4:	000fe337          	lui	x6,0xfe
    41015fe8:	3ab3031b          	addiw	x6,x6,939 # fe3ab <pma_region_0_size+0xbe3ab>
    41015fec:	00c31313          	slli	x6,x6,0xc
    41015ff0:	67e30313          	addi	x6,x6,1662
    41015ff4:	0264a7b3          	mulhsu	x15,x9,x6
    41015ff8:	1ab5a837          	lui	x16,0x1ab5a
    41015ffc:	e938081b          	addiw	x16,x16,-365 # 1ab59e93 <pma_region_2_size+0x16b59e93>
    41016000:	00053e37          	lui	x28,0x53
    41016004:	8c3e0e1b          	addiw	x28,x28,-1853 # 528c3 <pma_region_0_size+0x128c3>
    41016008:	00de1e13          	slli	x28,x28,0xd
    4101600c:	e02e0e13          	addi	x28,x28,-510
    41016010:	03c863b3          	rem	x7,x16,x28
    41016014:	4ceb2fb7          	lui	x31,0x4ceb2
    41016018:	d25f8f9b          	addiw	x31,x31,-731 # 4ceb1d25 <pma_region_2_end+0x7e70d25>
    4101601c:	000c48b7          	lui	x17,0xc4
    41016020:	8dd8889b          	addiw	x17,x17,-1827 # c38dd <pma_region_0_size+0x838dd>
    41016024:	00c89893          	slli	x17,x17,0xc
    41016028:	a4c88893          	addi	x17,x17,-1460
    4101602c:	6d1e6b37          	lui	x22,0x6d1e6
    41016030:	808b0b1b          	addiw	x22,x22,-2040 # 6d1e5808 <pma_region_2_end+0x281a4808>
    41016034:	d23ffe53          	fcvt.d.lu	f28,x31
    41016038:	d228f4d3          	fcvt.d.l	f9,x17
    4101603c:	d02b7753          	fcvt.s.l	f14,x22
    41016040:	709e76c7          	fmsub.s	f13,f28,f9,f14
    41016044:	76a9bb37          	lui	x22,0x76a9b
    41016048:	bcab0b1b          	addiw	x22,x22,-1078 # 76a9abca <pma_region_2_end+0x31a59bca>
    4101604c:	01e4d337          	lui	x6,0x1e4d
    41016050:	da03031b          	addiw	x6,x6,-608 # 1e4cda0 <pma_region_0_size+0x1e0cda0>
    41016054:	406b0dbb          	subw	x27,x22,x6
    41016058:	00420bb7          	lui	x23,0x420
    4101605c:	1c485b37          	lui	x22,0x1c485
    41016060:	872b0b1b          	addiw	x22,x22,-1934 # 1c484872 <pma_region_2_size+0x18484872>
    41016064:	6c105fb7          	lui	x31,0x6c105
    41016068:	551f8f9b          	addiw	x31,x31,1361 # 6c105551 <pma_region_2_end+0x270c4551>
    4101606c:	00605bb7          	lui	x23,0x605
    41016070:	18cb8b9b          	addiw	x23,x23,396 # 60518c <pma_region_0_size+0x5c518c>
    41016074:	d00b78d3          	fcvt.s.w	f17,x22
    41016078:	d01fff53          	fcvt.s.wu	f30,x31
    4101607c:	d23bf5d3          	fcvt.d.lu	f11,x23
    41016080:	59e8f74f          	fnmadd.s	f14,f17,f30,f11
    41016084:	b0202473          	csrr	x8,minstret
    41016088:	41940c33          	sub	x24,x8,x25
    4101608c:	00000513          	li	x10,0
    41016090:	00ac1a63          	bne	x24,x10,410160a4 <pass_label_8>
    41016094:	44db45b7          	lui	x11,0x44db4
    41016098:	0085859b          	addiw	x11,x11,8 # 44db4008 <failed_addr>
    4101609c:	0005bc03          	ld	x24,0(x11)
    410160a0:	000c0067          	jr	x24

00000000410160a4 <pass_label_8>:
    410160a4:	32005373          	csrrwi	x6,mcountinhibit,0
    410160a8:	41216137          	lui	x2,0x41216
    410160ac:	00013383          	ld	x7,0(x2) # 41216000 <tp_csr_storage>
    410160b0:	320393f3          	csrrw	x7,mcountinhibit,x7

00000000410160b4 <SID_SSCOFPMF_04D_MCOUNTINHIBIT_MINSTRET_RESUMES_passed>:
    410160b4:	44db42b7          	lui	x5,0x44db4
    410160b8:	0182829b          	addiw	x5,x5,24 # 44db4018 <os_passed_addr>
    410160bc:	0002b303          	ld	x6,0(x5)
    410160c0:	00030067          	jr	x6

00000000410160c4 <SID_SSCOFPMF_09A_MHPMEVENT3_WRITES_NO_OVERFLOW>:
    410160c4:	41216137          	lui	x2,0x41216
    410160c8:	323023f3          	csrr	x7,mhpmevent3
    410160cc:	00713023          	sd	x7,0(x2) # 41216000 <tp_csr_storage>
    410160d0:	344023f3          	csrr	x7,mip
    410160d4:	00713423          	sd	x7,8(x2)
    410160d8:	44d50137          	lui	x2,0x44d50
    410160dc:	000012b7          	lui	x5,0x1
    410160e0:	00510133          	add	x2,x2,x5
    410160e4:	ff017113          	andi	x2,x2,-16
    410160e8:	00000f13          	li	x30,0
    410160ec:	00002b37          	lui	x22,0x2
    410160f0:	fff0031b          	addiw	x6,x0,-1
    410160f4:	03f31313          	slli	x6,x6,0x3f
    410160f8:	000025b7          	lui	x11,0x2
    410160fc:	3445b3f3          	csrrc	x7,mip,x11
    41016100:	fff0091b          	addiw	x18,x0,-1
    41016104:	03f91913          	slli	x18,x18,0x3f
    41016108:	fff90913          	addi	x18,x18,-1
    4101610c:	323918f3          	csrrw	x17,mhpmevent3,x18
    41016110:	32302673          	csrr	x12,mhpmevent3
    41016114:	00667433          	and	x8,x12,x6
    41016118:	01e40a63          	beq	x8,x30,4101612c <pass_label_9>
    4101611c:	44db48b7          	lui	x17,0x44db4
    41016120:	0088889b          	addiw	x17,x17,8 # 44db4008 <failed_addr>
    41016124:	0008b383          	ld	x7,0(x17)
    41016128:	00038067          	jr	x7

000000004101612c <pass_label_9>:
    4101612c:	344024f3          	csrr	x9,mip
    41016130:	0164fd33          	and	x26,x9,x22
    41016134:	01ed0a63          	beq	x26,x30,41016148 <pass_label_10>
    41016138:	44db4bb7          	lui	x23,0x44db4
    4101613c:	008b8b9b          	addiw	x23,x23,8 # 44db4008 <failed_addr>
    41016140:	000bb783          	ld	x15,0(x23)
    41016144:	00078067          	jr	x15

0000000041016148 <pass_label_10>:
    41016148:	32305ff3          	csrrwi	x31,mhpmevent3,0
    4101614c:	323027f3          	csrr	x15,mhpmevent3
    41016150:	0067ffb3          	and	x31,x15,x6
    41016154:	01ef8a63          	beq	x31,x30,41016168 <pass_label_11>
    41016158:	44db4bb7          	lui	x23,0x44db4
    4101615c:	008b8b9b          	addiw	x23,x23,8 # 44db4008 <failed_addr>
    41016160:	000bb783          	ld	x15,0(x23)
    41016164:	00078067          	jr	x15

0000000041016168 <pass_label_11>:
    41016168:	34402a73          	csrr	x20,mip
    4101616c:	016a7633          	and	x12,x20,x22
    41016170:	01e60a63          	beq	x12,x30,41016184 <pass_label_12>
    41016174:	44db4537          	lui	x10,0x44db4
    41016178:	0085051b          	addiw	x10,x10,8 # 44db4008 <failed_addr>
    4101617c:	00053d83          	ld	x27,0(x10)
    41016180:	000d8067          	jr	x27

0000000041016184 <pass_label_12>:
    41016184:	32305cf3          	csrrwi	x25,mhpmevent3,0
    41016188:	41216137          	lui	x2,0x41216
    4101618c:	00013383          	ld	x7,0(x2) # 41216000 <tp_csr_storage>
    41016190:	323393f3          	csrrw	x7,mhpmevent3,x7
    41016194:	00813383          	ld	x7,8(x2)
    41016198:	344393f3          	csrrw	x7,mip,x7

000000004101619c <SID_SSCOFPMF_09A_MHPMEVENT3_WRITES_NO_OVERFLOW_passed>:
    4101619c:	44db42b7          	lui	x5,0x44db4
    410161a0:	0182829b          	addiw	x5,x5,24 # 44db4018 <os_passed_addr>
    410161a4:	0002b303          	ld	x6,0(x5)
    410161a8:	00030067          	jr	x6

00000000410161ac <SID_SSCOFPMF_09B_MHPMCOUNTER3_WRITES_NO_OVERFLOW>:
    410161ac:	41216137          	lui	x2,0x41216
    410161b0:	b03023f3          	csrr	x7,mhpmcounter3
    410161b4:	00713023          	sd	x7,0(x2) # 41216000 <tp_csr_storage>
    410161b8:	344023f3          	csrr	x7,mip
    410161bc:	00713423          	sd	x7,8(x2)
    410161c0:	44d62137          	lui	x2,0x44d62
    410161c4:	000012b7          	lui	x5,0x1
    410161c8:	00510133          	add	x2,x2,x5
    410161cc:	ff017113          	andi	x2,x2,-16
    410161d0:	00000593          	li	x11,0
    410161d4:	00002d37          	lui	x26,0x2
    410161d8:	fff00f1b          	addiw	x30,x0,-1
    410161dc:	03ff1f13          	slli	x30,x30,0x3f
    410161e0:	00002a37          	lui	x20,0x2
    410161e4:	344a3cf3          	csrrc	x25,mip,x20
    410161e8:	fff00393          	li	x7,-1
    410161ec:	b0339ef3          	csrrw	x29,mhpmcounter3,x7
    410161f0:	b0302873          	csrr	x16,mhpmcounter3
    410161f4:	00b81a63          	bne	x16,x11,41016208 <pass_label_13>
    410161f8:	44db4537          	lui	x10,0x44db4
    410161fc:	0085051b          	addiw	x10,x10,8 # 44db4008 <failed_addr>
    41016200:	00053883          	ld	x17,0(x10)
    41016204:	00088067          	jr	x17

0000000041016208 <pass_label_13>:
    41016208:	323023f3          	csrr	x7,mhpmevent3
    4101620c:	01e3f933          	and	x18,x7,x30
    41016210:	00b90a63          	beq	x18,x11,41016224 <pass_label_14>
    41016214:	44db4437          	lui	x8,0x44db4
    41016218:	0084041b          	addiw	x8,x8,8 # 44db4008 <failed_addr>
    4101621c:	00043983          	ld	x19,0(x8)
    41016220:	00098067          	jr	x19

0000000041016224 <pass_label_14>:
    41016224:	34402473          	csrr	x8,mip
    41016228:	01a47b33          	and	x22,x8,x26
    4101622c:	00bb0a63          	beq	x22,x11,41016240 <pass_label_15>
    41016230:	44db4437          	lui	x8,0x44db4
    41016234:	0084041b          	addiw	x8,x8,8 # 44db4008 <failed_addr>
    41016238:	00043783          	ld	x15,0(x8)
    4101623c:	00078067          	jr	x15

0000000041016240 <pass_label_15>:
    41016240:	b03059f3          	csrrwi	x19,mhpmcounter3,0
    41016244:	32302373          	csrr	x6,mhpmevent3
    41016248:	01e37bb3          	and	x23,x6,x30
    4101624c:	00bb8a63          	beq	x23,x11,41016260 <pass_label_16>
    41016250:	44db4737          	lui	x14,0x44db4
    41016254:	0087071b          	addiw	x14,x14,8 # 44db4008 <failed_addr>
    41016258:	00073783          	ld	x15,0(x14)
    4101625c:	00078067          	jr	x15

0000000041016260 <pass_label_16>:
    41016260:	34402e73          	csrr	x28,mip
    41016264:	01ae7bb3          	and	x23,x28,x26
    41016268:	00bb8a63          	beq	x23,x11,4101627c <pass_label_17>
    4101626c:	44db4a37          	lui	x20,0x44db4
    41016270:	008a0a1b          	addiw	x20,x20,8 # 44db4008 <failed_addr>
    41016274:	000a3803          	ld	x16,0(x20)
    41016278:	00080067          	jr	x16

000000004101627c <pass_label_17>:
    4101627c:	b03058f3          	csrrwi	x17,mhpmcounter3,0
    41016280:	32305bf3          	csrrwi	x23,mhpmevent3,0
    41016284:	41216137          	lui	x2,0x41216
    41016288:	00013383          	ld	x7,0(x2) # 41216000 <tp_csr_storage>
    4101628c:	b03393f3          	csrrw	x7,mhpmcounter3,x7
    41016290:	00813383          	ld	x7,8(x2)
    41016294:	344393f3          	csrrw	x7,mip,x7

0000000041016298 <SID_SSCOFPMF_09B_MHPMCOUNTER3_WRITES_NO_OVERFLOW_passed>:
    41016298:	44db42b7          	lui	x5,0x44db4
    4101629c:	0182829b          	addiw	x5,x5,24 # 44db4018 <os_passed_addr>
    410162a0:	0002b303          	ld	x6,0(x5)
    410162a4:	00030067          	jr	x6

00000000410162a8 <SID_SSCOFPMF_09C_MHPMCOUNTER3_REVERSE_WRITES_NO_OVERFLOW>:
    410162a8:	41216137          	lui	x2,0x41216
    410162ac:	b03023f3          	csrr	x7,mhpmcounter3
    410162b0:	00713023          	sd	x7,0(x2) # 41216000 <tp_csr_storage>
    410162b4:	344023f3          	csrr	x7,mip
    410162b8:	00713423          	sd	x7,8(x2)
    410162bc:	44f74137          	lui	x2,0x44f74
    410162c0:	000012b7          	lui	x5,0x1
    410162c4:	00510133          	add	x2,x2,x5
    410162c8:	ff017113          	andi	x2,x2,-16
    410162cc:	00000413          	li	x8,0
    410162d0:	00002db7          	lui	x27,0x2
    410162d4:	fff0069b          	addiw	x13,x0,-1
    410162d8:	03f69693          	slli	x13,x13,0x3f
    410162dc:	00002eb7          	lui	x29,0x2
    410162e0:	344eb5f3          	csrrc	x11,mip,x29
    410162e4:	b0305e73          	csrrwi	x28,mhpmcounter3,0
    410162e8:	b030d873          	csrrwi	x16,mhpmcounter3,1
    410162ec:	b0302573          	csrr	x10,mhpmcounter3
    410162f0:	00851a63          	bne	x10,x8,41016304 <pass_label_18>
    410162f4:	44db4b37          	lui	x22,0x44db4
    410162f8:	008b0b1b          	addiw	x22,x22,8 # 44db4008 <failed_addr>
    410162fc:	000b3f03          	ld	x30,0(x22)
    41016300:	000f0067          	jr	x30

0000000041016304 <pass_label_18>:
    41016304:	b0305f73          	csrrwi	x30,mhpmcounter3,0
    41016308:	323027f3          	csrr	x15,mhpmevent3
    4101630c:	00d7f933          	and	x18,x15,x13
    41016310:	00890a63          	beq	x18,x8,41016324 <pass_label_19>
    41016314:	44db49b7          	lui	x19,0x44db4
    41016318:	0089899b          	addiw	x19,x19,8 # 44db4008 <failed_addr>
    4101631c:	0009bf83          	ld	x31,0(x19)
    41016320:	000f8067          	jr	x31

0000000041016324 <pass_label_19>:
    41016324:	34402c73          	csrr	x24,mip
    41016328:	01bc7333          	and	x6,x24,x27
    4101632c:	00830a63          	beq	x6,x8,41016340 <pass_label_20>
    41016330:	44db4637          	lui	x12,0x44db4
    41016334:	0086061b          	addiw	x12,x12,8 # 44db4008 <failed_addr>
    41016338:	00063c83          	ld	x25,0(x12)
    4101633c:	000c8067          	jr	x25

0000000041016340 <pass_label_20>:
    41016340:	fff00f93          	li	x31,-1
    41016344:	b03f95f3          	csrrw	x11,mhpmcounter3,x31
    41016348:	32302cf3          	csrr	x25,mhpmevent3
    4101634c:	00dcf533          	and	x10,x25,x13
    41016350:	00850a63          	beq	x10,x8,41016364 <pass_label_21>
    41016354:	44db4e37          	lui	x28,0x44db4
    41016358:	008e0e1b          	addiw	x28,x28,8 # 44db4008 <failed_addr>
    4101635c:	000e3603          	ld	x12,0(x28)
    41016360:	00060067          	jr	x12

0000000041016364 <pass_label_21>:
    41016364:	34402873          	csrr	x16,mip
    41016368:	01b87e33          	and	x28,x16,x27
    4101636c:	008e0a63          	beq	x28,x8,41016380 <pass_label_22>
    41016370:	44db44b7          	lui	x9,0x44db4
    41016374:	0084849b          	addiw	x9,x9,8 # 44db4008 <failed_addr>
    41016378:	0004be03          	ld	x28,0(x9)
    4101637c:	000e0067          	jr	x28

0000000041016380 <pass_label_22>:
    41016380:	b0305f73          	csrrwi	x30,mhpmcounter3,0
    41016384:	323058f3          	csrrwi	x17,mhpmevent3,0
    41016388:	41216137          	lui	x2,0x41216
    4101638c:	00013383          	ld	x7,0(x2) # 41216000 <tp_csr_storage>
    41016390:	b03393f3          	csrrw	x7,mhpmcounter3,x7
    41016394:	00813383          	ld	x7,8(x2)
    41016398:	344393f3          	csrrw	x7,mip,x7

000000004101639c <SID_SSCOFPMF_09C_MHPMCOUNTER3_REVERSE_WRITES_NO_OVERFLOW_passed>:
    4101639c:	44db42b7          	lui	x5,0x44db4
    410163a0:	0182829b          	addiw	x5,x5,24 # 44db4018 <os_passed_addr>
    410163a4:	0002b303          	ld	x6,0(x5)
    410163a8:	00030067          	jr	x6

00000000410163ac <SID_SSCOFPMF_08A_SCOUNTOVF_SHADOW_COPY_ENABLED>:
    410163ac:	41216137          	lui	x2,0x41216
    410163b0:	306023f3          	csrr	x7,mcounteren
    410163b4:	00713023          	sd	x7,0(x2) # 41216000 <tp_csr_storage>
    410163b8:	323023f3          	csrr	x7,mhpmevent3
    410163bc:	00713423          	sd	x7,8(x2)
    410163c0:	106023f3          	csrr	x7,scounteren
    410163c4:	00713823          	sd	x7,16(x2)
    410163c8:	44f60137          	lui	x2,0x44f60
    410163cc:	000012b7          	lui	x5,0x1
    410163d0:	00510133          	add	x2,x2,x5
    410163d4:	ff017113          	andi	x2,x2,-16
    410163d8:	00000a93          	li	x21,0
    410163dc:	00800b93          	li	x23,8
    410163e0:	fff00e9b          	addiw	x29,x0,-1
    410163e4:	03fe9e93          	slli	x29,x29,0x3f
    410163e8:	30646573          	csrrsi	x10,mcounteren,8
    410163ec:	10646e73          	csrrsi	x28,scounteren,8
    410163f0:	32305df3          	csrrwi	x27,mhpmevent3,0
    410163f4:	da002973          	csrr	x18,scountovf
    410163f8:	01797833          	and	x16,x18,x23
    410163fc:	01580a63          	beq	x16,x21,41016410 <pass_label_23>
    41016400:	44db4e37          	lui	x28,0x44db4
    41016404:	008e0e1b          	addiw	x28,x28,8 # 44db4008 <failed_addr>
    41016408:	000e3c03          	ld	x24,0(x28)
    4101640c:	000c0067          	jr	x24

0000000041016410 <pass_label_23>:
    41016410:	fff0091b          	addiw	x18,x0,-1
    41016414:	03f91913          	slli	x18,x18,0x3f
    41016418:	32391cf3          	csrrw	x25,mhpmevent3,x18
    4101641c:	32302e73          	csrr	x28,mhpmevent3
    41016420:	01de74b3          	and	x9,x28,x29
    41016424:	01d48a63          	beq	x9,x29,41016438 <pass_label_24>
    41016428:	44db4ab7          	lui	x21,0x44db4
    4101642c:	008a8a9b          	addiw	x21,x21,8 # 44db4008 <failed_addr>
    41016430:	000ab683          	ld	x13,0(x21)
    41016434:	00068067          	jr	x13

0000000041016438 <pass_label_24>:
    41016438:	da002e73          	csrr	x28,scountovf
    4101643c:	017e7cb3          	and	x25,x28,x23
    41016440:	017c8a63          	beq	x25,x23,41016454 <pass_label_25>
    41016444:	44db48b7          	lui	x17,0x44db4
    41016448:	0088889b          	addiw	x17,x17,8 # 44db4008 <failed_addr>
    4101644c:	0008b483          	ld	x9,0(x17)
    41016450:	00048067          	jr	x9

0000000041016454 <pass_label_25>:
    41016454:	323056f3          	csrrwi	x13,mhpmevent3,0
    41016458:	30605673          	csrrwi	x12,mcounteren,0
    4101645c:	10605473          	csrrwi	x8,scounteren,0
    41016460:	41216137          	lui	x2,0x41216
    41016464:	00013383          	ld	x7,0(x2) # 41216000 <tp_csr_storage>
    41016468:	306393f3          	csrrw	x7,mcounteren,x7
    4101646c:	00813383          	ld	x7,8(x2)
    41016470:	323393f3          	csrrw	x7,mhpmevent3,x7
    41016474:	01013383          	ld	x7,16(x2)
    41016478:	106393f3          	csrrw	x7,scounteren,x7

000000004101647c <SID_SSCOFPMF_08A_SCOUNTOVF_SHADOW_COPY_ENABLED_passed>:
    4101647c:	44db42b7          	lui	x5,0x44db4
    41016480:	0182829b          	addiw	x5,x5,24 # 44db4018 <os_passed_addr>
    41016484:	0002b303          	ld	x6,0(x5)
    41016488:	00030067          	jr	x6

000000004101648c <SID_SSCOFPMF_06A_OVERFLOW_SETS_LCOFIP>:
    4101648c:	41216137          	lui	x2,0x41216
    41016490:	323023f3          	csrr	x7,mhpmevent3
    41016494:	00713023          	sd	x7,0(x2) # 41216000 <tp_csr_storage>
    41016498:	44d4b137          	lui	x2,0x44d4b
    4101649c:	000012b7          	lui	x5,0x1
    410164a0:	00510133          	add	x2,x2,x5
    410164a4:	ff017113          	andi	x2,x2,-16
    410164a8:	00000a13          	li	x20,0
    410164ac:	fff0041b          	addiw	x8,x0,-1
    410164b0:	03f41413          	slli	x8,x8,0x3f
    410164b4:	32305df3          	csrrwi	x27,mhpmevent3,0
    410164b8:	323415f3          	csrrw	x11,mhpmevent3,x8
    410164bc:	32302c73          	csrr	x24,mhpmevent3
    410164c0:	008c7333          	and	x6,x24,x8
    410164c4:	00830a63          	beq	x6,x8,410164d8 <pass_label_26>
    410164c8:	44db46b7          	lui	x13,0x44db4
    410164cc:	0086869b          	addiw	x13,x13,8 # 44db4008 <failed_addr>
    410164d0:	0006bb83          	ld	x23,0(x13)
    410164d4:	000b8067          	jr	x23

00000000410164d8 <pass_label_26>:
    410164d8:	323a1873          	csrrw	x16,mhpmevent3,x20
    410164dc:	32302f73          	csrr	x30,mhpmevent3
    410164e0:	008f7cb3          	and	x25,x30,x8
    410164e4:	014c8a63          	beq	x25,x20,410164f8 <pass_label_27>
    410164e8:	44db45b7          	lui	x11,0x44db4
    410164ec:	0085859b          	addiw	x11,x11,8 # 44db4008 <failed_addr>
    410164f0:	0005b803          	ld	x16,0(x11)
    410164f4:	00080067          	jr	x16

00000000410164f8 <pass_label_27>:
    410164f8:	32305773          	csrrwi	x14,mhpmevent3,0
    410164fc:	41216137          	lui	x2,0x41216
    41016500:	00013383          	ld	x7,0(x2) # 41216000 <tp_csr_storage>
    41016504:	323393f3          	csrrw	x7,mhpmevent3,x7

0000000041016508 <SID_SSCOFPMF_06A_OVERFLOW_SETS_LCOFIP_passed>:
    41016508:	44db42b7          	lui	x5,0x44db4
    4101650c:	0182829b          	addiw	x5,x5,24 # 44db4018 <os_passed_addr>
    41016510:	0002b303          	ld	x6,0(x5)
    41016514:	00030067          	jr	x6

0000000041016518 <SID_SSCOFPMF_07A_OF_BIT_MASKS_LCOFIP>:
    41016518:	41216137          	lui	x2,0x41216
    4101651c:	323023f3          	csrr	x7,mhpmevent3
    41016520:	00713023          	sd	x7,0(x2) # 41216000 <tp_csr_storage>
    41016524:	344023f3          	csrr	x7,mip
    41016528:	00713423          	sd	x7,8(x2)
    4101652c:	44fba137          	lui	x2,0x44fba
    41016530:	000012b7          	lui	x5,0x1
    41016534:	00510133          	add	x2,x2,x5
    41016538:	ff017113          	andi	x2,x2,-16
    4101653c:	00000993          	li	x19,0
    41016540:	00002637          	lui	x12,0x2
    41016544:	fff0049b          	addiw	x9,x0,-1
    41016548:	03f49493          	slli	x9,x9,0x3f
    4101654c:	00002937          	lui	x18,0x2
    41016550:	34493a73          	csrrc	x20,mip,x18
    41016554:	323058f3          	csrrwi	x17,mhpmevent3,0
    41016558:	32349cf3          	csrrw	x25,mhpmevent3,x9
    4101655c:	323025f3          	csrr	x11,mhpmevent3
    41016560:	0095f833          	and	x16,x11,x9
    41016564:	00980a63          	beq	x16,x9,41016578 <pass_label_28>
    41016568:	44db4a37          	lui	x20,0x44db4
    4101656c:	008a0a1b          	addiw	x20,x20,8 # 44db4008 <failed_addr>
    41016570:	000a3b03          	ld	x22,0(x20)
    41016574:	000b0067          	jr	x22

0000000041016578 <pass_label_28>:
    41016578:	34402ff3          	csrr	x31,mip
    4101657c:	00cffd33          	and	x26,x31,x12
    41016580:	013d0a63          	beq	x26,x19,41016594 <pass_label_29>
    41016584:	44db4337          	lui	x6,0x44db4
    41016588:	0083031b          	addiw	x6,x6,8 # 44db4008 <failed_addr>
    4101658c:	00033983          	ld	x19,0(x6)
    41016590:	00098067          	jr	x19

0000000041016594 <pass_label_29>:
    41016594:	32305473          	csrrwi	x8,mhpmevent3,0
    41016598:	41216137          	lui	x2,0x41216
    4101659c:	00013383          	ld	x7,0(x2) # 41216000 <tp_csr_storage>
    410165a0:	323393f3          	csrrw	x7,mhpmevent3,x7
    410165a4:	00813383          	ld	x7,8(x2)
    410165a8:	344393f3          	csrrw	x7,mip,x7

00000000410165ac <SID_SSCOFPMF_07A_OF_BIT_MASKS_LCOFIP_passed>:
    410165ac:	44db42b7          	lui	x5,0x44db4
    410165b0:	0182829b          	addiw	x5,x5,24 # 44db4018 <os_passed_addr>
    410165b4:	0002b303          	ld	x6,0(x5)
    410165b8:	00030067          	jr	x6

00000000410165bc <SID_SSCOFPMF_02D_MHPMEVENT11_UNIMPLEMENTED>:
    410165bc:	41216137          	lui	x2,0x41216
    410165c0:	32b023f3          	csrr	x7,mhpmevent11
    410165c4:	00713023          	sd	x7,0(x2) # 41216000 <tp_csr_storage>
    410165c8:	44f72137          	lui	x2,0x44f72
    410165cc:	000012b7          	lui	x5,0x1
    410165d0:	00510133          	add	x2,x2,x5
    410165d4:	ff017113          	andi	x2,x2,-16
    410165d8:	fff00313          	li	x6,-1
    410165dc:	32b31573          	csrrw	x10,mhpmevent11,x6
    410165e0:	32b02773          	csrr	x14,mhpmevent11
    410165e4:	00000913          	li	x18,0
    410165e8:	01270a63          	beq	x14,x18,410165fc <pass_label_30>
    410165ec:	44db4437          	lui	x8,0x44db4
    410165f0:	0084041b          	addiw	x8,x8,8 # 44db4008 <failed_addr>
    410165f4:	00043403          	ld	x8,0(x8)
    410165f8:	00040067          	jr	x8

00000000410165fc <pass_label_30>:
    410165fc:	41216137          	lui	x2,0x41216
    41016600:	00013383          	ld	x7,0(x2) # 41216000 <tp_csr_storage>
    41016604:	32b393f3          	csrrw	x7,mhpmevent11,x7

0000000041016608 <SID_SSCOFPMF_02D_MHPMEVENT11_UNIMPLEMENTED_passed>:
    41016608:	44db42b7          	lui	x5,0x44db4
    4101660c:	0182829b          	addiw	x5,x5,24 # 44db4018 <os_passed_addr>
    41016610:	0002b303          	ld	x6,0(x5)
    41016614:	00030067          	jr	x6

0000000041016618 <SID_SSCOFPMF_02E_MHPMCOUNTER11_UNIMPLEMENTED>:
    41016618:	41216137          	lui	x2,0x41216
    4101661c:	b0b023f3          	csrr	x7,mhpmcounter11
    41016620:	00713023          	sd	x7,0(x2) # 41216000 <tp_csr_storage>
    41016624:	44d75137          	lui	x2,0x44d75
    41016628:	000012b7          	lui	x5,0x1
    4101662c:	00510133          	add	x2,x2,x5
    41016630:	ff017113          	andi	x2,x2,-16
    41016634:	fff00a13          	li	x20,-1
    41016638:	b0ba1bf3          	csrrw	x23,mhpmcounter11,x20
    4101663c:	b0b02a73          	csrr	x20,mhpmcounter11
    41016640:	c0b026f3          	csrr	x13,hpmcounter11
    41016644:	00000613          	li	x12,0
    41016648:	00ca0a63          	beq	x20,x12,4101665c <pass_label_31>
    4101664c:	44db47b7          	lui	x15,0x44db4
    41016650:	0087879b          	addiw	x15,x15,8 # 44db4008 <failed_addr>
    41016654:	0007b403          	ld	x8,0(x15)
    41016658:	00040067          	jr	x8

000000004101665c <pass_label_31>:
    4101665c:	00c68a63          	beq	x13,x12,41016670 <pass_label_32>
    41016660:	44db43b7          	lui	x7,0x44db4
    41016664:	0083839b          	addiw	x7,x7,8 # 44db4008 <failed_addr>
    41016668:	0003b303          	ld	x6,0(x7)
    4101666c:	00030067          	jr	x6

0000000041016670 <pass_label_32>:
    41016670:	41216137          	lui	x2,0x41216
    41016674:	00013383          	ld	x7,0(x2) # 41216000 <tp_csr_storage>
    41016678:	b0b393f3          	csrrw	x7,mhpmcounter11,x7

000000004101667c <SID_SSCOFPMF_02E_MHPMCOUNTER11_UNIMPLEMENTED_passed>:
    4101667c:	44db42b7          	lui	x5,0x44db4
    41016680:	0182829b          	addiw	x5,x5,24 # 44db4018 <os_passed_addr>
    41016684:	0002b303          	ld	x6,0(x5)
    41016688:	00030067          	jr	x6

000000004101668c <test_cleanup>:
    4101668c:	44db42b7          	lui	x5,0x44db4
    41016690:	0182829b          	addiw	x5,x5,24 # 44db4018 <os_passed_addr>
    41016694:	0002b303          	ld	x6,0(x5)
    41016698:	00030067          	jr	x6

000000004101669c <local_test_failed>:
    4101669c:	44db42b7          	lui	x5,0x44db4
    410166a0:	0202829b          	addiw	x5,x5,32 # 44db4020 <os_failed_addr>
    410166a4:	0002b303          	ld	x6,0(x5)
    410166a8:	00030067          	jr	x6

Disassembly of section .csr_machine_0:

0000000041214000 <csr_access_mcountinhibit_machine_key_2_write-0x90>:
    41214000:	44db4fb7          	lui	x31,0x44db4
    41214004:	0a8f8f9b          	addiw	x31,x31,168 # 44db40a8 <machine_csr_jump_table_flags>
    41214008:	000fbf83          	ld	x31,0(x31)
    4121400c:	00200293          	li	x5,2
    41214010:	085f8063          	beq	x31,x5,41214090 <csr_access_mcountinhibit_machine_key_2_write>
    41214014:	00100293          	li	x5,1
    41214018:	085f8063          	beq	x31,x5,41214098 <csr_access_mcountinhibit_machine_key_1_read>
    4121401c:	00400293          	li	x5,4
    41214020:	085f8063          	beq	x31,x5,412140a0 <csr_access_mhpmevent3_machine_key_4_write>
    41214024:	00300293          	li	x5,3
    41214028:	085f8063          	beq	x31,x5,412140a8 <csr_access_mhpmevent3_machine_key_3_read>
    4121402c:	00600293          	li	x5,6
    41214030:	085f8063          	beq	x31,x5,412140b0 <csr_access_mhpmcounter3_machine_key_6_write>
    41214034:	00500293          	li	x5,5
    41214038:	085f8063          	beq	x31,x5,412140b8 <csr_access_mhpmcounter3_machine_key_5_read>
    4121403c:	00800293          	li	x5,8
    41214040:	085f8063          	beq	x31,x5,412140c0 <csr_access_mcounteren_machine_key_8_write>
    41214044:	00700293          	li	x5,7
    41214048:	085f8063          	beq	x31,x5,412140c8 <csr_access_mcounteren_machine_key_7_read>
    4121404c:	01600293          	li	x5,22
    41214050:	085f8063          	beq	x31,x5,412140d0 <csr_access_mip_machine_key_22_write>
    41214054:	01400293          	li	x5,20
    41214058:	085f8063          	beq	x31,x5,412140d8 <csr_access_mip_machine_key_20_read>
    4121405c:	02400293          	li	x5,36
    41214060:	085f8063          	beq	x31,x5,412140e0 <csr_access_scounteren_supervisor_key_36_write>
    41214064:	02100293          	li	x5,33
    41214068:	085f8063          	beq	x31,x5,412140e8 <csr_access_scounteren_supervisor_key_33_read>
    4121406c:	02c00293          	li	x5,44
    41214070:	085f8063          	beq	x31,x5,412140f0 <csr_access_mhpmevent11_machine_key_44_write>
    41214074:	02b00293          	li	x5,43
    41214078:	085f8063          	beq	x31,x5,412140f8 <csr_access_mhpmevent11_machine_key_43_read>
    4121407c:	02e00293          	li	x5,46
    41214080:	085f8063          	beq	x31,x5,41214100 <csr_access_mhpmcounter11_machine_key_46_write>
    41214084:	02d00293          	li	x5,45
    41214088:	085f8063          	beq	x31,x5,41214108 <csr_access_mhpmcounter11_machine_key_45_read>
    4121408c:	0840006f          	j	41214110 <end_machine_label>

0000000041214090 <csr_access_mcountinhibit_machine_key_2_write>:
    41214090:	32039073          	csrw	mcountinhibit,x7
    41214094:	07c0006f          	j	41214110 <end_machine_label>

0000000041214098 <csr_access_mcountinhibit_machine_key_1_read>:
    41214098:	320023f3          	csrr	x7,mcountinhibit
    4121409c:	0740006f          	j	41214110 <end_machine_label>

00000000412140a0 <csr_access_mhpmevent3_machine_key_4_write>:
    412140a0:	32339073          	csrw	mhpmevent3,x7
    412140a4:	06c0006f          	j	41214110 <end_machine_label>

00000000412140a8 <csr_access_mhpmevent3_machine_key_3_read>:
    412140a8:	323023f3          	csrr	x7,mhpmevent3
    412140ac:	0640006f          	j	41214110 <end_machine_label>

00000000412140b0 <csr_access_mhpmcounter3_machine_key_6_write>:
    412140b0:	b0339073          	csrw	mhpmcounter3,x7
    412140b4:	05c0006f          	j	41214110 <end_machine_label>

00000000412140b8 <csr_access_mhpmcounter3_machine_key_5_read>:
    412140b8:	b03023f3          	csrr	x7,mhpmcounter3
    412140bc:	0540006f          	j	41214110 <end_machine_label>

00000000412140c0 <csr_access_mcounteren_machine_key_8_write>:
    412140c0:	30639073          	csrw	mcounteren,x7
    412140c4:	04c0006f          	j	41214110 <end_machine_label>

00000000412140c8 <csr_access_mcounteren_machine_key_7_read>:
    412140c8:	306023f3          	csrr	x7,mcounteren
    412140cc:	0440006f          	j	41214110 <end_machine_label>

00000000412140d0 <csr_access_mip_machine_key_22_write>:
    412140d0:	34439073          	csrw	mip,x7
    412140d4:	03c0006f          	j	41214110 <end_machine_label>

00000000412140d8 <csr_access_mip_machine_key_20_read>:
    412140d8:	344023f3          	csrr	x7,mip
    412140dc:	0340006f          	j	41214110 <end_machine_label>

00000000412140e0 <csr_access_scounteren_supervisor_key_36_write>:
    412140e0:	10639073          	csrw	scounteren,x7
    412140e4:	02c0006f          	j	41214110 <end_machine_label>

00000000412140e8 <csr_access_scounteren_supervisor_key_33_read>:
    412140e8:	106023f3          	csrr	x7,scounteren
    412140ec:	0240006f          	j	41214110 <end_machine_label>

00000000412140f0 <csr_access_mhpmevent11_machine_key_44_write>:
    412140f0:	32b39073          	csrw	mhpmevent11,x7
    412140f4:	01c0006f          	j	41214110 <end_machine_label>

00000000412140f8 <csr_access_mhpmevent11_machine_key_43_read>:
    412140f8:	32b023f3          	csrr	x7,mhpmevent11
    412140fc:	0140006f          	j	41214110 <end_machine_label>

0000000041214100 <csr_access_mhpmcounter11_machine_key_46_write>:
    41214100:	b0b39073          	csrw	mhpmcounter11,x7
    41214104:	00c0006f          	j	41214110 <end_machine_label>

0000000041214108 <csr_access_mhpmcounter11_machine_key_45_read>:
    41214108:	b0b023f3          	csrr	x7,mhpmcounter11
    4121410c:	0040006f          	j	41214110 <end_machine_label>

0000000041214110 <end_machine_label>:
    41214110:	000f0fb7          	lui	x31,0xf0
    41214114:	001f8f9b          	addiw	x31,x31,1 # f0001 <pma_region_0_size+0xb0001>
    41214118:	00cf9f93          	slli	x31,x31,0xc
    4121411c:	004f8f93          	addi	x31,x31,4
    41214120:	00000073          	ecall

Disassembly of section .csr_super_0:

0000000041215000 <end_super_label-0x10>:
    41215000:	44db4fb7          	lui	x31,0x44db4
    41215004:	0b0f8f9b          	addiw	x31,x31,176 # 44db40b0 <super_csr_jump_table_flags>
    41215008:	000fbf83          	ld	x31,0(x31)
    4121500c:	0040006f          	j	41215010 <end_super_label>

0000000041215010 <end_super_label>:
    41215010:	000f0fb7          	lui	x31,0xf0
    41215014:	001f8f9b          	addiw	x31,x31,1 # f0001 <pma_region_0_size+0xb0001>
    41215018:	00cf9f93          	slli	x31,x31,0xc
    4121501c:	004f8f93          	addi	x31,x31,4
    41215020:	00000073          	ecall

Disassembly of section .os_data:

0000000044db4000 <passed_addr_ptr>:
    44db4000:	40f0                	.insn	2, 0x40f0
    44db4002:	4101                	.insn	2, 0x4101
    44db4004:	0000                	.insn	2, 0x0000
	...

0000000044db4008 <failed_addr_ptr>:
    44db4008:	4100                	.insn	2, 0x4100
    44db400a:	4101                	.insn	2, 0x4101
    44db400c:	0000                	.insn	2, 0x0000
	...

0000000044db4010 <end_test_addr_ptr>:
    44db4010:	4110                	.insn	2, 0x4110
    44db4012:	4101                	.insn	2, 0x4101
    44db4014:	0000                	.insn	2, 0x0000
	...

0000000044db4018 <os_passed_addr_ptr>:
    44db4018:	0728                	.insn	2, 0x0728
    44db401a:	4100                	.insn	2, 0x4100
    44db401c:	0000                	.insn	2, 0x0000
	...

0000000044db4020 <os_failed_addr_ptr>:
    44db4020:	0738                	.insn	2, 0x0738
    44db4022:	4100                	.insn	2, 0x4100
    44db4024:	0000                	.insn	2, 0x0000
	...

0000000044db4028 <os_end_test_addr_ptr>:
    44db4028:	0744                	.insn	2, 0x0744
    44db402a:	4100                	.insn	2, 0x4100
    44db402c:	0000                	.insn	2, 0x0000
	...

0000000044db4030 <rvcp_prefix_str_data>:
    44db4030:	5652                	.insn	2, 0x5652
    44db4032:	203a5043          	fmadd.s	f0,f20,f3,f4,unknown
    44db4036:	6554                	.insn	2, 0x6554
    44db4038:	46207473          	csrrci	x8,0x462,0
    44db403c:	6c69                	.insn	2, 0x6c69
    44db403e:	2065                	.insn	2, 0x2065
	...

0000000044db4041 <rvcp_testname_str_data>:
    44db4041:	7074                	.insn	2, 0x7074
    44db4043:	735f 6373 666f      	.insn	6, 0x666f6373735f
    44db4049:	6d70                	.insn	2, 0x6d70
    44db404b:	5f66                	.insn	2, 0x5f66
    44db404d:	0032                	.insn	2, 0x0032

0000000044db404f <rvcp_passed_str_data>:
    44db404f:	4150                	.insn	2, 0x4150
    44db4051:	44455353          	fround.h	f6,f10,unknown
	...

0000000044db4056 <rvcp_failed_str_data>:
    44db4056:	4146                	.insn	2, 0x4146
    44db4058:	4c49                	.insn	2, 0x4c49
    44db405a:	4445                	.insn	2, 0x4445
	...

0000000044db405d <rvcp_space_str_data>:
    44db405d:	0020                	.insn	2, 0x0020

0000000044db405f <rvcp_newline_str_data>:
    44db405f:	000a                	.insn	2, 0x000a
    44db4061:	0000                	.insn	2, 0x0000
    44db4063:	0000                	.insn	2, 0x0000
    44db4065:	0000                	.insn	2, 0x0000
	...

0000000044db4068 <excp_ignored_count_mem>:
	...

0000000044db4070 <machine_flags_mem>:
	...

0000000044db4078 <user_flags_mem>:
	...

0000000044db4080 <super_flags_mem>:
	...

0000000044db4088 <machine_area_mem>:
	...

0000000044db4090 <user_area_mem>:
	...

0000000044db4098 <super_area_mem>:
	...

0000000044db40a0 <zero_data_mem>:
	...

0000000044db40a8 <machine_csr_jump_table_flags_mem>:
	...

0000000044db40b0 <super_csr_jump_table_flags_mem>:
	...

0000000044db40b8 <pte_access_flags_mem>:
	...

0000000044db40d0 <num_harts_ended_mem>:
	...

0000000044db40d8 <num_hard_fails_mem>:
	...

Disassembly of section .hart_context:

0000000044c40000 <hart_context_0>:
    44c40000:	9000                	.insn	2, 0x9000
    44c40002:	44da                	.insn	2, 0x44da
	...
    44c40018:	0001                	.insn	2, 0x0001
    44c4001a:	0000                	.insn	2, 0x0000
    44c4001c:	0000                	.insn	2, 0x0000
    44c4001e:	0000                	.insn	2, 0x0000
    44c40020:	ffff                	.insn	2, 0xffff
    44c40022:	ffff                	.insn	2, 0xffff
    44c40024:	ffff                	.insn	2, 0xffff
    44c40026:	ffff                	.insn	2, 0xffff
    44c40028:	ffff                	.insn	2, 0xffff
    44c4002a:	ffff                	.insn	2, 0xffff
    44c4002c:	ffff                	.insn	2, 0xffff
    44c4002e:	ffff                	.insn	2, 0xffff
    44c40030:	ffff                	.insn	2, 0xffff
    44c40032:	ffff                	.insn	2, 0xffff
    44c40034:	ffff                	.insn	2, 0xffff
    44c40036:	ffff                	.insn	2, 0xffff
	...
    44c40050:	00ff 0000 0000 0000 	.insn	10, 0x00ff00000000000000ff
    44c40058:	00ff 
	...
    44c40176:	0000                	.insn	2, 0x0000
    44c40178:	ffff                	.insn	2, 0xffff
    44c4017a:	ffff                	.insn	2, 0xffff
    44c4017c:	ffff                	.insn	2, 0xffff
    44c4017e:	ffff                	.insn	2, 0xffff
	...
    44c40188:	ffff                	.insn	2, 0xffff
    44c4018a:	ffff                	.insn	2, 0xffff
	...

Disassembly of section .hart_stack_0:

0000000044da8000 <hart_stack_0>:
	...

Disassembly of section .io_htif:

0000000041040000 <tohost>:
	...

0000000041040040 <fromhost>:
	...

Disassembly of section .tp_csr_storage:

0000000041216000 <.tp_csr_storage>:
    41216000:	c0de                	.insn	2, 0xc0de
    41216002:	c001                	.insn	2, 0xc001
    41216004:	0000                	.insn	2, 0x0000
	...

Disassembly of section .SID_SSCOFPMF_02A_MCOUNTINHIBIT_WARL_stack:

0000000044dad000 <.SID_SSCOFPMF_02A_MCOUNTINHIBIT_WARL_stack>:
    44dad000:	c0de                	.insn	2, 0xc0de
    44dad002:	c001                	.insn	2, 0xc001
    44dad004:	0000                	.insn	2, 0x0000
	...

Disassembly of section .SID_SSCOFPMF_02B_MHPMEVENT3_RESERVED_BITS_stack:

0000000045002000 <.SID_SSCOFPMF_02B_MHPMEVENT3_RESERVED_BITS_stack>:
    45002000:	c0de                	.insn	2, 0xc0de
    45002002:	c001                	.insn	2, 0xc001
    45002004:	0000                	.insn	2, 0x0000
	...

Disassembly of section .SID_SSCOFPMF_02C_MHPMCOUNTER3_WRITE_STICKS_stack:

0000000044dae000 <.SID_SSCOFPMF_02C_MHPMCOUNTER3_WRITE_STICKS_stack>:
    44dae000:	c0de                	.insn	2, 0xc0de
    44dae002:	c001                	.insn	2, 0xc001
    44dae004:	0000                	.insn	2, 0x0000
	...

Disassembly of section .SID_SSCOFPMF_03A_MCOUNTEREN_MCYCLE_stack:

0000000044f56000 <.SID_SSCOFPMF_03A_MCOUNTEREN_MCYCLE_stack>:
    44f56000:	c0de                	.insn	2, 0xc0de
    44f56002:	c001                	.insn	2, 0xc001
    44f56004:	0000                	.insn	2, 0x0000
	...

Disassembly of section .SID_SSCOFPMF_03B_MCOUNTEREN_MINSTRET_stack:

0000000044daf000 <.SID_SSCOFPMF_03B_MCOUNTEREN_MINSTRET_stack>:
    44daf000:	c0de                	.insn	2, 0xc0de
    44daf002:	c001                	.insn	2, 0xc001
    44daf004:	0000                	.insn	2, 0x0000
	...

Disassembly of section .SID_SSCOFPMF_04A_MCOUNTINHIBIT_MCYCLE_STOPS_stack:

0000000044d1d000 <.SID_SSCOFPMF_04A_MCOUNTINHIBIT_MCYCLE_STOPS_stack>:
    44d1d000:	c0de                	.insn	2, 0xc0de
    44d1d002:	c001                	.insn	2, 0xc001
    44d1d004:	0000                	.insn	2, 0x0000
	...

Disassembly of section .SID_SSCOFPMF_04B_MCOUNTINHIBIT_MCYCLE_RESUMES_stack:

0000000044d40000 <.SID_SSCOFPMF_04B_MCOUNTINHIBIT_MCYCLE_RESUMES_stack>:
    44d40000:	c0de                	.insn	2, 0xc0de
    44d40002:	c001                	.insn	2, 0xc001
    44d40004:	0000                	.insn	2, 0x0000
	...

Disassembly of section .SID_SSCOFPMF_04C_MCOUNTINHIBIT_MINSTRET_STOPS_stack:

0000000044e47000 <.SID_SSCOFPMF_04C_MCOUNTINHIBIT_MINSTRET_STOPS_stack>:
    44e47000:	c0de                	.insn	2, 0xc0de
    44e47002:	c001                	.insn	2, 0xc001
    44e47004:	0000                	.insn	2, 0x0000
	...

Disassembly of section .SID_SSCOFPMF_04D_MCOUNTINHIBIT_MINSTRET_RESUMES_stack:

0000000044f70000 <.SID_SSCOFPMF_04D_MCOUNTINHIBIT_MINSTRET_RESUMES_stack>:
    44f70000:	c0de                	.insn	2, 0xc0de
    44f70002:	c001                	.insn	2, 0xc001
    44f70004:	0000                	.insn	2, 0x0000
	...

Disassembly of section .SID_SSCOFPMF_09A_MHPMEVENT3_WRITES_NO_OVERFLOW_stack:

0000000044d50000 <.SID_SSCOFPMF_09A_MHPMEVENT3_WRITES_NO_OVERFLOW_stack>:
    44d50000:	c0de                	.insn	2, 0xc0de
    44d50002:	c001                	.insn	2, 0xc001
    44d50004:	0000                	.insn	2, 0x0000
	...

Disassembly of section .SID_SSCOFPMF_09B_MHPMCOUNTER3_WRITES_NO_OVERFLOW_stack:

0000000044d62000 <.SID_SSCOFPMF_09B_MHPMCOUNTER3_WRITES_NO_OVERFLOW_stack>:
    44d62000:	c0de                	.insn	2, 0xc0de
    44d62002:	c001                	.insn	2, 0xc001
    44d62004:	0000                	.insn	2, 0x0000
	...

Disassembly of section .SID_SSCOFPMF_09C_MHPMCOUNTER3_REVERSE_WRITES_NO_OVERFLOW_stack:

0000000044f74000 <.SID_SSCOFPMF_09C_MHPMCOUNTER3_REVERSE_WRITES_NO_OVERFLOW_stack>:
    44f74000:	c0de                	.insn	2, 0xc0de
    44f74002:	c001                	.insn	2, 0xc001
    44f74004:	0000                	.insn	2, 0x0000
	...

Disassembly of section .SID_SSCOFPMF_08A_SCOUNTOVF_SHADOW_COPY_ENABLED_stack:

0000000044f60000 <.SID_SSCOFPMF_08A_SCOUNTOVF_SHADOW_COPY_ENABLED_stack>:
    44f60000:	c0de                	.insn	2, 0xc0de
    44f60002:	c001                	.insn	2, 0xc001
    44f60004:	0000                	.insn	2, 0x0000
	...

Disassembly of section .SID_SSCOFPMF_06A_OVERFLOW_SETS_LCOFIP_stack:

0000000044d4b000 <.SID_SSCOFPMF_06A_OVERFLOW_SETS_LCOFIP_stack>:
    44d4b000:	c0de                	.insn	2, 0xc0de
    44d4b002:	c001                	.insn	2, 0xc001
    44d4b004:	0000                	.insn	2, 0x0000
	...

Disassembly of section .SID_SSCOFPMF_07A_OF_BIT_MASKS_LCOFIP_stack:

0000000044fba000 <.SID_SSCOFPMF_07A_OF_BIT_MASKS_LCOFIP_stack>:
    44fba000:	c0de                	.insn	2, 0xc0de
    44fba002:	c001                	.insn	2, 0xc001
    44fba004:	0000                	.insn	2, 0x0000
	...

Disassembly of section .SID_SSCOFPMF_02D_MHPMEVENT11_UNIMPLEMENTED_stack:

0000000044f72000 <.SID_SSCOFPMF_02D_MHPMEVENT11_UNIMPLEMENTED_stack>:
    44f72000:	c0de                	.insn	2, 0xc0de
    44f72002:	c001                	.insn	2, 0xc001
    44f72004:	0000                	.insn	2, 0x0000
	...

Disassembly of section .SID_SSCOFPMF_02E_MHPMCOUNTER11_UNIMPLEMENTED_stack:

0000000044d75000 <.SID_SSCOFPMF_02E_MHPMCOUNTER11_UNIMPLEMENTED_stack>:
    44d75000:	c0de                	.insn	2, 0xc0de
    44d75002:	c001                	.insn	2, 0xc001
    44d75004:	0000                	.insn	2, 0x0000
	...
