
/home/abdullah/RiescueC/riescue/10x_R/zicbom_zicboz_zicbop_zic64b/testsuite/zicbom_zicboz_zicbop_zic64b/user_sv39/tp_zicbom_zicboz_zicbop_zic64b_2:     file format elf64-littleriscv


Disassembly of section .runtime:

0000000041000000 <_start>:
    41000000:	00000093          	li	x1,0
    41000004:	00000113          	li	x2,0
    41000008:	00000193          	li	x3,0
    4100000c:	00000213          	li	x4,0
    41000010:	00000293          	li	x5,0
    41000014:	00000313          	li	x6,0
    41000018:	00000393          	li	x7,0
    4100001c:	00000413          	li	x8,0
    41000020:	00000493          	li	x9,0
    41000024:	00000513          	li	x10,0
    41000028:	00000593          	li	x11,0
    4100002c:	00000613          	li	x12,0
    41000030:	00000693          	li	x13,0
    41000034:	00000713          	li	x14,0
    41000038:	00000793          	li	x15,0
    4100003c:	00000813          	li	x16,0
    41000040:	00000893          	li	x17,0
    41000044:	00000913          	li	x18,0
    41000048:	00000993          	li	x19,0
    4100004c:	00000a13          	li	x20,0
    41000050:	00000a93          	li	x21,0
    41000054:	00000b13          	li	x22,0
    41000058:	00000b93          	li	x23,0
    4100005c:	00000c13          	li	x24,0
    41000060:	00000c93          	li	x25,0
    41000064:	00000d13          	li	x26,0
    41000068:	00000d93          	li	x27,0
    4100006c:	00000e13          	li	x28,0
    41000070:	00000e93          	li	x29,0
    41000074:	00000f13          	li	x30,0
    41000078:	00000f93          	li	x31,0

000000004100007c <loader__load_panic_address>:
    4100007c:	00001297          	auipc	x5,0x1
    41000080:	9e828293          	addi	x5,x5,-1560 # 41000a64 <eot__failed>
    41000084:	30529073          	csrw	mtvec,x5

0000000041000088 <loader__initialize_runtime>:
    41000088:	00000293          	li	x5,0
    4100008c:	3012a2f3          	csrrs	x5,misa,x5

0000000041000090 <loader__set_mstatus>:
    41000090:	000402b7          	lui	x5,0x40
    41000094:	00a2829b          	addiw	x5,x5,10 # 4000a <pma_region_0_size+0xa>
    41000098:	3002a2f3          	csrrs	x5,mstatus,x5
    4100009c:	418e0237          	lui	x4,0x418e0
    410000a0:	34021073          	csrw	mscratch,x4

00000000410000a4 <loader__setup_menvcfg>:
    410000a4:	00000297          	auipc	x5,0x0
    410000a8:	4a828293          	addi	x5,x5,1192 # 4100054c <trap_handler_m__trap_entry>
    410000ac:	30529073          	csrw	mtvec,x5

00000000410000b0 <loader__enable_paging>:
    410000b0:	fffc00b7          	lui	x1,0xfffc0
    410000b4:	0650809b          	addiw	x1,x1,101 # fffffffffffc0065 <SID_ZICBO_002_stack+0x333fb3065>
    410000b8:	02009093          	slli	x1,x1,0x20
    410000bc:	02108093          	addi	x1,x1,33
    410000c0:	00d09093          	slli	x1,x1,0xd
    410000c4:	8e208093          	addi	x1,x1,-1822
    410000c8:	18009073          	csrw	satp,x1

00000000410000cc <loader__done>:
    410000cc:	1c10006f          	j	41000a8c <scheduler__init>

00000000410000d0 <loader__panic>:
    410000d0:	1950006f          	j	41000a64 <eot__failed>

00000000410000d4 <syscalls__syscall_check_schedule_next_test>:
    410000d4:	00f0029b          	addiw	x5,x0,15
    410000d8:	01c29293          	slli	x5,x5,0x1c
    410000dc:	00128293          	addi	x5,x5,1
    410000e0:	01f29a63          	bne	x5,x31,410000f4 <syscalls__syscall_check_fail_test>
    410000e4:	00000317          	auipc	x6,0x0
    410000e8:	46830313          	addi	x6,x6,1128 # 4100054c <trap_handler_m__trap_entry>
    410000ec:	30531073          	csrw	mtvec,x6
    410000f0:	6a00006f          	j	41000790 <enter_scheduler>

00000000410000f4 <syscalls__syscall_check_fail_test>:
    410000f4:	00f0029b          	addiw	x5,x0,15
    410000f8:	01c29293          	slli	x5,x5,0x1c
    410000fc:	00228293          	addi	x5,x5,2
    41000100:	01f29a63          	bne	x5,x31,41000114 <syscalls__syscall_check_end_test_without_failure>
    41000104:	00000317          	auipc	x6,0x0
    41000108:	44830313          	addi	x6,x6,1096 # 4100054c <trap_handler_m__trap_entry>
    4100010c:	30531073          	csrw	mtvec,x6
    41000110:	6b00006f          	j	410007c0 <test_failed>

0000000041000114 <syscalls__syscall_check_end_test_without_failure>:
    41000114:	00f0029b          	addiw	x5,x0,15
    41000118:	01c29293          	slli	x5,x5,0x1c
    4100011c:	00328293          	addi	x5,x5,3
    41000120:	01f29a63          	bne	x5,x31,41000134 <syscalls__syscall_check_switch_machine_mode>
    41000124:	00000317          	auipc	x6,0x0
    41000128:	42830313          	addi	x6,x6,1064 # 4100054c <trap_handler_m__trap_entry>
    4100012c:	30531073          	csrw	mtvec,x6
    41000130:	69c0006f          	j	410007cc <os_end_test>

0000000041000134 <syscalls__syscall_check_switch_machine_mode>:
    41000134:	000f02b7          	lui	x5,0xf0
    41000138:	0012829b          	addiw	x5,x5,1 # f0001 <__section_data_1+0x19001>
    4100013c:	00c29293          	slli	x5,x5,0xc
    41000140:	00128293          	addi	x5,x5,1
    41000144:	0a5f8463          	beq	x31,x5,410001ec <syscalls__os_fn_f0001001>

0000000041000148 <syscalls__syscall_check_switch_super_mode>:
    41000148:	000f02b7          	lui	x5,0xf0
    4100014c:	0012829b          	addiw	x5,x5,1 # f0001 <__section_data_1+0x19001>
    41000150:	00c29293          	slli	x5,x5,0xc
    41000154:	00228293          	addi	x5,x5,2
    41000158:	0c5f8063          	beq	x31,x5,41000218 <syscalls__os_fn_f0001002>

000000004100015c <syscalls__syscall_check_switch_user_mode>:
    4100015c:	000f02b7          	lui	x5,0xf0
    41000160:	0012829b          	addiw	x5,x5,1 # f0001 <__section_data_1+0x19001>
    41000164:	00c29293          	slli	x5,x5,0xc
    41000168:	00328293          	addi	x5,x5,3
    4100016c:	0c5f8e63          	beq	x31,x5,41000248 <syscalls__os_fn_f0001003>

0000000041000170 <syscalls__syscall_check_switch_test_mode>:
    41000170:	000f02b7          	lui	x5,0xf0
    41000174:	0012829b          	addiw	x5,x5,1 # f0001 <__section_data_1+0x19001>
    41000178:	00c29293          	slli	x5,x5,0xc
    4100017c:	00428293          	addi	x5,x5,4
    41000180:	0c5f8863          	beq	x31,x5,41000250 <syscalls__os_fn_f0001004>

0000000041000184 <syscalls__syscall_machine_csr_rw>:
    41000184:	000f02b7          	lui	x5,0xf0
    41000188:	0012829b          	addiw	x5,x5,1 # f0001 <__section_data_1+0x19001>
    4100018c:	00c29293          	slli	x5,x5,0xc
    41000190:	00528293          	addi	x5,x5,5
    41000194:	0e5f8263          	beq	x31,x5,41000278 <syscalls__os_fn_f0001005>

0000000041000198 <syscalls__syscall_supervisor_csr_rw>:
    41000198:	000f02b7          	lui	x5,0xf0
    4100019c:	0012829b          	addiw	x5,x5,1 # f0001 <__section_data_1+0x19001>
    410001a0:	00c29293          	slli	x5,x5,0xc
    410001a4:	00628293          	addi	x5,x5,6
    410001a8:	0e5f8e63          	beq	x31,x5,410002a4 <syscalls__os_fn_f0001006>

00000000410001ac <syscalls__syscall_machine_pte_read>:
    410001ac:	000f02b7          	lui	x5,0xf0
    410001b0:	0012829b          	addiw	x5,x5,1 # f0001 <__section_data_1+0x19001>
    410001b4:	00c29293          	slli	x5,x5,0xc
    410001b8:	00728293          	addi	x5,x5,7
    410001bc:	105f8c63          	beq	x31,x5,410002d4 <syscalls__os_fn_f0001007>

00000000410001c0 <syscalls__syscall_machine_pte_write>:
    410001c0:	000f02b7          	lui	x5,0xf0
    410001c4:	0012829b          	addiw	x5,x5,1 # f0001 <__section_data_1+0x19001>
    410001c8:	00c29293          	slli	x5,x5,0xc
    410001cc:	00828293          	addi	x5,x5,8
    410001d0:	1e5f8863          	beq	x31,x5,410003c0 <syscalls__os_fn_f0001008>

00000000410001d4 <syscalls__syscall_check_get_hart_context>:
    410001d4:	000782b7          	lui	x5,0x78
    410001d8:	0012829b          	addiw	x5,x5,1 # 78001 <pma_region_0_size+0x38001>
    410001dc:	00d29293          	slli	x5,x5,0xd
    410001e0:	00128293          	addi	x5,x5,1
    410001e4:	2c5f8463          	beq	x31,x5,410004ac <syscalls__os_get_hart_context>
    410001e8:	4c00006f          	j	410006a8 <trap_handler_m__check_exception_label>

00000000410001ec <syscalls__os_fn_f0001001>:
    410001ec:	000022b7          	lui	x5,0x2
    410001f0:	8002829b          	addiw	x5,x5,-2048 # 1800 <pma_region_1_size+0x800>
    410001f4:	3002b073          	csrc	mstatus,x5
    410001f8:	000022b7          	lui	x5,0x2
    410001fc:	8002829b          	addiw	x5,x5,-2048 # 1800 <pma_region_1_size+0x800>
    41000200:	3002a073          	csrs	mstatus,x5
    41000204:	0010029b          	addiw	x5,x0,1
    41000208:	02729293          	slli	x5,x5,0x27
    4100020c:	3002b073          	csrc	mstatus,x5
    41000210:	411952b7          	lui	x5,0x41195
    41000214:	2a80006f          	j	410004bc <syscalls__ret_from_os_fn>

0000000041000218 <syscalls__os_fn_f0001002>:
    41000218:	000022b7          	lui	x5,0x2
    4100021c:	8002829b          	addiw	x5,x5,-2048 # 1800 <pma_region_1_size+0x800>
    41000220:	3002b073          	csrc	mstatus,x5
    41000224:	000012b7          	lui	x5,0x1
    41000228:	8002829b          	addiw	x5,x5,-2048 # 800 <XLEN+0x7c0>
    4100022c:	3002a073          	csrs	mstatus,x5
    41000230:	0010029b          	addiw	x5,x0,1
    41000234:	02729293          	slli	x5,x5,0x27
    41000238:	3002b073          	csrc	mstatus,x5
    4100023c:	12000073          	sfence.vma
    41000240:	410952b7          	lui	x5,0x41095
    41000244:	2780006f          	j	410004bc <syscalls__ret_from_os_fn>

0000000041000248 <syscalls__os_fn_f0001003>:
    41000248:	411152b7          	lui	x5,0x41115
    4100024c:	2700006f          	j	410004bc <syscalls__ret_from_os_fn>

0000000041000250 <syscalls__os_fn_f0001004>:
    41000250:	000022b7          	lui	x5,0x2
    41000254:	8002829b          	addiw	x5,x5,-2048 # 1800 <pma_region_1_size+0x800>
    41000258:	3002b073          	csrc	mstatus,x5
    4100025c:	00000293          	li	x5,0
    41000260:	3002a073          	csrs	mstatus,x5
    41000264:	0010029b          	addiw	x5,x0,1
    41000268:	02729293          	slli	x5,x5,0x27
    4100026c:	3002b073          	csrc	mstatus,x5
    41000270:	17823283          	ld	x5,376(x4) # 418e0178 <__section_hart_context+0x178>
    41000274:	2480006f          	j	410004bc <syscalls__ret_from_os_fn>

0000000041000278 <syscalls__os_fn_f0001005>:
    41000278:	000022b7          	lui	x5,0x2
    4100027c:	8002829b          	addiw	x5,x5,-2048 # 1800 <pma_region_1_size+0x800>
    41000280:	3002b073          	csrc	mstatus,x5
    41000284:	000022b7          	lui	x5,0x2
    41000288:	8002829b          	addiw	x5,x5,-2048 # 1800 <pma_region_1_size+0x800>
    4100028c:	3002a073          	csrs	mstatus,x5
    41000290:	0010029b          	addiw	x5,x0,1
    41000294:	02729293          	slli	x5,x5,0x27
    41000298:	3002b073          	csrc	mstatus,x5
    4100029c:	412152b7          	lui	x5,0x41215
    410002a0:	21c0006f          	j	410004bc <syscalls__ret_from_os_fn>

00000000410002a4 <syscalls__os_fn_f0001006>:
    410002a4:	000022b7          	lui	x5,0x2
    410002a8:	8002829b          	addiw	x5,x5,-2048 # 1800 <pma_region_1_size+0x800>
    410002ac:	3002b073          	csrc	mstatus,x5
    410002b0:	000012b7          	lui	x5,0x1
    410002b4:	8002829b          	addiw	x5,x5,-2048 # 800 <XLEN+0x7c0>
    410002b8:	3002a073          	csrs	mstatus,x5
    410002bc:	0010029b          	addiw	x5,x0,1
    410002c0:	02729293          	slli	x5,x5,0x27
    410002c4:	3002b073          	csrc	mstatus,x5
    410002c8:	12000073          	sfence.vma
    410002cc:	412162b7          	lui	x5,0x41216
    410002d0:	1ec0006f          	j	410004bc <syscalls__ret_from_os_fn>

00000000410002d4 <syscalls__os_fn_f0001007>:
    410002d4:	418e8fb7          	lui	x31,0x418e8
    410002d8:	0c8f8f9b          	addiw	x31,x31,200 # 418e80c8 <pte_access_flags_pa>
    410002dc:	000fbf83          	ld	x31,0(x31)
    410002e0:	418e82b7          	lui	x5,0x418e8
    410002e4:	0d02829b          	addiw	x5,x5,208 # 418e80d0 <pte_access_flags_pa+0x8>
    410002e8:	0002b283          	ld	x5,0(x5)
    410002ec:	418e8e37          	lui	x28,0x418e8
    410002f0:	0d8e0e1b          	addiw	x28,x28,216 # 418e80d8 <pte_access_flags_pa+0x10>
    410002f4:	000e3e03          	ld	x28,0(x28)

00000000410002f8 <syscalls__pte_walk_check_glevel_without_gstage_read>:
    410002f8:	fff00f93          	li	x31,-1
    410002fc:	0dfe1063          	bne	x28,x31,410003bc <syscalls__pte_walk_fail_read>
    41000300:	18002373          	csrr	x6,satp
    41000304:	03c35e93          	srli	x29,x6,0x3c
    41000308:	01431313          	slli	x6,x6,0x14
    4100030c:	01435313          	srli	x6,x6,0x14
    41000310:	00c31313          	slli	x6,x6,0xc
    41000314:	ff8e8e93          	addi	x29,x29,-8
    41000318:	003e9f13          	slli	x30,x29,0x3
    4100031c:	01df0eb3          	add	x29,x30,x29
    41000320:	01ee8e93          	addi	x29,x29,30
    41000324:	00000f13          	li	x30,0

0000000041000328 <syscalls__pte_walk_loop_read>:
    41000328:	418e8fb7          	lui	x31,0x418e8
    4100032c:	0c8f8f9b          	addiw	x31,x31,200 # 418e80c8 <pte_access_flags_pa>
    41000330:	000fbf83          	ld	x31,0(x31)
    41000334:	01dfdfb3          	srl	x31,x31,x29
    41000338:	1fffff93          	andi	x31,x31,511
    4100033c:	003f9f93          	slli	x31,x31,0x3
    41000340:	01f30333          	add	x6,x6,x31
    41000344:	005f0e63          	beq	x30,x5,41000360 <syscalls__pte_walk_done_read>
    41000348:	00033f83          	ld	x31,0(x6)
    4100034c:	00afdf93          	srli	x31,x31,0xa
    41000350:	00cf9313          	slli	x6,x31,0xc
    41000354:	001f0f13          	addi	x30,x30,1
    41000358:	ff7e8e93          	addi	x29,x29,-9
    4100035c:	fcdff06f          	j	41000328 <syscalls__pte_walk_loop_read>

0000000041000360 <syscalls__pte_walk_done_read>:
    41000360:	fff00f93          	li	x31,-1
    41000364:	05fe0263          	beq	x28,x31,410003a8 <syscalls__pte_walk_final_read>

0000000041000368 <syscalls__pte_walk_gstage_read>:
    41000368:	418e8fb7          	lui	x31,0x418e8
    4100036c:	0c8f8f9b          	addiw	x31,x31,200 # 418e80c8 <pte_access_flags_pa>
    41000370:	006fb023          	sd	x6,0(x31)
    41000374:	000e0293          	mv	x5,x28
    41000378:	fff00e13          	li	x28,-1
    4100037c:	68002373          	csrr	x6,hgatp
    41000380:	03c35e93          	srli	x29,x6,0x3c
    41000384:	01431313          	slli	x6,x6,0x14
    41000388:	01435313          	srli	x6,x6,0x14
    4100038c:	00c31313          	slli	x6,x6,0xc
    41000390:	ff8e8e93          	addi	x29,x29,-8
    41000394:	003e9f13          	slli	x30,x29,0x3
    41000398:	01df0eb3          	add	x29,x30,x29
    4100039c:	01ee8e93          	addi	x29,x29,30
    410003a0:	00000f13          	li	x30,0
    410003a4:	f85ff06f          	j	41000328 <syscalls__pte_walk_loop_read>

00000000410003a8 <syscalls__pte_walk_final_read>:
    410003a8:	00033383          	ld	x7,0(x6)
    410003ac:	341022f3          	csrr	x5,mepc
    410003b0:	00428293          	addi	x5,x5,4
    410003b4:	16523c23          	sd	x5,376(x4) # 178 <XLEN+0x138>
    410003b8:	e99ff06f          	j	41000250 <syscalls__os_fn_f0001004>

00000000410003bc <syscalls__pte_walk_fail_read>:
    410003bc:	4040006f          	j	410007c0 <test_failed>

00000000410003c0 <syscalls__os_fn_f0001008>:
    410003c0:	418e8fb7          	lui	x31,0x418e8
    410003c4:	0c8f8f9b          	addiw	x31,x31,200 # 418e80c8 <pte_access_flags_pa>
    410003c8:	000fbf83          	ld	x31,0(x31)
    410003cc:	418e82b7          	lui	x5,0x418e8
    410003d0:	0d02829b          	addiw	x5,x5,208 # 418e80d0 <pte_access_flags_pa+0x8>
    410003d4:	0002b283          	ld	x5,0(x5)
    410003d8:	418e8e37          	lui	x28,0x418e8
    410003dc:	0d8e0e1b          	addiw	x28,x28,216 # 418e80d8 <pte_access_flags_pa+0x10>
    410003e0:	000e3e03          	ld	x28,0(x28)

00000000410003e4 <syscalls__pte_walk_check_glevel_without_gstage_write>:
    410003e4:	fff00f93          	li	x31,-1
    410003e8:	0dfe1063          	bne	x28,x31,410004a8 <syscalls__pte_walk_fail_write>
    410003ec:	18002373          	csrr	x6,satp
    410003f0:	03c35e93          	srli	x29,x6,0x3c
    410003f4:	01431313          	slli	x6,x6,0x14
    410003f8:	01435313          	srli	x6,x6,0x14
    410003fc:	00c31313          	slli	x6,x6,0xc
    41000400:	ff8e8e93          	addi	x29,x29,-8
    41000404:	003e9f13          	slli	x30,x29,0x3
    41000408:	01df0eb3          	add	x29,x30,x29
    4100040c:	01ee8e93          	addi	x29,x29,30
    41000410:	00000f13          	li	x30,0

0000000041000414 <syscalls__pte_walk_loop_write>:
    41000414:	418e8fb7          	lui	x31,0x418e8
    41000418:	0c8f8f9b          	addiw	x31,x31,200 # 418e80c8 <pte_access_flags_pa>
    4100041c:	000fbf83          	ld	x31,0(x31)
    41000420:	01dfdfb3          	srl	x31,x31,x29
    41000424:	1fffff93          	andi	x31,x31,511
    41000428:	003f9f93          	slli	x31,x31,0x3
    4100042c:	01f30333          	add	x6,x6,x31
    41000430:	005f0e63          	beq	x30,x5,4100044c <syscalls__pte_walk_done_write>
    41000434:	00033f83          	ld	x31,0(x6)
    41000438:	00afdf93          	srli	x31,x31,0xa
    4100043c:	00cf9313          	slli	x6,x31,0xc
    41000440:	001f0f13          	addi	x30,x30,1
    41000444:	ff7e8e93          	addi	x29,x29,-9
    41000448:	fcdff06f          	j	41000414 <syscalls__pte_walk_loop_write>

000000004100044c <syscalls__pte_walk_done_write>:
    4100044c:	fff00f93          	li	x31,-1
    41000450:	05fe0263          	beq	x28,x31,41000494 <syscalls__pte_walk_final_write>

0000000041000454 <syscalls__pte_walk_gstage_write>:
    41000454:	418e8fb7          	lui	x31,0x418e8
    41000458:	0c8f8f9b          	addiw	x31,x31,200 # 418e80c8 <pte_access_flags_pa>
    4100045c:	006fb023          	sd	x6,0(x31)
    41000460:	000e0293          	mv	x5,x28
    41000464:	fff00e13          	li	x28,-1
    41000468:	68002373          	csrr	x6,hgatp
    4100046c:	03c35e93          	srli	x29,x6,0x3c
    41000470:	01431313          	slli	x6,x6,0x14
    41000474:	01435313          	srli	x6,x6,0x14
    41000478:	00c31313          	slli	x6,x6,0xc
    4100047c:	ff8e8e93          	addi	x29,x29,-8
    41000480:	003e9f13          	slli	x30,x29,0x3
    41000484:	01df0eb3          	add	x29,x30,x29
    41000488:	01ee8e93          	addi	x29,x29,30
    4100048c:	00000f13          	li	x30,0
    41000490:	f85ff06f          	j	41000414 <syscalls__pte_walk_loop_write>

0000000041000494 <syscalls__pte_walk_final_write>:
    41000494:	00733023          	sd	x7,0(x6)
    41000498:	341022f3          	csrr	x5,mepc
    4100049c:	00428293          	addi	x5,x5,4
    410004a0:	16523c23          	sd	x5,376(x4) # 178 <XLEN+0x138>
    410004a4:	dadff06f          	j	41000250 <syscalls__os_fn_f0001004>

00000000410004a8 <syscalls__pte_walk_fail_write>:
    410004a8:	3180006f          	j	410007c0 <test_failed>

00000000410004ac <syscalls__os_get_hart_context>:
    410004ac:	14002573          	csrr	x10,sscratch
    410004b0:	341022f3          	csrr	x5,mepc
    410004b4:	00428293          	addi	x5,x5,4
    410004b8:	0040006f          	j	410004bc <syscalls__ret_from_os_fn>

00000000410004bc <syscalls__ret_from_os_fn>:
    410004bc:	34102373          	csrr	x6,mepc
    410004c0:	00430313          	addi	x6,x6,4
    410004c4:	16623c23          	sd	x6,376(x4) # 178 <XLEN+0x138>
    410004c8:	34129073          	csrw	mepc,x5
    410004cc:	fff00f93          	li	x31,-1
    410004d0:	2a40006f          	j	41000774 <trap_handler_m__skip_xepc_write>

00000000410004d4 <trap_handler_m__invalid_interrupt>:
    410004d4:	2ec0006f          	j	410007c0 <test_failed>

00000000410004d8 <trap_handler_m__clear_all_interrupts>:
    410004d8:	34401073          	csrw	mip,x0
    410004dc:	30200073          	mret

00000000410004e0 <trap_handler_m___CLEAR_SSI>:
    410004e0:	00200293          	li	x5,2
    410004e4:	3442b073          	csrc	mip,x5
    410004e8:	30200073          	mret

00000000410004ec <trap_handler_m___CLEAR_MSI>:
    410004ec:	00800293          	li	x5,8
    410004f0:	3442b073          	csrc	mip,x5
    410004f4:	30200073          	mret

00000000410004f8 <trap_handler_m___CLEAR_STI>:
    410004f8:	02000293          	li	x5,32
    410004fc:	3442b073          	csrc	mip,x5
    41000500:	30200073          	mret

0000000041000504 <trap_handler_m___CLEAR_MTI>:
    41000504:	08000293          	li	x5,128
    41000508:	3442b073          	csrc	mip,x5
    4100050c:	30200073          	mret

0000000041000510 <trap_handler_m___CLEAR_SEI>:
    41000510:	20000293          	li	x5,512
    41000514:	3442b073          	csrc	mip,x5
    41000518:	30200073          	mret

000000004100051c <trap_handler_m___CLEAR_MEI>:
    4100051c:	000012b7          	lui	x5,0x1
    41000520:	8002829b          	addiw	x5,x5,-2048 # 800 <XLEN+0x7c0>
    41000524:	3442b073          	csrc	mip,x5
    41000528:	30200073          	mret

000000004100052c <trap_handler_m___CLEAR_COI>:
    4100052c:	000022b7          	lui	x5,0x2
    41000530:	3442b073          	csrc	mip,x5
    41000534:	30200073          	mret

0000000041000538 <trap_handler_m__clear_highest_priority_interrupt>:
    41000538:	344022f3          	csrr	x5,mip
    4100053c:	40500333          	neg	x6,x5
    41000540:	0062f2b3          	and	x5,x5,x6
    41000544:	3442b073          	csrc	mip,x5
    41000548:	30200073          	mret

000000004100054c <trap_handler_m__trap_entry>:
    4100054c:	0fc0006f          	j	41000648 <trap_handler_m__trap_handler>

0000000041000550 <trap_handler_m__interrupt_vector_table>:
    41000550:	f91ff06f          	j	410004e0 <trap_handler_m___CLEAR_SSI>
    41000554:	f81ff06f          	j	410004d4 <trap_handler_m__invalid_interrupt>
    41000558:	f95ff06f          	j	410004ec <trap_handler_m___CLEAR_MSI>
    4100055c:	f79ff06f          	j	410004d4 <trap_handler_m__invalid_interrupt>
    41000560:	f99ff06f          	j	410004f8 <trap_handler_m___CLEAR_STI>
    41000564:	f71ff06f          	j	410004d4 <trap_handler_m__invalid_interrupt>
    41000568:	f9dff06f          	j	41000504 <trap_handler_m___CLEAR_MTI>
    4100056c:	f69ff06f          	j	410004d4 <trap_handler_m__invalid_interrupt>
    41000570:	fa1ff06f          	j	41000510 <trap_handler_m___CLEAR_SEI>
    41000574:	f61ff06f          	j	410004d4 <trap_handler_m__invalid_interrupt>
    41000578:	fa5ff06f          	j	4100051c <trap_handler_m___CLEAR_MEI>
    4100057c:	f59ff06f          	j	410004d4 <trap_handler_m__invalid_interrupt>
    41000580:	fadff06f          	j	4100052c <trap_handler_m___CLEAR_COI>
    41000584:	f51ff06f          	j	410004d4 <trap_handler_m__invalid_interrupt>
    41000588:	f4dff06f          	j	410004d4 <trap_handler_m__invalid_interrupt>
    4100058c:	fadff06f          	j	41000538 <trap_handler_m__clear_highest_priority_interrupt>
    41000590:	fa9ff06f          	j	41000538 <trap_handler_m__clear_highest_priority_interrupt>
    41000594:	fa5ff06f          	j	41000538 <trap_handler_m__clear_highest_priority_interrupt>
    41000598:	fa1ff06f          	j	41000538 <trap_handler_m__clear_highest_priority_interrupt>
    4100059c:	f9dff06f          	j	41000538 <trap_handler_m__clear_highest_priority_interrupt>
    410005a0:	f99ff06f          	j	41000538 <trap_handler_m__clear_highest_priority_interrupt>
    410005a4:	f95ff06f          	j	41000538 <trap_handler_m__clear_highest_priority_interrupt>
    410005a8:	f91ff06f          	j	41000538 <trap_handler_m__clear_highest_priority_interrupt>
    410005ac:	f8dff06f          	j	41000538 <trap_handler_m__clear_highest_priority_interrupt>
    410005b0:	f89ff06f          	j	41000538 <trap_handler_m__clear_highest_priority_interrupt>
    410005b4:	f85ff06f          	j	41000538 <trap_handler_m__clear_highest_priority_interrupt>
    410005b8:	f81ff06f          	j	41000538 <trap_handler_m__clear_highest_priority_interrupt>
    410005bc:	f7dff06f          	j	41000538 <trap_handler_m__clear_highest_priority_interrupt>
    410005c0:	f79ff06f          	j	41000538 <trap_handler_m__clear_highest_priority_interrupt>
    410005c4:	f75ff06f          	j	41000538 <trap_handler_m__clear_highest_priority_interrupt>
    410005c8:	f71ff06f          	j	41000538 <trap_handler_m__clear_highest_priority_interrupt>
    410005cc:	f6dff06f          	j	41000538 <trap_handler_m__clear_highest_priority_interrupt>
    410005d0:	f69ff06f          	j	41000538 <trap_handler_m__clear_highest_priority_interrupt>
    410005d4:	f65ff06f          	j	41000538 <trap_handler_m__clear_highest_priority_interrupt>
    410005d8:	f61ff06f          	j	41000538 <trap_handler_m__clear_highest_priority_interrupt>
    410005dc:	f5dff06f          	j	41000538 <trap_handler_m__clear_highest_priority_interrupt>
    410005e0:	f59ff06f          	j	41000538 <trap_handler_m__clear_highest_priority_interrupt>
    410005e4:	f55ff06f          	j	41000538 <trap_handler_m__clear_highest_priority_interrupt>
    410005e8:	f51ff06f          	j	41000538 <trap_handler_m__clear_highest_priority_interrupt>
    410005ec:	f4dff06f          	j	41000538 <trap_handler_m__clear_highest_priority_interrupt>
    410005f0:	f49ff06f          	j	41000538 <trap_handler_m__clear_highest_priority_interrupt>
    410005f4:	f45ff06f          	j	41000538 <trap_handler_m__clear_highest_priority_interrupt>
    410005f8:	f41ff06f          	j	41000538 <trap_handler_m__clear_highest_priority_interrupt>
    410005fc:	f3dff06f          	j	41000538 <trap_handler_m__clear_highest_priority_interrupt>
    41000600:	f39ff06f          	j	41000538 <trap_handler_m__clear_highest_priority_interrupt>
    41000604:	f35ff06f          	j	41000538 <trap_handler_m__clear_highest_priority_interrupt>
    41000608:	f31ff06f          	j	41000538 <trap_handler_m__clear_highest_priority_interrupt>
    4100060c:	f2dff06f          	j	41000538 <trap_handler_m__clear_highest_priority_interrupt>
    41000610:	f29ff06f          	j	41000538 <trap_handler_m__clear_highest_priority_interrupt>
    41000614:	f25ff06f          	j	41000538 <trap_handler_m__clear_highest_priority_interrupt>
    41000618:	f21ff06f          	j	41000538 <trap_handler_m__clear_highest_priority_interrupt>
    4100061c:	f1dff06f          	j	41000538 <trap_handler_m__clear_highest_priority_interrupt>
    41000620:	f19ff06f          	j	41000538 <trap_handler_m__clear_highest_priority_interrupt>
    41000624:	f15ff06f          	j	41000538 <trap_handler_m__clear_highest_priority_interrupt>
    41000628:	f11ff06f          	j	41000538 <trap_handler_m__clear_highest_priority_interrupt>
    4100062c:	f0dff06f          	j	41000538 <trap_handler_m__clear_highest_priority_interrupt>
    41000630:	f09ff06f          	j	41000538 <trap_handler_m__clear_highest_priority_interrupt>
    41000634:	f05ff06f          	j	41000538 <trap_handler_m__clear_highest_priority_interrupt>
    41000638:	f01ff06f          	j	41000538 <trap_handler_m__clear_highest_priority_interrupt>
    4100063c:	efdff06f          	j	41000538 <trap_handler_m__clear_highest_priority_interrupt>
    41000640:	ef9ff06f          	j	41000538 <trap_handler_m__clear_highest_priority_interrupt>
    41000644:	ef5ff06f          	j	41000538 <trap_handler_m__clear_highest_priority_interrupt>

0000000041000648 <trap_handler_m__trap_handler>:
    41000648:	342022f3          	csrr	x5,mcause
    4100064c:	fff0031b          	addiw	x6,x0,-1
    41000650:	03f31313          	slli	x6,x6,0x3f
    41000654:	00537333          	and	x6,x6,x5
    41000658:	02030263          	beqz	x6,4100067c <trap_handler_m__exception_path>

000000004100065c <trap_handler_m__interrupt_handler>:
    4100065c:	fff0031b          	addiw	x6,x0,-1
    41000660:	03f31313          	slli	x6,x6,0x3f
    41000664:	0062c2b3          	xor	x5,x5,x6
    41000668:	00000317          	auipc	x6,0x0
    4100066c:	ee430313          	addi	x6,x6,-284 # 4100054c <trap_handler_m__trap_entry>
    41000670:	00229293          	slli	x5,x5,0x2
    41000674:	005302b3          	add	x5,x6,x5
    41000678:	00028067          	jr	x5 # 2000 <mem8>

000000004100067c <trap_handler_m__exception_path>:
    4100067c:	34021273          	csrrw	x4,mscratch,x4
    41000680:	00000297          	auipc	x5,0x0
    41000684:	10828293          	addi	x5,x5,264 # 41000788 <trap_handler_m__trap_panic>
    41000688:	30529073          	csrw	mtvec,x5
    4100068c:	0040006f          	j	41000690 <trap_handler_m__excp_entry>

0000000041000690 <trap_handler_m__excp_entry>:
    41000690:	34202373          	csrr	x6,mcause
    41000694:	00800293          	li	x5,8
    41000698:	00534863          	blt	x6,x5,410006a8 <trap_handler_m__check_exception_label>
    4100069c:	00b00293          	li	x5,11
    410006a0:	0062c463          	blt	x5,x6,410006a8 <trap_handler_m__check_exception_label>
    410006a4:	a31ff06f          	j	410000d4 <syscalls__syscall_check_schedule_next_test>

00000000410006a8 <trap_handler_m__check_exception_label>:
    410006a8:	04623c23          	sd	x6,88(x4) # 58 <XLEN+0x18>
    410006ac:	341022f3          	csrr	x5,mepc
    410006b0:	02523423          	sd	x5,40(x4) # 28 <SECURE_ACCESS_PROBABILITY+0xa>
    410006b4:	01820283          	lb	x5,24(x4) # 18 <STORE_GUEST_PAGE_FAULT+0x1>
    410006b8:	00029863          	bnez	x5,410006c8 <trap_handler_m__check_excp>
    410006bc:	00128293          	addi	x5,x5,1
    410006c0:	00520c23          	sb	x5,24(x4) # 18 <STORE_GUEST_PAGE_FAULT+0x1>
    410006c4:	0980006f          	j	4100075c <trap_handler_m__ecall_from_machine>

00000000410006c8 <trap_handler_m__check_excp>:
    410006c8:	06823283          	ld	x5,104(x4) # 68 <XLEN+0x28>
    410006cc:	06023423          	sd	x0,104(x4) # 68 <XLEN+0x28>
    410006d0:	00028663          	beqz	x5,410006dc <trap_handler_m__skip_mode_check>
    410006d4:	00100393          	li	x7,1
    410006d8:	0e729463          	bne	x5,x7,410007c0 <test_failed>

00000000410006dc <trap_handler_m__skip_mode_check>:
    410006dc:	05023283          	ld	x5,80(x4) # 50 <XLEN+0x10>
    410006e0:	04023823          	sd	x0,80(x4) # 50 <XLEN+0x10>
    410006e4:	0c531e63          	bne	x6,x5,410007c0 <test_failed>
    410006e8:	03823283          	ld	x5,56(x4) # 38 <SECURE_ACCESS_PROBABILITY+0x1a>
    410006ec:	02023c23          	sd	x0,56(x4) # 38 <SECURE_ACCESS_PROBABILITY+0x1a>
    410006f0:	06029463          	bnez	x5,41000758 <trap_handler_m__skip_gva_check>
    410006f4:	02023303          	ld	x6,32(x4) # 20 <SECURE_ACCESS_PROBABILITY+0x2>
    410006f8:	02023023          	sd	x0,32(x4) # 20 <SECURE_ACCESS_PROBABILITY+0x2>
    410006fc:	02823283          	ld	x5,40(x4) # 28 <SECURE_ACCESS_PROBABILITY+0xa>
    41000700:	02023423          	sd	x0,40(x4) # 28 <SECURE_ACCESS_PROBABILITY+0xa>
    41000704:	0a531e63          	bne	x6,x5,410007c0 <test_failed>
    41000708:	04023283          	ld	x5,64(x4) # 40 <XLEN>
    4100070c:	04023023          	sd	x0,64(x4) # 40 <XLEN>
    41000710:	00028663          	beqz	x5,4100071c <trap_handler_m__skip_nonzero_tval_check>

0000000041000714 <trap_handler_m__nonzero_tval_check>:
    41000714:	34302373          	csrr	x6,mtval
    41000718:	0a531463          	bne	x6,x5,410007c0 <test_failed>

000000004100071c <trap_handler_m__skip_nonzero_tval_check>:
    4100071c:	04823283          	ld	x5,72(x4) # 48 <XLEN+0x8>
    41000720:	04023423          	sd	x0,72(x4) # 48 <XLEN+0x8>
    41000724:	00028663          	beqz	x5,41000730 <trap_handler_m__skip_nonzero_htval_check>

0000000041000728 <trap_handler_m__nonzero_htval_check>:
    41000728:	34b02373          	csrr	x6,0x34b
    4100072c:	08531a63          	bne	x6,x5,410007c0 <test_failed>

0000000041000730 <trap_handler_m__skip_nonzero_htval_check>:
    41000730:	06023283          	ld	x5,96(x4) # 60 <XLEN+0x20>
    41000734:	06023023          	sd	x0,96(x4) # 60 <XLEN+0x20>
    41000738:	02028063          	beqz	x5,41000758 <trap_handler_m__skip_gva_check>

000000004100073c <trap_handler_m__gva_check>:
    4100073c:	30002373          	csrr	x6,mstatus
    41000740:	02635313          	srli	x6,x6,0x26
    41000744:	00137313          	andi	x6,x6,1
    41000748:	06030c63          	beqz	x6,410007c0 <test_failed>
    4100074c:	0010031b          	addiw	x6,x0,1
    41000750:	02631313          	slli	x6,x6,0x26
    41000754:	30033073          	csrc	mstatus,x6

0000000041000758 <trap_handler_m__skip_gva_check>:
    41000758:	0040006f          	j	4100075c <trap_handler_m__ecall_from_machine>

000000004100075c <trap_handler_m__ecall_from_machine>:
    4100075c:	03023283          	ld	x5,48(x4) # 30 <SECURE_ACCESS_PROBABILITY+0x12>
    41000760:	02023823          	sd	x0,48(x4) # 30 <SECURE_ACCESS_PROBABILITY+0x12>
    41000764:	07023303          	ld	x6,112(x4) # 70 <XLEN+0x30>
    41000768:	06023823          	sd	x0,112(x4) # 70 <XLEN+0x30>
    4100076c:	00031463          	bnez	x6,41000774 <trap_handler_m__skip_xepc_write>
    41000770:	34129073          	csrw	mepc,x5

0000000041000774 <trap_handler_m__skip_xepc_write>:
    41000774:	00000317          	auipc	x6,0x0
    41000778:	dd830313          	addi	x6,x6,-552 # 4100054c <trap_handler_m__trap_entry>
    4100077c:	30531073          	csrw	mtvec,x6
    41000780:	34021273          	csrrw	x4,mscratch,x4
    41000784:	30200073          	mret

0000000041000788 <trap_handler_m__trap_panic>:
    41000788:	00000193          	li	x3,0
    4100078c:	2b40006f          	j	41000a40 <eot__end_test>

0000000041000790 <enter_scheduler>:
    41000790:	0002f337          	lui	x6,0x2f
    41000794:	ab73031b          	addiw	x6,x6,-1353 # 2eab7 <mem3+0x11ab7>
    41000798:	00e31313          	slli	x6,x6,0xe
    4100079c:	0de30313          	addi	x6,x6,222
    410007a0:	02628063          	beq	x5,x6,410007c0 <test_failed>
    410007a4:	00000513          	li	x10,0
    410007a8:	030000ef          	jal	410007d8 <rvcp_print_test_result>
    410007ac:	3180006f          	j	41000ac4 <scheduler__dispatch>

00000000410007b0 <test_passed>:
    410007b0:	34021273          	csrrw	x4,mscratch,x4
    410007b4:	00000513          	li	x10,0
    410007b8:	020000ef          	jal	410007d8 <rvcp_print_test_result>
    410007bc:	3080006f          	j	41000ac4 <scheduler__dispatch>

00000000410007c0 <test_failed>:
    410007c0:	34021273          	csrrw	x4,mscratch,x4
    410007c4:	00300193          	li	x3,3
    410007c8:	2780006f          	j	41000a40 <eot__end_test>

00000000410007cc <os_end_test>:
    410007cc:	34021273          	csrrw	x4,mscratch,x4
    410007d0:	00100193          	li	x3,1
    410007d4:	26c0006f          	j	41000a40 <eot__end_test>

00000000410007d8 <rvcp_print_test_result>:
    410007d8:	00050e13          	mv	x28,x10
    410007dc:	18823283          	ld	x5,392(x4) # 188 <XLEN+0x148>
    410007e0:	0010031b          	addiw	x6,x0,1
    410007e4:	02031313          	slli	x6,x6,0x20
    410007e8:	ffe30313          	addi	x6,x6,-2
    410007ec:	1c628063          	beq	x5,x6,410009ac <rvcp_print_test_result+0x1d4>
    410007f0:	0010031b          	addiw	x6,x0,1
    410007f4:	02031313          	slli	x6,x6,0x20
    410007f8:	fff30313          	addi	x6,x6,-1
    410007fc:	1a628863          	beq	x5,x6,410009ac <rvcp_print_test_result+0x1d4>
    41000800:	1a02c663          	bltz	x5,410009ac <rvcp_print_test_result+0x1d4>
    41000804:	00000317          	auipc	x6,0x0
    41000808:	51830313          	addi	x6,x6,1304 # 41000d1c <dtest_descriptor_table>
    4100080c:	00329393          	slli	x7,x5,0x3
    41000810:	00730333          	add	x6,x6,x7
    41000814:	00033e83          	ld	x29,0(x6)
    41000818:	418e8f37          	lui	x30,0x418e8
    4100081c:	030f0f1b          	addiw	x30,x30,48 # 418e8030 <rvcp_prefix_str_pa>
    41000820:	000f4283          	lbu	x5,0(x30)
    41000824:	02028663          	beqz	x5,41000850 <rvcp_print_test_result+0x78>
    41000828:	1010031b          	addiw	x6,x0,257
    4100082c:	03031313          	slli	x6,x6,0x30
    41000830:	005362b3          	or	x5,x6,x5
    41000834:	0003f317          	auipc	x6,0x3f
    41000838:	7cc30313          	addi	x6,x6,1996 # 41040000 <tohost>
    4100083c:	00033383          	ld	x7,0(x6)
    41000840:	fe039ee3          	bnez	x7,4100083c <rvcp_print_test_result+0x64>
    41000844:	00533023          	sd	x5,0(x6)
    41000848:	001f0f13          	addi	x30,x30,1
    4100084c:	fd5ff06f          	j	41000820 <rvcp_print_test_result+0x48>
    41000850:	418e8f37          	lui	x30,0x418e8
    41000854:	041f0f1b          	addiw	x30,x30,65 # 418e8041 <rvcp_testname_str_pa>
    41000858:	000f4283          	lbu	x5,0(x30)
    4100085c:	02028663          	beqz	x5,41000888 <rvcp_print_test_result+0xb0>
    41000860:	1010031b          	addiw	x6,x0,257
    41000864:	03031313          	slli	x6,x6,0x30
    41000868:	005362b3          	or	x5,x6,x5
    4100086c:	0003f317          	auipc	x6,0x3f
    41000870:	79430313          	addi	x6,x6,1940 # 41040000 <tohost>
    41000874:	00033383          	ld	x7,0(x6)
    41000878:	fe039ee3          	bnez	x7,41000874 <rvcp_print_test_result+0x9c>
    4100087c:	00533023          	sd	x5,0(x6)
    41000880:	001f0f13          	addi	x30,x30,1
    41000884:	fd5ff06f          	j	41000858 <rvcp_print_test_result+0x80>
    41000888:	418e8f37          	lui	x30,0x418e8
    4100088c:	070f0f1b          	addiw	x30,x30,112 # 418e8070 <rvcp_space_str_pa>
    41000890:	000f4283          	lbu	x5,0(x30)
    41000894:	02028663          	beqz	x5,410008c0 <rvcp_print_test_result+0xe8>
    41000898:	1010031b          	addiw	x6,x0,257
    4100089c:	03031313          	slli	x6,x6,0x30
    410008a0:	005362b3          	or	x5,x6,x5
    410008a4:	0003f317          	auipc	x6,0x3f
    410008a8:	75c30313          	addi	x6,x6,1884 # 41040000 <tohost>
    410008ac:	00033383          	ld	x7,0(x6)
    410008b0:	fe039ee3          	bnez	x7,410008ac <rvcp_print_test_result+0xd4>
    410008b4:	00533023          	sd	x5,0(x6)
    410008b8:	001f0f13          	addi	x30,x30,1
    410008bc:	fd5ff06f          	j	41000890 <rvcp_print_test_result+0xb8>
    410008c0:	000e8f13          	mv	x30,x29
    410008c4:	000f4283          	lbu	x5,0(x30)
    410008c8:	02028663          	beqz	x5,410008f4 <rvcp_print_test_result+0x11c>
    410008cc:	1010031b          	addiw	x6,x0,257
    410008d0:	03031313          	slli	x6,x6,0x30
    410008d4:	005362b3          	or	x5,x6,x5
    410008d8:	0003f317          	auipc	x6,0x3f
    410008dc:	72830313          	addi	x6,x6,1832 # 41040000 <tohost>
    410008e0:	00033383          	ld	x7,0(x6)
    410008e4:	fe039ee3          	bnez	x7,410008e0 <rvcp_print_test_result+0x108>
    410008e8:	00533023          	sd	x5,0(x6)
    410008ec:	001f0f13          	addi	x30,x30,1
    410008f0:	fd5ff06f          	j	410008c4 <rvcp_print_test_result+0xec>
    410008f4:	418e8f37          	lui	x30,0x418e8
    410008f8:	070f0f1b          	addiw	x30,x30,112 # 418e8070 <rvcp_space_str_pa>
    410008fc:	000f4283          	lbu	x5,0(x30)
    41000900:	02028663          	beqz	x5,4100092c <rvcp_print_test_result+0x154>
    41000904:	1010031b          	addiw	x6,x0,257
    41000908:	03031313          	slli	x6,x6,0x30
    4100090c:	005362b3          	or	x5,x6,x5
    41000910:	0003f317          	auipc	x6,0x3f
    41000914:	6f030313          	addi	x6,x6,1776 # 41040000 <tohost>
    41000918:	00033383          	ld	x7,0(x6)
    4100091c:	fe039ee3          	bnez	x7,41000918 <rvcp_print_test_result+0x140>
    41000920:	00533023          	sd	x5,0(x6)
    41000924:	001f0f13          	addi	x30,x30,1
    41000928:	fd5ff06f          	j	410008fc <rvcp_print_test_result+0x124>
    4100092c:	000e1863          	bnez	x28,4100093c <rvcp_print_test_result+0x164>
    41000930:	418e8f37          	lui	x30,0x418e8
    41000934:	062f0f1b          	addiw	x30,x30,98 # 418e8062 <rvcp_passed_str_pa>
    41000938:	00c0006f          	j	41000944 <rvcp_print_test_result+0x16c>
    4100093c:	418e8f37          	lui	x30,0x418e8
    41000940:	069f0f1b          	addiw	x30,x30,105 # 418e8069 <rvcp_failed_str_pa>
    41000944:	000f4283          	lbu	x5,0(x30)
    41000948:	02028663          	beqz	x5,41000974 <rvcp_print_test_result+0x19c>
    4100094c:	1010031b          	addiw	x6,x0,257
    41000950:	03031313          	slli	x6,x6,0x30
    41000954:	005362b3          	or	x5,x6,x5
    41000958:	0003f317          	auipc	x6,0x3f
    4100095c:	6a830313          	addi	x6,x6,1704 # 41040000 <tohost>
    41000960:	00033383          	ld	x7,0(x6)
    41000964:	fe039ee3          	bnez	x7,41000960 <rvcp_print_test_result+0x188>
    41000968:	00533023          	sd	x5,0(x6)
    4100096c:	001f0f13          	addi	x30,x30,1
    41000970:	fd5ff06f          	j	41000944 <rvcp_print_test_result+0x16c>
    41000974:	418e8f37          	lui	x30,0x418e8
    41000978:	072f0f1b          	addiw	x30,x30,114 # 418e8072 <rvcp_newline_str_pa>
    4100097c:	000f4283          	lbu	x5,0(x30)
    41000980:	02028663          	beqz	x5,410009ac <rvcp_print_test_result+0x1d4>
    41000984:	1010031b          	addiw	x6,x0,257
    41000988:	03031313          	slli	x6,x6,0x30
    4100098c:	005362b3          	or	x5,x6,x5
    41000990:	0003f317          	auipc	x6,0x3f
    41000994:	67030313          	addi	x6,x6,1648 # 41040000 <tohost>
    41000998:	00033383          	ld	x7,0(x6)
    4100099c:	fe039ee3          	bnez	x7,41000998 <rvcp_print_test_result+0x1c0>
    410009a0:	00533023          	sd	x5,0(x6)
    410009a4:	001f0f13          	addi	x30,x30,1
    410009a8:	fd5ff06f          	j	4100097c <rvcp_print_test_result+0x1a4>
    410009ac:	00008067          	ret

00000000410009b0 <os_rng_orig>:
    410009b0:	f14023f3          	csrr	x7,mhartid
    410009b4:	00068313          	mv	x6,x13
    410009b8:	026383b3          	mul	x7,x7,x6
    410009bc:	00058313          	mv	x6,x11
    410009c0:	00730333          	add	x6,x6,x7
    410009c4:	00033283          	ld	x5,0(x6)
    410009c8:	01529313          	slli	x6,x5,0x15
    410009cc:	0062c2b3          	xor	x5,x5,x6
    410009d0:	0232d313          	srli	x6,x5,0x23
    410009d4:	0062c2b3          	xor	x5,x5,x6
    410009d8:	00429313          	slli	x6,x5,0x4
    410009dc:	0062c2b3          	xor	x5,x5,x6
    410009e0:	00058313          	mv	x6,x11
    410009e4:	00730333          	add	x6,x6,x7
    410009e8:	00533023          	sd	x5,0(x6)
    410009ec:	00060313          	mv	x6,x12
    410009f0:	0262f2b3          	remu	x5,x5,x6
    410009f4:	00028513          	mv	x10,x5
    410009f8:	00008067          	ret
    410009fc:	02a00513          	li	x10,42
    41000a00:	001965b7          	lui	x11,0x196
    41000a04:	60d5859b          	addiw	x11,x11,1549 # 19660d <tp_csr_storage+0x9d60d>
    41000a08:	3c6ef637          	lui	x12,0x3c6ef
    41000a0c:	35f6061b          	addiw	x12,x12,863 # 3c6ef35f <SID_ZICBO_016_stack+0x1c85235f>
    41000a10:	02200693          	li	x13,34
    41000a14:	02b50533          	mul	x10,x10,x11
    41000a18:	00c50533          	add	x10,x10,x12
    41000a1c:	02d56533          	rem	x10,x10,x13
    41000a20:	00b00593          	li	x11,11
    41000a24:	02b56533          	rem	x10,x10,x11
    41000a28:	00008067          	ret
    41000a2c:	0000                	.insn	2, 0x0000
	...

0000000041000a30 <tohost_mutex>:
	...

0000000041000a38 <tohost_addr_mem>:
    41000a38:	0000                	.insn	2, 0x0000
    41000a3a:	4104                	.insn	2, 0x4104
    41000a3c:	0000                	.insn	2, 0x0000
	...

0000000041000a40 <eot__end_test>:
    41000a40:	00100293          	li	x5,1
    41000a44:	00328463          	beq	x5,x3,41000a4c <eot__passed>
    41000a48:	01c0006f          	j	41000a64 <eot__failed>

0000000041000a4c <eot__passed>:
    41000a4c:	0ff0000f          	fence
    41000a50:	00000297          	auipc	x5,0x0
    41000a54:	fe82b283          	ld	x5,-24(x5) # 41000a38 <tohost_addr_mem>
    41000a58:	00100313          	li	x6,1
    41000a5c:	0062a023          	sw	x6,0(x5)
    41000a60:	0240006f          	j	41000a84 <eot__halt>

0000000041000a64 <eot__failed>:
    41000a64:	00100513          	li	x10,1
    41000a68:	d71ff0ef          	jal	410007d8 <rvcp_print_test_result>
    41000a6c:	0ff0000f          	fence
    41000a70:	00000297          	auipc	x5,0x0
    41000a74:	fc82b283          	ld	x5,-56(x5) # 41000a38 <tohost_addr_mem>
    41000a78:	00300313          	li	x6,3
    41000a7c:	0062a023          	sw	x6,0(x5)
    41000a80:	0040006f          	j	41000a84 <eot__halt>

0000000041000a84 <eot__halt>:
    41000a84:	10500073          	wfi
    41000a88:	ffdff06f          	j	41000a84 <eot__halt>

0000000041000a8c <scheduler__init>:
    41000a8c:	00000297          	auipc	x5,0x0
    41000a90:	0e028293          	addi	x5,x5,224 # 41000b6c <scheduler__panic>
    41000a94:	305292f3          	csrrw	x5,mtvec,x5
    41000a98:	18523023          	sd	x5,384(x4) # 180 <XLEN+0x140>
    41000a9c:	03400293          	li	x5,52
    41000aa0:	18523823          	sd	x5,400(x4) # 190 <XLEN+0x150>
    41000aa4:	0010029b          	addiw	x5,x0,1
    41000aa8:	02029293          	slli	x5,x5,0x20
    41000aac:	ffe28293          	addi	x5,x5,-2
    41000ab0:	18523423          	sd	x5,392(x4) # 188 <XLEN+0x148>
    41000ab4:	00000317          	auipc	x6,0x0
    41000ab8:	4b830313          	addi	x6,x6,1208 # 41000f6c <scheduler__test_setup_ptr>
    41000abc:	00033303          	ld	x6,0(x6)
    41000ac0:	0840006f          	j	41000b44 <scheduler__execute_test>

0000000041000ac4 <scheduler__dispatch>:
    41000ac4:	00000297          	auipc	x5,0x0
    41000ac8:	0a828293          	addi	x5,x5,168 # 41000b6c <scheduler__panic>
    41000acc:	305292f3          	csrrw	x5,mtvec,x5
    41000ad0:	18523023          	sd	x5,384(x4) # 180 <XLEN+0x140>

0000000041000ad4 <scheduler__csr_read_randomization>:
    41000ad4:	141022f3          	csrr	x5,sepc
    41000ad8:	141022f3          	csrr	x5,sepc
    41000adc:	302022f3          	csrr	x5,medeleg
    41000ae0:	10a022f3          	csrr	x5,0x10a
    41000ae4:	106022f3          	csrr	x5,scounteren
    41000ae8:	143022f3          	csrr	x5,stval
    41000aec:	341022f3          	csrr	x5,mepc
    41000af0:	142022f3          	csrr	x5,scause
    41000af4:	f14022f3          	csrr	x5,mhartid
    41000af8:	305022f3          	csrr	x5,mtvec
    41000afc:	142022f3          	csrr	x5,scause
    41000b00:	30a022f3          	csrr	x5,0x30a
    41000b04:	142022f3          	csrr	x5,scause

0000000041000b08 <scheduler__load_num_runs>:
    41000b08:	19023303          	ld	x6,400(x4) # 190 <XLEN+0x150>
    41000b0c:	04030c63          	beqz	x6,41000b64 <scheduler__finished>

0000000041000b10 <scheduler__decrement_num_runs>:
    41000b10:	fff30393          	addi	x7,x6,-1
    41000b14:	18723823          	sd	x7,400(x4) # 190 <XLEN+0x150>
    41000b18:	00000e17          	auipc	x28,0x0
    41000b1c:	384e0e13          	addi	x28,x28,900 # 41000e9c <dtest_index_map>
    41000b20:	00239e93          	slli	x29,x7,0x2
    41000b24:	01de0e33          	add	x28,x28,x29
    41000b28:	000e2e03          	lw	x28,0(x28)
    41000b2c:	19c23423          	sd	x28,392(x4) # 188 <XLEN+0x148>

0000000041000b30 <scheduler__calc_test_pointer>:
    41000b30:	00339293          	slli	x5,x7,0x3

0000000041000b34 <scheduler__load_test_addr>:
    41000b34:	00000317          	auipc	x6,0x0
    41000b38:	04830313          	addi	x6,x6,72 # 41000b7c <os_test_sequence>
    41000b3c:	006282b3          	add	x5,x5,x6
    41000b40:	0002b303          	ld	x6,0(x5)

0000000041000b44 <scheduler__execute_test>:
    41000b44:	18023283          	ld	x5,384(x4) # 180 <XLEN+0x140>
    41000b48:	30529073          	csrw	mtvec,x5
    41000b4c:	34021273          	csrrw	x4,mscratch,x4
    41000b50:	00000213          	li	x4,0
    41000b54:	14131073          	csrw	sepc,x6
    41000b58:	10000293          	li	x5,256
    41000b5c:	1002b073          	csrc	sstatus,x5
    41000b60:	10200073          	sret

0000000041000b64 <scheduler__finished>:
    41000b64:	00100193          	li	x3,1
    41000b68:	ed9ff06f          	j	41000a40 <eot__end_test>

0000000041000b6c <scheduler__panic>:
    41000b6c:	00000193          	li	x3,0
    41000b70:	ed1ff06f          	j	41000a40 <eot__end_test>

0000000041000b74 <num_runs>:
    41000b74:	0034                	.insn	2, 0x0034
    41000b76:	0000                	.insn	2, 0x0000
    41000b78:	0000                	.insn	2, 0x0000
	...

0000000041000b7c <os_test_sequence>:
    41000b7c:	69f8                	.insn	2, 0x69f8
    41000b7e:	4101                	.insn	2, 0x4101
    41000b80:	0000                	.insn	2, 0x0000
    41000b82:	0000                	.insn	2, 0x0000
    41000b84:	570c                	.insn	2, 0x570c
    41000b86:	4101                	.insn	2, 0x4101
    41000b88:	0000                	.insn	2, 0x0000
    41000b8a:	0000                	.insn	2, 0x0000
    41000b8c:	5938                	.insn	2, 0x5938
    41000b8e:	4101                	.insn	2, 0x4101
    41000b90:	0000                	.insn	2, 0x0000
    41000b92:	0000                	.insn	2, 0x0000
    41000b94:	5468                	.insn	2, 0x5468
    41000b96:	4101                	.insn	2, 0x4101
    41000b98:	0000                	.insn	2, 0x0000
    41000b9a:	0000                	.insn	2, 0x0000
    41000b9c:	5898                	.insn	2, 0x5898
    41000b9e:	4101                	.insn	2, 0x4101
    41000ba0:	0000                	.insn	2, 0x0000
    41000ba2:	0000                	.insn	2, 0x0000
    41000ba4:	51c4                	.insn	2, 0x51c4
    41000ba6:	4101                	.insn	2, 0x4101
    41000ba8:	0000                	.insn	2, 0x0000
    41000baa:	0000                	.insn	2, 0x0000
    41000bac:	52e0                	.insn	2, 0x52e0
    41000bae:	4101                	.insn	2, 0x4101
    41000bb0:	0000                	.insn	2, 0x0000
    41000bb2:	0000                	.insn	2, 0x0000
    41000bb4:	66c4                	.insn	2, 0x66c4
    41000bb6:	4101                	.insn	2, 0x4101
    41000bb8:	0000                	.insn	2, 0x0000
    41000bba:	0000                	.insn	2, 0x0000
    41000bbc:	58d8                	.insn	2, 0x58d8
    41000bbe:	4101                	.insn	2, 0x4101
    41000bc0:	0000                	.insn	2, 0x0000
    41000bc2:	0000                	.insn	2, 0x0000
    41000bc4:	5898                	.insn	2, 0x5898
    41000bc6:	4101                	.insn	2, 0x4101
    41000bc8:	0000                	.insn	2, 0x0000
    41000bca:	0000                	.insn	2, 0x0000
    41000bcc:	58d8                	.insn	2, 0x58d8
    41000bce:	4101                	.insn	2, 0x4101
    41000bd0:	0000                	.insn	2, 0x0000
    41000bd2:	0000                	.insn	2, 0x0000
    41000bd4:	52e0                	.insn	2, 0x52e0
    41000bd6:	4101                	.insn	2, 0x4101
    41000bd8:	0000                	.insn	2, 0x0000
    41000bda:	0000                	.insn	2, 0x0000
    41000bdc:	5ca8                	.insn	2, 0x5ca8
    41000bde:	4101                	.insn	2, 0x4101
    41000be0:	0000                	.insn	2, 0x0000
    41000be2:	0000                	.insn	2, 0x0000
    41000be4:	5ca8                	.insn	2, 0x5ca8
    41000be6:	4101                	.insn	2, 0x4101
    41000be8:	0000                	.insn	2, 0x0000
    41000bea:	0000                	.insn	2, 0x0000
    41000bec:	5828                	.insn	2, 0x5828
    41000bee:	4101                	.insn	2, 0x4101
    41000bf0:	0000                	.insn	2, 0x0000
    41000bf2:	0000                	.insn	2, 0x0000
    41000bf4:	6090                	.insn	2, 0x6090
    41000bf6:	4101                	.insn	2, 0x4101
    41000bf8:	0000                	.insn	2, 0x0000
    41000bfa:	0000                	.insn	2, 0x0000
    41000bfc:	5ad8                	.insn	2, 0x5ad8
    41000bfe:	4101                	.insn	2, 0x4101
    41000c00:	0000                	.insn	2, 0x0000
    41000c02:	0000                	.insn	2, 0x0000
    41000c04:	629c                	.insn	2, 0x629c
    41000c06:	4101                	.insn	2, 0x4101
    41000c08:	0000                	.insn	2, 0x0000
    41000c0a:	0000                	.insn	2, 0x0000
    41000c0c:	52e0                	.insn	2, 0x52e0
    41000c0e:	4101                	.insn	2, 0x4101
    41000c10:	0000                	.insn	2, 0x0000
    41000c12:	0000                	.insn	2, 0x0000
    41000c14:	5828                	.insn	2, 0x5828
    41000c16:	4101                	.insn	2, 0x4101
    41000c18:	0000                	.insn	2, 0x0000
    41000c1a:	0000                	.insn	2, 0x0000
    41000c1c:	5ad8                	.insn	2, 0x5ad8
    41000c1e:	4101                	.insn	2, 0x4101
    41000c20:	0000                	.insn	2, 0x0000
    41000c22:	0000                	.insn	2, 0x0000
    41000c24:	66c4                	.insn	2, 0x66c4
    41000c26:	4101                	.insn	2, 0x4101
    41000c28:	0000                	.insn	2, 0x0000
    41000c2a:	0000                	.insn	2, 0x0000
    41000c2c:	629c                	.insn	2, 0x629c
    41000c2e:	4101                	.insn	2, 0x4101
    41000c30:	0000                	.insn	2, 0x0000
    41000c32:	0000                	.insn	2, 0x0000
    41000c34:	6090                	.insn	2, 0x6090
    41000c36:	4101                	.insn	2, 0x4101
    41000c38:	0000                	.insn	2, 0x0000
    41000c3a:	0000                	.insn	2, 0x0000
    41000c3c:	55f0                	.insn	2, 0x55f0
    41000c3e:	4101                	.insn	2, 0x4101
    41000c40:	0000                	.insn	2, 0x0000
    41000c42:	0000                	.insn	2, 0x0000
    41000c44:	6090                	.insn	2, 0x6090
    41000c46:	4101                	.insn	2, 0x4101
    41000c48:	0000                	.insn	2, 0x0000
    41000c4a:	0000                	.insn	2, 0x0000
    41000c4c:	55f0                	.insn	2, 0x55f0
    41000c4e:	4101                	.insn	2, 0x4101
    41000c50:	0000                	.insn	2, 0x0000
    41000c52:	0000                	.insn	2, 0x0000
    41000c54:	5468                	.insn	2, 0x5468
    41000c56:	4101                	.insn	2, 0x4101
    41000c58:	0000                	.insn	2, 0x0000
    41000c5a:	0000                	.insn	2, 0x0000
    41000c5c:	50b0                	.insn	2, 0x50b0
    41000c5e:	4101                	.insn	2, 0x4101
    41000c60:	0000                	.insn	2, 0x0000
    41000c62:	0000                	.insn	2, 0x0000
    41000c64:	5e98                	.insn	2, 0x5e98
    41000c66:	4101                	.insn	2, 0x4101
    41000c68:	0000                	.insn	2, 0x0000
    41000c6a:	0000                	.insn	2, 0x0000
    41000c6c:	50b0                	.insn	2, 0x50b0
    41000c6e:	4101                	.insn	2, 0x4101
    41000c70:	0000                	.insn	2, 0x0000
    41000c72:	0000                	.insn	2, 0x0000
    41000c74:	5ca8                	.insn	2, 0x5ca8
    41000c76:	4101                	.insn	2, 0x4101
    41000c78:	0000                	.insn	2, 0x0000
    41000c7a:	0000                	.insn	2, 0x0000
    41000c7c:	570c                	.insn	2, 0x570c
    41000c7e:	4101                	.insn	2, 0x4101
    41000c80:	0000                	.insn	2, 0x0000
    41000c82:	0000                	.insn	2, 0x0000
    41000c84:	5938                	.insn	2, 0x5938
    41000c86:	4101                	.insn	2, 0x4101
    41000c88:	0000                	.insn	2, 0x0000
    41000c8a:	0000                	.insn	2, 0x0000
    41000c8c:	64d4                	.insn	2, 0x64d4
    41000c8e:	4101                	.insn	2, 0x4101
    41000c90:	0000                	.insn	2, 0x0000
    41000c92:	0000                	.insn	2, 0x0000
    41000c94:	5ad8                	.insn	2, 0x5ad8
    41000c96:	4101                	.insn	2, 0x4101
    41000c98:	0000                	.insn	2, 0x0000
    41000c9a:	0000                	.insn	2, 0x0000
    41000c9c:	58d8                	.insn	2, 0x58d8
    41000c9e:	4101                	.insn	2, 0x4101
    41000ca0:	0000                	.insn	2, 0x0000
    41000ca2:	0000                	.insn	2, 0x0000
    41000ca4:	5938                	.insn	2, 0x5938
    41000ca6:	4101                	.insn	2, 0x4101
    41000ca8:	0000                	.insn	2, 0x0000
    41000caa:	0000                	.insn	2, 0x0000
    41000cac:	64d4                	.insn	2, 0x64d4
    41000cae:	4101                	.insn	2, 0x4101
    41000cb0:	0000                	.insn	2, 0x0000
    41000cb2:	0000                	.insn	2, 0x0000
    41000cb4:	5e98                	.insn	2, 0x5e98
    41000cb6:	4101                	.insn	2, 0x4101
    41000cb8:	0000                	.insn	2, 0x0000
    41000cba:	0000                	.insn	2, 0x0000
    41000cbc:	50b0                	.insn	2, 0x50b0
    41000cbe:	4101                	.insn	2, 0x4101
    41000cc0:	0000                	.insn	2, 0x0000
    41000cc2:	0000                	.insn	2, 0x0000
    41000cc4:	64d4                	.insn	2, 0x64d4
    41000cc6:	4101                	.insn	2, 0x4101
    41000cc8:	0000                	.insn	2, 0x0000
    41000cca:	0000                	.insn	2, 0x0000
    41000ccc:	55f0                	.insn	2, 0x55f0
    41000cce:	4101                	.insn	2, 0x4101
    41000cd0:	0000                	.insn	2, 0x0000
    41000cd2:	0000                	.insn	2, 0x0000
    41000cd4:	5e98                	.insn	2, 0x5e98
    41000cd6:	4101                	.insn	2, 0x4101
    41000cd8:	0000                	.insn	2, 0x0000
    41000cda:	0000                	.insn	2, 0x0000
    41000cdc:	570c                	.insn	2, 0x570c
    41000cde:	4101                	.insn	2, 0x4101
    41000ce0:	0000                	.insn	2, 0x0000
    41000ce2:	0000                	.insn	2, 0x0000
    41000ce4:	5828                	.insn	2, 0x5828
    41000ce6:	4101                	.insn	2, 0x4101
    41000ce8:	0000                	.insn	2, 0x0000
    41000cea:	0000                	.insn	2, 0x0000
    41000cec:	629c                	.insn	2, 0x629c
    41000cee:	4101                	.insn	2, 0x4101
    41000cf0:	0000                	.insn	2, 0x0000
    41000cf2:	0000                	.insn	2, 0x0000
    41000cf4:	5468                	.insn	2, 0x5468
    41000cf6:	4101                	.insn	2, 0x4101
    41000cf8:	0000                	.insn	2, 0x0000
    41000cfa:	0000                	.insn	2, 0x0000
    41000cfc:	5898                	.insn	2, 0x5898
    41000cfe:	4101                	.insn	2, 0x4101
    41000d00:	0000                	.insn	2, 0x0000
    41000d02:	0000                	.insn	2, 0x0000
    41000d04:	66c4                	.insn	2, 0x66c4
    41000d06:	4101                	.insn	2, 0x4101
    41000d08:	0000                	.insn	2, 0x0000
    41000d0a:	0000                	.insn	2, 0x0000
    41000d0c:	51c4                	.insn	2, 0x51c4
    41000d0e:	4101                	.insn	2, 0x4101
    41000d10:	0000                	.insn	2, 0x0000
    41000d12:	0000                	.insn	2, 0x0000
    41000d14:	51c4                	.insn	2, 0x51c4
    41000d16:	4101                	.insn	2, 0x4101
    41000d18:	0000                	.insn	2, 0x0000
	...

0000000041000d1c <dtest_descriptor_table>:
    41000d1c:	0da4                	.insn	2, 0x0da4
    41000d1e:	4100                	.insn	2, 0x4100
    41000d20:	0000                	.insn	2, 0x0000
    41000d22:	0000                	.insn	2, 0x0000
    41000d24:	0db2                	.insn	2, 0x0db2
    41000d26:	4100                	.insn	2, 0x4100
    41000d28:	0000                	.insn	2, 0x0000
    41000d2a:	0000                	.insn	2, 0x0000
    41000d2c:	0dc0                	.insn	2, 0x0dc0
    41000d2e:	4100                	.insn	2, 0x4100
    41000d30:	0000                	.insn	2, 0x0000
    41000d32:	0000                	.insn	2, 0x0000
    41000d34:	0dce                	.insn	2, 0x0dce
    41000d36:	4100                	.insn	2, 0x4100
    41000d38:	0000                	.insn	2, 0x0000
    41000d3a:	0000                	.insn	2, 0x0000
    41000d3c:	0ddc                	.insn	2, 0x0ddc
    41000d3e:	4100                	.insn	2, 0x4100
    41000d40:	0000                	.insn	2, 0x0000
    41000d42:	0000                	.insn	2, 0x0000
    41000d44:	0dea                	.insn	2, 0x0dea
    41000d46:	4100                	.insn	2, 0x4100
    41000d48:	0000                	.insn	2, 0x0000
    41000d4a:	0000                	.insn	2, 0x0000
    41000d4c:	0df8                	.insn	2, 0x0df8
    41000d4e:	4100                	.insn	2, 0x4100
    41000d50:	0000                	.insn	2, 0x0000
    41000d52:	0000                	.insn	2, 0x0000
    41000d54:	0e06                	.insn	2, 0x0e06
    41000d56:	4100                	.insn	2, 0x4100
    41000d58:	0000                	.insn	2, 0x0000
    41000d5a:	0000                	.insn	2, 0x0000
    41000d5c:	0e14                	.insn	2, 0x0e14
    41000d5e:	4100                	.insn	2, 0x4100
    41000d60:	0000                	.insn	2, 0x0000
    41000d62:	0000                	.insn	2, 0x0000
    41000d64:	0e22                	.insn	2, 0x0e22
    41000d66:	4100                	.insn	2, 0x4100
    41000d68:	0000                	.insn	2, 0x0000
    41000d6a:	0000                	.insn	2, 0x0000
    41000d6c:	0e30                	.insn	2, 0x0e30
    41000d6e:	4100                	.insn	2, 0x4100
    41000d70:	0000                	.insn	2, 0x0000
    41000d72:	0000                	.insn	2, 0x0000
    41000d74:	0e3e                	.insn	2, 0x0e3e
    41000d76:	4100                	.insn	2, 0x4100
    41000d78:	0000                	.insn	2, 0x0000
    41000d7a:	0000                	.insn	2, 0x0000
    41000d7c:	0e4c                	.insn	2, 0x0e4c
    41000d7e:	4100                	.insn	2, 0x4100
    41000d80:	0000                	.insn	2, 0x0000
    41000d82:	0000                	.insn	2, 0x0000
    41000d84:	0e5a                	.insn	2, 0x0e5a
    41000d86:	4100                	.insn	2, 0x4100
    41000d88:	0000                	.insn	2, 0x0000
    41000d8a:	0000                	.insn	2, 0x0000
    41000d8c:	0e68                	.insn	2, 0x0e68
    41000d8e:	4100                	.insn	2, 0x4100
    41000d90:	0000                	.insn	2, 0x0000
    41000d92:	0000                	.insn	2, 0x0000
    41000d94:	0e76                	.insn	2, 0x0e76
    41000d96:	4100                	.insn	2, 0x4100
    41000d98:	0000                	.insn	2, 0x0000
    41000d9a:	0000                	.insn	2, 0x0000
    41000d9c:	0e84                	.insn	2, 0x0e84
    41000d9e:	4100                	.insn	2, 0x4100
    41000da0:	0000                	.insn	2, 0x0000
	...

0000000041000da4 <dtest_name_0>:
    41000da4:	5f444953          	.insn	4, 0x5f444953
    41000da8:	495a                	.insn	2, 0x495a
    41000daa:	5f4f4243          	.insn	4, 0x5f4f4243
    41000dae:	3030                	.insn	2, 0x3030
    41000db0:	0031                	.insn	2, 0x0031

0000000041000db2 <dtest_name_1>:
    41000db2:	5f444953          	.insn	4, 0x5f444953
    41000db6:	495a                	.insn	2, 0x495a
    41000db8:	5f4f4243          	.insn	4, 0x5f4f4243
    41000dbc:	3030                	.insn	2, 0x3030
    41000dbe:	0032                	.insn	2, 0x0032

0000000041000dc0 <dtest_name_2>:
    41000dc0:	5f444953          	.insn	4, 0x5f444953
    41000dc4:	495a                	.insn	2, 0x495a
    41000dc6:	5f4f4243          	.insn	4, 0x5f4f4243
    41000dca:	3030                	.insn	2, 0x3030
    41000dcc:	          	.insn	4, 0x49530033

0000000041000dce <dtest_name_3>:
    41000dce:	5f444953          	.insn	4, 0x5f444953
    41000dd2:	495a                	.insn	2, 0x495a
    41000dd4:	5f4f4243          	.insn	4, 0x5f4f4243
    41000dd8:	3030                	.insn	2, 0x3030
    41000dda:	0034                	.insn	2, 0x0034

0000000041000ddc <dtest_name_4>:
    41000ddc:	5f444953          	.insn	4, 0x5f444953
    41000de0:	495a                	.insn	2, 0x495a
    41000de2:	5f4f4243          	.insn	4, 0x5f4f4243
    41000de6:	3030                	.insn	2, 0x3030
    41000de8:	0035                	.insn	2, 0x0035

0000000041000dea <dtest_name_5>:
    41000dea:	5f444953          	.insn	4, 0x5f444953
    41000dee:	495a                	.insn	2, 0x495a
    41000df0:	5f4f4243          	.insn	4, 0x5f4f4243
    41000df4:	3030                	.insn	2, 0x3030
    41000df6:	0036                	.insn	2, 0x0036

0000000041000df8 <dtest_name_6>:
    41000df8:	5f444953          	.insn	4, 0x5f444953
    41000dfc:	495a                	.insn	2, 0x495a
    41000dfe:	5f4f4243          	.insn	4, 0x5f4f4243
    41000e02:	3130                	.insn	2, 0x3130
    41000e04:	          	.insn	4, 0x49530033

0000000041000e06 <dtest_name_7>:
    41000e06:	5f444953          	.insn	4, 0x5f444953
    41000e0a:	495a                	.insn	2, 0x495a
    41000e0c:	5f4f4243          	.insn	4, 0x5f4f4243
    41000e10:	3130                	.insn	2, 0x3130
    41000e12:	0035                	.insn	2, 0x0035

0000000041000e14 <dtest_name_8>:
    41000e14:	5f444953          	.insn	4, 0x5f444953
    41000e18:	495a                	.insn	2, 0x495a
    41000e1a:	5f4f4243          	.insn	4, 0x5f4f4243
    41000e1e:	3130                	.insn	2, 0x3130
    41000e20:	0036                	.insn	2, 0x0036

0000000041000e22 <dtest_name_9>:
    41000e22:	5f444953          	.insn	4, 0x5f444953
    41000e26:	495a                	.insn	2, 0x495a
    41000e28:	5f4f4243          	.insn	4, 0x5f4f4243
    41000e2c:	3130                	.insn	2, 0x3130
    41000e2e:	          	lui	x0,0x49530

0000000041000e30 <dtest_name_10>:
    41000e30:	5f444953          	.insn	4, 0x5f444953
    41000e34:	495a                	.insn	2, 0x495a
    41000e36:	5f4f4243          	.insn	4, 0x5f4f4243
    41000e3a:	3130                	.insn	2, 0x3130
    41000e3c:	0038                	.insn	2, 0x0038

0000000041000e3e <dtest_name_11>:
    41000e3e:	5f444953          	.insn	4, 0x5f444953
    41000e42:	495a                	.insn	2, 0x495a
    41000e44:	5f4f4243          	.insn	4, 0x5f4f4243
    41000e48:	3130                	.insn	2, 0x3130
    41000e4a:	0039                	.insn	2, 0x0039

0000000041000e4c <dtest_name_12>:
    41000e4c:	5f444953          	.insn	4, 0x5f444953
    41000e50:	495a                	.insn	2, 0x495a
    41000e52:	5f4f4243          	.insn	4, 0x5f4f4243
    41000e56:	3230                	.insn	2, 0x3230
    41000e58:	0030                	.insn	2, 0x0030

0000000041000e5a <dtest_name_13>:
    41000e5a:	5f444953          	.insn	4, 0x5f444953
    41000e5e:	495a                	.insn	2, 0x495a
    41000e60:	5f4f4243          	.insn	4, 0x5f4f4243
    41000e64:	3230                	.insn	2, 0x3230
    41000e66:	0032                	.insn	2, 0x0032

0000000041000e68 <dtest_name_14>:
    41000e68:	5f444953          	.insn	4, 0x5f444953
    41000e6c:	495a                	.insn	2, 0x495a
    41000e6e:	5f4f4243          	.insn	4, 0x5f4f4243
    41000e72:	3430                	.insn	2, 0x3430
    41000e74:	          	lui	x0,0x49530

0000000041000e76 <dtest_name_15>:
    41000e76:	5f444953          	.insn	4, 0x5f444953
    41000e7a:	495a                	.insn	2, 0x495a
    41000e7c:	5f4f4243          	.insn	4, 0x5f4f4243
    41000e80:	3430                	.insn	2, 0x3430
    41000e82:	0039                	.insn	2, 0x0039

0000000041000e84 <dtest_name_16>:
    41000e84:	5f444953          	.insn	4, 0x5f444953
    41000e88:	495a                	.insn	2, 0x495a
    41000e8a:	5f4f4243          	.insn	4, 0x5f4f4243
    41000e8e:	3035                	.insn	2, 0x3035
    41000e90:	5a5f 4349 3436      	.insn	6, 0x343643495a5f
    41000e96:	5f42                	.insn	2, 0x5f42
    41000e98:	3130                	.insn	2, 0x3130
	...

0000000041000e9c <dtest_index_map>:
    41000e9c:	ffff                	.insn	2, 0xffff
    41000e9e:	ffff                	.insn	2, 0xffff
    41000ea0:	0005                	.insn	2, 0x0005
    41000ea2:	0000                	.insn	2, 0x0000
    41000ea4:	0009                	.insn	2, 0x0009
    41000ea6:	0000                	.insn	2, 0x0000
    41000ea8:	00000003          	lb	x0,0(x0) # 0 <ALL_4KB_PAGES>
    41000eac:	00000007          	vle8.v	v0,(x0),v0.t
    41000eb0:	0001                	.insn	2, 0x0001
    41000eb2:	0000                	.insn	2, 0x0000
    41000eb4:	0002                	.insn	2, 0x0002
    41000eb6:	0000                	.insn	2, 0x0000
    41000eb8:	0010                	.insn	2, 0x0010
    41000eba:	0000                	.insn	2, 0x0000
    41000ebc:	0008                	.insn	2, 0x0008
    41000ebe:	0000                	.insn	2, 0x0000
    41000ec0:	00000007          	vle8.v	v0,(x0),v0.t
    41000ec4:	0008                	.insn	2, 0x0008
    41000ec6:	0000                	.insn	2, 0x0000
    41000ec8:	0002                	.insn	2, 0x0002
    41000eca:	0000                	.insn	2, 0x0000
    41000ecc:	0000000b          	.insn	4, 0x000b
    41000ed0:	0000000b          	.insn	4, 0x000b
    41000ed4:	0006                	.insn	2, 0x0006
    41000ed6:	0000                	.insn	2, 0x0000
    41000ed8:	000d                	.insn	2, 0x000d
    41000eda:	0000                	.insn	2, 0x0000
    41000edc:	000a                	.insn	2, 0x000a
    41000ede:	0000                	.insn	2, 0x0000
    41000ee0:	000e                	.insn	2, 0x000e
    41000ee2:	0000                	.insn	2, 0x0000
    41000ee4:	0002                	.insn	2, 0x0002
    41000ee6:	0000                	.insn	2, 0x0000
    41000ee8:	0006                	.insn	2, 0x0006
    41000eea:	0000                	.insn	2, 0x0000
    41000eec:	000a                	.insn	2, 0x000a
    41000eee:	0000                	.insn	2, 0x0000
    41000ef0:	0010                	.insn	2, 0x0010
    41000ef2:	0000                	.insn	2, 0x0000
    41000ef4:	000e                	.insn	2, 0x000e
    41000ef6:	0000                	.insn	2, 0x0000
    41000ef8:	000d                	.insn	2, 0x000d
    41000efa:	0000                	.insn	2, 0x0000
    41000efc:	0004                	.insn	2, 0x0004
    41000efe:	0000                	.insn	2, 0x0000
    41000f00:	000d                	.insn	2, 0x000d
    41000f02:	0000                	.insn	2, 0x0000
    41000f04:	0004                	.insn	2, 0x0004
    41000f06:	0000                	.insn	2, 0x0000
    41000f08:	00000003          	lb	x0,0(x0) # 0 <ALL_4KB_PAGES>
    41000f0c:	0000                	.insn	2, 0x0000
    41000f0e:	0000                	.insn	2, 0x0000
    41000f10:	000c                	.insn	2, 0x000c
    41000f12:	0000                	.insn	2, 0x0000
    41000f14:	0000                	.insn	2, 0x0000
    41000f16:	0000                	.insn	2, 0x0000
    41000f18:	0000000b          	.insn	4, 0x000b
    41000f1c:	0005                	.insn	2, 0x0005
    41000f1e:	0000                	.insn	2, 0x0000
    41000f20:	0009                	.insn	2, 0x0009
    41000f22:	0000                	.insn	2, 0x0000
    41000f24:	0000000f          	fence	unknown,unknown
    41000f28:	000a                	.insn	2, 0x000a
    41000f2a:	0000                	.insn	2, 0x0000
    41000f2c:	0008                	.insn	2, 0x0008
    41000f2e:	0000                	.insn	2, 0x0000
    41000f30:	0009                	.insn	2, 0x0009
    41000f32:	0000                	.insn	2, 0x0000
    41000f34:	0000000f          	fence	unknown,unknown
    41000f38:	000c                	.insn	2, 0x000c
    41000f3a:	0000                	.insn	2, 0x0000
    41000f3c:	0000                	.insn	2, 0x0000
    41000f3e:	0000                	.insn	2, 0x0000
    41000f40:	0000000f          	fence	unknown,unknown
    41000f44:	0004                	.insn	2, 0x0004
    41000f46:	0000                	.insn	2, 0x0000
    41000f48:	000c                	.insn	2, 0x000c
    41000f4a:	0000                	.insn	2, 0x0000
    41000f4c:	0005                	.insn	2, 0x0005
    41000f4e:	0000                	.insn	2, 0x0000
    41000f50:	0006                	.insn	2, 0x0006
    41000f52:	0000                	.insn	2, 0x0000
    41000f54:	000e                	.insn	2, 0x000e
    41000f56:	0000                	.insn	2, 0x0000
    41000f58:	00000003          	lb	x0,0(x0) # 0 <ALL_4KB_PAGES>
    41000f5c:	00000007          	vle8.v	v0,(x0),v0.t
    41000f60:	0010                	.insn	2, 0x0010
    41000f62:	0000                	.insn	2, 0x0000
    41000f64:	0001                	.insn	2, 0x0001
    41000f66:	0000                	.insn	2, 0x0000
    41000f68:	0001                	.insn	2, 0x0001
	...

0000000041000f6c <scheduler__test_setup_ptr>:
    41000f6c:	50a0                	.insn	2, 0x50a0
    41000f6e:	4101                	.insn	2, 0x4101
    41000f70:	0000                	.insn	2, 0x0000
	...

0000000041000f74 <scheduler__test_cleanup_ptr>:
    41000f74:	69f8                	.insn	2, 0x69f8
    41000f76:	4101                	.insn	2, 0x4101
    41000f78:	0000                	.insn	2, 0x0000
	...

Disassembly of section .runtime_s:

0000000041011000 <trap_handler_s__invalid_interrupt>:
    41011000:	1740006f          	j	41011174 <trap_handler_s__test_failed>

0000000041011004 <trap_handler_s__clear_all_interrupts>:
    41011004:	14401073          	csrw	sip,x0
    41011008:	10200073          	sret

000000004101100c <trap_handler_s___CLEAR_SSI>:
    4101100c:	00200293          	li	x5,2
    41011010:	1442b073          	csrc	sip,x5
    41011014:	10200073          	sret

0000000041011018 <trap_handler_s___CLEAR_MSI>:
    41011018:	00800293          	li	x5,8
    4101101c:	1442b073          	csrc	sip,x5
    41011020:	10200073          	sret

0000000041011024 <trap_handler_s___CLEAR_STI>:
    41011024:	02000293          	li	x5,32
    41011028:	1442b073          	csrc	sip,x5
    4101102c:	10200073          	sret

0000000041011030 <trap_handler_s___CLEAR_MTI>:
    41011030:	08000293          	li	x5,128
    41011034:	1442b073          	csrc	sip,x5
    41011038:	10200073          	sret

000000004101103c <trap_handler_s___CLEAR_SEI>:
    4101103c:	20000293          	li	x5,512
    41011040:	1442b073          	csrc	sip,x5
    41011044:	10200073          	sret

0000000041011048 <trap_handler_s___CLEAR_MEI>:
    41011048:	000012b7          	lui	x5,0x1
    4101104c:	8002829b          	addiw	x5,x5,-2048 # 800 <XLEN+0x7c0>
    41011050:	1442b073          	csrc	sip,x5
    41011054:	10200073          	sret

0000000041011058 <trap_handler_s___CLEAR_COI>:
    41011058:	000022b7          	lui	x5,0x2
    4101105c:	1442b073          	csrc	sip,x5
    41011060:	10200073          	sret

0000000041011064 <trap_handler_s__clear_highest_priority_interrupt>:
    41011064:	144022f3          	csrr	x5,sip
    41011068:	40500333          	neg	x6,x5
    4101106c:	0062f2b3          	and	x5,x5,x6
    41011070:	1442b073          	csrc	sip,x5
    41011074:	10200073          	sret

0000000041011078 <trap_handler_s__trap_entry>:
    41011078:	10c0006f          	j	41011184 <trap_handler_s__trap_handler>

000000004101107c <trap_handler_s__interrupt_vector_table>:
    4101107c:	f91ff06f          	j	4101100c <trap_handler_s___CLEAR_SSI>
    41011080:	f81ff06f          	j	41011000 <trap_handler_s__invalid_interrupt>
    41011084:	f95ff06f          	j	41011018 <trap_handler_s___CLEAR_MSI>
    41011088:	f79ff06f          	j	41011000 <trap_handler_s__invalid_interrupt>
    4101108c:	f99ff06f          	j	41011024 <trap_handler_s___CLEAR_STI>
    41011090:	f71ff06f          	j	41011000 <trap_handler_s__invalid_interrupt>
    41011094:	f9dff06f          	j	41011030 <trap_handler_s___CLEAR_MTI>
    41011098:	f69ff06f          	j	41011000 <trap_handler_s__invalid_interrupt>
    4101109c:	fa1ff06f          	j	4101103c <trap_handler_s___CLEAR_SEI>
    410110a0:	f61ff06f          	j	41011000 <trap_handler_s__invalid_interrupt>
    410110a4:	fa5ff06f          	j	41011048 <trap_handler_s___CLEAR_MEI>
    410110a8:	f59ff06f          	j	41011000 <trap_handler_s__invalid_interrupt>
    410110ac:	fadff06f          	j	41011058 <trap_handler_s___CLEAR_COI>
    410110b0:	f51ff06f          	j	41011000 <trap_handler_s__invalid_interrupt>
    410110b4:	f4dff06f          	j	41011000 <trap_handler_s__invalid_interrupt>
    410110b8:	fadff06f          	j	41011064 <trap_handler_s__clear_highest_priority_interrupt>
    410110bc:	fa9ff06f          	j	41011064 <trap_handler_s__clear_highest_priority_interrupt>
    410110c0:	fa5ff06f          	j	41011064 <trap_handler_s__clear_highest_priority_interrupt>
    410110c4:	fa1ff06f          	j	41011064 <trap_handler_s__clear_highest_priority_interrupt>
    410110c8:	f9dff06f          	j	41011064 <trap_handler_s__clear_highest_priority_interrupt>
    410110cc:	f99ff06f          	j	41011064 <trap_handler_s__clear_highest_priority_interrupt>
    410110d0:	f95ff06f          	j	41011064 <trap_handler_s__clear_highest_priority_interrupt>
    410110d4:	f91ff06f          	j	41011064 <trap_handler_s__clear_highest_priority_interrupt>
    410110d8:	f8dff06f          	j	41011064 <trap_handler_s__clear_highest_priority_interrupt>
    410110dc:	f89ff06f          	j	41011064 <trap_handler_s__clear_highest_priority_interrupt>
    410110e0:	f85ff06f          	j	41011064 <trap_handler_s__clear_highest_priority_interrupt>
    410110e4:	f81ff06f          	j	41011064 <trap_handler_s__clear_highest_priority_interrupt>
    410110e8:	f7dff06f          	j	41011064 <trap_handler_s__clear_highest_priority_interrupt>
    410110ec:	f79ff06f          	j	41011064 <trap_handler_s__clear_highest_priority_interrupt>
    410110f0:	f75ff06f          	j	41011064 <trap_handler_s__clear_highest_priority_interrupt>
    410110f4:	f71ff06f          	j	41011064 <trap_handler_s__clear_highest_priority_interrupt>
    410110f8:	f6dff06f          	j	41011064 <trap_handler_s__clear_highest_priority_interrupt>
    410110fc:	f69ff06f          	j	41011064 <trap_handler_s__clear_highest_priority_interrupt>
    41011100:	f65ff06f          	j	41011064 <trap_handler_s__clear_highest_priority_interrupt>
    41011104:	f61ff06f          	j	41011064 <trap_handler_s__clear_highest_priority_interrupt>
    41011108:	f5dff06f          	j	41011064 <trap_handler_s__clear_highest_priority_interrupt>
    4101110c:	f59ff06f          	j	41011064 <trap_handler_s__clear_highest_priority_interrupt>
    41011110:	f55ff06f          	j	41011064 <trap_handler_s__clear_highest_priority_interrupt>
    41011114:	f51ff06f          	j	41011064 <trap_handler_s__clear_highest_priority_interrupt>
    41011118:	f4dff06f          	j	41011064 <trap_handler_s__clear_highest_priority_interrupt>
    4101111c:	f49ff06f          	j	41011064 <trap_handler_s__clear_highest_priority_interrupt>
    41011120:	f45ff06f          	j	41011064 <trap_handler_s__clear_highest_priority_interrupt>
    41011124:	f41ff06f          	j	41011064 <trap_handler_s__clear_highest_priority_interrupt>
    41011128:	f3dff06f          	j	41011064 <trap_handler_s__clear_highest_priority_interrupt>
    4101112c:	f39ff06f          	j	41011064 <trap_handler_s__clear_highest_priority_interrupt>
    41011130:	f35ff06f          	j	41011064 <trap_handler_s__clear_highest_priority_interrupt>
    41011134:	f31ff06f          	j	41011064 <trap_handler_s__clear_highest_priority_interrupt>
    41011138:	f2dff06f          	j	41011064 <trap_handler_s__clear_highest_priority_interrupt>
    4101113c:	f29ff06f          	j	41011064 <trap_handler_s__clear_highest_priority_interrupt>
    41011140:	f25ff06f          	j	41011064 <trap_handler_s__clear_highest_priority_interrupt>
    41011144:	f21ff06f          	j	41011064 <trap_handler_s__clear_highest_priority_interrupt>
    41011148:	f1dff06f          	j	41011064 <trap_handler_s__clear_highest_priority_interrupt>
    4101114c:	f19ff06f          	j	41011064 <trap_handler_s__clear_highest_priority_interrupt>
    41011150:	f15ff06f          	j	41011064 <trap_handler_s__clear_highest_priority_interrupt>
    41011154:	f11ff06f          	j	41011064 <trap_handler_s__clear_highest_priority_interrupt>
    41011158:	f0dff06f          	j	41011064 <trap_handler_s__clear_highest_priority_interrupt>
    4101115c:	f09ff06f          	j	41011064 <trap_handler_s__clear_highest_priority_interrupt>
    41011160:	f05ff06f          	j	41011064 <trap_handler_s__clear_highest_priority_interrupt>
    41011164:	f01ff06f          	j	41011064 <trap_handler_s__clear_highest_priority_interrupt>
    41011168:	efdff06f          	j	41011064 <trap_handler_s__clear_highest_priority_interrupt>
    4101116c:	ef9ff06f          	j	41011064 <trap_handler_s__clear_highest_priority_interrupt>
    41011170:	ef5ff06f          	j	41011064 <trap_handler_s__clear_highest_priority_interrupt>

0000000041011174 <trap_handler_s__test_failed>:
    41011174:	00f00f9b          	addiw	x31,x0,15
    41011178:	01cf9f93          	slli	x31,x31,0x1c
    4101117c:	002f8f93          	addi	x31,x31,2
    41011180:	00000073          	ecall

0000000041011184 <trap_handler_s__trap_handler>:
    41011184:	142022f3          	csrr	x5,scause
    41011188:	fff0031b          	addiw	x6,x0,-1
    4101118c:	03f31313          	slli	x6,x6,0x3f
    41011190:	00537333          	and	x6,x6,x5
    41011194:	02030263          	beqz	x6,410111b8 <trap_handler_s__exception_path>

0000000041011198 <trap_handler_s__interrupt_handler>:
    41011198:	fff0031b          	addiw	x6,x0,-1
    4101119c:	03f31313          	slli	x6,x6,0x3f
    410111a0:	0062c2b3          	xor	x5,x5,x6
    410111a4:	00000317          	auipc	x6,0x0
    410111a8:	ed430313          	addi	x6,x6,-300 # 41011078 <trap_handler_s__trap_entry>
    410111ac:	00229293          	slli	x5,x5,0x2
    410111b0:	005302b3          	add	x5,x6,x5
    410111b4:	00028067          	jr	x5 # 2000 <mem8>

00000000410111b8 <trap_handler_s__exception_path>:
    410111b8:	14021273          	csrrw	x4,sscratch,x4
    410111bc:	00000297          	auipc	x5,0x0
    410111c0:	0cc28293          	addi	x5,x5,204 # 41011288 <trap_handler_s__trap_panic>
    410111c4:	10529073          	csrw	stvec,x5
    410111c8:	0040006f          	j	410111cc <trap_handler_s__excp_entry>

00000000410111cc <trap_handler_s__excp_entry>:
    410111cc:	14202373          	csrr	x6,scause
    410111d0:	00800293          	li	x5,8
    410111d4:	00534863          	blt	x6,x5,410111e4 <trap_handler_s__check_exception_label>
    410111d8:	00b00293          	li	x5,11
    410111dc:	0062c463          	blt	x5,x6,410111e4 <trap_handler_s__check_exception_label>
    410111e0:	0a80006f          	j	41011288 <trap_handler_s__trap_panic>

00000000410111e4 <trap_handler_s__check_exception_label>:
    410111e4:	04623c23          	sd	x6,88(x4) # 58 <XLEN+0x18>
    410111e8:	141022f3          	csrr	x5,sepc
    410111ec:	02523423          	sd	x5,40(x4) # 28 <SECURE_ACCESS_PROBABILITY+0xa>
    410111f0:	01820283          	lb	x5,24(x4) # 18 <STORE_GUEST_PAGE_FAULT+0x1>
    410111f4:	00029863          	bnez	x5,41011204 <trap_handler_s__check_excp>
    410111f8:	00128293          	addi	x5,x5,1
    410111fc:	00520c23          	sb	x5,24(x4) # 18 <STORE_GUEST_PAGE_FAULT+0x1>
    41011200:	05c0006f          	j	4101125c <trap_handler_s__ecall_from_machine>

0000000041011204 <trap_handler_s__check_excp>:
    41011204:	06823283          	ld	x5,104(x4) # 68 <XLEN+0x28>
    41011208:	06023423          	sd	x0,104(x4) # 68 <XLEN+0x28>
    4101120c:	00028663          	beqz	x5,41011218 <trap_handler_s__skip_mode_check>
    41011210:	00300393          	li	x7,3
    41011214:	f67290e3          	bne	x5,x7,41011174 <trap_handler_s__test_failed>

0000000041011218 <trap_handler_s__skip_mode_check>:
    41011218:	05023283          	ld	x5,80(x4) # 50 <XLEN+0x10>
    4101121c:	04023823          	sd	x0,80(x4) # 50 <XLEN+0x10>
    41011220:	f4531ae3          	bne	x6,x5,41011174 <trap_handler_s__test_failed>
    41011224:	03823283          	ld	x5,56(x4) # 38 <SECURE_ACCESS_PROBABILITY+0x1a>
    41011228:	02023c23          	sd	x0,56(x4) # 38 <SECURE_ACCESS_PROBABILITY+0x1a>
    4101122c:	02029663          	bnez	x5,41011258 <trap_handler_s__skip_nonzero_tval_check>
    41011230:	02023303          	ld	x6,32(x4) # 20 <SECURE_ACCESS_PROBABILITY+0x2>
    41011234:	02023023          	sd	x0,32(x4) # 20 <SECURE_ACCESS_PROBABILITY+0x2>
    41011238:	02823283          	ld	x5,40(x4) # 28 <SECURE_ACCESS_PROBABILITY+0xa>
    4101123c:	02023423          	sd	x0,40(x4) # 28 <SECURE_ACCESS_PROBABILITY+0xa>
    41011240:	f2531ae3          	bne	x6,x5,41011174 <trap_handler_s__test_failed>
    41011244:	04023283          	ld	x5,64(x4) # 40 <XLEN>
    41011248:	04023023          	sd	x0,64(x4) # 40 <XLEN>
    4101124c:	00028663          	beqz	x5,41011258 <trap_handler_s__skip_nonzero_tval_check>

0000000041011250 <trap_handler_s__nonzero_tval_check>:
    41011250:	14302373          	csrr	x6,stval
    41011254:	f25310e3          	bne	x6,x5,41011174 <trap_handler_s__test_failed>

0000000041011258 <trap_handler_s__skip_nonzero_tval_check>:
    41011258:	0040006f          	j	4101125c <trap_handler_s__ecall_from_machine>

000000004101125c <trap_handler_s__ecall_from_machine>:
    4101125c:	03023283          	ld	x5,48(x4) # 30 <SECURE_ACCESS_PROBABILITY+0x12>
    41011260:	02023823          	sd	x0,48(x4) # 30 <SECURE_ACCESS_PROBABILITY+0x12>
    41011264:	07023303          	ld	x6,112(x4) # 70 <XLEN+0x30>
    41011268:	06023823          	sd	x0,112(x4) # 70 <XLEN+0x30>
    4101126c:	00031463          	bnez	x6,41011274 <trap_handler_s__skip_xepc_write>
    41011270:	14129073          	csrw	sepc,x5

0000000041011274 <trap_handler_s__skip_xepc_write>:
    41011274:	00000317          	auipc	x6,0x0
    41011278:	e0430313          	addi	x6,x6,-508 # 41011078 <trap_handler_s__trap_entry>
    4101127c:	10531073          	csrw	stvec,x6
    41011280:	14021273          	csrrw	x4,sscratch,x4
    41011284:	10200073          	sret

0000000041011288 <trap_handler_s__trap_panic>:
    41011288:	00000193          	li	x3,0
    4101128c:	00f00f9b          	addiw	x31,x0,15
    41011290:	01cf9f93          	slli	x31,x31,0x1c
    41011294:	002f8f93          	addi	x31,x31,2
    41011298:	00000073          	ecall

Disassembly of section .code:

0000000041015070 <passed>:
    41015070:	00f00f9b          	addiw	x31,x0,15
    41015074:	01cf9f93          	slli	x31,x31,0x1c
    41015078:	001f8f93          	addi	x31,x31,1
    4101507c:	00000073          	ecall

0000000041015080 <failed>:
    41015080:	00f00f9b          	addiw	x31,x0,15
    41015084:	01cf9f93          	slli	x31,x31,0x1c
    41015088:	002f8f93          	addi	x31,x31,2
    4101508c:	00000073          	ecall

0000000041015090 <end_test>:
    41015090:	00f00f9b          	addiw	x31,x0,15
    41015094:	01cf9f93          	slli	x31,x31,0x1c
    41015098:	003f8f93          	addi	x31,x31,3
    4101509c:	00000073          	ecall

00000000410150a0 <test_setup>:
    410150a0:	00f00f9b          	addiw	x31,x0,15
    410150a4:	01cf9f93          	slli	x31,x31,0x1c
    410150a8:	001f8f93          	addi	x31,x31,1
    410150ac:	00000073          	ecall

00000000410150b0 <SID_ZICBO_001>:
    410150b0:	000f9137          	lui	x2,0xf9
    410150b4:	01066fb7          	lui	x31,0x1066
    410150b8:	0b8f8f9b          	addiw	x31,x31,184 # 10660b8 <machine_csr_jump_table_flags>
    410150bc:	00100f13          	li	x30,1
    410150c0:	01efb023          	sd	x30,0(x31)
    410150c4:	000f0fb7          	lui	x31,0xf0
    410150c8:	001f8f9b          	addiw	x31,x31,1 # f0001 <__section_data_1+0x19001>
    410150cc:	00cf9f93          	slli	x31,x31,0xc
    410150d0:	005f8f93          	addi	x31,x31,5
    410150d4:	00000073          	ecall
    410150d8:	00713023          	sd	x7,0(x2) # f9000 <tp_csr_storage>
    410150dc:	00011137          	lui	x2,0x11
    410150e0:	000012b7          	lui	x5,0x1
    410150e4:	00510133          	add	x2,x2,x5
    410150e8:	ff017113          	andi	x2,x2,-16
    410150ec:	03000393          	li	x7,48
    410150f0:	01066fb7          	lui	x31,0x1066
    410150f4:	0b8f8f9b          	addiw	x31,x31,184 # 10660b8 <machine_csr_jump_table_flags>
    410150f8:	00200f13          	li	x30,2
    410150fc:	01efb023          	sd	x30,0(x31)
    41015100:	000f0fb7          	lui	x31,0xf0
    41015104:	001f8f9b          	addiw	x31,x31,1 # f0001 <__section_data_1+0x19001>
    41015108:	00cf9f93          	slli	x31,x31,0xc
    4101510c:	005f8f93          	addi	x31,x31,5
    41015110:	00000073          	ecall
    41015114:	05e41237          	lui	x4,0x5e41
    41015118:	00200e13          	li	x28,2
    4101511c:	05c23823          	sd	x28,80(x4) # 5e41050 <check_excp_expected_cause>
    41015120:	00000e17          	auipc	x28,0x0
    41015124:	054e0e13          	addi	x28,x28,84 # 41015174 <fault_label_0>
    41015128:	03c23023          	sd	x28,32(x4) # 20 <SECURE_ACCESS_PROBABILITY+0x2>
    4101512c:	00000e13          	li	x28,0
    41015130:	05c23023          	sd	x28,64(x4) # 40 <XLEN>
    41015134:	00000e13          	li	x28,0
    41015138:	05c23423          	sd	x28,72(x4) # 48 <XLEN+0x8>
    4101513c:	00000e17          	auipc	x28,0x0
    41015140:	04ce0e13          	addi	x28,x28,76 # 41015188 <excp_return_label_0>
    41015144:	03c23823          	sd	x28,48(x4) # 30 <SECURE_ACCESS_PROBABILITY+0x12>
    41015148:	00000e13          	li	x28,0
    4101514c:	03c23c23          	sd	x28,56(x4) # 38 <SECURE_ACCESS_PROBABILITY+0x1a>
    41015150:	00000e13          	li	x28,0
    41015154:	07c23023          	sd	x28,96(x4) # 60 <XLEN+0x20>
    41015158:	00000e13          	li	x28,0
    4101515c:	07c23423          	sd	x28,104(x4) # 68 <XLEN+0x28>
    41015160:	00000e13          	li	x28,0
    41015164:	07c23823          	sd	x28,112(x4) # 70 <XLEN+0x30>
    41015168:	006c3437          	lui	x8,0x6c3
    4101516c:	00000513          	li	x10,0
    41015170:	00a405b3          	add	x11,x8,x10

0000000041015174 <fault_label_0>:
    41015174:	0005a00f          	cbo.inval	(x11)
    41015178:	01066ab7          	lui	x21,0x1066
    4101517c:	008a8a9b          	addiw	x21,x21,8 # 1066008 <failed_addr>
    41015180:	000ab783          	ld	x15,0(x21)
    41015184:	00078067          	jr	x15

0000000041015188 <excp_return_label_0>:
    41015188:	000f9137          	lui	x2,0xf9
    4101518c:	00013383          	ld	x7,0(x2) # f9000 <tp_csr_storage>
    41015190:	01066fb7          	lui	x31,0x1066
    41015194:	0b8f8f9b          	addiw	x31,x31,184 # 10660b8 <machine_csr_jump_table_flags>
    41015198:	00300f13          	li	x30,3
    4101519c:	01efb023          	sd	x30,0(x31)
    410151a0:	000f0fb7          	lui	x31,0xf0
    410151a4:	001f8f9b          	addiw	x31,x31,1 # f0001 <__section_data_1+0x19001>
    410151a8:	00cf9f93          	slli	x31,x31,0xc
    410151ac:	005f8f93          	addi	x31,x31,5
    410151b0:	00000073          	ecall

00000000410151b4 <SID_ZICBO_001_passed>:
    410151b4:	00f00f9b          	addiw	x31,x0,15
    410151b8:	01cf9f93          	slli	x31,x31,0x1c
    410151bc:	001f8f93          	addi	x31,x31,1
    410151c0:	00000073          	ecall

00000000410151c4 <SID_ZICBO_002>:
    410151c4:	000f9137          	lui	x2,0xf9
    410151c8:	01066fb7          	lui	x31,0x1066
    410151cc:	0b8f8f9b          	addiw	x31,x31,184 # 10660b8 <machine_csr_jump_table_flags>
    410151d0:	00400f13          	li	x30,4
    410151d4:	01efb023          	sd	x30,0(x31)
    410151d8:	000f0fb7          	lui	x31,0xf0
    410151dc:	001f8f9b          	addiw	x31,x31,1 # f0001 <__section_data_1+0x19001>
    410151e0:	00cf9f93          	slli	x31,x31,0xc
    410151e4:	005f8f93          	addi	x31,x31,5
    410151e8:	00000073          	ecall
    410151ec:	00713023          	sd	x7,0(x2) # f9000 <tp_csr_storage>
    410151f0:	ffccc137          	lui	x2,0xffccc
    410151f4:	00d1011b          	addiw	x2,x2,13 # ffffffffffccc00d <SID_ZICBO_002_stack+0x333cbf00d>
    410151f8:	00c11113          	slli	x2,x2,0xc
    410151fc:	000012b7          	lui	x5,0x1
    41015200:	00510133          	add	x2,x2,x5
    41015204:	ff017113          	andi	x2,x2,-16
    41015208:	03000393          	li	x7,48
    4101520c:	01066fb7          	lui	x31,0x1066
    41015210:	0c0f8f9b          	addiw	x31,x31,192 # 10660c0 <super_csr_jump_table_flags>
    41015214:	00500f13          	li	x30,5
    41015218:	01efb023          	sd	x30,0(x31)
    4101521c:	000f0fb7          	lui	x31,0xf0
    41015220:	001f8f9b          	addiw	x31,x31,1 # f0001 <__section_data_1+0x19001>
    41015224:	00cf9f93          	slli	x31,x31,0xc
    41015228:	006f8f93          	addi	x31,x31,6
    4101522c:	00000073          	ecall
    41015230:	05e41237          	lui	x4,0x5e41
    41015234:	00200e13          	li	x28,2
    41015238:	05c23823          	sd	x28,80(x4) # 5e41050 <check_excp_expected_cause>
    4101523c:	00000e17          	auipc	x28,0x0
    41015240:	054e0e13          	addi	x28,x28,84 # 41015290 <fault_label_1>
    41015244:	03c23023          	sd	x28,32(x4) # 20 <SECURE_ACCESS_PROBABILITY+0x2>
    41015248:	00000e13          	li	x28,0
    4101524c:	05c23023          	sd	x28,64(x4) # 40 <XLEN>
    41015250:	00000e13          	li	x28,0
    41015254:	05c23423          	sd	x28,72(x4) # 48 <XLEN+0x8>
    41015258:	00000e17          	auipc	x28,0x0
    4101525c:	04ce0e13          	addi	x28,x28,76 # 410152a4 <excp_return_label_1>
    41015260:	03c23823          	sd	x28,48(x4) # 30 <SECURE_ACCESS_PROBABILITY+0x12>
    41015264:	00000e13          	li	x28,0
    41015268:	03c23c23          	sd	x28,56(x4) # 38 <SECURE_ACCESS_PROBABILITY+0x1a>
    4101526c:	00000e13          	li	x28,0
    41015270:	07c23023          	sd	x28,96(x4) # 60 <XLEN+0x20>
    41015274:	00000e13          	li	x28,0
    41015278:	07c23423          	sd	x28,104(x4) # 68 <XLEN+0x28>
    4101527c:	00000e13          	li	x28,0
    41015280:	07c23823          	sd	x28,112(x4) # 70 <XLEN+0x30>
    41015284:	00e71f37          	lui	x30,0xe71
    41015288:	00000e13          	li	x28,0
    4101528c:	01cf0833          	add	x16,x30,x28

0000000041015290 <fault_label_1>:
    41015290:	0008200f          	cbo.inval	(x16)
    41015294:	010667b7          	lui	x15,0x1066
    41015298:	0087879b          	addiw	x15,x15,8 # 1066008 <failed_addr>
    4101529c:	0007be83          	ld	x29,0(x15)
    410152a0:	000e8067          	jr	x29

00000000410152a4 <excp_return_label_1>:
    410152a4:	000f9137          	lui	x2,0xf9
    410152a8:	00013383          	ld	x7,0(x2) # f9000 <tp_csr_storage>
    410152ac:	01066fb7          	lui	x31,0x1066
    410152b0:	0b8f8f9b          	addiw	x31,x31,184 # 10660b8 <machine_csr_jump_table_flags>
    410152b4:	00600f13          	li	x30,6
    410152b8:	01efb023          	sd	x30,0(x31)
    410152bc:	000f0fb7          	lui	x31,0xf0
    410152c0:	001f8f9b          	addiw	x31,x31,1 # f0001 <__section_data_1+0x19001>
    410152c4:	00cf9f93          	slli	x31,x31,0xc
    410152c8:	005f8f93          	addi	x31,x31,5
    410152cc:	00000073          	ecall

00000000410152d0 <SID_ZICBO_002_passed>:
    410152d0:	00f00f9b          	addiw	x31,x0,15
    410152d4:	01cf9f93          	slli	x31,x31,0x1c
    410152d8:	001f8f93          	addi	x31,x31,1
    410152dc:	00000073          	ecall

00000000410152e0 <SID_ZICBO_003>:
    410152e0:	000f9137          	lui	x2,0xf9
    410152e4:	01066fb7          	lui	x31,0x1066
    410152e8:	0b8f8f9b          	addiw	x31,x31,184 # 10660b8 <machine_csr_jump_table_flags>
    410152ec:	00100f13          	li	x30,1
    410152f0:	01efb023          	sd	x30,0(x31)
    410152f4:	000f0fb7          	lui	x31,0xf0
    410152f8:	001f8f9b          	addiw	x31,x31,1 # f0001 <__section_data_1+0x19001>
    410152fc:	00cf9f93          	slli	x31,x31,0xc
    41015300:	005f8f93          	addi	x31,x31,5
    41015304:	00000073          	ecall
    41015308:	00713023          	sd	x7,0(x2) # f9000 <tp_csr_storage>
    4101530c:	00006137          	lui	x2,0x6
    41015310:	000012b7          	lui	x5,0x1
    41015314:	00510133          	add	x2,x2,x5
    41015318:	ff017113          	andi	x2,x2,-16
    4101531c:	04000393          	li	x7,64
    41015320:	01066fb7          	lui	x31,0x1066
    41015324:	0b8f8f9b          	addiw	x31,x31,184 # 10660b8 <machine_csr_jump_table_flags>
    41015328:	00200f13          	li	x30,2
    4101532c:	01efb023          	sd	x30,0(x31)
    41015330:	000f0fb7          	lui	x31,0xf0
    41015334:	001f8f9b          	addiw	x31,x31,1 # f0001 <__section_data_1+0x19001>
    41015338:	00cf9f93          	slli	x31,x31,0xc
    4101533c:	005f8f93          	addi	x31,x31,5
    41015340:	00000073          	ecall
    41015344:	05e41237          	lui	x4,0x5e41
    41015348:	00200e13          	li	x28,2
    4101534c:	05c23823          	sd	x28,80(x4) # 5e41050 <check_excp_expected_cause>
    41015350:	00000e17          	auipc	x28,0x0
    41015354:	054e0e13          	addi	x28,x28,84 # 410153a4 <fault_label_2>
    41015358:	03c23023          	sd	x28,32(x4) # 20 <SECURE_ACCESS_PROBABILITY+0x2>
    4101535c:	00000e13          	li	x28,0
    41015360:	05c23023          	sd	x28,64(x4) # 40 <XLEN>
    41015364:	00000e13          	li	x28,0
    41015368:	05c23423          	sd	x28,72(x4) # 48 <XLEN+0x8>
    4101536c:	00000e17          	auipc	x28,0x0
    41015370:	04ce0e13          	addi	x28,x28,76 # 410153b8 <excp_return_label_2>
    41015374:	03c23823          	sd	x28,48(x4) # 30 <SECURE_ACCESS_PROBABILITY+0x12>
    41015378:	00000e13          	li	x28,0
    4101537c:	03c23c23          	sd	x28,56(x4) # 38 <SECURE_ACCESS_PROBABILITY+0x1a>
    41015380:	00000e13          	li	x28,0
    41015384:	07c23023          	sd	x28,96(x4) # 60 <XLEN+0x20>
    41015388:	00000e13          	li	x28,0
    4101538c:	07c23423          	sd	x28,104(x4) # 68 <XLEN+0x28>
    41015390:	00000e13          	li	x28,0
    41015394:	07c23823          	sd	x28,112(x4) # 70 <XLEN+0x30>
    41015398:	03bf96b7          	lui	x13,0x3bf9
    4101539c:	00000d93          	li	x27,0
    410153a0:	01b68433          	add	x8,x13,x27

00000000410153a4 <fault_label_2>:
    410153a4:	0014200f          	cbo.clean	(x8)
    410153a8:	01066e37          	lui	x28,0x1066
    410153ac:	008e0e1b          	addiw	x28,x28,8 # 1066008 <failed_addr>
    410153b0:	000e3383          	ld	x7,0(x28)
    410153b4:	00038067          	jr	x7

00000000410153b8 <excp_return_label_2>:
    410153b8:	05e41237          	lui	x4,0x5e41
    410153bc:	00200e13          	li	x28,2
    410153c0:	05c23823          	sd	x28,80(x4) # 5e41050 <check_excp_expected_cause>
    410153c4:	00000e17          	auipc	x28,0x0
    410153c8:	054e0e13          	addi	x28,x28,84 # 41015418 <fault_label_3>
    410153cc:	03c23023          	sd	x28,32(x4) # 20 <SECURE_ACCESS_PROBABILITY+0x2>
    410153d0:	00000e13          	li	x28,0
    410153d4:	05c23023          	sd	x28,64(x4) # 40 <XLEN>
    410153d8:	00000e13          	li	x28,0
    410153dc:	05c23423          	sd	x28,72(x4) # 48 <XLEN+0x8>
    410153e0:	00000e17          	auipc	x28,0x0
    410153e4:	04ce0e13          	addi	x28,x28,76 # 4101542c <excp_return_label_3>
    410153e8:	03c23823          	sd	x28,48(x4) # 30 <SECURE_ACCESS_PROBABILITY+0x12>
    410153ec:	00000e13          	li	x28,0
    410153f0:	03c23c23          	sd	x28,56(x4) # 38 <SECURE_ACCESS_PROBABILITY+0x1a>
    410153f4:	00000e13          	li	x28,0
    410153f8:	07c23023          	sd	x28,96(x4) # 60 <XLEN+0x20>
    410153fc:	00000e13          	li	x28,0
    41015400:	07c23423          	sd	x28,104(x4) # 68 <XLEN+0x28>
    41015404:	00000e13          	li	x28,0
    41015408:	07c23823          	sd	x28,112(x4) # 70 <XLEN+0x30>
    4101540c:	03bf9737          	lui	x14,0x3bf9
    41015410:	00000b93          	li	x23,0
    41015414:	01770db3          	add	x27,x14,x23

0000000041015418 <fault_label_3>:
    41015418:	002da00f          	cbo.flush	(x27)
    4101541c:	01066b37          	lui	x22,0x1066
    41015420:	008b0b1b          	addiw	x22,x22,8 # 1066008 <failed_addr>
    41015424:	000b3b03          	ld	x22,0(x22)
    41015428:	000b0067          	jr	x22

000000004101542c <excp_return_label_3>:
    4101542c:	000f9137          	lui	x2,0xf9
    41015430:	00013383          	ld	x7,0(x2) # f9000 <tp_csr_storage>
    41015434:	01066fb7          	lui	x31,0x1066
    41015438:	0b8f8f9b          	addiw	x31,x31,184 # 10660b8 <machine_csr_jump_table_flags>
    4101543c:	00300f13          	li	x30,3
    41015440:	01efb023          	sd	x30,0(x31)
    41015444:	000f0fb7          	lui	x31,0xf0
    41015448:	001f8f9b          	addiw	x31,x31,1 # f0001 <__section_data_1+0x19001>
    4101544c:	00cf9f93          	slli	x31,x31,0xc
    41015450:	005f8f93          	addi	x31,x31,5
    41015454:	00000073          	ecall

0000000041015458 <SID_ZICBO_003_passed>:
    41015458:	00f00f9b          	addiw	x31,x0,15
    4101545c:	01cf9f93          	slli	x31,x31,0x1c
    41015460:	001f8f93          	addi	x31,x31,1
    41015464:	00000073          	ecall

0000000041015468 <SID_ZICBO_004>:
    41015468:	000f9137          	lui	x2,0xf9
    4101546c:	01066fb7          	lui	x31,0x1066
    41015470:	0b8f8f9b          	addiw	x31,x31,184 # 10660b8 <machine_csr_jump_table_flags>
    41015474:	00400f13          	li	x30,4
    41015478:	01efb023          	sd	x30,0(x31)
    4101547c:	000f0fb7          	lui	x31,0xf0
    41015480:	001f8f9b          	addiw	x31,x31,1 # f0001 <__section_data_1+0x19001>
    41015484:	00cf9f93          	slli	x31,x31,0xc
    41015488:	005f8f93          	addi	x31,x31,5
    4101548c:	00000073          	ecall
    41015490:	00713023          	sd	x7,0(x2) # f9000 <tp_csr_storage>
    41015494:	000f7137          	lui	x2,0xf7
    41015498:	000012b7          	lui	x5,0x1
    4101549c:	00510133          	add	x2,x2,x5
    410154a0:	ff017113          	andi	x2,x2,-16
    410154a4:	04000393          	li	x7,64
    410154a8:	01066fb7          	lui	x31,0x1066
    410154ac:	0c0f8f9b          	addiw	x31,x31,192 # 10660c0 <super_csr_jump_table_flags>
    410154b0:	00500f13          	li	x30,5
    410154b4:	01efb023          	sd	x30,0(x31)
    410154b8:	000f0fb7          	lui	x31,0xf0
    410154bc:	001f8f9b          	addiw	x31,x31,1 # f0001 <__section_data_1+0x19001>
    410154c0:	00cf9f93          	slli	x31,x31,0xc
    410154c4:	006f8f93          	addi	x31,x31,6
    410154c8:	00000073          	ecall
    410154cc:	05e41237          	lui	x4,0x5e41
    410154d0:	00200e13          	li	x28,2
    410154d4:	05c23823          	sd	x28,80(x4) # 5e41050 <check_excp_expected_cause>
    410154d8:	00000e17          	auipc	x28,0x0
    410154dc:	054e0e13          	addi	x28,x28,84 # 4101552c <fault_label_4>
    410154e0:	03c23023          	sd	x28,32(x4) # 20 <SECURE_ACCESS_PROBABILITY+0x2>
    410154e4:	00000e13          	li	x28,0
    410154e8:	05c23023          	sd	x28,64(x4) # 40 <XLEN>
    410154ec:	00000e13          	li	x28,0
    410154f0:	05c23423          	sd	x28,72(x4) # 48 <XLEN+0x8>
    410154f4:	00000e17          	auipc	x28,0x0
    410154f8:	04ce0e13          	addi	x28,x28,76 # 41015540 <excp_return_label_4>
    410154fc:	03c23823          	sd	x28,48(x4) # 30 <SECURE_ACCESS_PROBABILITY+0x12>
    41015500:	00000e13          	li	x28,0
    41015504:	03c23c23          	sd	x28,56(x4) # 38 <SECURE_ACCESS_PROBABILITY+0x1a>
    41015508:	00000e13          	li	x28,0
    4101550c:	07c23023          	sd	x28,96(x4) # 60 <XLEN+0x20>
    41015510:	00000e13          	li	x28,0
    41015514:	07c23423          	sd	x28,104(x4) # 68 <XLEN+0x28>
    41015518:	00000e13          	li	x28,0
    4101551c:	07c23823          	sd	x28,112(x4) # 70 <XLEN+0x30>
    41015520:	0001df37          	lui	x30,0x1d
    41015524:	00000b93          	li	x23,0
    41015528:	017f0933          	add	x18,x30,x23

000000004101552c <fault_label_4>:
    4101552c:	0019200f          	cbo.clean	(x18)
    41015530:	01066d37          	lui	x26,0x1066
    41015534:	008d0d1b          	addiw	x26,x26,8 # 1066008 <failed_addr>
    41015538:	000d3b03          	ld	x22,0(x26)
    4101553c:	000b0067          	jr	x22

0000000041015540 <excp_return_label_4>:
    41015540:	05e41237          	lui	x4,0x5e41
    41015544:	00200e13          	li	x28,2
    41015548:	05c23823          	sd	x28,80(x4) # 5e41050 <check_excp_expected_cause>
    4101554c:	00000e17          	auipc	x28,0x0
    41015550:	054e0e13          	addi	x28,x28,84 # 410155a0 <fault_label_5>
    41015554:	03c23023          	sd	x28,32(x4) # 20 <SECURE_ACCESS_PROBABILITY+0x2>
    41015558:	00000e13          	li	x28,0
    4101555c:	05c23023          	sd	x28,64(x4) # 40 <XLEN>
    41015560:	00000e13          	li	x28,0
    41015564:	05c23423          	sd	x28,72(x4) # 48 <XLEN+0x8>
    41015568:	00000e17          	auipc	x28,0x0
    4101556c:	04ce0e13          	addi	x28,x28,76 # 410155b4 <excp_return_label_5>
    41015570:	03c23823          	sd	x28,48(x4) # 30 <SECURE_ACCESS_PROBABILITY+0x12>
    41015574:	00000e13          	li	x28,0
    41015578:	03c23c23          	sd	x28,56(x4) # 38 <SECURE_ACCESS_PROBABILITY+0x1a>
    4101557c:	00000e13          	li	x28,0
    41015580:	07c23023          	sd	x28,96(x4) # 60 <XLEN+0x20>
    41015584:	00000e13          	li	x28,0
    41015588:	07c23423          	sd	x28,104(x4) # 68 <XLEN+0x28>
    4101558c:	00000e13          	li	x28,0
    41015590:	07c23823          	sd	x28,112(x4) # 70 <XLEN+0x30>
    41015594:	0001ddb7          	lui	x27,0x1d
    41015598:	00000793          	li	x15,0
    4101559c:	00fd8433          	add	x8,x27,x15

00000000410155a0 <fault_label_5>:
    410155a0:	0024200f          	cbo.flush	(x8)
    410155a4:	01066337          	lui	x6,0x1066
    410155a8:	0083031b          	addiw	x6,x6,8 # 1066008 <failed_addr>
    410155ac:	00033c03          	ld	x24,0(x6)
    410155b0:	000c0067          	jr	x24

00000000410155b4 <excp_return_label_5>:
    410155b4:	000f9137          	lui	x2,0xf9
    410155b8:	00013383          	ld	x7,0(x2) # f9000 <tp_csr_storage>
    410155bc:	01066fb7          	lui	x31,0x1066
    410155c0:	0b8f8f9b          	addiw	x31,x31,184 # 10660b8 <machine_csr_jump_table_flags>
    410155c4:	00600f13          	li	x30,6
    410155c8:	01efb023          	sd	x30,0(x31)
    410155cc:	000f0fb7          	lui	x31,0xf0
    410155d0:	001f8f9b          	addiw	x31,x31,1 # f0001 <__section_data_1+0x19001>
    410155d4:	00cf9f93          	slli	x31,x31,0xc
    410155d8:	005f8f93          	addi	x31,x31,5
    410155dc:	00000073          	ecall

00000000410155e0 <SID_ZICBO_004_passed>:
    410155e0:	00f00f9b          	addiw	x31,x0,15
    410155e4:	01cf9f93          	slli	x31,x31,0x1c
    410155e8:	001f8f93          	addi	x31,x31,1
    410155ec:	00000073          	ecall

00000000410155f0 <SID_ZICBO_005>:
    410155f0:	000f9137          	lui	x2,0xf9
    410155f4:	01066fb7          	lui	x31,0x1066
    410155f8:	0b8f8f9b          	addiw	x31,x31,184 # 10660b8 <machine_csr_jump_table_flags>
    410155fc:	00100f13          	li	x30,1
    41015600:	01efb023          	sd	x30,0(x31)
    41015604:	000f0fb7          	lui	x31,0xf0
    41015608:	001f8f9b          	addiw	x31,x31,1 # f0001 <__section_data_1+0x19001>
    4101560c:	00cf9f93          	slli	x31,x31,0xc
    41015610:	005f8f93          	addi	x31,x31,5
    41015614:	00000073          	ecall
    41015618:	00713023          	sd	x7,0(x2) # f9000 <tp_csr_storage>
    4101561c:	005d5137          	lui	x2,0x5d5
    41015620:	000012b7          	lui	x5,0x1
    41015624:	00510133          	add	x2,x2,x5
    41015628:	ff017113          	andi	x2,x2,-16
    4101562c:	08000393          	li	x7,128
    41015630:	01066fb7          	lui	x31,0x1066
    41015634:	0b8f8f9b          	addiw	x31,x31,184 # 10660b8 <machine_csr_jump_table_flags>
    41015638:	00200f13          	li	x30,2
    4101563c:	01efb023          	sd	x30,0(x31)
    41015640:	000f0fb7          	lui	x31,0xf0
    41015644:	001f8f9b          	addiw	x31,x31,1 # f0001 <__section_data_1+0x19001>
    41015648:	00cf9f93          	slli	x31,x31,0xc
    4101564c:	005f8f93          	addi	x31,x31,5
    41015650:	00000073          	ecall
    41015654:	05e41237          	lui	x4,0x5e41
    41015658:	00200e13          	li	x28,2
    4101565c:	05c23823          	sd	x28,80(x4) # 5e41050 <check_excp_expected_cause>
    41015660:	00000e17          	auipc	x28,0x0
    41015664:	05ce0e13          	addi	x28,x28,92 # 410156bc <fault_label_6>
    41015668:	03c23023          	sd	x28,32(x4) # 20 <SECURE_ACCESS_PROBABILITY+0x2>
    4101566c:	00000e13          	li	x28,0
    41015670:	05c23023          	sd	x28,64(x4) # 40 <XLEN>
    41015674:	00000e13          	li	x28,0
    41015678:	05c23423          	sd	x28,72(x4) # 48 <XLEN+0x8>
    4101567c:	00000e17          	auipc	x28,0x0
    41015680:	054e0e13          	addi	x28,x28,84 # 410156d0 <excp_return_label_6>
    41015684:	03c23823          	sd	x28,48(x4) # 30 <SECURE_ACCESS_PROBABILITY+0x12>
    41015688:	00000e13          	li	x28,0
    4101568c:	03c23c23          	sd	x28,56(x4) # 38 <SECURE_ACCESS_PROBABILITY+0x1a>
    41015690:	00000e13          	li	x28,0
    41015694:	07c23023          	sd	x28,96(x4) # 60 <XLEN+0x20>
    41015698:	00000e13          	li	x28,0
    4101569c:	07c23423          	sd	x28,104(x4) # 68 <XLEN+0x28>
    410156a0:	00000e13          	li	x28,0
    410156a4:	07c23823          	sd	x28,112(x4) # 70 <XLEN+0x30>
    410156a8:	0004bab7          	lui	x21,0x4b
    410156ac:	1bba8a9b          	addiw	x21,x21,443 # 4b1bb <pma_region_0_size+0xb1bb>
    410156b0:	00da9a93          	slli	x21,x21,0xd
    410156b4:	00000893          	li	x17,0
    410156b8:	011a8a33          	add	x20,x21,x17

00000000410156bc <fault_label_6>:
    410156bc:	004a200f          	cbo.zero	(x20)
    410156c0:	01066bb7          	lui	x23,0x1066
    410156c4:	008b8b9b          	addiw	x23,x23,8 # 1066008 <failed_addr>
    410156c8:	000bbd83          	ld	x27,0(x23)
    410156cc:	000d8067          	jr	x27 # 1d000 <mem3>

00000000410156d0 <excp_return_label_6>:
    410156d0:	000f9137          	lui	x2,0xf9
    410156d4:	00013383          	ld	x7,0(x2) # f9000 <tp_csr_storage>
    410156d8:	01066fb7          	lui	x31,0x1066
    410156dc:	0b8f8f9b          	addiw	x31,x31,184 # 10660b8 <machine_csr_jump_table_flags>
    410156e0:	00300f13          	li	x30,3
    410156e4:	01efb023          	sd	x30,0(x31)
    410156e8:	000f0fb7          	lui	x31,0xf0
    410156ec:	001f8f9b          	addiw	x31,x31,1 # f0001 <__section_data_1+0x19001>
    410156f0:	00cf9f93          	slli	x31,x31,0xc
    410156f4:	005f8f93          	addi	x31,x31,5
    410156f8:	00000073          	ecall

00000000410156fc <SID_ZICBO_005_passed>:
    410156fc:	00f00f9b          	addiw	x31,x0,15
    41015700:	01cf9f93          	slli	x31,x31,0x1c
    41015704:	001f8f93          	addi	x31,x31,1
    41015708:	00000073          	ecall

000000004101570c <SID_ZICBO_006>:
    4101570c:	000f9137          	lui	x2,0xf9
    41015710:	01066fb7          	lui	x31,0x1066
    41015714:	0b8f8f9b          	addiw	x31,x31,184 # 10660b8 <machine_csr_jump_table_flags>
    41015718:	00400f13          	li	x30,4
    4101571c:	01efb023          	sd	x30,0(x31)
    41015720:	000f0fb7          	lui	x31,0xf0
    41015724:	001f8f9b          	addiw	x31,x31,1 # f0001 <__section_data_1+0x19001>
    41015728:	00cf9f93          	slli	x31,x31,0xc
    4101572c:	005f8f93          	addi	x31,x31,5
    41015730:	00000073          	ecall
    41015734:	00713023          	sd	x7,0(x2) # f9000 <tp_csr_storage>
    41015738:	00302137          	lui	x2,0x302
    4101573c:	e011011b          	addiw	x2,x2,-511 # 301e01 <SID_ZICBO_50_ZIC64B_01_stack+0x111e01>
    41015740:	00e11113          	slli	x2,x2,0xe
    41015744:	000012b7          	lui	x5,0x1
    41015748:	00510133          	add	x2,x2,x5
    4101574c:	ff017113          	andi	x2,x2,-16
    41015750:	08000393          	li	x7,128
    41015754:	01066fb7          	lui	x31,0x1066
    41015758:	0c0f8f9b          	addiw	x31,x31,192 # 10660c0 <super_csr_jump_table_flags>
    4101575c:	00500f13          	li	x30,5
    41015760:	01efb023          	sd	x30,0(x31)
    41015764:	000f0fb7          	lui	x31,0xf0
    41015768:	001f8f9b          	addiw	x31,x31,1 # f0001 <__section_data_1+0x19001>
    4101576c:	00cf9f93          	slli	x31,x31,0xc
    41015770:	006f8f93          	addi	x31,x31,6
    41015774:	00000073          	ecall
    41015778:	05e41237          	lui	x4,0x5e41
    4101577c:	00200e13          	li	x28,2
    41015780:	05c23823          	sd	x28,80(x4) # 5e41050 <check_excp_expected_cause>
    41015784:	00000e17          	auipc	x28,0x0
    41015788:	054e0e13          	addi	x28,x28,84 # 410157d8 <fault_label_7>
    4101578c:	03c23023          	sd	x28,32(x4) # 20 <SECURE_ACCESS_PROBABILITY+0x2>
    41015790:	00000e13          	li	x28,0
    41015794:	05c23023          	sd	x28,64(x4) # 40 <XLEN>
    41015798:	00000e13          	li	x28,0
    4101579c:	05c23423          	sd	x28,72(x4) # 48 <XLEN+0x8>
    410157a0:	00000e17          	auipc	x28,0x0
    410157a4:	04ce0e13          	addi	x28,x28,76 # 410157ec <excp_return_label_7>
    410157a8:	03c23823          	sd	x28,48(x4) # 30 <SECURE_ACCESS_PROBABILITY+0x12>
    410157ac:	00000e13          	li	x28,0
    410157b0:	03c23c23          	sd	x28,56(x4) # 38 <SECURE_ACCESS_PROBABILITY+0x1a>
    410157b4:	00000e13          	li	x28,0
    410157b8:	07c23023          	sd	x28,96(x4) # 60 <XLEN+0x20>
    410157bc:	00000e13          	li	x28,0
    410157c0:	07c23423          	sd	x28,104(x4) # 68 <XLEN+0x28>
    410157c4:	00000e13          	li	x28,0
    410157c8:	07c23823          	sd	x28,112(x4) # 70 <XLEN+0x30>
    410157cc:	05e51637          	lui	x12,0x5e51
    410157d0:	00000c93          	li	x25,0
    410157d4:	019606b3          	add	x13,x12,x25

00000000410157d8 <fault_label_7>:
    410157d8:	0046a00f          	cbo.zero	(x13)
    410157dc:	01066837          	lui	x16,0x1066
    410157e0:	0088081b          	addiw	x16,x16,8 # 1066008 <failed_addr>
    410157e4:	00083883          	ld	x17,0(x16)
    410157e8:	00088067          	jr	x17

00000000410157ec <excp_return_label_7>:
    410157ec:	000f9137          	lui	x2,0xf9
    410157f0:	00013383          	ld	x7,0(x2) # f9000 <tp_csr_storage>
    410157f4:	01066fb7          	lui	x31,0x1066
    410157f8:	0b8f8f9b          	addiw	x31,x31,184 # 10660b8 <machine_csr_jump_table_flags>
    410157fc:	00600f13          	li	x30,6
    41015800:	01efb023          	sd	x30,0(x31)
    41015804:	000f0fb7          	lui	x31,0xf0
    41015808:	001f8f9b          	addiw	x31,x31,1 # f0001 <__section_data_1+0x19001>
    4101580c:	00cf9f93          	slli	x31,x31,0xc
    41015810:	005f8f93          	addi	x31,x31,5
    41015814:	00000073          	ecall

0000000041015818 <SID_ZICBO_006_passed>:
    41015818:	00f00f9b          	addiw	x31,x0,15
    4101581c:	01cf9f93          	slli	x31,x31,0x1c
    41015820:	001f8f93          	addi	x31,x31,1
    41015824:	00000073          	ecall

0000000041015828 <SID_ZICBO_013>:
    41015828:	0022d137          	lui	x2,0x22d
    4101582c:	d6b1011b          	addiw	x2,x2,-661 # 22cd6b <SID_ZICBO_50_ZIC64B_01_stack+0x3cd6b>
    41015830:	00e11113          	slli	x2,x2,0xe
    41015834:	000012b7          	lui	x5,0x1
    41015838:	00510133          	add	x2,x2,x5
    4101583c:	ff017113          	andi	x2,x2,-16
    41015840:	00a77337          	lui	x6,0xa77
    41015844:	f233031b          	addiw	x6,x6,-221 # a76f23 <mem12+0x1aef23>
    41015848:	00c31313          	slli	x6,x6,0xc
    4101584c:	00000613          	li	x12,0
    41015850:	00c30933          	add	x18,x6,x12
    41015854:	00096013          	prefetch.i	0(x18)
    41015858:	00a776b7          	lui	x13,0xa77
    4101585c:	f236869b          	addiw	x13,x13,-221 # a76f23 <mem12+0x1aef23>
    41015860:	00c69693          	slli	x13,x13,0xc
    41015864:	00000593          	li	x11,0
    41015868:	00b68db3          	add	x27,x13,x11
    4101586c:	001de013          	prefetch.r	0(x27)
    41015870:	00a77e37          	lui	x28,0xa77
    41015874:	f23e0e1b          	addiw	x28,x28,-221 # a76f23 <mem12+0x1aef23>
    41015878:	00ce1e13          	slli	x28,x28,0xc
    4101587c:	00000b13          	li	x22,0
    41015880:	016e0f33          	add	x30,x28,x22
    41015884:	003f6013          	prefetch.w	0(x30)

0000000041015888 <SID_ZICBO_013_passed>:
    41015888:	00f00f9b          	addiw	x31,x0,15
    4101588c:	01cf9f93          	slli	x31,x31,0x1c
    41015890:	001f8f93          	addi	x31,x31,1
    41015894:	00000073          	ecall

0000000041015898 <SID_ZICBO_015>:
    41015898:	00413137          	lui	x2,0x413
    4101589c:	ab31011b          	addiw	x2,x2,-1357 # 412ab3 <SID_ZICBO_50_ZIC64B_01_stack+0x222ab3>
    410158a0:	00d11113          	slli	x2,x2,0xd
    410158a4:	000012b7          	lui	x5,0x1
    410158a8:	00510133          	add	x2,x2,x5
    410158ac:	ff017113          	andi	x2,x2,-16
    410158b0:	00702db7          	lui	x27,0x702
    410158b4:	61fd8d9b          	addiw	x27,x27,1567 # 70261f <mem0+0x3f61f>
    410158b8:	00cd9d93          	slli	x27,x27,0xc
    410158bc:	7e000b93          	li	x23,2016
    410158c0:	017d85b3          	add	x11,x27,x23
    410158c4:	0005e013          	prefetch.i	0(x11)

00000000410158c8 <SID_ZICBO_015_passed>:
    410158c8:	00f00f9b          	addiw	x31,x0,15
    410158cc:	01cf9f93          	slli	x31,x31,0x1c
    410158d0:	001f8f93          	addi	x31,x31,1
    410158d4:	00000073          	ecall

00000000410158d8 <SID_ZICBO_016>:
    410158d8:	1fe9d137          	lui	x2,0x1fe9d
    410158dc:	000012b7          	lui	x5,0x1
    410158e0:	00510133          	add	x2,x2,x5
    410158e4:	ff017113          	andi	x2,x2,-16
    410158e8:	00002a37          	lui	x20,0x2
    410158ec:	00000993          	li	x19,0
    410158f0:	013a0fb3          	add	x31,x20,x19
    410158f4:	001fe013          	prefetch.r	0(x31)
    410158f8:	00002c37          	lui	x24,0x2
    410158fc:	7e000f93          	li	x31,2016
    41015900:	01fc08b3          	add	x17,x24,x31
    41015904:	0018e013          	prefetch.r	0(x17)
    41015908:	000028b7          	lui	x17,0x2
    4101590c:	00000e13          	li	x28,0
    41015910:	01c88933          	add	x18,x17,x28
    41015914:	00396013          	prefetch.w	0(x18)
    41015918:	00002ab7          	lui	x21,0x2
    4101591c:	7e000d13          	li	x26,2016
    41015920:	01aa85b3          	add	x11,x21,x26
    41015924:	0035e013          	prefetch.w	0(x11)

0000000041015928 <SID_ZICBO_016_passed>:
    41015928:	00f00f9b          	addiw	x31,x0,15
    4101592c:	01cf9f93          	slli	x31,x31,0x1c
    41015930:	001f8f93          	addi	x31,x31,1
    41015934:	00000073          	ecall

0000000041015938 <SID_ZICBO_017>:
    41015938:	000f9137          	lui	x2,0xf9
    4101593c:	01066fb7          	lui	x31,0x1066
    41015940:	0b8f8f9b          	addiw	x31,x31,184 # 10660b8 <machine_csr_jump_table_flags>
    41015944:	01300f13          	li	x30,19
    41015948:	01efb023          	sd	x30,0(x31)
    4101594c:	000f0fb7          	lui	x31,0xf0
    41015950:	001f8f9b          	addiw	x31,x31,1 # f0001 <__section_data_1+0x19001>
    41015954:	00cf9f93          	slli	x31,x31,0xc
    41015958:	005f8f93          	addi	x31,x31,5
    4101595c:	00000073          	ecall
    41015960:	00713023          	sd	x7,0(x2) # f9000 <tp_csr_storage>
    41015964:	01066fb7          	lui	x31,0x1066
    41015968:	0b8f8f9b          	addiw	x31,x31,184 # 10660b8 <machine_csr_jump_table_flags>
    4101596c:	00100f13          	li	x30,1
    41015970:	01efb023          	sd	x30,0(x31)
    41015974:	000f0fb7          	lui	x31,0xf0
    41015978:	001f8f9b          	addiw	x31,x31,1 # f0001 <__section_data_1+0x19001>
    4101597c:	00cf9f93          	slli	x31,x31,0xc
    41015980:	005f8f93          	addi	x31,x31,5
    41015984:	00000073          	ecall
    41015988:	00713423          	sd	x7,8(x2)
    4101598c:	01066fb7          	lui	x31,0x1066
    41015990:	0b8f8f9b          	addiw	x31,x31,184 # 10660b8 <machine_csr_jump_table_flags>
    41015994:	00400f13          	li	x30,4
    41015998:	01efb023          	sd	x30,0(x31)
    4101599c:	000f0fb7          	lui	x31,0xf0
    410159a0:	001f8f9b          	addiw	x31,x31,1 # f0001 <__section_data_1+0x19001>
    410159a4:	00cf9f93          	slli	x31,x31,0xc
    410159a8:	005f8f93          	addi	x31,x31,5
    410159ac:	00000073          	ecall
    410159b0:	00713823          	sd	x7,16(x2)
    410159b4:	0019d137          	lui	x2,0x19d
    410159b8:	000012b7          	lui	x5,0x1
    410159bc:	00510133          	add	x2,x2,x5
    410159c0:	ff017113          	andi	x2,x2,-16
    410159c4:	08000393          	li	x7,128
    410159c8:	01066fb7          	lui	x31,0x1066
    410159cc:	0b8f8f9b          	addiw	x31,x31,184 # 10660b8 <machine_csr_jump_table_flags>
    410159d0:	01600f13          	li	x30,22
    410159d4:	01efb023          	sd	x30,0(x31)
    410159d8:	000f0fb7          	lui	x31,0xf0
    410159dc:	001f8f9b          	addiw	x31,x31,1 # f0001 <__section_data_1+0x19001>
    410159e0:	00cf9f93          	slli	x31,x31,0xc
    410159e4:	005f8f93          	addi	x31,x31,5
    410159e8:	00000073          	ecall
    410159ec:	08000393          	li	x7,128
    410159f0:	01066fb7          	lui	x31,0x1066
    410159f4:	0c0f8f9b          	addiw	x31,x31,192 # 10660c0 <super_csr_jump_table_flags>
    410159f8:	01700f13          	li	x30,23
    410159fc:	01efb023          	sd	x30,0(x31)
    41015a00:	000f0fb7          	lui	x31,0xf0
    41015a04:	001f8f9b          	addiw	x31,x31,1 # f0001 <__section_data_1+0x19001>
    41015a08:	00cf9f93          	slli	x31,x31,0xc
    41015a0c:	006f8f93          	addi	x31,x31,6
    41015a10:	00000073          	ecall
    41015a14:	08000393          	li	x7,128
    41015a18:	01066fb7          	lui	x31,0x1066
    41015a1c:	0c0f8f9b          	addiw	x31,x31,192 # 10660c0 <super_csr_jump_table_flags>
    41015a20:	01800f13          	li	x30,24
    41015a24:	01efb023          	sd	x30,0(x31)
    41015a28:	000f0fb7          	lui	x31,0xf0
    41015a2c:	001f8f9b          	addiw	x31,x31,1 # f0001 <__section_data_1+0x19001>
    41015a30:	00cf9f93          	slli	x31,x31,0xc
    41015a34:	006f8f93          	addi	x31,x31,6
    41015a38:	00000073          	ecall
    41015a3c:	40b4ffb7          	lui	x31,0x40b4f
    41015a40:	00000993          	li	x19,0
    41015a44:	013f8f33          	add	x30,x31,x19
    41015a48:	004f200f          	cbo.zero	(x30)
    41015a4c:	000f9137          	lui	x2,0xf9
    41015a50:	00013383          	ld	x7,0(x2) # f9000 <tp_csr_storage>
    41015a54:	01066fb7          	lui	x31,0x1066
    41015a58:	0b8f8f9b          	addiw	x31,x31,184 # 10660b8 <machine_csr_jump_table_flags>
    41015a5c:	01900f13          	li	x30,25
    41015a60:	01efb023          	sd	x30,0(x31)
    41015a64:	000f0fb7          	lui	x31,0xf0
    41015a68:	001f8f9b          	addiw	x31,x31,1 # f0001 <__section_data_1+0x19001>
    41015a6c:	00cf9f93          	slli	x31,x31,0xc
    41015a70:	005f8f93          	addi	x31,x31,5
    41015a74:	00000073          	ecall
    41015a78:	00813383          	ld	x7,8(x2)
    41015a7c:	01066fb7          	lui	x31,0x1066
    41015a80:	0b8f8f9b          	addiw	x31,x31,184 # 10660b8 <machine_csr_jump_table_flags>
    41015a84:	00300f13          	li	x30,3
    41015a88:	01efb023          	sd	x30,0(x31)
    41015a8c:	000f0fb7          	lui	x31,0xf0
    41015a90:	001f8f9b          	addiw	x31,x31,1 # f0001 <__section_data_1+0x19001>
    41015a94:	00cf9f93          	slli	x31,x31,0xc
    41015a98:	005f8f93          	addi	x31,x31,5
    41015a9c:	00000073          	ecall
    41015aa0:	01013383          	ld	x7,16(x2)
    41015aa4:	01066fb7          	lui	x31,0x1066
    41015aa8:	0b8f8f9b          	addiw	x31,x31,184 # 10660b8 <machine_csr_jump_table_flags>
    41015aac:	00600f13          	li	x30,6
    41015ab0:	01efb023          	sd	x30,0(x31)
    41015ab4:	000f0fb7          	lui	x31,0xf0
    41015ab8:	001f8f9b          	addiw	x31,x31,1 # f0001 <__section_data_1+0x19001>
    41015abc:	00cf9f93          	slli	x31,x31,0xc
    41015ac0:	005f8f93          	addi	x31,x31,5
    41015ac4:	00000073          	ecall

0000000041015ac8 <SID_ZICBO_017_passed>:
    41015ac8:	00f00f9b          	addiw	x31,x0,15
    41015acc:	01cf9f93          	slli	x31,x31,0x1c
    41015ad0:	001f8f93          	addi	x31,x31,1
    41015ad4:	00000073          	ecall

0000000041015ad8 <SID_ZICBO_018>:
    41015ad8:	000f9137          	lui	x2,0xf9
    41015adc:	01066fb7          	lui	x31,0x1066
    41015ae0:	0b8f8f9b          	addiw	x31,x31,184 # 10660b8 <machine_csr_jump_table_flags>
    41015ae4:	01300f13          	li	x30,19
    41015ae8:	01efb023          	sd	x30,0(x31)
    41015aec:	000f0fb7          	lui	x31,0xf0
    41015af0:	001f8f9b          	addiw	x31,x31,1 # f0001 <__section_data_1+0x19001>
    41015af4:	00cf9f93          	slli	x31,x31,0xc
    41015af8:	005f8f93          	addi	x31,x31,5
    41015afc:	00000073          	ecall
    41015b00:	00713023          	sd	x7,0(x2) # f9000 <tp_csr_storage>
    41015b04:	01066fb7          	lui	x31,0x1066
    41015b08:	0b8f8f9b          	addiw	x31,x31,184 # 10660b8 <machine_csr_jump_table_flags>
    41015b0c:	00100f13          	li	x30,1
    41015b10:	01efb023          	sd	x30,0(x31)
    41015b14:	000f0fb7          	lui	x31,0xf0
    41015b18:	001f8f9b          	addiw	x31,x31,1 # f0001 <__section_data_1+0x19001>
    41015b1c:	00cf9f93          	slli	x31,x31,0xc
    41015b20:	005f8f93          	addi	x31,x31,5
    41015b24:	00000073          	ecall
    41015b28:	00713423          	sd	x7,8(x2)
    41015b2c:	01066fb7          	lui	x31,0x1066
    41015b30:	0b8f8f9b          	addiw	x31,x31,184 # 10660b8 <machine_csr_jump_table_flags>
    41015b34:	00400f13          	li	x30,4
    41015b38:	01efb023          	sd	x30,0(x31)
    41015b3c:	000f0fb7          	lui	x31,0xf0
    41015b40:	001f8f9b          	addiw	x31,x31,1 # f0001 <__section_data_1+0x19001>
    41015b44:	00cf9f93          	slli	x31,x31,0xc
    41015b48:	005f8f93          	addi	x31,x31,5
    41015b4c:	00000073          	ecall
    41015b50:	00713823          	sd	x7,16(x2)
    41015b54:	0003a137          	lui	x2,0x3a
    41015b58:	000012b7          	lui	x5,0x1
    41015b5c:	00510133          	add	x2,x2,x5
    41015b60:	ff017113          	andi	x2,x2,-16
    41015b64:	0f000393          	li	x7,240
    41015b68:	01066fb7          	lui	x31,0x1066
    41015b6c:	0b8f8f9b          	addiw	x31,x31,184 # 10660b8 <machine_csr_jump_table_flags>
    41015b70:	01600f13          	li	x30,22
    41015b74:	01efb023          	sd	x30,0(x31)
    41015b78:	000f0fb7          	lui	x31,0xf0
    41015b7c:	001f8f9b          	addiw	x31,x31,1 # f0001 <__section_data_1+0x19001>
    41015b80:	00cf9f93          	slli	x31,x31,0xc
    41015b84:	005f8f93          	addi	x31,x31,5
    41015b88:	00000073          	ecall
    41015b8c:	0f000393          	li	x7,240
    41015b90:	01066fb7          	lui	x31,0x1066
    41015b94:	0c0f8f9b          	addiw	x31,x31,192 # 10660c0 <super_csr_jump_table_flags>
    41015b98:	01700f13          	li	x30,23
    41015b9c:	01efb023          	sd	x30,0(x31)
    41015ba0:	000f0fb7          	lui	x31,0xf0
    41015ba4:	001f8f9b          	addiw	x31,x31,1 # f0001 <__section_data_1+0x19001>
    41015ba8:	00cf9f93          	slli	x31,x31,0xc
    41015bac:	006f8f93          	addi	x31,x31,6
    41015bb0:	00000073          	ecall
    41015bb4:	0f000393          	li	x7,240
    41015bb8:	01066fb7          	lui	x31,0x1066
    41015bbc:	0c0f8f9b          	addiw	x31,x31,192 # 10660c0 <super_csr_jump_table_flags>
    41015bc0:	01800f13          	li	x30,24
    41015bc4:	01efb023          	sd	x30,0(x31)
    41015bc8:	000f0fb7          	lui	x31,0xf0
    41015bcc:	001f8f9b          	addiw	x31,x31,1 # f0001 <__section_data_1+0x19001>
    41015bd0:	00cf9f93          	slli	x31,x31,0xc
    41015bd4:	006f8f93          	addi	x31,x31,6
    41015bd8:	00000073          	ecall
    41015bdc:	0000db37          	lui	x22,0xd
    41015be0:	761ec7b7          	lui	x15,0x761ec
    41015be4:	fd57879b          	addiw	x15,x15,-43 # 761ebfd5 <pma_region_2_end+0x311aafd5>
    41015be8:	d2178f53          	fcvt.d.wu	f30,x15
    41015bec:	01eb2027          	fsw	f30,0(x22) # d000 <mem10>
    41015bf0:	0000dc37          	lui	x24,0xd
    41015bf4:	00000d13          	li	x26,0
    41015bf8:	01ac0db3          	add	x27,x24,x26
    41015bfc:	004da00f          	cbo.zero	(x27)
    41015c00:	0000ddb7          	lui	x27,0xd
    41015c04:	000da983          	lw	x19,0(x27) # d000 <mem10>
    41015c08:	01398a63          	beq	x19,x19,41015c1c <pass_label_0>
    41015c0c:	01066b37          	lui	x22,0x1066
    41015c10:	008b0b1b          	addiw	x22,x22,8 # 1066008 <failed_addr>
    41015c14:	000b3c83          	ld	x25,0(x22)
    41015c18:	000c8067          	jr	x25

0000000041015c1c <pass_label_0>:
    41015c1c:	000f9137          	lui	x2,0xf9
    41015c20:	00013383          	ld	x7,0(x2) # f9000 <tp_csr_storage>
    41015c24:	01066fb7          	lui	x31,0x1066
    41015c28:	0b8f8f9b          	addiw	x31,x31,184 # 10660b8 <machine_csr_jump_table_flags>
    41015c2c:	01900f13          	li	x30,25
    41015c30:	01efb023          	sd	x30,0(x31)
    41015c34:	000f0fb7          	lui	x31,0xf0
    41015c38:	001f8f9b          	addiw	x31,x31,1 # f0001 <__section_data_1+0x19001>
    41015c3c:	00cf9f93          	slli	x31,x31,0xc
    41015c40:	005f8f93          	addi	x31,x31,5
    41015c44:	00000073          	ecall
    41015c48:	00813383          	ld	x7,8(x2)
    41015c4c:	01066fb7          	lui	x31,0x1066
    41015c50:	0b8f8f9b          	addiw	x31,x31,184 # 10660b8 <machine_csr_jump_table_flags>
    41015c54:	00300f13          	li	x30,3
    41015c58:	01efb023          	sd	x30,0(x31)
    41015c5c:	000f0fb7          	lui	x31,0xf0
    41015c60:	001f8f9b          	addiw	x31,x31,1 # f0001 <__section_data_1+0x19001>
    41015c64:	00cf9f93          	slli	x31,x31,0xc
    41015c68:	005f8f93          	addi	x31,x31,5
    41015c6c:	00000073          	ecall
    41015c70:	01013383          	ld	x7,16(x2)
    41015c74:	01066fb7          	lui	x31,0x1066
    41015c78:	0b8f8f9b          	addiw	x31,x31,184 # 10660b8 <machine_csr_jump_table_flags>
    41015c7c:	00600f13          	li	x30,6
    41015c80:	01efb023          	sd	x30,0(x31)
    41015c84:	000f0fb7          	lui	x31,0xf0
    41015c88:	001f8f9b          	addiw	x31,x31,1 # f0001 <__section_data_1+0x19001>
    41015c8c:	00cf9f93          	slli	x31,x31,0xc
    41015c90:	005f8f93          	addi	x31,x31,5
    41015c94:	00000073          	ecall

0000000041015c98 <SID_ZICBO_018_passed>:
    41015c98:	00f00f9b          	addiw	x31,x0,15
    41015c9c:	01cf9f93          	slli	x31,x31,0x1c
    41015ca0:	001f8f93          	addi	x31,x31,1
    41015ca4:	00000073          	ecall

0000000041015ca8 <SID_ZICBO_019>:
    41015ca8:	000f9137          	lui	x2,0xf9
    41015cac:	01066fb7          	lui	x31,0x1066
    41015cb0:	0b8f8f9b          	addiw	x31,x31,184 # 10660b8 <machine_csr_jump_table_flags>
    41015cb4:	01300f13          	li	x30,19
    41015cb8:	01efb023          	sd	x30,0(x31)
    41015cbc:	000f0fb7          	lui	x31,0xf0
    41015cc0:	001f8f9b          	addiw	x31,x31,1 # f0001 <__section_data_1+0x19001>
    41015cc4:	00cf9f93          	slli	x31,x31,0xc
    41015cc8:	005f8f93          	addi	x31,x31,5
    41015ccc:	00000073          	ecall
    41015cd0:	00713023          	sd	x7,0(x2) # f9000 <tp_csr_storage>
    41015cd4:	01066fb7          	lui	x31,0x1066
    41015cd8:	0b8f8f9b          	addiw	x31,x31,184 # 10660b8 <machine_csr_jump_table_flags>
    41015cdc:	00100f13          	li	x30,1
    41015ce0:	01efb023          	sd	x30,0(x31)
    41015ce4:	000f0fb7          	lui	x31,0xf0
    41015ce8:	001f8f9b          	addiw	x31,x31,1 # f0001 <__section_data_1+0x19001>
    41015cec:	00cf9f93          	slli	x31,x31,0xc
    41015cf0:	005f8f93          	addi	x31,x31,5
    41015cf4:	00000073          	ecall
    41015cf8:	00713423          	sd	x7,8(x2)
    41015cfc:	01066fb7          	lui	x31,0x1066
    41015d00:	0b8f8f9b          	addiw	x31,x31,184 # 10660b8 <machine_csr_jump_table_flags>
    41015d04:	00400f13          	li	x30,4
    41015d08:	01efb023          	sd	x30,0(x31)
    41015d0c:	000f0fb7          	lui	x31,0xf0
    41015d10:	001f8f9b          	addiw	x31,x31,1 # f0001 <__section_data_1+0x19001>
    41015d14:	00cf9f93          	slli	x31,x31,0xc
    41015d18:	005f8f93          	addi	x31,x31,5
    41015d1c:	00000073          	ecall
    41015d20:	00713823          	sd	x7,16(x2)
    41015d24:	0232f137          	lui	x2,0x232f
    41015d28:	9771011b          	addiw	x2,x2,-1673 # 232e977 <__section_os_data_1+0x12c7977>
    41015d2c:	00c11113          	slli	x2,x2,0xc
    41015d30:	000012b7          	lui	x5,0x1
    41015d34:	00510133          	add	x2,x2,x5
    41015d38:	ff017113          	andi	x2,x2,-16
    41015d3c:	0f000393          	li	x7,240
    41015d40:	01066fb7          	lui	x31,0x1066
    41015d44:	0b8f8f9b          	addiw	x31,x31,184 # 10660b8 <machine_csr_jump_table_flags>
    41015d48:	01600f13          	li	x30,22
    41015d4c:	01efb023          	sd	x30,0(x31)
    41015d50:	000f0fb7          	lui	x31,0xf0
    41015d54:	001f8f9b          	addiw	x31,x31,1 # f0001 <__section_data_1+0x19001>
    41015d58:	00cf9f93          	slli	x31,x31,0xc
    41015d5c:	005f8f93          	addi	x31,x31,5
    41015d60:	00000073          	ecall
    41015d64:	0f000393          	li	x7,240
    41015d68:	01066fb7          	lui	x31,0x1066
    41015d6c:	0c0f8f9b          	addiw	x31,x31,192 # 10660c0 <super_csr_jump_table_flags>
    41015d70:	01700f13          	li	x30,23
    41015d74:	01efb023          	sd	x30,0(x31)
    41015d78:	000f0fb7          	lui	x31,0xf0
    41015d7c:	001f8f9b          	addiw	x31,x31,1 # f0001 <__section_data_1+0x19001>
    41015d80:	00cf9f93          	slli	x31,x31,0xc
    41015d84:	006f8f93          	addi	x31,x31,6
    41015d88:	00000073          	ecall
    41015d8c:	0f000393          	li	x7,240
    41015d90:	01066fb7          	lui	x31,0x1066
    41015d94:	0c0f8f9b          	addiw	x31,x31,192 # 10660c0 <super_csr_jump_table_flags>
    41015d98:	01800f13          	li	x30,24
    41015d9c:	01efb023          	sd	x30,0(x31)
    41015da0:	000f0fb7          	lui	x31,0xf0
    41015da4:	001f8f9b          	addiw	x31,x31,1 # f0001 <__section_data_1+0x19001>
    41015da8:	00cf9f93          	slli	x31,x31,0xc
    41015dac:	006f8f93          	addi	x31,x31,6
    41015db0:	00000073          	ecall
    41015db4:	00004cb7          	lui	x25,0x4
    41015db8:	59cc6fb7          	lui	x31,0x59cc6
    41015dbc:	0b4f8f9b          	addiw	x31,x31,180 # 59cc60b4 <pma_region_2_end+0x14c850b4>
    41015dc0:	01fca023          	sw	x31,0(x25) # 4000 <mem11>
    41015dc4:	00004c37          	lui	x24,0x4
    41015dc8:	00000c93          	li	x25,0
    41015dcc:	019c0ab3          	add	x21,x24,x25
    41015dd0:	004aa00f          	cbo.zero	(x21)
    41015dd4:	00004bb7          	lui	x23,0x4
    41015dd8:	000baf83          	lw	x31,0(x23) # 4000 <mem11>
    41015ddc:	008c8737          	lui	x14,0x8c8
    41015de0:	00072903          	lw	x18,0(x14) # 8c8000 <mem12>
    41015de4:	01ff8a63          	beq	x31,x31,41015df8 <pass_label_1>
    41015de8:	01066bb7          	lui	x23,0x1066
    41015dec:	008b8b9b          	addiw	x23,x23,8 # 1066008 <failed_addr>
    41015df0:	000bb603          	ld	x12,0(x23)
    41015df4:	00060067          	jr	x12 # 5e51000 <mem5>

0000000041015df8 <pass_label_1>:
    41015df8:	01290a63          	beq	x18,x18,41015e0c <pass_label_2>
    41015dfc:	01066cb7          	lui	x25,0x1066
    41015e00:	008c8c9b          	addiw	x25,x25,8 # 1066008 <failed_addr>
    41015e04:	000cb883          	ld	x17,0(x25)
    41015e08:	00088067          	jr	x17 # 2000 <mem8>

0000000041015e0c <pass_label_2>:
    41015e0c:	000f9137          	lui	x2,0xf9
    41015e10:	00013383          	ld	x7,0(x2) # f9000 <tp_csr_storage>
    41015e14:	01066fb7          	lui	x31,0x1066
    41015e18:	0b8f8f9b          	addiw	x31,x31,184 # 10660b8 <machine_csr_jump_table_flags>
    41015e1c:	01900f13          	li	x30,25
    41015e20:	01efb023          	sd	x30,0(x31)
    41015e24:	000f0fb7          	lui	x31,0xf0
    41015e28:	001f8f9b          	addiw	x31,x31,1 # f0001 <__section_data_1+0x19001>
    41015e2c:	00cf9f93          	slli	x31,x31,0xc
    41015e30:	005f8f93          	addi	x31,x31,5
    41015e34:	00000073          	ecall
    41015e38:	00813383          	ld	x7,8(x2)
    41015e3c:	01066fb7          	lui	x31,0x1066
    41015e40:	0b8f8f9b          	addiw	x31,x31,184 # 10660b8 <machine_csr_jump_table_flags>
    41015e44:	00300f13          	li	x30,3
    41015e48:	01efb023          	sd	x30,0(x31)
    41015e4c:	000f0fb7          	lui	x31,0xf0
    41015e50:	001f8f9b          	addiw	x31,x31,1 # f0001 <__section_data_1+0x19001>
    41015e54:	00cf9f93          	slli	x31,x31,0xc
    41015e58:	005f8f93          	addi	x31,x31,5
    41015e5c:	00000073          	ecall
    41015e60:	01013383          	ld	x7,16(x2)
    41015e64:	01066fb7          	lui	x31,0x1066
    41015e68:	0b8f8f9b          	addiw	x31,x31,184 # 10660b8 <machine_csr_jump_table_flags>
    41015e6c:	00600f13          	li	x30,6
    41015e70:	01efb023          	sd	x30,0(x31)
    41015e74:	000f0fb7          	lui	x31,0xf0
    41015e78:	001f8f9b          	addiw	x31,x31,1 # f0001 <__section_data_1+0x19001>
    41015e7c:	00cf9f93          	slli	x31,x31,0xc
    41015e80:	005f8f93          	addi	x31,x31,5
    41015e84:	00000073          	ecall

0000000041015e88 <SID_ZICBO_019_passed>:
    41015e88:	00f00f9b          	addiw	x31,x0,15
    41015e8c:	01cf9f93          	slli	x31,x31,0x1c
    41015e90:	001f8f93          	addi	x31,x31,1
    41015e94:	00000073          	ecall

0000000041015e98 <SID_ZICBO_020>:
    41015e98:	000f9137          	lui	x2,0xf9
    41015e9c:	01066fb7          	lui	x31,0x1066
    41015ea0:	0b8f8f9b          	addiw	x31,x31,184 # 10660b8 <machine_csr_jump_table_flags>
    41015ea4:	01300f13          	li	x30,19
    41015ea8:	01efb023          	sd	x30,0(x31)
    41015eac:	000f0fb7          	lui	x31,0xf0
    41015eb0:	001f8f9b          	addiw	x31,x31,1 # f0001 <__section_data_1+0x19001>
    41015eb4:	00cf9f93          	slli	x31,x31,0xc
    41015eb8:	005f8f93          	addi	x31,x31,5
    41015ebc:	00000073          	ecall
    41015ec0:	00713023          	sd	x7,0(x2) # f9000 <tp_csr_storage>
    41015ec4:	01066fb7          	lui	x31,0x1066
    41015ec8:	0b8f8f9b          	addiw	x31,x31,184 # 10660b8 <machine_csr_jump_table_flags>
    41015ecc:	00100f13          	li	x30,1
    41015ed0:	01efb023          	sd	x30,0(x31)
    41015ed4:	000f0fb7          	lui	x31,0xf0
    41015ed8:	001f8f9b          	addiw	x31,x31,1 # f0001 <__section_data_1+0x19001>
    41015edc:	00cf9f93          	slli	x31,x31,0xc
    41015ee0:	005f8f93          	addi	x31,x31,5
    41015ee4:	00000073          	ecall
    41015ee8:	00713423          	sd	x7,8(x2)
    41015eec:	01066fb7          	lui	x31,0x1066
    41015ef0:	0b8f8f9b          	addiw	x31,x31,184 # 10660b8 <machine_csr_jump_table_flags>
    41015ef4:	00400f13          	li	x30,4
    41015ef8:	01efb023          	sd	x30,0(x31)
    41015efc:	000f0fb7          	lui	x31,0xf0
    41015f00:	001f8f9b          	addiw	x31,x31,1 # f0001 <__section_data_1+0x19001>
    41015f04:	00cf9f93          	slli	x31,x31,0xc
    41015f08:	005f8f93          	addi	x31,x31,5
    41015f0c:	00000073          	ecall
    41015f10:	00713823          	sd	x7,16(x2)
    41015f14:	fff75137          	lui	x2,0xfff75
    41015f18:	8711011b          	addiw	x2,x2,-1935 # fffffffffff74871 <SID_ZICBO_002_stack+0x333f67871>
    41015f1c:	00f11113          	slli	x2,x2,0xf
    41015f20:	000012b7          	lui	x5,0x1
    41015f24:	00510133          	add	x2,x2,x5
    41015f28:	ff017113          	andi	x2,x2,-16
    41015f2c:	0f000393          	li	x7,240
    41015f30:	01066fb7          	lui	x31,0x1066
    41015f34:	0b8f8f9b          	addiw	x31,x31,184 # 10660b8 <machine_csr_jump_table_flags>
    41015f38:	01600f13          	li	x30,22
    41015f3c:	01efb023          	sd	x30,0(x31)
    41015f40:	000f0fb7          	lui	x31,0xf0
    41015f44:	001f8f9b          	addiw	x31,x31,1 # f0001 <__section_data_1+0x19001>
    41015f48:	00cf9f93          	slli	x31,x31,0xc
    41015f4c:	005f8f93          	addi	x31,x31,5
    41015f50:	00000073          	ecall
    41015f54:	0f000393          	li	x7,240
    41015f58:	01066fb7          	lui	x31,0x1066
    41015f5c:	0c0f8f9b          	addiw	x31,x31,192 # 10660c0 <super_csr_jump_table_flags>
    41015f60:	01700f13          	li	x30,23
    41015f64:	01efb023          	sd	x30,0(x31)
    41015f68:	000f0fb7          	lui	x31,0xf0
    41015f6c:	001f8f9b          	addiw	x31,x31,1 # f0001 <__section_data_1+0x19001>
    41015f70:	00cf9f93          	slli	x31,x31,0xc
    41015f74:	006f8f93          	addi	x31,x31,6
    41015f78:	00000073          	ecall
    41015f7c:	0f000393          	li	x7,240
    41015f80:	01066fb7          	lui	x31,0x1066
    41015f84:	0c0f8f9b          	addiw	x31,x31,192 # 10660c0 <super_csr_jump_table_flags>
    41015f88:	01800f13          	li	x30,24
    41015f8c:	01efb023          	sd	x30,0(x31)
    41015f90:	000f0fb7          	lui	x31,0xf0
    41015f94:	001f8f9b          	addiw	x31,x31,1 # f0001 <__section_data_1+0x19001>
    41015f98:	00cf9f93          	slli	x31,x31,0xc
    41015f9c:	006f8f93          	addi	x31,x31,6
    41015fa0:	00000073          	ecall
    41015fa4:	00014837          	lui	x16,0x14
    41015fa8:	4f3f8f37          	lui	x30,0x4f3f8
    41015fac:	77af0f1b          	addiw	x30,x30,1914 # 4f3f877a <pma_region_2_end+0xa3b777a>
    41015fb0:	01e820a3          	sw	x30,1(x16) # 14001 <mem13+0x1>
    41015fb4:	00014c37          	lui	x24,0x14
    41015fb8:	00000d13          	li	x26,0
    41015fbc:	01ac0cb3          	add	x25,x24,x26
    41015fc0:	004ca00f          	cbo.zero	(x25)
    41015fc4:	00014db7          	lui	x27,0x14
    41015fc8:	000da803          	lw	x16,0(x27) # 14000 <mem13>
    41015fcc:	003693b7          	lui	x7,0x369
    41015fd0:	2453839b          	addiw	x7,x7,581 # 369245 <SID_ZICBO_50_ZIC64B_01_stack+0x179245>
    41015fd4:	00c39393          	slli	x7,x7,0xc
    41015fd8:	0003af83          	lw	x31,0(x7)
    41015fdc:	01080a63          	beq	x16,x16,41015ff0 <pass_label_3>
    41015fe0:	01066ab7          	lui	x21,0x1066
    41015fe4:	008a8a9b          	addiw	x21,x21,8 # 1066008 <failed_addr>
    41015fe8:	000ab883          	ld	x17,0(x21)
    41015fec:	00088067          	jr	x17

0000000041015ff0 <pass_label_3>:
    41015ff0:	01ff8a63          	beq	x31,x31,41016004 <pass_label_4>
    41015ff4:	01066ab7          	lui	x21,0x1066
    41015ff8:	008a8a9b          	addiw	x21,x21,8 # 1066008 <failed_addr>
    41015ffc:	000ab683          	ld	x13,0(x21)
    41016000:	00068067          	jr	x13

0000000041016004 <pass_label_4>:
    41016004:	000f9137          	lui	x2,0xf9
    41016008:	00013383          	ld	x7,0(x2) # f9000 <tp_csr_storage>
    4101600c:	01066fb7          	lui	x31,0x1066
    41016010:	0b8f8f9b          	addiw	x31,x31,184 # 10660b8 <machine_csr_jump_table_flags>
    41016014:	01900f13          	li	x30,25
    41016018:	01efb023          	sd	x30,0(x31)
    4101601c:	000f0fb7          	lui	x31,0xf0
    41016020:	001f8f9b          	addiw	x31,x31,1 # f0001 <__section_data_1+0x19001>
    41016024:	00cf9f93          	slli	x31,x31,0xc
    41016028:	005f8f93          	addi	x31,x31,5
    4101602c:	00000073          	ecall
    41016030:	00813383          	ld	x7,8(x2)
    41016034:	01066fb7          	lui	x31,0x1066
    41016038:	0b8f8f9b          	addiw	x31,x31,184 # 10660b8 <machine_csr_jump_table_flags>
    4101603c:	00300f13          	li	x30,3
    41016040:	01efb023          	sd	x30,0(x31)
    41016044:	000f0fb7          	lui	x31,0xf0
    41016048:	001f8f9b          	addiw	x31,x31,1 # f0001 <__section_data_1+0x19001>
    4101604c:	00cf9f93          	slli	x31,x31,0xc
    41016050:	005f8f93          	addi	x31,x31,5
    41016054:	00000073          	ecall
    41016058:	01013383          	ld	x7,16(x2)
    4101605c:	01066fb7          	lui	x31,0x1066
    41016060:	0b8f8f9b          	addiw	x31,x31,184 # 10660b8 <machine_csr_jump_table_flags>
    41016064:	00600f13          	li	x30,6
    41016068:	01efb023          	sd	x30,0(x31)
    4101606c:	000f0fb7          	lui	x31,0xf0
    41016070:	001f8f9b          	addiw	x31,x31,1 # f0001 <__section_data_1+0x19001>
    41016074:	00cf9f93          	slli	x31,x31,0xc
    41016078:	005f8f93          	addi	x31,x31,5
    4101607c:	00000073          	ecall

0000000041016080 <SID_ZICBO_020_passed>:
    41016080:	00f00f9b          	addiw	x31,x0,15
    41016084:	01cf9f93          	slli	x31,x31,0x1c
    41016088:	001f8f93          	addi	x31,x31,1
    4101608c:	00000073          	ecall

0000000041016090 <SID_ZICBO_022>:
    41016090:	000f9137          	lui	x2,0xf9
    41016094:	01066fb7          	lui	x31,0x1066
    41016098:	0b8f8f9b          	addiw	x31,x31,184 # 10660b8 <machine_csr_jump_table_flags>
    4101609c:	01300f13          	li	x30,19
    410160a0:	01efb023          	sd	x30,0(x31)
    410160a4:	000f0fb7          	lui	x31,0xf0
    410160a8:	001f8f9b          	addiw	x31,x31,1 # f0001 <__section_data_1+0x19001>
    410160ac:	00cf9f93          	slli	x31,x31,0xc
    410160b0:	005f8f93          	addi	x31,x31,5
    410160b4:	00000073          	ecall
    410160b8:	00713023          	sd	x7,0(x2) # f9000 <tp_csr_storage>
    410160bc:	01066fb7          	lui	x31,0x1066
    410160c0:	0b8f8f9b          	addiw	x31,x31,184 # 10660b8 <machine_csr_jump_table_flags>
    410160c4:	00100f13          	li	x30,1
    410160c8:	01efb023          	sd	x30,0(x31)
    410160cc:	000f0fb7          	lui	x31,0xf0
    410160d0:	001f8f9b          	addiw	x31,x31,1 # f0001 <__section_data_1+0x19001>
    410160d4:	00cf9f93          	slli	x31,x31,0xc
    410160d8:	005f8f93          	addi	x31,x31,5
    410160dc:	00000073          	ecall
    410160e0:	00713423          	sd	x7,8(x2)
    410160e4:	01066fb7          	lui	x31,0x1066
    410160e8:	0b8f8f9b          	addiw	x31,x31,184 # 10660b8 <machine_csr_jump_table_flags>
    410160ec:	00400f13          	li	x30,4
    410160f0:	01efb023          	sd	x30,0(x31)
    410160f4:	000f0fb7          	lui	x31,0xf0
    410160f8:	001f8f9b          	addiw	x31,x31,1 # f0001 <__section_data_1+0x19001>
    410160fc:	00cf9f93          	slli	x31,x31,0xc
    41016100:	005f8f93          	addi	x31,x31,5
    41016104:	00000073          	ecall
    41016108:	00713823          	sd	x7,16(x2)
    4101610c:	40dde137          	lui	x2,0x40dde
    41016110:	000012b7          	lui	x5,0x1
    41016114:	00510133          	add	x2,x2,x5
    41016118:	ff017113          	andi	x2,x2,-16
    4101611c:	0f000393          	li	x7,240
    41016120:	01066fb7          	lui	x31,0x1066
    41016124:	0b8f8f9b          	addiw	x31,x31,184 # 10660b8 <machine_csr_jump_table_flags>
    41016128:	01600f13          	li	x30,22
    4101612c:	01efb023          	sd	x30,0(x31)
    41016130:	000f0fb7          	lui	x31,0xf0
    41016134:	001f8f9b          	addiw	x31,x31,1 # f0001 <__section_data_1+0x19001>
    41016138:	00cf9f93          	slli	x31,x31,0xc
    4101613c:	005f8f93          	addi	x31,x31,5
    41016140:	00000073          	ecall
    41016144:	0f000393          	li	x7,240
    41016148:	01066fb7          	lui	x31,0x1066
    4101614c:	0c0f8f9b          	addiw	x31,x31,192 # 10660c0 <super_csr_jump_table_flags>
    41016150:	01700f13          	li	x30,23
    41016154:	01efb023          	sd	x30,0(x31)
    41016158:	000f0fb7          	lui	x31,0xf0
    4101615c:	001f8f9b          	addiw	x31,x31,1 # f0001 <__section_data_1+0x19001>
    41016160:	00cf9f93          	slli	x31,x31,0xc
    41016164:	006f8f93          	addi	x31,x31,6
    41016168:	00000073          	ecall
    4101616c:	0f000393          	li	x7,240
    41016170:	01066fb7          	lui	x31,0x1066
    41016174:	0c0f8f9b          	addiw	x31,x31,192 # 10660c0 <super_csr_jump_table_flags>
    41016178:	01800f13          	li	x30,24
    4101617c:	01efb023          	sd	x30,0(x31)
    41016180:	000f0fb7          	lui	x31,0xf0
    41016184:	001f8f9b          	addiw	x31,x31,1 # f0001 <__section_data_1+0x19001>
    41016188:	00cf9f93          	slli	x31,x31,0xc
    4101618c:	006f8f93          	addi	x31,x31,6
    41016190:	00000073          	ecall
    41016194:	05e41237          	lui	x4,0x5e41
    41016198:	00f00e13          	li	x28,15
    4101619c:	05c23823          	sd	x28,80(x4) # 5e41050 <check_excp_expected_cause>
    410161a0:	00000e17          	auipc	x28,0x0
    410161a4:	05ce0e13          	addi	x28,x28,92 # 410161fc <fault_label_8>
    410161a8:	03c23023          	sd	x28,32(x4) # 20 <SECURE_ACCESS_PROBABILITY+0x2>
    410161ac:	00000e13          	li	x28,0
    410161b0:	05c23023          	sd	x28,64(x4) # 40 <XLEN>
    410161b4:	00000e13          	li	x28,0
    410161b8:	05c23423          	sd	x28,72(x4) # 48 <XLEN+0x8>
    410161bc:	00000e17          	auipc	x28,0x0
    410161c0:	054e0e13          	addi	x28,x28,84 # 41016210 <excp_return_label_8>
    410161c4:	03c23823          	sd	x28,48(x4) # 30 <SECURE_ACCESS_PROBABILITY+0x12>
    410161c8:	00000e13          	li	x28,0
    410161cc:	03c23c23          	sd	x28,56(x4) # 38 <SECURE_ACCESS_PROBABILITY+0x1a>
    410161d0:	00000e13          	li	x28,0
    410161d4:	07c23023          	sd	x28,96(x4) # 60 <XLEN+0x20>
    410161d8:	00000e13          	li	x28,0
    410161dc:	07c23423          	sd	x28,104(x4) # 68 <XLEN+0x28>
    410161e0:	00000e13          	li	x28,0
    410161e4:	07c23823          	sd	x28,112(x4) # 70 <XLEN+0x30>
    410161e8:	000a6b37          	lui	x22,0xa6
    410161ec:	2abb0b1b          	addiw	x22,x22,683 # a62ab <pma_region_0_size+0x662ab>
    410161f0:	00cb1b13          	slli	x22,x22,0xc
    410161f4:	00000c13          	li	x24,0
    410161f8:	018b0933          	add	x18,x22,x24

00000000410161fc <fault_label_8>:
    410161fc:	0049200f          	cbo.zero	(x18)
    41016200:	01066fb7          	lui	x31,0x1066
    41016204:	008f8f9b          	addiw	x31,x31,8 # 1066008 <failed_addr>
    41016208:	000fbe83          	ld	x29,0(x31)
    4101620c:	000e8067          	jr	x29

0000000041016210 <excp_return_label_8>:
    41016210:	000f9137          	lui	x2,0xf9
    41016214:	00013383          	ld	x7,0(x2) # f9000 <tp_csr_storage>
    41016218:	01066fb7          	lui	x31,0x1066
    4101621c:	0b8f8f9b          	addiw	x31,x31,184 # 10660b8 <machine_csr_jump_table_flags>
    41016220:	01900f13          	li	x30,25
    41016224:	01efb023          	sd	x30,0(x31)
    41016228:	000f0fb7          	lui	x31,0xf0
    4101622c:	001f8f9b          	addiw	x31,x31,1 # f0001 <__section_data_1+0x19001>
    41016230:	00cf9f93          	slli	x31,x31,0xc
    41016234:	005f8f93          	addi	x31,x31,5
    41016238:	00000073          	ecall
    4101623c:	00813383          	ld	x7,8(x2)
    41016240:	01066fb7          	lui	x31,0x1066
    41016244:	0b8f8f9b          	addiw	x31,x31,184 # 10660b8 <machine_csr_jump_table_flags>
    41016248:	00300f13          	li	x30,3
    4101624c:	01efb023          	sd	x30,0(x31)
    41016250:	000f0fb7          	lui	x31,0xf0
    41016254:	001f8f9b          	addiw	x31,x31,1 # f0001 <__section_data_1+0x19001>
    41016258:	00cf9f93          	slli	x31,x31,0xc
    4101625c:	005f8f93          	addi	x31,x31,5
    41016260:	00000073          	ecall
    41016264:	01013383          	ld	x7,16(x2)
    41016268:	01066fb7          	lui	x31,0x1066
    4101626c:	0b8f8f9b          	addiw	x31,x31,184 # 10660b8 <machine_csr_jump_table_flags>
    41016270:	00600f13          	li	x30,6
    41016274:	01efb023          	sd	x30,0(x31)
    41016278:	000f0fb7          	lui	x31,0xf0
    4101627c:	001f8f9b          	addiw	x31,x31,1 # f0001 <__section_data_1+0x19001>
    41016280:	00cf9f93          	slli	x31,x31,0xc
    41016284:	005f8f93          	addi	x31,x31,5
    41016288:	00000073          	ecall

000000004101628c <SID_ZICBO_022_passed>:
    4101628c:	00f00f9b          	addiw	x31,x0,15
    41016290:	01cf9f93          	slli	x31,x31,0x1c
    41016294:	001f8f93          	addi	x31,x31,1
    41016298:	00000073          	ecall

000000004101629c <SID_ZICBO_047>:
    4101629c:	000f9137          	lui	x2,0xf9
    410162a0:	01066fb7          	lui	x31,0x1066
    410162a4:	0b8f8f9b          	addiw	x31,x31,184 # 10660b8 <machine_csr_jump_table_flags>
    410162a8:	01300f13          	li	x30,19
    410162ac:	01efb023          	sd	x30,0(x31)
    410162b0:	000f0fb7          	lui	x31,0xf0
    410162b4:	001f8f9b          	addiw	x31,x31,1 # f0001 <__section_data_1+0x19001>
    410162b8:	00cf9f93          	slli	x31,x31,0xc
    410162bc:	005f8f93          	addi	x31,x31,5
    410162c0:	00000073          	ecall
    410162c4:	00713023          	sd	x7,0(x2) # f9000 <tp_csr_storage>
    410162c8:	01066fb7          	lui	x31,0x1066
    410162cc:	0b8f8f9b          	addiw	x31,x31,184 # 10660b8 <machine_csr_jump_table_flags>
    410162d0:	00100f13          	li	x30,1
    410162d4:	01efb023          	sd	x30,0(x31)
    410162d8:	000f0fb7          	lui	x31,0xf0
    410162dc:	001f8f9b          	addiw	x31,x31,1 # f0001 <__section_data_1+0x19001>
    410162e0:	00cf9f93          	slli	x31,x31,0xc
    410162e4:	005f8f93          	addi	x31,x31,5
    410162e8:	00000073          	ecall
    410162ec:	00713423          	sd	x7,8(x2)
    410162f0:	01066fb7          	lui	x31,0x1066
    410162f4:	0b8f8f9b          	addiw	x31,x31,184 # 10660b8 <machine_csr_jump_table_flags>
    410162f8:	00400f13          	li	x30,4
    410162fc:	01efb023          	sd	x30,0(x31)
    41016300:	000f0fb7          	lui	x31,0xf0
    41016304:	001f8f9b          	addiw	x31,x31,1 # f0001 <__section_data_1+0x19001>
    41016308:	00cf9f93          	slli	x31,x31,0xc
    4101630c:	005f8f93          	addi	x31,x31,5
    41016310:	00000073          	ecall
    41016314:	00713823          	sd	x7,16(x2)
    41016318:	ff535137          	lui	x2,0xff535
    4101631c:	a071011b          	addiw	x2,x2,-1529 # ffffffffff534a07 <SID_ZICBO_002_stack+0x333527a07>
    41016320:	00e11113          	slli	x2,x2,0xe
    41016324:	000012b7          	lui	x5,0x1
    41016328:	00510133          	add	x2,x2,x5
    4101632c:	ff017113          	andi	x2,x2,-16
    41016330:	0f000393          	li	x7,240
    41016334:	01066fb7          	lui	x31,0x1066
    41016338:	0b8f8f9b          	addiw	x31,x31,184 # 10660b8 <machine_csr_jump_table_flags>
    4101633c:	01600f13          	li	x30,22
    41016340:	01efb023          	sd	x30,0(x31)
    41016344:	000f0fb7          	lui	x31,0xf0
    41016348:	001f8f9b          	addiw	x31,x31,1 # f0001 <__section_data_1+0x19001>
    4101634c:	00cf9f93          	slli	x31,x31,0xc
    41016350:	005f8f93          	addi	x31,x31,5
    41016354:	00000073          	ecall
    41016358:	0f000393          	li	x7,240
    4101635c:	01066fb7          	lui	x31,0x1066
    41016360:	0c0f8f9b          	addiw	x31,x31,192 # 10660c0 <super_csr_jump_table_flags>
    41016364:	01700f13          	li	x30,23
    41016368:	01efb023          	sd	x30,0(x31)
    4101636c:	000f0fb7          	lui	x31,0xf0
    41016370:	001f8f9b          	addiw	x31,x31,1 # f0001 <__section_data_1+0x19001>
    41016374:	00cf9f93          	slli	x31,x31,0xc
    41016378:	006f8f93          	addi	x31,x31,6
    4101637c:	00000073          	ecall
    41016380:	0f000393          	li	x7,240
    41016384:	01066fb7          	lui	x31,0x1066
    41016388:	0c0f8f9b          	addiw	x31,x31,192 # 10660c0 <super_csr_jump_table_flags>
    4101638c:	01800f13          	li	x30,24
    41016390:	01efb023          	sd	x30,0(x31)
    41016394:	000f0fb7          	lui	x31,0xf0
    41016398:	001f8f9b          	addiw	x31,x31,1 # f0001 <__section_data_1+0x19001>
    4101639c:	00cf9f93          	slli	x31,x31,0xc
    410163a0:	006f8f93          	addi	x31,x31,6
    410163a4:	00000073          	ecall
    410163a8:	00e326b7          	lui	x13,0xe32
    410163ac:	9df6869b          	addiw	x13,x13,-1569 # e319df <mem12+0x5699df>
    410163b0:	00d69693          	slli	x13,x13,0xd
    410163b4:	00000f93          	li	x31,0
    410163b8:	01f68533          	add	x10,x13,x31
    410163bc:	0025200f          	cbo.flush	(x10)
    410163c0:	00e32437          	lui	x8,0xe32
    410163c4:	9df4041b          	addiw	x8,x8,-1569 # e319df <mem12+0x5699df>
    410163c8:	00d41413          	slli	x8,x8,0xd
    410163cc:	00000e13          	li	x28,0
    410163d0:	01c403b3          	add	x7,x8,x28
    410163d4:	0003b483          	ld	x9,0(x7)
    410163d8:	00e329b7          	lui	x19,0xe32
    410163dc:	9df9899b          	addiw	x19,x19,-1569 # e319df <mem12+0x5699df>
    410163e0:	00d99993          	slli	x19,x19,0xd
    410163e4:	00000693          	li	x13,0
    410163e8:	00d98933          	add	x18,x19,x13
    410163ec:	0019200f          	cbo.clean	(x18)
    410163f0:	00e323b7          	lui	x7,0xe32
    410163f4:	9df3839b          	addiw	x7,x7,-1569 # e319df <mem12+0x5699df>
    410163f8:	00d39393          	slli	x7,x7,0xd
    410163fc:	00000713          	li	x14,0
    41016400:	00e383b3          	add	x7,x7,x14
    41016404:	00004fb7          	lui	x31,0x4
    41016408:	a17f8f9b          	addiw	x31,x31,-1513 # 3a17 <_all_interrupts+0xf6d>
    4101640c:	012f9f93          	slli	x31,x31,0x12
    41016410:	ce0f8f93          	addi	x31,x31,-800
    41016414:	01f3a023          	sw	x31,0(x7)
    41016418:	00e32837          	lui	x16,0xe32
    4101641c:	9df8081b          	addiw	x16,x16,-1569 # e319df <mem12+0x5699df>
    41016420:	00d81813          	slli	x16,x16,0xd
    41016424:	00000b93          	li	x23,0
    41016428:	01780b33          	add	x22,x16,x23
    4101642c:	000b200f          	cbo.inval	(x22)
    41016430:	00e32ab7          	lui	x21,0xe32
    41016434:	9dfa8a9b          	addiw	x21,x21,-1569 # e319df <mem12+0x5699df>
    41016438:	00da9a93          	slli	x21,x21,0xd
    4101643c:	00000593          	li	x11,0
    41016440:	00ba8e33          	add	x28,x21,x11
    41016444:	000e0b03          	lb	x22,0(x28)
    41016448:	000f9137          	lui	x2,0xf9
    4101644c:	00013383          	ld	x7,0(x2) # f9000 <tp_csr_storage>
    41016450:	01066fb7          	lui	x31,0x1066
    41016454:	0b8f8f9b          	addiw	x31,x31,184 # 10660b8 <machine_csr_jump_table_flags>
    41016458:	01900f13          	li	x30,25
    4101645c:	01efb023          	sd	x30,0(x31)
    41016460:	000f0fb7          	lui	x31,0xf0
    41016464:	001f8f9b          	addiw	x31,x31,1 # f0001 <__section_data_1+0x19001>
    41016468:	00cf9f93          	slli	x31,x31,0xc
    4101646c:	005f8f93          	addi	x31,x31,5
    41016470:	00000073          	ecall
    41016474:	00813383          	ld	x7,8(x2)
    41016478:	01066fb7          	lui	x31,0x1066
    4101647c:	0b8f8f9b          	addiw	x31,x31,184 # 10660b8 <machine_csr_jump_table_flags>
    41016480:	00300f13          	li	x30,3
    41016484:	01efb023          	sd	x30,0(x31)
    41016488:	000f0fb7          	lui	x31,0xf0
    4101648c:	001f8f9b          	addiw	x31,x31,1 # f0001 <__section_data_1+0x19001>
    41016490:	00cf9f93          	slli	x31,x31,0xc
    41016494:	005f8f93          	addi	x31,x31,5
    41016498:	00000073          	ecall
    4101649c:	01013383          	ld	x7,16(x2)
    410164a0:	01066fb7          	lui	x31,0x1066
    410164a4:	0b8f8f9b          	addiw	x31,x31,184 # 10660b8 <machine_csr_jump_table_flags>
    410164a8:	00600f13          	li	x30,6
    410164ac:	01efb023          	sd	x30,0(x31)
    410164b0:	000f0fb7          	lui	x31,0xf0
    410164b4:	001f8f9b          	addiw	x31,x31,1 # f0001 <__section_data_1+0x19001>
    410164b8:	00cf9f93          	slli	x31,x31,0xc
    410164bc:	005f8f93          	addi	x31,x31,5
    410164c0:	00000073          	ecall

00000000410164c4 <SID_ZICBO_047_passed>:
    410164c4:	00f00f9b          	addiw	x31,x0,15
    410164c8:	01cf9f93          	slli	x31,x31,0x1c
    410164cc:	001f8f93          	addi	x31,x31,1
    410164d0:	00000073          	ecall

00000000410164d4 <SID_ZICBO_049>:
    410164d4:	000f9137          	lui	x2,0xf9
    410164d8:	01066fb7          	lui	x31,0x1066
    410164dc:	0b8f8f9b          	addiw	x31,x31,184 # 10660b8 <machine_csr_jump_table_flags>
    410164e0:	01300f13          	li	x30,19
    410164e4:	01efb023          	sd	x30,0(x31)
    410164e8:	000f0fb7          	lui	x31,0xf0
    410164ec:	001f8f9b          	addiw	x31,x31,1 # f0001 <__section_data_1+0x19001>
    410164f0:	00cf9f93          	slli	x31,x31,0xc
    410164f4:	005f8f93          	addi	x31,x31,5
    410164f8:	00000073          	ecall
    410164fc:	00713023          	sd	x7,0(x2) # f9000 <tp_csr_storage>
    41016500:	01066fb7          	lui	x31,0x1066
    41016504:	0b8f8f9b          	addiw	x31,x31,184 # 10660b8 <machine_csr_jump_table_flags>
    41016508:	00100f13          	li	x30,1
    4101650c:	01efb023          	sd	x30,0(x31)
    41016510:	000f0fb7          	lui	x31,0xf0
    41016514:	001f8f9b          	addiw	x31,x31,1 # f0001 <__section_data_1+0x19001>
    41016518:	00cf9f93          	slli	x31,x31,0xc
    4101651c:	005f8f93          	addi	x31,x31,5
    41016520:	00000073          	ecall
    41016524:	00713423          	sd	x7,8(x2)
    41016528:	01066fb7          	lui	x31,0x1066
    4101652c:	0b8f8f9b          	addiw	x31,x31,184 # 10660b8 <machine_csr_jump_table_flags>
    41016530:	00400f13          	li	x30,4
    41016534:	01efb023          	sd	x30,0(x31)
    41016538:	000f0fb7          	lui	x31,0xf0
    4101653c:	001f8f9b          	addiw	x31,x31,1 # f0001 <__section_data_1+0x19001>
    41016540:	00cf9f93          	slli	x31,x31,0xc
    41016544:	005f8f93          	addi	x31,x31,5
    41016548:	00000073          	ecall
    4101654c:	00713823          	sd	x7,16(x2)
    41016550:	0b800137          	lui	x2,0xb800
    41016554:	000012b7          	lui	x5,0x1
    41016558:	00510133          	add	x2,x2,x5
    4101655c:	ff017113          	andi	x2,x2,-16
    41016560:	0f000393          	li	x7,240
    41016564:	01066fb7          	lui	x31,0x1066
    41016568:	0b8f8f9b          	addiw	x31,x31,184 # 10660b8 <machine_csr_jump_table_flags>
    4101656c:	01600f13          	li	x30,22
    41016570:	01efb023          	sd	x30,0(x31)
    41016574:	000f0fb7          	lui	x31,0xf0
    41016578:	001f8f9b          	addiw	x31,x31,1 # f0001 <__section_data_1+0x19001>
    4101657c:	00cf9f93          	slli	x31,x31,0xc
    41016580:	005f8f93          	addi	x31,x31,5
    41016584:	00000073          	ecall
    41016588:	0f000393          	li	x7,240
    4101658c:	01066fb7          	lui	x31,0x1066
    41016590:	0c0f8f9b          	addiw	x31,x31,192 # 10660c0 <super_csr_jump_table_flags>
    41016594:	01700f13          	li	x30,23
    41016598:	01efb023          	sd	x30,0(x31)
    4101659c:	000f0fb7          	lui	x31,0xf0
    410165a0:	001f8f9b          	addiw	x31,x31,1 # f0001 <__section_data_1+0x19001>
    410165a4:	00cf9f93          	slli	x31,x31,0xc
    410165a8:	006f8f93          	addi	x31,x31,6
    410165ac:	00000073          	ecall
    410165b0:	0f000393          	li	x7,240
    410165b4:	01066fb7          	lui	x31,0x1066
    410165b8:	0c0f8f9b          	addiw	x31,x31,192 # 10660c0 <super_csr_jump_table_flags>
    410165bc:	01800f13          	li	x30,24
    410165c0:	01efb023          	sd	x30,0(x31)
    410165c4:	000f0fb7          	lui	x31,0xf0
    410165c8:	001f8f9b          	addiw	x31,x31,1 # f0001 <__section_data_1+0x19001>
    410165cc:	00cf9f93          	slli	x31,x31,0xc
    410165d0:	006f8f93          	addi	x31,x31,6
    410165d4:	00000073          	ecall
    410165d8:	ff1b4937          	lui	x18,0xff1b4
    410165dc:	2c39091b          	addiw	x18,x18,707 # ffffffffff1b42c3 <SID_ZICBO_002_stack+0x3331a72c3>
    410165e0:	00c91913          	slli	x18,x18,0xc
    410165e4:	00000993          	li	x19,0
    410165e8:	01390633          	add	x12,x18,x19
    410165ec:	100627af          	lr.w	x15,(x12)
    410165f0:	ff1b43b7          	lui	x7,0xff1b4
    410165f4:	2c33839b          	addiw	x7,x7,707 # ffffffffff1b42c3 <SID_ZICBO_002_stack+0x3331a72c3>
    410165f8:	00c39393          	slli	x7,x7,0xc
    410165fc:	00000313          	li	x6,0
    41016600:	00638533          	add	x10,x7,x6
    41016604:	0025200f          	cbo.flush	(x10)
    41016608:	ff1b46b7          	lui	x13,0xff1b4
    4101660c:	2c36869b          	addiw	x13,x13,707 # ffffffffff1b42c3 <SID_ZICBO_002_stack+0x3331a72c3>
    41016610:	00c69693          	slli	x13,x13,0xc
    41016614:	00000593          	li	x11,0
    41016618:	00b68433          	add	x8,x13,x11
    4101661c:	0e8a3737          	lui	x14,0xe8a3
    41016620:	5b47071b          	addiw	x14,x14,1460 # e8a35b4 <SID_ZICBO_049_stack+0x30a35b4>
    41016624:	18e425af          	sc.w	x11,x14,(x8)
    41016628:	ff1b44b7          	lui	x9,0xff1b4
    4101662c:	2c34849b          	addiw	x9,x9,707 # ffffffffff1b42c3 <SID_ZICBO_002_stack+0x3331a72c3>
    41016630:	00c49493          	slli	x9,x9,0xc
    41016634:	00048e83          	lb	x29,0(x9)
    41016638:	000f9137          	lui	x2,0xf9
    4101663c:	00013383          	ld	x7,0(x2) # f9000 <tp_csr_storage>
    41016640:	01066fb7          	lui	x31,0x1066
    41016644:	0b8f8f9b          	addiw	x31,x31,184 # 10660b8 <machine_csr_jump_table_flags>
    41016648:	01900f13          	li	x30,25
    4101664c:	01efb023          	sd	x30,0(x31)
    41016650:	000f0fb7          	lui	x31,0xf0
    41016654:	001f8f9b          	addiw	x31,x31,1 # f0001 <__section_data_1+0x19001>
    41016658:	00cf9f93          	slli	x31,x31,0xc
    4101665c:	005f8f93          	addi	x31,x31,5
    41016660:	00000073          	ecall
    41016664:	00813383          	ld	x7,8(x2)
    41016668:	01066fb7          	lui	x31,0x1066
    4101666c:	0b8f8f9b          	addiw	x31,x31,184 # 10660b8 <machine_csr_jump_table_flags>
    41016670:	00300f13          	li	x30,3
    41016674:	01efb023          	sd	x30,0(x31)
    41016678:	000f0fb7          	lui	x31,0xf0
    4101667c:	001f8f9b          	addiw	x31,x31,1 # f0001 <__section_data_1+0x19001>
    41016680:	00cf9f93          	slli	x31,x31,0xc
    41016684:	005f8f93          	addi	x31,x31,5
    41016688:	00000073          	ecall
    4101668c:	01013383          	ld	x7,16(x2)
    41016690:	01066fb7          	lui	x31,0x1066
    41016694:	0b8f8f9b          	addiw	x31,x31,184 # 10660b8 <machine_csr_jump_table_flags>
    41016698:	00600f13          	li	x30,6
    4101669c:	01efb023          	sd	x30,0(x31)
    410166a0:	000f0fb7          	lui	x31,0xf0
    410166a4:	001f8f9b          	addiw	x31,x31,1 # f0001 <__section_data_1+0x19001>
    410166a8:	00cf9f93          	slli	x31,x31,0xc
    410166ac:	005f8f93          	addi	x31,x31,5
    410166b0:	00000073          	ecall

00000000410166b4 <SID_ZICBO_049_passed>:
    410166b4:	00f00f9b          	addiw	x31,x0,15
    410166b8:	01cf9f93          	slli	x31,x31,0x1c
    410166bc:	001f8f93          	addi	x31,x31,1
    410166c0:	00000073          	ecall

00000000410166c4 <SID_ZICBO_50_ZIC64B_01>:
    410166c4:	000f9137          	lui	x2,0xf9
    410166c8:	01066fb7          	lui	x31,0x1066
    410166cc:	0b8f8f9b          	addiw	x31,x31,184 # 10660b8 <machine_csr_jump_table_flags>
    410166d0:	01300f13          	li	x30,19
    410166d4:	01efb023          	sd	x30,0(x31)
    410166d8:	000f0fb7          	lui	x31,0xf0
    410166dc:	001f8f9b          	addiw	x31,x31,1 # f0001 <__section_data_1+0x19001>
    410166e0:	00cf9f93          	slli	x31,x31,0xc
    410166e4:	005f8f93          	addi	x31,x31,5
    410166e8:	00000073          	ecall
    410166ec:	00713023          	sd	x7,0(x2) # f9000 <tp_csr_storage>
    410166f0:	01066fb7          	lui	x31,0x1066
    410166f4:	0b8f8f9b          	addiw	x31,x31,184 # 10660b8 <machine_csr_jump_table_flags>
    410166f8:	00100f13          	li	x30,1
    410166fc:	01efb023          	sd	x30,0(x31)
    41016700:	000f0fb7          	lui	x31,0xf0
    41016704:	001f8f9b          	addiw	x31,x31,1 # f0001 <__section_data_1+0x19001>
    41016708:	00cf9f93          	slli	x31,x31,0xc
    4101670c:	005f8f93          	addi	x31,x31,5
    41016710:	00000073          	ecall
    41016714:	00713423          	sd	x7,8(x2)
    41016718:	01066fb7          	lui	x31,0x1066
    4101671c:	0b8f8f9b          	addiw	x31,x31,184 # 10660b8 <machine_csr_jump_table_flags>
    41016720:	00400f13          	li	x30,4
    41016724:	01efb023          	sd	x30,0(x31)
    41016728:	000f0fb7          	lui	x31,0xf0
    4101672c:	001f8f9b          	addiw	x31,x31,1 # f0001 <__section_data_1+0x19001>
    41016730:	00cf9f93          	slli	x31,x31,0xc
    41016734:	005f8f93          	addi	x31,x31,5
    41016738:	00000073          	ecall
    4101673c:	00713823          	sd	x7,16(x2)
    41016740:	001f0137          	lui	x2,0x1f0
    41016744:	000012b7          	lui	x5,0x1
    41016748:	00510133          	add	x2,x2,x5
    4101674c:	ff017113          	andi	x2,x2,-16
    41016750:	0f000393          	li	x7,240
    41016754:	01066fb7          	lui	x31,0x1066
    41016758:	0b8f8f9b          	addiw	x31,x31,184 # 10660b8 <machine_csr_jump_table_flags>
    4101675c:	01600f13          	li	x30,22
    41016760:	01efb023          	sd	x30,0(x31)
    41016764:	000f0fb7          	lui	x31,0xf0
    41016768:	001f8f9b          	addiw	x31,x31,1 # f0001 <__section_data_1+0x19001>
    4101676c:	00cf9f93          	slli	x31,x31,0xc
    41016770:	005f8f93          	addi	x31,x31,5
    41016774:	00000073          	ecall
    41016778:	0f000393          	li	x7,240
    4101677c:	01066fb7          	lui	x31,0x1066
    41016780:	0c0f8f9b          	addiw	x31,x31,192 # 10660c0 <super_csr_jump_table_flags>
    41016784:	01700f13          	li	x30,23
    41016788:	01efb023          	sd	x30,0(x31)
    4101678c:	000f0fb7          	lui	x31,0xf0
    41016790:	001f8f9b          	addiw	x31,x31,1 # f0001 <__section_data_1+0x19001>
    41016794:	00cf9f93          	slli	x31,x31,0xc
    41016798:	006f8f93          	addi	x31,x31,6
    4101679c:	00000073          	ecall
    410167a0:	0f000393          	li	x7,240
    410167a4:	01066fb7          	lui	x31,0x1066
    410167a8:	0c0f8f9b          	addiw	x31,x31,192 # 10660c0 <super_csr_jump_table_flags>
    410167ac:	01800f13          	li	x30,24
    410167b0:	01efb023          	sd	x30,0(x31)
    410167b4:	000f0fb7          	lui	x31,0xf0
    410167b8:	001f8f9b          	addiw	x31,x31,1 # f0001 <__section_data_1+0x19001>
    410167bc:	00cf9f93          	slli	x31,x31,0xc
    410167c0:	006f8f93          	addi	x31,x31,6
    410167c4:	00000073          	ecall
    410167c8:	00719437          	lui	x8,0x719
    410167cc:	cef4041b          	addiw	x8,x8,-785 # 718cef <mem0+0x55cef>
    410167d0:	00e41413          	slli	x8,x8,0xe
    410167d4:	00059337          	lui	x6,0x59
    410167d8:	82f3031b          	addiw	x6,x6,-2001 # 5882f <pma_region_0_size+0x1882f>
    410167dc:	00d31313          	slli	x6,x6,0xd
    410167e0:	84130313          	addi	x6,x6,-1983
    410167e4:	00641023          	sh	x6,0(x8)
    410167e8:	00719a37          	lui	x20,0x719
    410167ec:	cefa0a1b          	addiw	x20,x20,-785 # 718cef <mem0+0x55cef>
    410167f0:	00ea1a13          	slli	x20,x20,0xe
    410167f4:	007eeeb7          	lui	x29,0x7ee
    410167f8:	4fde8e9b          	addiw	x29,x29,1277 # 7ee4fd <mem0+0x12b4fd>
    410167fc:	03da3023          	sd	x29,32(x20)
    41016800:	00719fb7          	lui	x31,0x719
    41016804:	ceff8f9b          	addiw	x31,x31,-785 # 718cef <mem0+0x55cef>
    41016808:	00ef9f93          	slli	x31,x31,0xe
    4101680c:	62b47a37          	lui	x20,0x62b47
    41016810:	207a0a1b          	addiw	x20,x20,519 # 62b47207 <pma_region_2_end+0x1db06207>
    41016814:	034fbc23          	sd	x20,56(x31)
    41016818:	00719eb7          	lui	x29,0x719
    4101681c:	cefe8e9b          	addiw	x29,x29,-785 # 718cef <mem0+0x55cef>
    41016820:	00ee9e93          	slli	x29,x29,0xe
    41016824:	00026637          	lui	x12,0x26
    41016828:	b9b6061b          	addiw	x12,x12,-1125 # 25b9b <mem3+0x8b9b>
    4101682c:	00e61613          	slli	x12,x12,0xe
    41016830:	c5060613          	addi	x12,x12,-944
    41016834:	d2160553          	fcvt.d.wu	f10,x12
    41016838:	04aea027          	fsw	f10,64(x29)
    4101683c:	00719ab7          	lui	x21,0x719
    41016840:	cefa8a9b          	addiw	x21,x21,-785 # 718cef <mem0+0x55cef>
    41016844:	00ea9a93          	slli	x21,x21,0xe
    41016848:	0b0cadb7          	lui	x27,0xb0ca
    4101684c:	961d8d9b          	addiw	x27,x27,-1695 # b0c9961 <hart_stack_0_end+0x30f9961>
    41016850:	07bab023          	sd	x27,96(x21)
    41016854:	007194b7          	lui	x9,0x719
    41016858:	cef4849b          	addiw	x9,x9,-785 # 718cef <mem0+0x55cef>
    4101685c:	00e49493          	slli	x9,x9,0xe
    41016860:	000cbb37          	lui	x22,0xcb
    41016864:	4dfb0b1b          	addiw	x22,x22,1247 # cb4df <pma_region_0_size+0x8b4df>
    41016868:	00cb1b13          	slli	x22,x22,0xc
    4101686c:	eefb0b13          	addi	x22,x22,-273
    41016870:	d20b0853          	fcvt.d.w	f16,x22
    41016874:	0704bc27          	fsd	f16,120(x9)
    41016878:	00719337          	lui	x6,0x719
    4101687c:	cef3031b          	addiw	x6,x6,-785 # 718cef <mem0+0x55cef>
    41016880:	00e31313          	slli	x6,x6,0xe
    41016884:	00000493          	li	x9,0
    41016888:	00930633          	add	x12,x6,x9
    4101688c:	0046200f          	cbo.zero	(x12)
    41016890:	00000313          	li	x6,0
    41016894:	007195b7          	lui	x11,0x719
    41016898:	cef5859b          	addiw	x11,x11,-785 # 718cef <mem0+0x55cef>
    4101689c:	00e59593          	slli	x11,x11,0xe
    410168a0:	0005bb83          	ld	x23,0(x11)
    410168a4:	006b8a63          	beq	x23,x6,410168b8 <pass_label_5>
    410168a8:	01066bb7          	lui	x23,0x1066
    410168ac:	008b8b9b          	addiw	x23,x23,8 # 1066008 <failed_addr>
    410168b0:	000bbf03          	ld	x30,0(x23)
    410168b4:	000f0067          	jr	x30

00000000410168b8 <pass_label_5>:
    410168b8:	00719b37          	lui	x22,0x719
    410168bc:	cefb0b1b          	addiw	x22,x22,-785 # 718cef <mem0+0x55cef>
    410168c0:	00eb1b13          	slli	x22,x22,0xe
    410168c4:	020b3b83          	ld	x23,32(x22)
    410168c8:	006b8a63          	beq	x23,x6,410168dc <pass_label_6>
    410168cc:	01066837          	lui	x16,0x1066
    410168d0:	0088081b          	addiw	x16,x16,8 # 1066008 <failed_addr>
    410168d4:	00083e83          	ld	x29,0(x16)
    410168d8:	000e8067          	jr	x29

00000000410168dc <pass_label_6>:
    410168dc:	00719c37          	lui	x24,0x719
    410168e0:	cefc0c1b          	addiw	x24,x24,-785 # 718cef <mem0+0x55cef>
    410168e4:	00ec1c13          	slli	x24,x24,0xe
    410168e8:	038c3703          	ld	x14,56(x24)
    410168ec:	00670a63          	beq	x14,x6,41016900 <pass_label_7>
    410168f0:	01066837          	lui	x16,0x1066
    410168f4:	0088081b          	addiw	x16,x16,8 # 1066008 <failed_addr>
    410168f8:	00083e83          	ld	x29,0(x16)
    410168fc:	000e8067          	jr	x29

0000000041016900 <pass_label_7>:
    41016900:	00719437          	lui	x8,0x719
    41016904:	cef4041b          	addiw	x8,x8,-785 # 718cef <mem0+0x55cef>
    41016908:	00e41413          	slli	x8,x8,0xe
    4101690c:	04043883          	ld	x17,64(x8)
    41016910:	00689a63          	bne	x17,x6,41016924 <pass_label_8>
    41016914:	01066537          	lui	x10,0x1066
    41016918:	0085051b          	addiw	x10,x10,8 # 1066008 <failed_addr>
    4101691c:	00053583          	ld	x11,0(x10)
    41016920:	00058067          	jr	x11

0000000041016924 <pass_label_8>:
    41016924:	00719cb7          	lui	x25,0x719
    41016928:	cefc8c9b          	addiw	x25,x25,-785 # 718cef <mem0+0x55cef>
    4101692c:	00ec9c93          	slli	x25,x25,0xe
    41016930:	060cbc03          	ld	x24,96(x25)
    41016934:	006c1a63          	bne	x24,x6,41016948 <pass_label_9>
    41016938:	01066eb7          	lui	x29,0x1066
    4101693c:	008e8e9b          	addiw	x29,x29,8 # 1066008 <failed_addr>
    41016940:	000ebe83          	ld	x29,0(x29)
    41016944:	000e8067          	jr	x29

0000000041016948 <pass_label_9>:
    41016948:	00719637          	lui	x12,0x719
    4101694c:	cef6061b          	addiw	x12,x12,-785 # 718cef <mem0+0x55cef>
    41016950:	00e61613          	slli	x12,x12,0xe
    41016954:	07863703          	ld	x14,120(x12)
    41016958:	00671a63          	bne	x14,x6,4101696c <pass_label_10>
    4101695c:	01066437          	lui	x8,0x1066
    41016960:	0084041b          	addiw	x8,x8,8 # 1066008 <failed_addr>
    41016964:	00043d83          	ld	x27,0(x8)
    41016968:	000d8067          	jr	x27

000000004101696c <pass_label_10>:
    4101696c:	000f9137          	lui	x2,0xf9
    41016970:	00013383          	ld	x7,0(x2) # f9000 <tp_csr_storage>
    41016974:	01066fb7          	lui	x31,0x1066
    41016978:	0b8f8f9b          	addiw	x31,x31,184 # 10660b8 <machine_csr_jump_table_flags>
    4101697c:	01900f13          	li	x30,25
    41016980:	01efb023          	sd	x30,0(x31)
    41016984:	000f0fb7          	lui	x31,0xf0
    41016988:	001f8f9b          	addiw	x31,x31,1 # f0001 <__section_data_1+0x19001>
    4101698c:	00cf9f93          	slli	x31,x31,0xc
    41016990:	005f8f93          	addi	x31,x31,5
    41016994:	00000073          	ecall
    41016998:	00813383          	ld	x7,8(x2)
    4101699c:	01066fb7          	lui	x31,0x1066
    410169a0:	0b8f8f9b          	addiw	x31,x31,184 # 10660b8 <machine_csr_jump_table_flags>
    410169a4:	00300f13          	li	x30,3
    410169a8:	01efb023          	sd	x30,0(x31)
    410169ac:	000f0fb7          	lui	x31,0xf0
    410169b0:	001f8f9b          	addiw	x31,x31,1 # f0001 <__section_data_1+0x19001>
    410169b4:	00cf9f93          	slli	x31,x31,0xc
    410169b8:	005f8f93          	addi	x31,x31,5
    410169bc:	00000073          	ecall
    410169c0:	01013383          	ld	x7,16(x2)
    410169c4:	01066fb7          	lui	x31,0x1066
    410169c8:	0b8f8f9b          	addiw	x31,x31,184 # 10660b8 <machine_csr_jump_table_flags>
    410169cc:	00600f13          	li	x30,6
    410169d0:	01efb023          	sd	x30,0(x31)
    410169d4:	000f0fb7          	lui	x31,0xf0
    410169d8:	001f8f9b          	addiw	x31,x31,1 # f0001 <__section_data_1+0x19001>
    410169dc:	00cf9f93          	slli	x31,x31,0xc
    410169e0:	005f8f93          	addi	x31,x31,5
    410169e4:	00000073          	ecall

00000000410169e8 <SID_ZICBO_50_ZIC64B_01_passed>:
    410169e8:	00f00f9b          	addiw	x31,x0,15
    410169ec:	01cf9f93          	slli	x31,x31,0x1c
    410169f0:	001f8f93          	addi	x31,x31,1
    410169f4:	00000073          	ecall

00000000410169f8 <test_cleanup>:
    410169f8:	00f00f9b          	addiw	x31,x0,15
    410169fc:	01cf9f93          	slli	x31,x31,0x1c
    41016a00:	001f8f93          	addi	x31,x31,1
    41016a04:	00000073          	ecall

0000000041016a08 <local_test_failed>:
    41016a08:	00f00f9b          	addiw	x31,x0,15
    41016a0c:	01cf9f93          	slli	x31,x31,0x1c
    41016a10:	002f8f93          	addi	x31,x31,2
    41016a14:	00000073          	ecall

Disassembly of section .csr_machine_0:

0000000041215000 <csr_access_menvcfg_machine_key_3_write-0x70>:
    41215000:	418e8fb7          	lui	x31,0x418e8
    41215004:	0b8f8f9b          	addiw	x31,x31,184 # 418e80b8 <machine_csr_jump_table_flags_pa>
    41215008:	000fbf83          	ld	x31,0(x31)
    4121500c:	00300293          	li	x5,3
    41215010:	065f8063          	beq	x31,x5,41215070 <csr_access_menvcfg_machine_key_3_write>
    41215014:	00100293          	li	x5,1
    41215018:	065f8063          	beq	x31,x5,41215078 <csr_access_menvcfg_machine_key_1_read>
    4121501c:	01600293          	li	x5,22
    41215020:	065f8063          	beq	x31,x5,41215080 <csr_access_menvcfg_machine_key_22_set>
    41215024:	00200293          	li	x5,2
    41215028:	065f8063          	beq	x31,x5,41215088 <csr_access_menvcfg_machine_key_2_clear>
    4121502c:	00600293          	li	x5,6
    41215030:	065f8063          	beq	x31,x5,41215090 <csr_access_senvcfg_supervisor_key_6_write>
    41215034:	00400293          	li	x5,4
    41215038:	065f8063          	beq	x31,x5,41215098 <csr_access_senvcfg_supervisor_key_4_read>
    4121503c:	01900293          	li	x5,25
    41215040:	065f8063          	beq	x31,x5,412150a0 <csr_access_henvcfg_supervisor_key_25_write>
    41215044:	01300293          	li	x5,19
    41215048:	065f8063          	beq	x31,x5,412150a8 <csr_access_henvcfg_supervisor_key_19_read>
    4121504c:	01c00293          	li	x5,28
    41215050:	065f8063          	beq	x31,x5,412150b0 <csr_access_mstatus_machine_key_28_set>
    41215054:	01a00293          	li	x5,26
    41215058:	065f8063          	beq	x31,x5,412150b8 <csr_access_mstatus_machine_key_26_clear>
    4121505c:	01f00293          	li	x5,31
    41215060:	065f8063          	beq	x31,x5,412150c0 <csr_access_mtvec_machine_key_31_set>
    41215064:	01e00293          	li	x5,30
    41215068:	065f8063          	beq	x31,x5,412150c8 <csr_access_mtvec_machine_key_30_clear>
    4121506c:	0640006f          	j	412150d0 <end_machine_label>

0000000041215070 <csr_access_menvcfg_machine_key_3_write>:
    41215070:	30a39073          	csrw	0x30a,x7
    41215074:	05c0006f          	j	412150d0 <end_machine_label>

0000000041215078 <csr_access_menvcfg_machine_key_1_read>:
    41215078:	30a023f3          	csrr	x7,0x30a
    4121507c:	0540006f          	j	412150d0 <end_machine_label>

0000000041215080 <csr_access_menvcfg_machine_key_22_set>:
    41215080:	30a3a073          	csrs	0x30a,x7
    41215084:	04c0006f          	j	412150d0 <end_machine_label>

0000000041215088 <csr_access_menvcfg_machine_key_2_clear>:
    41215088:	30a3b073          	csrc	0x30a,x7
    4121508c:	0440006f          	j	412150d0 <end_machine_label>

0000000041215090 <csr_access_senvcfg_supervisor_key_6_write>:
    41215090:	10a39073          	csrw	0x10a,x7
    41215094:	03c0006f          	j	412150d0 <end_machine_label>

0000000041215098 <csr_access_senvcfg_supervisor_key_4_read>:
    41215098:	10a023f3          	csrr	x7,0x10a
    4121509c:	0340006f          	j	412150d0 <end_machine_label>

00000000412150a0 <csr_access_henvcfg_supervisor_key_25_write>:
    412150a0:	60a39073          	csrw	henvcfg,x7
    412150a4:	02c0006f          	j	412150d0 <end_machine_label>

00000000412150a8 <csr_access_henvcfg_supervisor_key_19_read>:
    412150a8:	60a023f3          	csrr	x7,henvcfg
    412150ac:	0240006f          	j	412150d0 <end_machine_label>

00000000412150b0 <csr_access_mstatus_machine_key_28_set>:
    412150b0:	3003a073          	csrs	mstatus,x7
    412150b4:	01c0006f          	j	412150d0 <end_machine_label>

00000000412150b8 <csr_access_mstatus_machine_key_26_clear>:
    412150b8:	3003b073          	csrc	mstatus,x7
    412150bc:	0140006f          	j	412150d0 <end_machine_label>

00000000412150c0 <csr_access_mtvec_machine_key_31_set>:
    412150c0:	3053a073          	csrs	mtvec,x7
    412150c4:	00c0006f          	j	412150d0 <end_machine_label>

00000000412150c8 <csr_access_mtvec_machine_key_30_clear>:
    412150c8:	3053b073          	csrc	mtvec,x7
    412150cc:	0040006f          	j	412150d0 <end_machine_label>

00000000412150d0 <end_machine_label>:
    412150d0:	000f0fb7          	lui	x31,0xf0
    412150d4:	001f8f9b          	addiw	x31,x31,1 # f0001 <__section_data_1+0x19001>
    412150d8:	00cf9f93          	slli	x31,x31,0xc
    412150dc:	004f8f93          	addi	x31,x31,4
    412150e0:	00000073          	ecall

Disassembly of section .csr_super_0:

0000000041216000 <csr_access_senvcfg_supervisor_key_23_set-0x48>:
    41216000:	01066fb7          	lui	x31,0x1066
    41216004:	0c0f8f9b          	addiw	x31,x31,192 # 10660c0 <super_csr_jump_table_flags>
    41216008:	000fbf83          	ld	x31,0(x31)
    4121600c:	01700293          	li	x5,23
    41216010:	025f8c63          	beq	x31,x5,41216048 <csr_access_senvcfg_supervisor_key_23_set>
    41216014:	00500293          	li	x5,5
    41216018:	025f8c63          	beq	x31,x5,41216050 <csr_access_senvcfg_supervisor_key_5_clear>
    4121601c:	01800293          	li	x5,24
    41216020:	025f8c63          	beq	x31,x5,41216058 <csr_access_henvcfg_supervisor_key_24_set>
    41216024:	01d00293          	li	x5,29
    41216028:	025f8c63          	beq	x31,x5,41216060 <csr_access_sstatus_supervisor_key_29_set>
    4121602c:	01b00293          	li	x5,27
    41216030:	025f8c63          	beq	x31,x5,41216068 <csr_access_sstatus_supervisor_key_27_clear>
    41216034:	02100293          	li	x5,33
    41216038:	025f8c63          	beq	x31,x5,41216070 <csr_access_stvec_supervisor_key_33_set>
    4121603c:	02000293          	li	x5,32
    41216040:	025f8c63          	beq	x31,x5,41216078 <csr_access_stvec_supervisor_key_32_clear>
    41216044:	03c0006f          	j	41216080 <end_super_label>

0000000041216048 <csr_access_senvcfg_supervisor_key_23_set>:
    41216048:	10a3a073          	csrs	0x10a,x7
    4121604c:	0340006f          	j	41216080 <end_super_label>

0000000041216050 <csr_access_senvcfg_supervisor_key_5_clear>:
    41216050:	10a3b073          	csrc	0x10a,x7
    41216054:	02c0006f          	j	41216080 <end_super_label>

0000000041216058 <csr_access_henvcfg_supervisor_key_24_set>:
    41216058:	60a3a073          	csrs	henvcfg,x7
    4121605c:	0240006f          	j	41216080 <end_super_label>

0000000041216060 <csr_access_sstatus_supervisor_key_29_set>:
    41216060:	1003a073          	csrs	sstatus,x7
    41216064:	01c0006f          	j	41216080 <end_super_label>

0000000041216068 <csr_access_sstatus_supervisor_key_27_clear>:
    41216068:	1003b073          	csrc	sstatus,x7
    4121606c:	0140006f          	j	41216080 <end_super_label>

0000000041216070 <csr_access_stvec_supervisor_key_33_set>:
    41216070:	1053a073          	csrs	stvec,x7
    41216074:	00c0006f          	j	41216080 <end_super_label>

0000000041216078 <csr_access_stvec_supervisor_key_32_clear>:
    41216078:	1053b073          	csrc	stvec,x7
    4121607c:	0040006f          	j	41216080 <end_super_label>

0000000041216080 <end_super_label>:
    41216080:	000f0fb7          	lui	x31,0xf0
    41216084:	001f8f9b          	addiw	x31,x31,1 # f0001 <__section_data_1+0x19001>
    41216088:	00cf9f93          	slli	x31,x31,0xc
    4121608c:	004f8f93          	addi	x31,x31,4
    41216090:	00000073          	ecall

Disassembly of section .os_data:

0000000001066000 <passed_addr_ptr>:
 1066000:	5070                	.insn	2, 0x5070
 1066002:	4101                	.insn	2, 0x4101
 1066004:	0000                	.insn	2, 0x0000
	...

0000000001066008 <failed_addr_ptr>:
 1066008:	5080                	.insn	2, 0x5080
 106600a:	4101                	.insn	2, 0x4101
 106600c:	0000                	.insn	2, 0x0000
	...

0000000001066010 <end_test_addr_ptr>:
 1066010:	5090                	.insn	2, 0x5090
 1066012:	4101                	.insn	2, 0x4101
 1066014:	0000                	.insn	2, 0x0000
	...

0000000001066018 <os_passed_addr_ptr>:
 1066018:	07b0                	.insn	2, 0x07b0
 106601a:	4100                	.insn	2, 0x4100
 106601c:	0000                	.insn	2, 0x0000
	...

0000000001066020 <os_failed_addr_ptr>:
 1066020:	07c0                	.insn	2, 0x07c0
 1066022:	4100                	.insn	2, 0x4100
 1066024:	0000                	.insn	2, 0x0000
	...

0000000001066028 <os_end_test_addr_ptr>:
 1066028:	07cc                	.insn	2, 0x07cc
 106602a:	4100                	.insn	2, 0x4100
 106602c:	0000                	.insn	2, 0x0000
	...

0000000001066030 <rvcp_prefix_str_data>:
 1066030:	5652                	.insn	2, 0x5652
 1066032:	203a5043          	fmadd.s	f0,f20,f3,f4,unknown
 1066036:	6554                	.insn	2, 0x6554
 1066038:	46207473          	csrrci	x8,0x462,0
 106603c:	6c69                	.insn	2, 0x6c69
 106603e:	2065                	.insn	2, 0x2065
	...

0000000001066041 <rvcp_testname_str_data>:
 1066041:	7074                	.insn	2, 0x7074
 1066043:	7a5f 6369 6f62      	.insn	6, 0x6f6263697a5f
 1066049:	5f6d                	.insn	2, 0x5f6d
 106604b:	697a                	.insn	2, 0x697a
 106604d:	7a6f6263          	bltu	x30,x6,10667f1 <num_hard_fails_mem+0x709>
 1066051:	7a5f 6369 6f62      	.insn	6, 0x6f6263697a5f
 1066057:	5f70                	.insn	2, 0x5f70
 1066059:	697a                	.insn	2, 0x697a
 106605b:	62343663          	.insn	4, 0x62343663
 106605f:	325f        	.insn	6, 0x53415000325f

0000000001066062 <rvcp_passed_str_data>:
 1066062:	4150                	.insn	2, 0x4150
 1066064:	44455353          	fround.h	f6,f10,unknown
	...

0000000001066069 <rvcp_failed_str_data>:
 1066069:	4146                	.insn	2, 0x4146
 106606b:	4c49                	.insn	2, 0x4c49
 106606d:	4445                	.insn	2, 0x4445
	...

0000000001066070 <rvcp_space_str_data>:
 1066070:	0020                	.insn	2, 0x0020

0000000001066072 <rvcp_newline_str_data>:
 1066072:	000a                	.insn	2, 0x000a
 1066074:	0000                	.insn	2, 0x0000
	...

0000000001066078 <excp_ignored_count_mem>:
	...

0000000001066080 <machine_flags_mem>:
	...

0000000001066088 <user_flags_mem>:
	...

0000000001066090 <super_flags_mem>:
	...

0000000001066098 <machine_area_mem>:
	...

00000000010660a0 <user_area_mem>:
	...

00000000010660a8 <super_area_mem>:
	...

00000000010660b0 <zero_data_mem>:
	...

00000000010660b8 <machine_csr_jump_table_flags_mem>:
	...

00000000010660c0 <super_csr_jump_table_flags_mem>:
	...

00000000010660c8 <pte_access_flags_mem>:
	...

00000000010660e0 <num_harts_ended_mem>:
	...

00000000010660e8 <num_hard_fails_mem>:
	...

Disassembly of section .hart_context:

0000000005e41000 <hart_context_0>:
 5e41000:	0000                	.insn	2, 0x0000
 5e41002:	07fd                	.insn	2, 0x07fd
	...
 5e41018:	0001                	.insn	2, 0x0001
 5e4101a:	0000                	.insn	2, 0x0000
 5e4101c:	0000                	.insn	2, 0x0000
 5e4101e:	0000                	.insn	2, 0x0000
 5e41020:	ffff                	.insn	2, 0xffff
 5e41022:	ffff                	.insn	2, 0xffff
 5e41024:	ffff                	.insn	2, 0xffff
 5e41026:	ffff                	.insn	2, 0xffff
 5e41028:	ffff                	.insn	2, 0xffff
 5e4102a:	ffff                	.insn	2, 0xffff
 5e4102c:	ffff                	.insn	2, 0xffff
 5e4102e:	ffff                	.insn	2, 0xffff
 5e41030:	ffff                	.insn	2, 0xffff
 5e41032:	ffff                	.insn	2, 0xffff
 5e41034:	ffff                	.insn	2, 0xffff
 5e41036:	ffff                	.insn	2, 0xffff
	...
 5e41050:	00ff 0000 0000 0000 	.insn	10, 0x00ff00000000000000ff
 5e41058:	00ff 
	...
 5e41176:	0000                	.insn	2, 0x0000
 5e41178:	ffff                	.insn	2, 0xffff
 5e4117a:	ffff                	.insn	2, 0xffff
 5e4117c:	ffff                	.insn	2, 0xffff
 5e4117e:	ffff                	.insn	2, 0xffff
	...
 5e41188:	ffff                	.insn	2, 0xffff
 5e4118a:	ffff                	.insn	2, 0xffff
	...

Disassembly of section .hart_stack_0:

0000000007fcf000 <hart_stack_0>:
	...

Disassembly of section .io_htif:

0000000041040000 <tohost>:
	...

0000000041040040 <fromhost>:
	...

Disassembly of section .mem0:

00000000006c3000 <.mem0>:
  6c3000:	c0de                	.insn	2, 0xc0de
  6c3002:	c001                	.insn	2, 0xc001
  6c3004:	0000                	.insn	2, 0x0000
	...

Disassembly of section .mem1:

0000000000e71000 <.mem1>:
  e71000:	c0de                	.insn	2, 0xc0de
  e71002:	c001                	.insn	2, 0xc001
  e71004:	0000                	.insn	2, 0x0000
	...

Disassembly of section .mem2:

0000000003bf9000 <.mem2>:
 3bf9000:	c0de                	.insn	2, 0xc0de
 3bf9002:	c001                	.insn	2, 0xc001
 3bf9004:	0000                	.insn	2, 0x0000
	...

Disassembly of section .mem3:

000000000001d000 <.mem3>:
   1d000:	c0de                	.insn	2, 0xc0de
   1d002:	c001                	.insn	2, 0xc001
   1d004:	0000                	.insn	2, 0x0000
	...

Disassembly of section .mem4:

0000000096376000 <.mem4>:
    96376000:	c0de                	.insn	2, 0xc0de
    96376002:	c001                	.insn	2, 0xc001
    96376004:	0000                	.insn	2, 0x0000
	...

Disassembly of section .mem5:

0000000005e51000 <.mem5>:
 5e51000:	c0de                	.insn	2, 0xc0de
 5e51002:	c001                	.insn	2, 0xc001
 5e51004:	0000                	.insn	2, 0x0000
	...

Disassembly of section .mem6:

0000000a76f23000 <.mem6>:
   a76f23000:	c0de                	.insn	2, 0xc0de
   a76f23002:	c001                	.insn	2, 0xc001
   a76f23004:	0000                	.insn	2, 0x0000
	...

Disassembly of section .mem7:

000000070261f000 <.mem7>:
   70261f000:	c0de                	.insn	2, 0xc0de
   70261f002:	c001                	.insn	2, 0xc001
   70261f004:	0000                	.insn	2, 0x0000
	...

Disassembly of section .mem8:

0000000000002000 <.mem8>:
    2000:	c0de                	.insn	2, 0xc0de
    2002:	c001                	.insn	2, 0xc001
    2004:	0000                	.insn	2, 0x0000
	...

Disassembly of section .mem9:

0000000040b4f000 <.mem9>:
    40b4f000:	c0de                	.insn	2, 0xc0de
    40b4f002:	c001                	.insn	2, 0xc001
    40b4f004:	0000                	.insn	2, 0x0000
	...

Disassembly of section .mem10:

000000000000d000 <.mem10>:
    d000:	c0de                	.insn	2, 0xc0de
    d002:	c001                	.insn	2, 0xc001
    d004:	0000                	.insn	2, 0x0000
	...

Disassembly of section .mem11:

0000000000004000 <.mem11>:
    4000:	c0de                	.insn	2, 0xc0de
    4002:	c001                	.insn	2, 0xc001
    4004:	0000                	.insn	2, 0x0000
	...

Disassembly of section .mem12:

00000000008c8000 <.mem12>:
  8c8000:	c0de                	.insn	2, 0xc0de
  8c8002:	c001                	.insn	2, 0xc001
  8c8004:	0000                	.insn	2, 0x0000
	...

Disassembly of section .mem13:

0000000000014000 <.mem13>:
   14000:	c0de                	.insn	2, 0xc0de
   14002:	c001                	.insn	2, 0xc001
   14004:	0000                	.insn	2, 0x0000
	...

Disassembly of section .mem14:

0000000369245000 <.mem14>:
   369245000:	c0de                	.insn	2, 0xc0de
   369245002:	c001                	.insn	2, 0xc001
   369245004:	0000                	.insn	2, 0x0000
	...

Disassembly of section .mem15:

00000000a62ab000 <.mem15>:
    a62ab000:	c0de                	.insn	2, 0xc0de
    a62ab002:	c001                	.insn	2, 0xc001
    a62ab004:	0000                	.insn	2, 0x0000
	...

Disassembly of section .mem16:

0000001c633be000 <.mem16>:
  1c633be000:	c0de                	.insn	2, 0xc0de
  1c633be002:	c001                	.insn	2, 0xc001
  1c633be004:	0000                	.insn	2, 0x0000
	...

Disassembly of section .mem17:

fffffff1b42c3000 <.mem17>:
fffffff1b42c3000:	c0de                	.insn	2, 0xc0de
fffffff1b42c3002:	c001                	.insn	2, 0xc001
fffffff1b42c3004:	0000                	.insn	2, 0x0000
	...

Disassembly of section .mem18:

0000001c633bc000 <.mem18>:
  1c633bc000:	c0de                	.insn	2, 0xc0de
  1c633bc002:	c001                	.insn	2, 0xc001
  1c633bc004:	0000                	.insn	2, 0x0000
	...

Disassembly of section .tp_csr_storage:

00000000000f9000 <.tp_csr_storage>:
   f9000:	c0de                	.insn	2, 0xc0de
   f9002:	c001                	.insn	2, 0xc001
   f9004:	0000                	.insn	2, 0x0000
	...

Disassembly of section .SID_ZICBO_001_stack:

0000000000011000 <.SID_ZICBO_001_stack>:
   11000:	c0de                	.insn	2, 0xc0de
   11002:	c001                	.insn	2, 0xc001
   11004:	0000                	.insn	2, 0x0000
	...

Disassembly of section .SID_ZICBO_002_stack:

fffffffccc00d000 <.SID_ZICBO_002_stack>:
fffffffccc00d000:	c0de                	.insn	2, 0xc0de
fffffffccc00d002:	c001                	.insn	2, 0xc001
fffffffccc00d004:	0000                	.insn	2, 0x0000
	...

Disassembly of section .SID_ZICBO_003_stack:

0000000000006000 <.SID_ZICBO_003_stack>:
    6000:	c0de                	.insn	2, 0xc0de
    6002:	c001                	.insn	2, 0xc001
    6004:	0000                	.insn	2, 0x0000
	...

Disassembly of section .SID_ZICBO_004_stack:

00000000000f7000 <.SID_ZICBO_004_stack>:
   f7000:	c0de                	.insn	2, 0xc0de
   f7002:	c001                	.insn	2, 0xc001
   f7004:	0000                	.insn	2, 0x0000
	...

Disassembly of section .SID_ZICBO_005_stack:

00000000005d5000 <.SID_ZICBO_005_stack>:
  5d5000:	c0de                	.insn	2, 0xc0de
  5d5002:	c001                	.insn	2, 0xc001
  5d5004:	0000                	.insn	2, 0x0000
	...

Disassembly of section .SID_ZICBO_006_stack:

0000000c07804000 <.SID_ZICBO_006_stack>:
   c07804000:	c0de                	.insn	2, 0xc0de
   c07804002:	c001                	.insn	2, 0xc001
   c07804004:	0000                	.insn	2, 0x0000
	...

Disassembly of section .SID_ZICBO_013_stack:

00000008b35ac000 <.SID_ZICBO_013_stack>:
   8b35ac000:	c0de                	.insn	2, 0xc0de
   8b35ac002:	c001                	.insn	2, 0xc001
   8b35ac004:	0000                	.insn	2, 0x0000
	...

Disassembly of section .SID_ZICBO_015_stack:

0000000825566000 <.SID_ZICBO_015_stack>:
   825566000:	c0de                	.insn	2, 0xc0de
   825566002:	c001                	.insn	2, 0xc001
   825566004:	0000                	.insn	2, 0x0000
	...

Disassembly of section .SID_ZICBO_016_stack:

000000001fe9d000 <.SID_ZICBO_016_stack>:
    1fe9d000:	c0de                	.insn	2, 0xc0de
    1fe9d002:	c001                	.insn	2, 0xc001
    1fe9d004:	0000                	.insn	2, 0x0000
	...

Disassembly of section .SID_ZICBO_017_stack:

000000000019d000 <.SID_ZICBO_017_stack>:
  19d000:	c0de                	.insn	2, 0xc0de
  19d002:	c001                	.insn	2, 0xc001
  19d004:	0000                	.insn	2, 0x0000
	...

Disassembly of section .SID_ZICBO_018_stack:

000000000003a000 <.SID_ZICBO_018_stack>:
   3a000:	c0de                	.insn	2, 0xc0de
   3a002:	c001                	.insn	2, 0xc001
   3a004:	0000                	.insn	2, 0x0000
	...

Disassembly of section .SID_ZICBO_019_stack:

000000232e977000 <.SID_ZICBO_019_stack>:
  232e977000:	c0de                	.insn	2, 0xc0de
  232e977002:	c001                	.insn	2, 0xc001
  232e977004:	0000                	.insn	2, 0x0000
	...

Disassembly of section .SID_ZICBO_020_stack:

fffffffba4388000 <.SID_ZICBO_020_stack>:
fffffffba4388000:	c0de                	.insn	2, 0xc0de
fffffffba4388002:	c001                	.insn	2, 0xc001
fffffffba4388004:	0000                	.insn	2, 0x0000
	...

Disassembly of section .SID_ZICBO_022_stack:

0000000040dde000 <.SID_ZICBO_022_stack>:
    40dde000:	c0de                	.insn	2, 0xc0de
    40dde002:	c001                	.insn	2, 0xc001
    40dde004:	0000                	.insn	2, 0x0000
	...

Disassembly of section .SID_ZICBO_047_stack:

ffffffd4d281c000 <.SID_ZICBO_047_stack>:
ffffffd4d281c000:	c0de                	.insn	2, 0xc0de
ffffffd4d281c002:	c001                	.insn	2, 0xc001
ffffffd4d281c004:	0000                	.insn	2, 0x0000
	...

Disassembly of section .SID_ZICBO_049_stack:

000000000b800000 <.SID_ZICBO_049_stack>:
 b800000:	c0de                	.insn	2, 0xc0de
 b800002:	c001                	.insn	2, 0xc001
 b800004:	0000                	.insn	2, 0x0000
	...

Disassembly of section .SID_ZICBO_50_ZIC64B_01_stack:

00000000001f0000 <.SID_ZICBO_50_ZIC64B_01_stack>:
  1f0000:	c0de                	.insn	2, 0xc0de
  1f0002:	c001                	.insn	2, 0xc001
  1f0004:	0000                	.insn	2, 0x0000
	...

Disassembly of section .__pagetable_map_os_0x00000000418e2000:

00000000418e2000 <__pagetable_map_os_0x00000000418e2000>:
    418e2000:	e001                	.insn	2, 0xe001
    418e2002:	109d                	.insn	2, 0x109d
    418e2004:	0000                	.insn	2, 0x0000
    418e2006:	0000                	.insn	2, 0x0000
    418e2008:	c801                	.insn	2, 0xc801
    418e200a:	1112                	.insn	2, 0x1112
    418e200c:	0000                	.insn	2, 0x0000
    418e200e:	0000                	.insn	2, 0x0000
    418e2010:	9801                	.insn	2, 0x9801
    418e2012:	0000106b          	.insn	4, 0x106b
	...
    418e2066:	0000                	.insn	2, 0x0000
    418e2068:	d801                	.insn	2, 0xd801
    418e206a:	1098                	.insn	2, 0x1098
	...
    418e20e0:	3801                	.insn	2, 0x3801
    418e20e2:	00001063          	bnez	x0,418e20e2 <__pagetable_map_os_0x00000000418e2000+0xe2>
	...
    418e20fe:	0000                	.insn	2, 0x0000
    418e2100:	7001                	.insn	2, 0x7001
    418e2102:	00001113          	slli	x2,x0,0x0
	...
    418e210e:	0000                	.insn	2, 0x0000
    418e2110:	ac01                	.insn	2, 0xac01
    418e2112:	000010a7          	fsh	f0,1(x0) # 1 <CHECK_EXCP_MODE_MACHINE>
	...
    418e2146:	0000                	.insn	2, 0x0000
    418e2148:	3c01                	.insn	2, 0x3c01
    418e214a:	00001063          	bnez	x0,418e214a <__pagetable_map_os_0x00000000418e2000+0x14a>
	...
    418e217e:	0000                	.insn	2, 0x0000
    418e2180:	b001                	.insn	2, 0xb001
    418e2182:	0000112f          	.insn	4, 0x112f
	...
    418e2386:	0000                	.insn	2, 0x0000
    418e2388:	ac01                	.insn	2, 0xac01
    418e238a:	1095                	.insn	2, 0x1095
	...
    418e2460:	c401                	.insn	2, 0xc401
    418e2462:	1098                	.insn	2, 0x1098
	...
    418e2a98:	cc01                	.insn	2, 0xcc01
    418e2a9a:	00001063          	bnez	x0,418e2a9a <__pagetable_map_os_0x00000000418e2000+0xa9a>
	...
    418e2e2e:	0000                	.insn	2, 0x0000
    418e2e30:	7801                	.insn	2, 0x7801
    418e2e32:	1095                	.insn	2, 0x1095
	...
    418e2f70:	e801                	.insn	2, 0xe801
    418e2f72:	1095                	.insn	2, 0x1095
	...
    418e2f98:	d801                	.insn	2, 0xd801
    418e2f9a:	109a                	.insn	2, 0x109a
    418e2f9c:	0000                	.insn	2, 0x0000
	...

Disassembly of section .__pagetable_map_os_0x00000000444b2000:

00000000444b2000 <__pagetable_map_os_0x00000000444b2000>:
	...
    444b2028:	6001                	.insn	2, 0x6001
    444b202a:	10a1                	.insn	2, 0x10a1
    444b202c:	0000                	.insn	2, 0x0000
    444b202e:	0000                	.insn	2, 0x0000
    444b2030:	f801                	.insn	2, 0xf801
    444b2032:	112e                	.insn	2, 0x112e
	...
    444b2040:	7801                	.insn	2, 0x7801
    444b2042:	1099                	.insn	2, 0x1099
    444b2044:	0000                	.insn	2, 0x0000
    444b2046:	0000                	.insn	2, 0x0000
    444b2048:	2801                	.insn	2, 0x2801
    444b204a:	1095                	.insn	2, 0x1095
	...
    444b2060:	1c01                	.insn	2, 0x1c01
    444b2062:	1095                	.insn	2, 0x1095
    444b2064:	0000                	.insn	2, 0x0000
	...

Disassembly of section .__pagetable_map_os_0x000000004265e000:

000000004265e000 <__pagetable_map_os_0x000000004265e000>:
	...
    4265e080:	40df 1040 0000      	.insn	6, 0x104040df
    4265e086:	0000                	.insn	2, 0x0000
    4265e088:	104044cf          	fnmadd.s	f9,f0,f4,f2,rmm
    4265e08c:	0000                	.insn	2, 0x0000
    4265e08e:	0000                	.insn	2, 0x0000
    4265e090:	104048cf          	fnmadd.s	f17,f0,f4,f2,rmm
    4265e094:	0000                	.insn	2, 0x0000
    4265e096:	0000                	.insn	2, 0x0000
    4265e098:	10404ccf          	fnmadd.s	f25,f0,f4,f2,rmm
    4265e09c:	0000                	.insn	2, 0x0000
    4265e09e:	0000                	.insn	2, 0x0000
    4265e0a0:	104050cf          	fnmadd.s	f1,f0,f4,f2,unknown
    4265e0a4:	0000                	.insn	2, 0x0000
    4265e0a6:	0000                	.insn	2, 0x0000
    4265e0a8:	00df 10a8 0000      	.insn	6, 0x10a800df
    4265e0ae:	0000                	.insn	2, 0x0000
    4265e0b0:	04df 10a8 0000      	.insn	6, 0x10a804df
    4265e0b6:	0000                	.insn	2, 0x0000
    4265e0b8:	08df 10a8 0000      	.insn	6, 0x10a808df
    4265e0be:	0000                	.insn	2, 0x0000
    4265e0c0:	0cdf 10a8 0000      	.insn	6, 0x10a80cdf
    4265e0c6:	0000                	.insn	2, 0x0000
    4265e0c8:	10df 10a8 0000      	.insn	6, 0x10a810df
    4265e0ce:	0000                	.insn	2, 0x0000
    4265e0d0:	14df 10a8 0000      	.insn	6, 0x10a814df
    4265e0d6:	0000                	.insn	2, 0x0000
    4265e0d8:	18df 10a8 0000      	.insn	6, 0x10a818df
    4265e0de:	0000                	.insn	2, 0x0000
    4265e0e0:	1cdf 10a8 0000      	.insn	6, 0x10a81cdf
    4265e0e6:	0000                	.insn	2, 0x0000
    4265e0e8:	20df 10a8 0000      	.insn	6, 0x10a820df
    4265e0ee:	0000                	.insn	2, 0x0000
    4265e0f0:	24df 10a8 0000      	.insn	6, 0x10a824df
    4265e0f6:	0000                	.insn	2, 0x0000
    4265e0f8:	28df 10a8 0000      	.insn	6, 0x10a828df
    4265e0fe:	0000                	.insn	2, 0x0000
    4265e100:	2cdf 10a8 0000      	.insn	6, 0x10a82cdf
    4265e106:	0000                	.insn	2, 0x0000
    4265e108:	30df 10a8 0000      	.insn	6, 0x10a830df
    4265e10e:	0000                	.insn	2, 0x0000
    4265e110:	34df 10a8 0000      	.insn	6, 0x10a834df
    4265e116:	0000                	.insn	2, 0x0000
    4265e118:	38df 10a8 0000      	.insn	6, 0x10a838df
    4265e11e:	0000                	.insn	2, 0x0000
    4265e120:	3cdf 10a8 0000      	.insn	6, 0x10a83cdf
    4265e126:	0000                	.insn	2, 0x0000
    4265e128:	40df 10a8 0000      	.insn	6, 0x10a840df
    4265e12e:	0000                	.insn	2, 0x0000
    4265e130:	44df 10a8 0000      	.insn	6, 0x10a844df
    4265e136:	0000                	.insn	2, 0x0000
    4265e138:	48df 10a8 0000      	.insn	6, 0x10a848df
    4265e13e:	0000                	.insn	2, 0x0000
    4265e140:	4cdf 10a8 0000      	.insn	6, 0x10a84cdf
    4265e146:	0000                	.insn	2, 0x0000
    4265e148:	50df 10a8 0000      	.insn	6, 0x10a850df
    4265e14e:	0000                	.insn	2, 0x0000
    4265e150:	54df 10a8 0000      	.insn	6, 0x10a854df
    4265e156:	0000                	.insn	2, 0x0000
    4265e158:	58df 10a8 0000      	.insn	6, 0x10a858df
    4265e15e:	0000                	.insn	2, 0x0000
    4265e160:	5cdf 10a8 0000      	.insn	6, 0x10a85cdf
    4265e166:	0000                	.insn	2, 0x0000
    4265e168:	60df 10a8 0000      	.insn	6, 0x10a860df
    4265e16e:	0000                	.insn	2, 0x0000
    4265e170:	64df 10a8 0000      	.insn	6, 0x10a864df
    4265e176:	0000                	.insn	2, 0x0000
    4265e178:	68df 10a8 0000      	.insn	6, 0x10a868df
    4265e17e:	0000                	.insn	2, 0x0000
    4265e180:	6cdf 10a8 0000      	.insn	6, 0x10a86cdf
    4265e186:	0000                	.insn	2, 0x0000
    4265e188:	70df 10a8 0000      	.insn	6, 0x10a870df
    4265e18e:	0000                	.insn	2, 0x0000
    4265e190:	74df 10a8 0000      	.insn	6, 0x10a874df
    4265e196:	0000                	.insn	2, 0x0000
    4265e198:	78df 10a8 0000      	.insn	6, 0x10a878df
    4265e19e:	0000                	.insn	2, 0x0000
    4265e1a0:	7cdf 10a8 0000      	.insn	6, 0x10a87cdf
    4265e1a6:	0000                	.insn	2, 0x0000
    4265e1a8:	80df 10a8 0000      	.insn	6, 0x10a880df
    4265e1ae:	0000                	.insn	2, 0x0000
    4265e1b0:	84df 10a8 0000      	.insn	6, 0x10a884df
    4265e1b6:	0000                	.insn	2, 0x0000
    4265e1b8:	88df 10a8 0000      	.insn	6, 0x10a888df
    4265e1be:	0000                	.insn	2, 0x0000
    4265e1c0:	8cdf 10a8 0000      	.insn	6, 0x10a88cdf
    4265e1c6:	0000                	.insn	2, 0x0000
    4265e1c8:	90df 10a8 0000      	.insn	6, 0x10a890df
    4265e1ce:	0000                	.insn	2, 0x0000
    4265e1d0:	94df 10a8 0000      	.insn	6, 0x10a894df
    4265e1d6:	0000                	.insn	2, 0x0000
    4265e1d8:	98df 10a8 0000      	.insn	6, 0x10a898df
    4265e1de:	0000                	.insn	2, 0x0000
    4265e1e0:	9cdf 10a8 0000      	.insn	6, 0x10a89cdf
    4265e1e6:	0000                	.insn	2, 0x0000
    4265e1e8:	a0df 10a8 0000      	.insn	6, 0x10a8a0df
    4265e1ee:	0000                	.insn	2, 0x0000
    4265e1f0:	a4df 10a8 0000      	.insn	6, 0x10a8a4df
    4265e1f6:	0000                	.insn	2, 0x0000
    4265e1f8:	a8df 10a8 0000      	.insn	6, 0x10a8a8df
    4265e1fe:	0000                	.insn	2, 0x0000
    4265e200:	00df 1041 0000      	.insn	6, 0x104100df
    4265e206:	0000                	.insn	2, 0x0000
    4265e208:	b0df 10a8 0000      	.insn	6, 0x10a8b0df
    4265e20e:	0000                	.insn	2, 0x0000
    4265e210:	b4df 10a8 0000      	.insn	6, 0x10a8b4df
    4265e216:	0000                	.insn	2, 0x0000
    4265e218:	b8df 10a8 0000      	.insn	6, 0x10a8b8df
    4265e21e:	0000                	.insn	2, 0x0000
    4265e220:	bcdf 10a8 0000      	.insn	6, 0x10a8bcdf
    4265e226:	0000                	.insn	2, 0x0000
    4265e228:	c0df 10a8 0000      	.insn	6, 0x10a8c0df
    4265e22e:	0000                	.insn	2, 0x0000
    4265e230:	c4df 10a8 0000      	.insn	6, 0x10a8c4df
    4265e236:	0000                	.insn	2, 0x0000
    4265e238:	c8df 10a8 0000      	.insn	6, 0x10a8c8df
    4265e23e:	0000                	.insn	2, 0x0000
    4265e240:	ccdf 10a8 0000      	.insn	6, 0x10a8ccdf
    4265e246:	0000                	.insn	2, 0x0000
    4265e248:	d0df 10a8 0000      	.insn	6, 0x10a8d0df
    4265e24e:	0000                	.insn	2, 0x0000
    4265e250:	d4df 10a8 0000      	.insn	6, 0x10a8d4df
    4265e256:	0000                	.insn	2, 0x0000
    4265e258:	d8df 10a8 0000      	.insn	6, 0x10a8d8df
    4265e25e:	0000                	.insn	2, 0x0000
    4265e260:	dcdf 10a8 0000      	.insn	6, 0x10a8dcdf
    4265e266:	0000                	.insn	2, 0x0000
    4265e268:	e0df 10a8 0000      	.insn	6, 0x10a8e0df
    4265e26e:	0000                	.insn	2, 0x0000
    4265e270:	e4df 10a8 0000      	.insn	6, 0x10a8e4df
    4265e276:	0000                	.insn	2, 0x0000
    4265e278:	e8df 10a8 0000      	.insn	6, 0x10a8e8df
    4265e27e:	0000                	.insn	2, 0x0000
    4265e280:	ecdf 10a8 0000      	.insn	6, 0x10a8ecdf
    4265e286:	0000                	.insn	2, 0x0000
    4265e288:	f0df 10a8 0000      	.insn	6, 0x10a8f0df
    4265e28e:	0000                	.insn	2, 0x0000
    4265e290:	f4df 10a8 0000      	.insn	6, 0x10a8f4df
    4265e296:	0000                	.insn	2, 0x0000
    4265e298:	f8df 10a8 0000      	.insn	6, 0x10a8f8df
    4265e29e:	0000                	.insn	2, 0x0000
    4265e2a0:	fcdf 10a8 0000      	.insn	6, 0x10a8fcdf
    4265e2a6:	0000                	.insn	2, 0x0000
    4265e2a8:	00df 10a9 0000      	.insn	6, 0x10a900df
    4265e2ae:	0000                	.insn	2, 0x0000
    4265e2b0:	04df 10a9 0000      	.insn	6, 0x10a904df
    4265e2b6:	0000                	.insn	2, 0x0000
    4265e2b8:	08df 10a9 0000      	.insn	6, 0x10a908df
    4265e2be:	0000                	.insn	2, 0x0000
    4265e2c0:	0cdf 10a9 0000      	.insn	6, 0x10a90cdf
    4265e2c6:	0000                	.insn	2, 0x0000
    4265e2c8:	10df 10a9 0000      	.insn	6, 0x10a910df
    4265e2ce:	0000                	.insn	2, 0x0000
    4265e2d0:	14df 10a9 0000      	.insn	6, 0x10a914df
    4265e2d6:	0000                	.insn	2, 0x0000
    4265e2d8:	18df 10a9 0000      	.insn	6, 0x10a918df
    4265e2de:	0000                	.insn	2, 0x0000
    4265e2e0:	1cdf 10a9 0000      	.insn	6, 0x10a91cdf
    4265e2e6:	0000                	.insn	2, 0x0000
    4265e2e8:	20df 10a9 0000      	.insn	6, 0x10a920df
    4265e2ee:	0000                	.insn	2, 0x0000
    4265e2f0:	24df 10a9 0000      	.insn	6, 0x10a924df
    4265e2f6:	0000                	.insn	2, 0x0000
    4265e2f8:	28df 10a9 0000      	.insn	6, 0x10a928df
    4265e2fe:	0000                	.insn	2, 0x0000
    4265e300:	2cdf 10a9 0000      	.insn	6, 0x10a92cdf
    4265e306:	0000                	.insn	2, 0x0000
    4265e308:	30df 10a9 0000      	.insn	6, 0x10a930df
    4265e30e:	0000                	.insn	2, 0x0000
    4265e310:	34df 10a9 0000      	.insn	6, 0x10a934df
    4265e316:	0000                	.insn	2, 0x0000
    4265e318:	38df 10a9 0000      	.insn	6, 0x10a938df
    4265e31e:	0000                	.insn	2, 0x0000
    4265e320:	3cdf 10a9 0000      	.insn	6, 0x10a93cdf
    4265e326:	0000                	.insn	2, 0x0000
    4265e328:	40df 10a9 0000      	.insn	6, 0x10a940df
    4265e32e:	0000                	.insn	2, 0x0000
    4265e330:	44df 10a9 0000      	.insn	6, 0x10a944df
    4265e336:	0000                	.insn	2, 0x0000
    4265e338:	48df 10a9 0000      	.insn	6, 0x10a948df
    4265e33e:	0000                	.insn	2, 0x0000
    4265e340:	4cdf 10a9 0000      	.insn	6, 0x10a94cdf
    4265e346:	0000                	.insn	2, 0x0000
    4265e348:	50df 10a9 0000      	.insn	6, 0x10a950df
    4265e34e:	0000                	.insn	2, 0x0000
    4265e350:	54df 10a9 0000      	.insn	6, 0x10a954df
    4265e356:	0000                	.insn	2, 0x0000
    4265e358:	58df 10a9 0000      	.insn	6, 0x10a958df
    4265e35e:	0000                	.insn	2, 0x0000
    4265e360:	5cdf 10a9 0000      	.insn	6, 0x10a95cdf
    4265e366:	0000                	.insn	2, 0x0000
    4265e368:	60df 10a9 0000      	.insn	6, 0x10a960df
    4265e36e:	0000                	.insn	2, 0x0000
    4265e370:	64df 10a9 0000      	.insn	6, 0x10a964df
    4265e376:	0000                	.insn	2, 0x0000
    4265e378:	68df 10a9 0000      	.insn	6, 0x10a968df
    4265e37e:	0000                	.insn	2, 0x0000
    4265e380:	6cdf 10a9 0000      	.insn	6, 0x10a96cdf
    4265e386:	0000                	.insn	2, 0x0000
    4265e388:	70df 10a9 0000      	.insn	6, 0x10a970df
    4265e38e:	0000                	.insn	2, 0x0000
    4265e390:	74df 10a9 0000      	.insn	6, 0x10a974df
    4265e396:	0000                	.insn	2, 0x0000
    4265e398:	78df 10a9 0000      	.insn	6, 0x10a978df
    4265e39e:	0000                	.insn	2, 0x0000
    4265e3a0:	7cdf 10a9 0000      	.insn	6, 0x10a97cdf
    4265e3a6:	0000                	.insn	2, 0x0000
    4265e3a8:	80df 10a9 0000      	.insn	6, 0x10a980df
    4265e3ae:	0000                	.insn	2, 0x0000
    4265e3b0:	84df 10a9 0000      	.insn	6, 0x10a984df
    4265e3b6:	0000                	.insn	2, 0x0000
    4265e3b8:	88df 10a9 0000      	.insn	6, 0x10a988df
    4265e3be:	0000                	.insn	2, 0x0000
    4265e3c0:	8cdf 10a9 0000      	.insn	6, 0x10a98cdf
    4265e3c6:	0000                	.insn	2, 0x0000
    4265e3c8:	90df 10a9 0000      	.insn	6, 0x10a990df
    4265e3ce:	0000                	.insn	2, 0x0000
    4265e3d0:	94df 10a9 0000      	.insn	6, 0x10a994df
    4265e3d6:	0000                	.insn	2, 0x0000
    4265e3d8:	98df 10a9 0000      	.insn	6, 0x10a998df
    4265e3de:	0000                	.insn	2, 0x0000
    4265e3e0:	9cdf 10a9 0000      	.insn	6, 0x10a99cdf
    4265e3e6:	0000                	.insn	2, 0x0000
    4265e3e8:	a0df 10a9 0000      	.insn	6, 0x10a9a0df
    4265e3ee:	0000                	.insn	2, 0x0000
    4265e3f0:	a4df 10a9 0000      	.insn	6, 0x10a9a4df
    4265e3f6:	0000                	.insn	2, 0x0000
    4265e3f8:	a8df 10a9 0000      	.insn	6, 0x10a9a8df
    4265e3fe:	0000                	.insn	2, 0x0000
    4265e400:	acdf 10a9 0000      	.insn	6, 0x10a9acdf
    4265e406:	0000                	.insn	2, 0x0000
    4265e408:	b0df 10a9 0000      	.insn	6, 0x10a9b0df
    4265e40e:	0000                	.insn	2, 0x0000
    4265e410:	b4df 10a9 0000      	.insn	6, 0x10a9b4df
    4265e416:	0000                	.insn	2, 0x0000
    4265e418:	b8df 10a9 0000      	.insn	6, 0x10a9b8df
    4265e41e:	0000                	.insn	2, 0x0000
    4265e420:	bcdf 10a9 0000      	.insn	6, 0x10a9bcdf
    4265e426:	0000                	.insn	2, 0x0000
    4265e428:	c0df 10a9 0000      	.insn	6, 0x10a9c0df
    4265e42e:	0000                	.insn	2, 0x0000
    4265e430:	c4df 10a9 0000      	.insn	6, 0x10a9c4df
    4265e436:	0000                	.insn	2, 0x0000
    4265e438:	c8df 10a9 0000      	.insn	6, 0x10a9c8df
    4265e43e:	0000                	.insn	2, 0x0000
    4265e440:	ccdf 10a9 0000      	.insn	6, 0x10a9ccdf
    4265e446:	0000                	.insn	2, 0x0000
    4265e448:	d0df 10a9 0000      	.insn	6, 0x10a9d0df
    4265e44e:	0000                	.insn	2, 0x0000
    4265e450:	d4df 10a9 0000      	.insn	6, 0x10a9d4df
    4265e456:	0000                	.insn	2, 0x0000
    4265e458:	d8df 10a9 0000      	.insn	6, 0x10a9d8df
    4265e45e:	0000                	.insn	2, 0x0000
    4265e460:	dcdf 10a9 0000      	.insn	6, 0x10a9dcdf
    4265e466:	0000                	.insn	2, 0x0000
    4265e468:	e0df 10a9 0000      	.insn	6, 0x10a9e0df
    4265e46e:	0000                	.insn	2, 0x0000
    4265e470:	e4df 10a9 0000      	.insn	6, 0x10a9e4df
    4265e476:	0000                	.insn	2, 0x0000
    4265e478:	e8df 10a9 0000      	.insn	6, 0x10a9e8df
    4265e47e:	0000                	.insn	2, 0x0000
    4265e480:	ecdf 10a9 0000      	.insn	6, 0x10a9ecdf
    4265e486:	0000                	.insn	2, 0x0000
    4265e488:	f0df 10a9 0000      	.insn	6, 0x10a9f0df
    4265e48e:	0000                	.insn	2, 0x0000
    4265e490:	f4df 10a9 0000      	.insn	6, 0x10a9f4df
    4265e496:	0000                	.insn	2, 0x0000
    4265e498:	f8df 10a9 0000      	.insn	6, 0x10a9f8df
    4265e49e:	0000                	.insn	2, 0x0000
    4265e4a0:	fcdf 10a9 0000      	.insn	6, 0x10a9fcdf
    4265e4a6:	0000                	.insn	2, 0x0000
    4265e4a8:	10aa00cf          	fnmadd.s	f1,f20,f10,f2,rne
    4265e4ac:	0000                	.insn	2, 0x0000
    4265e4ae:	0000                	.insn	2, 0x0000
    4265e4b0:	10aa04cf          	fnmadd.s	f9,f20,f10,f2,rne
    4265e4b4:	0000                	.insn	2, 0x0000
    4265e4b6:	0000                	.insn	2, 0x0000
    4265e4b8:	10aa08cf          	fnmadd.s	f17,f20,f10,f2,rne
    4265e4bc:	0000                	.insn	2, 0x0000
    4265e4be:	0000                	.insn	2, 0x0000
    4265e4c0:	10aa0ccf          	fnmadd.s	f25,f20,f10,f2,rne
    4265e4c4:	0000                	.insn	2, 0x0000
    4265e4c6:	0000                	.insn	2, 0x0000
    4265e4c8:	10aa10cf          	fnmadd.s	f1,f20,f10,f2,rtz
    4265e4cc:	0000                	.insn	2, 0x0000
    4265e4ce:	0000                	.insn	2, 0x0000
    4265e4d0:	10aa14cf          	fnmadd.s	f9,f20,f10,f2,rtz
    4265e4d4:	0000                	.insn	2, 0x0000
    4265e4d6:	0000                	.insn	2, 0x0000
    4265e4d8:	10aa18cf          	fnmadd.s	f17,f20,f10,f2,rtz
    4265e4dc:	0000                	.insn	2, 0x0000
    4265e4de:	0000                	.insn	2, 0x0000
    4265e4e0:	10aa1ccf          	fnmadd.s	f25,f20,f10,f2,rtz
    4265e4e4:	0000                	.insn	2, 0x0000
    4265e4e6:	0000                	.insn	2, 0x0000
    4265e4e8:	10aa20cf          	fnmadd.s	f1,f20,f10,f2,rdn
    4265e4ec:	0000                	.insn	2, 0x0000
    4265e4ee:	0000                	.insn	2, 0x0000
    4265e4f0:	10aa24cf          	fnmadd.s	f9,f20,f10,f2,rdn
    4265e4f4:	0000                	.insn	2, 0x0000
    4265e4f6:	0000                	.insn	2, 0x0000
    4265e4f8:	10aa28cf          	fnmadd.s	f17,f20,f10,f2,rdn
    4265e4fc:	0000                	.insn	2, 0x0000
    4265e4fe:	0000                	.insn	2, 0x0000
    4265e500:	10aa2ccf          	fnmadd.s	f25,f20,f10,f2,rdn
    4265e504:	0000                	.insn	2, 0x0000
    4265e506:	0000                	.insn	2, 0x0000
    4265e508:	10aa30cf          	fnmadd.s	f1,f20,f10,f2,rup
    4265e50c:	0000                	.insn	2, 0x0000
    4265e50e:	0000                	.insn	2, 0x0000
    4265e510:	10aa34cf          	fnmadd.s	f9,f20,f10,f2,rup
    4265e514:	0000                	.insn	2, 0x0000
    4265e516:	0000                	.insn	2, 0x0000
    4265e518:	10aa38cf          	fnmadd.s	f17,f20,f10,f2,rup
    4265e51c:	0000                	.insn	2, 0x0000
    4265e51e:	0000                	.insn	2, 0x0000
    4265e520:	10aa3ccf          	fnmadd.s	f25,f20,f10,f2,rup
    4265e524:	0000                	.insn	2, 0x0000
    4265e526:	0000                	.insn	2, 0x0000
    4265e528:	10aa40cf          	fnmadd.s	f1,f20,f10,f2,rmm
    4265e52c:	0000                	.insn	2, 0x0000
    4265e52e:	0000                	.insn	2, 0x0000
    4265e530:	10aa44cf          	fnmadd.s	f9,f20,f10,f2,rmm
    4265e534:	0000                	.insn	2, 0x0000
    4265e536:	0000                	.insn	2, 0x0000
    4265e538:	10aa48cf          	fnmadd.s	f17,f20,f10,f2,rmm
    4265e53c:	0000                	.insn	2, 0x0000
    4265e53e:	0000                	.insn	2, 0x0000
    4265e540:	10aa4ccf          	fnmadd.s	f25,f20,f10,f2,rmm
    4265e544:	0000                	.insn	2, 0x0000
    4265e546:	0000                	.insn	2, 0x0000
    4265e548:	10aa50cf          	fnmadd.s	f1,f20,f10,f2,unknown
    4265e54c:	0000                	.insn	2, 0x0000
    4265e54e:	0000                	.insn	2, 0x0000
    4265e550:	10aa54cf          	fnmadd.s	f9,f20,f10,f2,unknown
    4265e554:	0000                	.insn	2, 0x0000
    4265e556:	0000                	.insn	2, 0x0000
    4265e558:	10aa58cf          	fnmadd.s	f17,f20,f10,f2,unknown
    4265e55c:	0000                	.insn	2, 0x0000
    4265e55e:	0000                	.insn	2, 0x0000
    4265e560:	10aa5ccf          	fnmadd.s	f25,f20,f10,f2,unknown
    4265e564:	0000                	.insn	2, 0x0000
    4265e566:	0000                	.insn	2, 0x0000
    4265e568:	10aa60cf          	fnmadd.s	f1,f20,f10,f2,unknown
    4265e56c:	0000                	.insn	2, 0x0000
    4265e56e:	0000                	.insn	2, 0x0000
    4265e570:	10aa64cf          	fnmadd.s	f9,f20,f10,f2,unknown
    4265e574:	0000                	.insn	2, 0x0000
    4265e576:	0000                	.insn	2, 0x0000
    4265e578:	10aa68cf          	fnmadd.s	f17,f20,f10,f2,unknown
    4265e57c:	0000                	.insn	2, 0x0000
    4265e57e:	0000                	.insn	2, 0x0000
    4265e580:	10aa6ccf          	fnmadd.s	f25,f20,f10,f2,unknown
    4265e584:	0000                	.insn	2, 0x0000
    4265e586:	0000                	.insn	2, 0x0000
    4265e588:	10aa70cf          	fnmadd.s	f1,f20,f10,f2
    4265e58c:	0000                	.insn	2, 0x0000
    4265e58e:	0000                	.insn	2, 0x0000
    4265e590:	10aa74cf          	fnmadd.s	f9,f20,f10,f2
    4265e594:	0000                	.insn	2, 0x0000
    4265e596:	0000                	.insn	2, 0x0000
    4265e598:	10aa78cf          	fnmadd.s	f17,f20,f10,f2
    4265e59c:	0000                	.insn	2, 0x0000
    4265e59e:	0000                	.insn	2, 0x0000
    4265e5a0:	10aa7ccf          	fnmadd.s	f25,f20,f10,f2
    4265e5a4:	0000                	.insn	2, 0x0000
    4265e5a6:	0000                	.insn	2, 0x0000
    4265e5a8:	10aa80cf          	fnmadd.s	f1,f21,f10,f2,rne
    4265e5ac:	0000                	.insn	2, 0x0000
    4265e5ae:	0000                	.insn	2, 0x0000
    4265e5b0:	10aa84cf          	fnmadd.s	f9,f21,f10,f2,rne
    4265e5b4:	0000                	.insn	2, 0x0000
    4265e5b6:	0000                	.insn	2, 0x0000
    4265e5b8:	10aa88cf          	fnmadd.s	f17,f21,f10,f2,rne
    4265e5bc:	0000                	.insn	2, 0x0000
    4265e5be:	0000                	.insn	2, 0x0000
    4265e5c0:	10aa8ccf          	fnmadd.s	f25,f21,f10,f2,rne
    4265e5c4:	0000                	.insn	2, 0x0000
    4265e5c6:	0000                	.insn	2, 0x0000
    4265e5c8:	10aa90cf          	fnmadd.s	f1,f21,f10,f2,rtz
    4265e5cc:	0000                	.insn	2, 0x0000
    4265e5ce:	0000                	.insn	2, 0x0000
    4265e5d0:	10aa94cf          	fnmadd.s	f9,f21,f10,f2,rtz
    4265e5d4:	0000                	.insn	2, 0x0000
    4265e5d6:	0000                	.insn	2, 0x0000
    4265e5d8:	10aa98cf          	fnmadd.s	f17,f21,f10,f2,rtz
    4265e5dc:	0000                	.insn	2, 0x0000
    4265e5de:	0000                	.insn	2, 0x0000
    4265e5e0:	10aa9ccf          	fnmadd.s	f25,f21,f10,f2,rtz
    4265e5e4:	0000                	.insn	2, 0x0000
    4265e5e6:	0000                	.insn	2, 0x0000
    4265e5e8:	10aaa0cf          	fnmadd.s	f1,f21,f10,f2,rdn
    4265e5ec:	0000                	.insn	2, 0x0000
    4265e5ee:	0000                	.insn	2, 0x0000
    4265e5f0:	10aaa4cf          	fnmadd.s	f9,f21,f10,f2,rdn
    4265e5f4:	0000                	.insn	2, 0x0000
    4265e5f6:	0000                	.insn	2, 0x0000
    4265e5f8:	10aaa8cf          	fnmadd.s	f17,f21,f10,f2,rdn
    4265e5fc:	0000                	.insn	2, 0x0000
    4265e5fe:	0000                	.insn	2, 0x0000
    4265e600:	10aaaccf          	fnmadd.s	f25,f21,f10,f2,rdn
    4265e604:	0000                	.insn	2, 0x0000
    4265e606:	0000                	.insn	2, 0x0000
    4265e608:	10aab0cf          	fnmadd.s	f1,f21,f10,f2,rup
    4265e60c:	0000                	.insn	2, 0x0000
    4265e60e:	0000                	.insn	2, 0x0000
    4265e610:	10aab4cf          	fnmadd.s	f9,f21,f10,f2,rup
    4265e614:	0000                	.insn	2, 0x0000
    4265e616:	0000                	.insn	2, 0x0000
    4265e618:	10aab8cf          	fnmadd.s	f17,f21,f10,f2,rup
    4265e61c:	0000                	.insn	2, 0x0000
    4265e61e:	0000                	.insn	2, 0x0000
    4265e620:	10aabccf          	fnmadd.s	f25,f21,f10,f2,rup
    4265e624:	0000                	.insn	2, 0x0000
    4265e626:	0000                	.insn	2, 0x0000
    4265e628:	10aac0cf          	fnmadd.s	f1,f21,f10,f2,rmm
    4265e62c:	0000                	.insn	2, 0x0000
    4265e62e:	0000                	.insn	2, 0x0000
    4265e630:	10aac4cf          	fnmadd.s	f9,f21,f10,f2,rmm
    4265e634:	0000                	.insn	2, 0x0000
    4265e636:	0000                	.insn	2, 0x0000
    4265e638:	10aac8cf          	fnmadd.s	f17,f21,f10,f2,rmm
    4265e63c:	0000                	.insn	2, 0x0000
    4265e63e:	0000                	.insn	2, 0x0000
    4265e640:	10aacccf          	fnmadd.s	f25,f21,f10,f2,rmm
    4265e644:	0000                	.insn	2, 0x0000
    4265e646:	0000                	.insn	2, 0x0000
    4265e648:	10aad0cf          	fnmadd.s	f1,f21,f10,f2,unknown
    4265e64c:	0000                	.insn	2, 0x0000
    4265e64e:	0000                	.insn	2, 0x0000
    4265e650:	10aad4cf          	fnmadd.s	f9,f21,f10,f2,unknown
    4265e654:	0000                	.insn	2, 0x0000
    4265e656:	0000                	.insn	2, 0x0000
    4265e658:	10aad8cf          	fnmadd.s	f17,f21,f10,f2,unknown
    4265e65c:	0000                	.insn	2, 0x0000
    4265e65e:	0000                	.insn	2, 0x0000
    4265e660:	10aadccf          	fnmadd.s	f25,f21,f10,f2,unknown
    4265e664:	0000                	.insn	2, 0x0000
    4265e666:	0000                	.insn	2, 0x0000
    4265e668:	10aae0cf          	fnmadd.s	f1,f21,f10,f2,unknown
    4265e66c:	0000                	.insn	2, 0x0000
    4265e66e:	0000                	.insn	2, 0x0000
    4265e670:	10aae4cf          	fnmadd.s	f9,f21,f10,f2,unknown
    4265e674:	0000                	.insn	2, 0x0000
    4265e676:	0000                	.insn	2, 0x0000
    4265e678:	10aae8cf          	fnmadd.s	f17,f21,f10,f2,unknown
    4265e67c:	0000                	.insn	2, 0x0000
    4265e67e:	0000                	.insn	2, 0x0000
    4265e680:	10aaeccf          	fnmadd.s	f25,f21,f10,f2,unknown
    4265e684:	0000                	.insn	2, 0x0000
    4265e686:	0000                	.insn	2, 0x0000
    4265e688:	10aaf0cf          	fnmadd.s	f1,f21,f10,f2
    4265e68c:	0000                	.insn	2, 0x0000
    4265e68e:	0000                	.insn	2, 0x0000
    4265e690:	10aaf4cf          	fnmadd.s	f9,f21,f10,f2
    4265e694:	0000                	.insn	2, 0x0000
    4265e696:	0000                	.insn	2, 0x0000
    4265e698:	10aaf8cf          	fnmadd.s	f17,f21,f10,f2
    4265e69c:	0000                	.insn	2, 0x0000
    4265e69e:	0000                	.insn	2, 0x0000
    4265e6a0:	10aafccf          	fnmadd.s	f25,f21,f10,f2
    4265e6a4:	0000                	.insn	2, 0x0000
    4265e6a6:	0000                	.insn	2, 0x0000
    4265e6a8:	10ab00cf          	fnmadd.s	f1,f22,f10,f2,rne
    4265e6ac:	0000                	.insn	2, 0x0000
    4265e6ae:	0000                	.insn	2, 0x0000
    4265e6b0:	10ab04cf          	fnmadd.s	f9,f22,f10,f2,rne
    4265e6b4:	0000                	.insn	2, 0x0000
    4265e6b6:	0000                	.insn	2, 0x0000
    4265e6b8:	10ab08cf          	fnmadd.s	f17,f22,f10,f2,rne
    4265e6bc:	0000                	.insn	2, 0x0000
    4265e6be:	0000                	.insn	2, 0x0000
    4265e6c0:	10ab0ccf          	fnmadd.s	f25,f22,f10,f2,rne
    4265e6c4:	0000                	.insn	2, 0x0000
    4265e6c6:	0000                	.insn	2, 0x0000
    4265e6c8:	10ab10cf          	fnmadd.s	f1,f22,f10,f2,rtz
    4265e6cc:	0000                	.insn	2, 0x0000
    4265e6ce:	0000                	.insn	2, 0x0000
    4265e6d0:	10ab14cf          	fnmadd.s	f9,f22,f10,f2,rtz
    4265e6d4:	0000                	.insn	2, 0x0000
    4265e6d6:	0000                	.insn	2, 0x0000
    4265e6d8:	10ab18cf          	fnmadd.s	f17,f22,f10,f2,rtz
    4265e6dc:	0000                	.insn	2, 0x0000
    4265e6de:	0000                	.insn	2, 0x0000
    4265e6e0:	10ab1ccf          	fnmadd.s	f25,f22,f10,f2,rtz
    4265e6e4:	0000                	.insn	2, 0x0000
    4265e6e6:	0000                	.insn	2, 0x0000
    4265e6e8:	10ab20cf          	fnmadd.s	f1,f22,f10,f2,rdn
    4265e6ec:	0000                	.insn	2, 0x0000
    4265e6ee:	0000                	.insn	2, 0x0000
    4265e6f0:	10ab24cf          	fnmadd.s	f9,f22,f10,f2,rdn
    4265e6f4:	0000                	.insn	2, 0x0000
    4265e6f6:	0000                	.insn	2, 0x0000
    4265e6f8:	10ab28cf          	fnmadd.s	f17,f22,f10,f2,rdn
    4265e6fc:	0000                	.insn	2, 0x0000
    4265e6fe:	0000                	.insn	2, 0x0000
    4265e700:	10ab2ccf          	fnmadd.s	f25,f22,f10,f2,rdn
    4265e704:	0000                	.insn	2, 0x0000
    4265e706:	0000                	.insn	2, 0x0000
    4265e708:	10ab30cf          	fnmadd.s	f1,f22,f10,f2,rup
    4265e70c:	0000                	.insn	2, 0x0000
    4265e70e:	0000                	.insn	2, 0x0000
    4265e710:	10ab34cf          	fnmadd.s	f9,f22,f10,f2,rup
    4265e714:	0000                	.insn	2, 0x0000
    4265e716:	0000                	.insn	2, 0x0000
    4265e718:	10ab38cf          	fnmadd.s	f17,f22,f10,f2,rup
    4265e71c:	0000                	.insn	2, 0x0000
    4265e71e:	0000                	.insn	2, 0x0000
    4265e720:	10ab3ccf          	fnmadd.s	f25,f22,f10,f2,rup
    4265e724:	0000                	.insn	2, 0x0000
    4265e726:	0000                	.insn	2, 0x0000
    4265e728:	10ab40cf          	fnmadd.s	f1,f22,f10,f2,rmm
    4265e72c:	0000                	.insn	2, 0x0000
    4265e72e:	0000                	.insn	2, 0x0000
    4265e730:	10ab44cf          	fnmadd.s	f9,f22,f10,f2,rmm
    4265e734:	0000                	.insn	2, 0x0000
    4265e736:	0000                	.insn	2, 0x0000
    4265e738:	10ab48cf          	fnmadd.s	f17,f22,f10,f2,rmm
    4265e73c:	0000                	.insn	2, 0x0000
    4265e73e:	0000                	.insn	2, 0x0000
    4265e740:	10ab4ccf          	fnmadd.s	f25,f22,f10,f2,rmm
    4265e744:	0000                	.insn	2, 0x0000
    4265e746:	0000                	.insn	2, 0x0000
    4265e748:	10ab50cf          	fnmadd.s	f1,f22,f10,f2,unknown
    4265e74c:	0000                	.insn	2, 0x0000
    4265e74e:	0000                	.insn	2, 0x0000
    4265e750:	10ab54cf          	fnmadd.s	f9,f22,f10,f2,unknown
    4265e754:	0000                	.insn	2, 0x0000
    4265e756:	0000                	.insn	2, 0x0000
    4265e758:	10ab58cf          	fnmadd.s	f17,f22,f10,f2,unknown
    4265e75c:	0000                	.insn	2, 0x0000
    4265e75e:	0000                	.insn	2, 0x0000
    4265e760:	10ab5ccf          	fnmadd.s	f25,f22,f10,f2,unknown
    4265e764:	0000                	.insn	2, 0x0000
    4265e766:	0000                	.insn	2, 0x0000
    4265e768:	10ab60cf          	fnmadd.s	f1,f22,f10,f2,unknown
    4265e76c:	0000                	.insn	2, 0x0000
    4265e76e:	0000                	.insn	2, 0x0000
    4265e770:	10ab64cf          	fnmadd.s	f9,f22,f10,f2,unknown
    4265e774:	0000                	.insn	2, 0x0000
    4265e776:	0000                	.insn	2, 0x0000
    4265e778:	10ab68cf          	fnmadd.s	f17,f22,f10,f2,unknown
    4265e77c:	0000                	.insn	2, 0x0000
    4265e77e:	0000                	.insn	2, 0x0000
    4265e780:	10ab6ccf          	fnmadd.s	f25,f22,f10,f2,unknown
    4265e784:	0000                	.insn	2, 0x0000
    4265e786:	0000                	.insn	2, 0x0000
    4265e788:	10ab70cf          	fnmadd.s	f1,f22,f10,f2
    4265e78c:	0000                	.insn	2, 0x0000
    4265e78e:	0000                	.insn	2, 0x0000
    4265e790:	10ab74cf          	fnmadd.s	f9,f22,f10,f2
    4265e794:	0000                	.insn	2, 0x0000
    4265e796:	0000                	.insn	2, 0x0000
    4265e798:	10ab78cf          	fnmadd.s	f17,f22,f10,f2
    4265e79c:	0000                	.insn	2, 0x0000
    4265e79e:	0000                	.insn	2, 0x0000
    4265e7a0:	10ab7ccf          	fnmadd.s	f25,f22,f10,f2
    4265e7a4:	0000                	.insn	2, 0x0000
    4265e7a6:	0000                	.insn	2, 0x0000
    4265e7a8:	10ab80cf          	fnmadd.s	f1,f23,f10,f2,rne
    4265e7ac:	0000                	.insn	2, 0x0000
    4265e7ae:	0000                	.insn	2, 0x0000
    4265e7b0:	10ab84cf          	fnmadd.s	f9,f23,f10,f2,rne
    4265e7b4:	0000                	.insn	2, 0x0000
    4265e7b6:	0000                	.insn	2, 0x0000
    4265e7b8:	10ab88cf          	fnmadd.s	f17,f23,f10,f2,rne
    4265e7bc:	0000                	.insn	2, 0x0000
    4265e7be:	0000                	.insn	2, 0x0000
    4265e7c0:	10ab8ccf          	fnmadd.s	f25,f23,f10,f2,rne
    4265e7c4:	0000                	.insn	2, 0x0000
    4265e7c6:	0000                	.insn	2, 0x0000
    4265e7c8:	10ab90cf          	fnmadd.s	f1,f23,f10,f2,rtz
    4265e7cc:	0000                	.insn	2, 0x0000
    4265e7ce:	0000                	.insn	2, 0x0000
    4265e7d0:	10ab94cf          	fnmadd.s	f9,f23,f10,f2,rtz
    4265e7d4:	0000                	.insn	2, 0x0000
    4265e7d6:	0000                	.insn	2, 0x0000
    4265e7d8:	10ab98cf          	fnmadd.s	f17,f23,f10,f2,rtz
    4265e7dc:	0000                	.insn	2, 0x0000
    4265e7de:	0000                	.insn	2, 0x0000
    4265e7e0:	10ab9ccf          	fnmadd.s	f25,f23,f10,f2,rtz
    4265e7e4:	0000                	.insn	2, 0x0000
    4265e7e6:	0000                	.insn	2, 0x0000
    4265e7e8:	10aba0cf          	fnmadd.s	f1,f23,f10,f2,rdn
    4265e7ec:	0000                	.insn	2, 0x0000
    4265e7ee:	0000                	.insn	2, 0x0000
    4265e7f0:	10aba4cf          	fnmadd.s	f9,f23,f10,f2,rdn
    4265e7f4:	0000                	.insn	2, 0x0000
    4265e7f6:	0000                	.insn	2, 0x0000
    4265e7f8:	10aba8cf          	fnmadd.s	f17,f23,f10,f2,rdn
    4265e7fc:	0000                	.insn	2, 0x0000
    4265e7fe:	0000                	.insn	2, 0x0000
    4265e800:	10abaccf          	fnmadd.s	f25,f23,f10,f2,rdn
    4265e804:	0000                	.insn	2, 0x0000
    4265e806:	0000                	.insn	2, 0x0000
    4265e808:	10abb0cf          	fnmadd.s	f1,f23,f10,f2,rup
    4265e80c:	0000                	.insn	2, 0x0000
    4265e80e:	0000                	.insn	2, 0x0000
    4265e810:	10abb4cf          	fnmadd.s	f9,f23,f10,f2,rup
    4265e814:	0000                	.insn	2, 0x0000
    4265e816:	0000                	.insn	2, 0x0000
    4265e818:	10abb8cf          	fnmadd.s	f17,f23,f10,f2,rup
    4265e81c:	0000                	.insn	2, 0x0000
    4265e81e:	0000                	.insn	2, 0x0000
    4265e820:	10abbccf          	fnmadd.s	f25,f23,f10,f2,rup
    4265e824:	0000                	.insn	2, 0x0000
    4265e826:	0000                	.insn	2, 0x0000
    4265e828:	10abc0cf          	fnmadd.s	f1,f23,f10,f2,rmm
    4265e82c:	0000                	.insn	2, 0x0000
    4265e82e:	0000                	.insn	2, 0x0000
    4265e830:	10abc4cf          	fnmadd.s	f9,f23,f10,f2,rmm
    4265e834:	0000                	.insn	2, 0x0000
    4265e836:	0000                	.insn	2, 0x0000
    4265e838:	10abc8cf          	fnmadd.s	f17,f23,f10,f2,rmm
    4265e83c:	0000                	.insn	2, 0x0000
    4265e83e:	0000                	.insn	2, 0x0000
    4265e840:	10abcccf          	fnmadd.s	f25,f23,f10,f2,rmm
    4265e844:	0000                	.insn	2, 0x0000
    4265e846:	0000                	.insn	2, 0x0000
    4265e848:	10abd0cf          	fnmadd.s	f1,f23,f10,f2,unknown
    4265e84c:	0000                	.insn	2, 0x0000
    4265e84e:	0000                	.insn	2, 0x0000
    4265e850:	10abd4cf          	fnmadd.s	f9,f23,f10,f2,unknown
    4265e854:	0000                	.insn	2, 0x0000
    4265e856:	0000                	.insn	2, 0x0000
    4265e858:	10abd8cf          	fnmadd.s	f17,f23,f10,f2,unknown
    4265e85c:	0000                	.insn	2, 0x0000
    4265e85e:	0000                	.insn	2, 0x0000
    4265e860:	10abdccf          	fnmadd.s	f25,f23,f10,f2,unknown
    4265e864:	0000                	.insn	2, 0x0000
    4265e866:	0000                	.insn	2, 0x0000
    4265e868:	10abe0cf          	fnmadd.s	f1,f23,f10,f2,unknown
    4265e86c:	0000                	.insn	2, 0x0000
    4265e86e:	0000                	.insn	2, 0x0000
    4265e870:	10abe4cf          	fnmadd.s	f9,f23,f10,f2,unknown
    4265e874:	0000                	.insn	2, 0x0000
    4265e876:	0000                	.insn	2, 0x0000
    4265e878:	10abe8cf          	fnmadd.s	f17,f23,f10,f2,unknown
    4265e87c:	0000                	.insn	2, 0x0000
    4265e87e:	0000                	.insn	2, 0x0000
    4265e880:	10abeccf          	fnmadd.s	f25,f23,f10,f2,unknown
    4265e884:	0000                	.insn	2, 0x0000
    4265e886:	0000                	.insn	2, 0x0000
    4265e888:	10abf0cf          	fnmadd.s	f1,f23,f10,f2
    4265e88c:	0000                	.insn	2, 0x0000
    4265e88e:	0000                	.insn	2, 0x0000
    4265e890:	10abf4cf          	fnmadd.s	f9,f23,f10,f2
    4265e894:	0000                	.insn	2, 0x0000
    4265e896:	0000                	.insn	2, 0x0000
    4265e898:	10abf8cf          	fnmadd.s	f17,f23,f10,f2
    4265e89c:	0000                	.insn	2, 0x0000
    4265e89e:	0000                	.insn	2, 0x0000
    4265e8a0:	10abfccf          	fnmadd.s	f25,f23,f10,f2
    4265e8a4:	0000                	.insn	2, 0x0000
    4265e8a6:	0000                	.insn	2, 0x0000
    4265e8a8:	00df 10ac 0000      	.insn	6, 0x10ac00df
    4265e8ae:	0000                	.insn	2, 0x0000
    4265e8b0:	04df 10ac 0000      	.insn	6, 0x10ac04df
    4265e8b6:	0000                	.insn	2, 0x0000
    4265e8b8:	08df 10ac 0000      	.insn	6, 0x10ac08df
    4265e8be:	0000                	.insn	2, 0x0000
    4265e8c0:	0cdf 10ac 0000      	.insn	6, 0x10ac0cdf
    4265e8c6:	0000                	.insn	2, 0x0000
    4265e8c8:	10df 10ac 0000      	.insn	6, 0x10ac10df
    4265e8ce:	0000                	.insn	2, 0x0000
    4265e8d0:	14df 10ac 0000      	.insn	6, 0x10ac14df
    4265e8d6:	0000                	.insn	2, 0x0000
    4265e8d8:	18df 10ac 0000      	.insn	6, 0x10ac18df
    4265e8de:	0000                	.insn	2, 0x0000
    4265e8e0:	1cdf 10ac 0000      	.insn	6, 0x10ac1cdf
    4265e8e6:	0000                	.insn	2, 0x0000
    4265e8e8:	20df 10ac 0000      	.insn	6, 0x10ac20df
    4265e8ee:	0000                	.insn	2, 0x0000
    4265e8f0:	24df 10ac 0000      	.insn	6, 0x10ac24df
    4265e8f6:	0000                	.insn	2, 0x0000
    4265e8f8:	28df 10ac 0000      	.insn	6, 0x10ac28df
    4265e8fe:	0000                	.insn	2, 0x0000
    4265e900:	2cdf 10ac 0000      	.insn	6, 0x10ac2cdf
    4265e906:	0000                	.insn	2, 0x0000
    4265e908:	30df 10ac 0000      	.insn	6, 0x10ac30df
    4265e90e:	0000                	.insn	2, 0x0000
    4265e910:	34df 10ac 0000      	.insn	6, 0x10ac34df
    4265e916:	0000                	.insn	2, 0x0000
    4265e918:	38df 10ac 0000      	.insn	6, 0x10ac38df
    4265e91e:	0000                	.insn	2, 0x0000
    4265e920:	3cdf 10ac 0000      	.insn	6, 0x10ac3cdf
    4265e926:	0000                	.insn	2, 0x0000
    4265e928:	40df 10ac 0000      	.insn	6, 0x10ac40df
    4265e92e:	0000                	.insn	2, 0x0000
    4265e930:	44df 10ac 0000      	.insn	6, 0x10ac44df
    4265e936:	0000                	.insn	2, 0x0000
    4265e938:	48df 10ac 0000      	.insn	6, 0x10ac48df
    4265e93e:	0000                	.insn	2, 0x0000
    4265e940:	4cdf 10ac 0000      	.insn	6, 0x10ac4cdf
    4265e946:	0000                	.insn	2, 0x0000
    4265e948:	50df 10ac 0000      	.insn	6, 0x10ac50df
    4265e94e:	0000                	.insn	2, 0x0000
    4265e950:	54df 10ac 0000      	.insn	6, 0x10ac54df
    4265e956:	0000                	.insn	2, 0x0000
    4265e958:	58df 10ac 0000      	.insn	6, 0x10ac58df
    4265e95e:	0000                	.insn	2, 0x0000
    4265e960:	5cdf 10ac 0000      	.insn	6, 0x10ac5cdf
    4265e966:	0000                	.insn	2, 0x0000
    4265e968:	60df 10ac 0000      	.insn	6, 0x10ac60df
    4265e96e:	0000                	.insn	2, 0x0000
    4265e970:	64df 10ac 0000      	.insn	6, 0x10ac64df
    4265e976:	0000                	.insn	2, 0x0000
    4265e978:	68df 10ac 0000      	.insn	6, 0x10ac68df
    4265e97e:	0000                	.insn	2, 0x0000
    4265e980:	6cdf 10ac 0000      	.insn	6, 0x10ac6cdf
    4265e986:	0000                	.insn	2, 0x0000
    4265e988:	70df 10ac 0000      	.insn	6, 0x10ac70df
    4265e98e:	0000                	.insn	2, 0x0000
    4265e990:	74df 10ac 0000      	.insn	6, 0x10ac74df
    4265e996:	0000                	.insn	2, 0x0000
    4265e998:	78df 10ac 0000      	.insn	6, 0x10ac78df
    4265e99e:	0000                	.insn	2, 0x0000
    4265e9a0:	7cdf 10ac 0000      	.insn	6, 0x10ac7cdf
    4265e9a6:	0000                	.insn	2, 0x0000
    4265e9a8:	80df 10ac 0000      	.insn	6, 0x10ac80df
    4265e9ae:	0000                	.insn	2, 0x0000
    4265e9b0:	84df 10ac 0000      	.insn	6, 0x10ac84df
    4265e9b6:	0000                	.insn	2, 0x0000
    4265e9b8:	88df 10ac 0000      	.insn	6, 0x10ac88df
    4265e9be:	0000                	.insn	2, 0x0000
    4265e9c0:	8cdf 10ac 0000      	.insn	6, 0x10ac8cdf
    4265e9c6:	0000                	.insn	2, 0x0000
    4265e9c8:	90df 10ac 0000      	.insn	6, 0x10ac90df
    4265e9ce:	0000                	.insn	2, 0x0000
    4265e9d0:	94df 10ac 0000      	.insn	6, 0x10ac94df
    4265e9d6:	0000                	.insn	2, 0x0000
    4265e9d8:	98df 10ac 0000      	.insn	6, 0x10ac98df
    4265e9de:	0000                	.insn	2, 0x0000
    4265e9e0:	9cdf 10ac 0000      	.insn	6, 0x10ac9cdf
    4265e9e6:	0000                	.insn	2, 0x0000
    4265e9e8:	a0df 10ac 0000      	.insn	6, 0x10aca0df
    4265e9ee:	0000                	.insn	2, 0x0000
    4265e9f0:	a4df 10ac 0000      	.insn	6, 0x10aca4df
    4265e9f6:	0000                	.insn	2, 0x0000
    4265e9f8:	a8df 10ac 0000      	.insn	6, 0x10aca8df
    4265e9fe:	0000                	.insn	2, 0x0000
    4265ea00:	acdf 10ac 0000      	.insn	6, 0x10acacdf
    4265ea06:	0000                	.insn	2, 0x0000
    4265ea08:	b0df 10ac 0000      	.insn	6, 0x10acb0df
    4265ea0e:	0000                	.insn	2, 0x0000
    4265ea10:	b4df 10ac 0000      	.insn	6, 0x10acb4df
    4265ea16:	0000                	.insn	2, 0x0000
    4265ea18:	b8df 10ac 0000      	.insn	6, 0x10acb8df
    4265ea1e:	0000                	.insn	2, 0x0000
    4265ea20:	bcdf 10ac 0000      	.insn	6, 0x10acbcdf
    4265ea26:	0000                	.insn	2, 0x0000
    4265ea28:	c0df 10ac 0000      	.insn	6, 0x10acc0df
    4265ea2e:	0000                	.insn	2, 0x0000
    4265ea30:	c4df 10ac 0000      	.insn	6, 0x10acc4df
    4265ea36:	0000                	.insn	2, 0x0000
    4265ea38:	c8df 10ac 0000      	.insn	6, 0x10acc8df
    4265ea3e:	0000                	.insn	2, 0x0000
    4265ea40:	ccdf 10ac 0000      	.insn	6, 0x10acccdf
    4265ea46:	0000                	.insn	2, 0x0000
    4265ea48:	d0df 10ac 0000      	.insn	6, 0x10acd0df
    4265ea4e:	0000                	.insn	2, 0x0000
    4265ea50:	d4df 10ac 0000      	.insn	6, 0x10acd4df
    4265ea56:	0000                	.insn	2, 0x0000
    4265ea58:	d8df 10ac 0000      	.insn	6, 0x10acd8df
    4265ea5e:	0000                	.insn	2, 0x0000
    4265ea60:	dcdf 10ac 0000      	.insn	6, 0x10acdcdf
    4265ea66:	0000                	.insn	2, 0x0000
    4265ea68:	e0df 10ac 0000      	.insn	6, 0x10ace0df
    4265ea6e:	0000                	.insn	2, 0x0000
    4265ea70:	e4df 10ac 0000      	.insn	6, 0x10ace4df
    4265ea76:	0000                	.insn	2, 0x0000
    4265ea78:	e8df 10ac 0000      	.insn	6, 0x10ace8df
    4265ea7e:	0000                	.insn	2, 0x0000
    4265ea80:	ecdf 10ac 0000      	.insn	6, 0x10acecdf
    4265ea86:	0000                	.insn	2, 0x0000
    4265ea88:	f0df 10ac 0000      	.insn	6, 0x10acf0df
    4265ea8e:	0000                	.insn	2, 0x0000
    4265ea90:	f4df 10ac 0000      	.insn	6, 0x10acf4df
    4265ea96:	0000                	.insn	2, 0x0000
    4265ea98:	f8df 10ac 0000      	.insn	6, 0x10acf8df
    4265ea9e:	0000                	.insn	2, 0x0000
    4265eaa0:	fcdf 10ac 0000      	.insn	6, 0x10acfcdf
    4265eaa6:	0000                	.insn	2, 0x0000
    4265eaa8:	00df 10ad 0000      	.insn	6, 0x10ad00df
    4265eaae:	0000                	.insn	2, 0x0000
    4265eab0:	04df 10ad 0000      	.insn	6, 0x10ad04df
    4265eab6:	0000                	.insn	2, 0x0000
    4265eab8:	08df 10ad 0000      	.insn	6, 0x10ad08df
    4265eabe:	0000                	.insn	2, 0x0000
    4265eac0:	0cdf 10ad 0000      	.insn	6, 0x10ad0cdf
    4265eac6:	0000                	.insn	2, 0x0000
    4265eac8:	10df 10ad 0000      	.insn	6, 0x10ad10df
    4265eace:	0000                	.insn	2, 0x0000
    4265ead0:	14df 10ad 0000      	.insn	6, 0x10ad14df
    4265ead6:	0000                	.insn	2, 0x0000
    4265ead8:	18df 10ad 0000      	.insn	6, 0x10ad18df
    4265eade:	0000                	.insn	2, 0x0000
    4265eae0:	1cdf 10ad 0000      	.insn	6, 0x10ad1cdf
    4265eae6:	0000                	.insn	2, 0x0000
    4265eae8:	20df 10ad 0000      	.insn	6, 0x10ad20df
    4265eaee:	0000                	.insn	2, 0x0000
    4265eaf0:	24df 10ad 0000      	.insn	6, 0x10ad24df
    4265eaf6:	0000                	.insn	2, 0x0000
    4265eaf8:	28df 10ad 0000      	.insn	6, 0x10ad28df
    4265eafe:	0000                	.insn	2, 0x0000
    4265eb00:	2cdf 10ad 0000      	.insn	6, 0x10ad2cdf
    4265eb06:	0000                	.insn	2, 0x0000
    4265eb08:	30df 10ad 0000      	.insn	6, 0x10ad30df
    4265eb0e:	0000                	.insn	2, 0x0000
    4265eb10:	34df 10ad 0000      	.insn	6, 0x10ad34df
    4265eb16:	0000                	.insn	2, 0x0000
    4265eb18:	38df 10ad 0000      	.insn	6, 0x10ad38df
    4265eb1e:	0000                	.insn	2, 0x0000
    4265eb20:	3cdf 10ad 0000      	.insn	6, 0x10ad3cdf
    4265eb26:	0000                	.insn	2, 0x0000
    4265eb28:	40df 10ad 0000      	.insn	6, 0x10ad40df
    4265eb2e:	0000                	.insn	2, 0x0000
    4265eb30:	44df 10ad 0000      	.insn	6, 0x10ad44df
    4265eb36:	0000                	.insn	2, 0x0000
    4265eb38:	48df 10ad 0000      	.insn	6, 0x10ad48df
    4265eb3e:	0000                	.insn	2, 0x0000
    4265eb40:	4cdf 10ad 0000      	.insn	6, 0x10ad4cdf
    4265eb46:	0000                	.insn	2, 0x0000
    4265eb48:	50df 10ad 0000      	.insn	6, 0x10ad50df
    4265eb4e:	0000                	.insn	2, 0x0000
    4265eb50:	54df 10ad 0000      	.insn	6, 0x10ad54df
    4265eb56:	0000                	.insn	2, 0x0000
    4265eb58:	58df 10ad 0000      	.insn	6, 0x10ad58df
    4265eb5e:	0000                	.insn	2, 0x0000
    4265eb60:	5cdf 10ad 0000      	.insn	6, 0x10ad5cdf
    4265eb66:	0000                	.insn	2, 0x0000
    4265eb68:	60df 10ad 0000      	.insn	6, 0x10ad60df
    4265eb6e:	0000                	.insn	2, 0x0000
    4265eb70:	64df 10ad 0000      	.insn	6, 0x10ad64df
    4265eb76:	0000                	.insn	2, 0x0000
    4265eb78:	68df 10ad 0000      	.insn	6, 0x10ad68df
    4265eb7e:	0000                	.insn	2, 0x0000
    4265eb80:	6cdf 10ad 0000      	.insn	6, 0x10ad6cdf
    4265eb86:	0000                	.insn	2, 0x0000
    4265eb88:	70df 10ad 0000      	.insn	6, 0x10ad70df
    4265eb8e:	0000                	.insn	2, 0x0000
    4265eb90:	74df 10ad 0000      	.insn	6, 0x10ad74df
    4265eb96:	0000                	.insn	2, 0x0000
    4265eb98:	78df 10ad 0000      	.insn	6, 0x10ad78df
    4265eb9e:	0000                	.insn	2, 0x0000
    4265eba0:	7cdf 10ad 0000      	.insn	6, 0x10ad7cdf
    4265eba6:	0000                	.insn	2, 0x0000
    4265eba8:	80df 10ad 0000      	.insn	6, 0x10ad80df
    4265ebae:	0000                	.insn	2, 0x0000
    4265ebb0:	84df 10ad 0000      	.insn	6, 0x10ad84df
    4265ebb6:	0000                	.insn	2, 0x0000
    4265ebb8:	88df 10ad 0000      	.insn	6, 0x10ad88df
    4265ebbe:	0000                	.insn	2, 0x0000
    4265ebc0:	8cdf 10ad 0000      	.insn	6, 0x10ad8cdf
    4265ebc6:	0000                	.insn	2, 0x0000
    4265ebc8:	90df 10ad 0000      	.insn	6, 0x10ad90df
    4265ebce:	0000                	.insn	2, 0x0000
    4265ebd0:	94df 10ad 0000      	.insn	6, 0x10ad94df
    4265ebd6:	0000                	.insn	2, 0x0000
    4265ebd8:	98df 10ad 0000      	.insn	6, 0x10ad98df
    4265ebde:	0000                	.insn	2, 0x0000
    4265ebe0:	9cdf 10ad 0000      	.insn	6, 0x10ad9cdf
    4265ebe6:	0000                	.insn	2, 0x0000
    4265ebe8:	a0df 10ad 0000      	.insn	6, 0x10ada0df
    4265ebee:	0000                	.insn	2, 0x0000
    4265ebf0:	a4df 10ad 0000      	.insn	6, 0x10ada4df
    4265ebf6:	0000                	.insn	2, 0x0000
    4265ebf8:	a8df 10ad 0000      	.insn	6, 0x10ada8df
    4265ebfe:	0000                	.insn	2, 0x0000
    4265ec00:	acdf 10ad 0000      	.insn	6, 0x10adacdf
    4265ec06:	0000                	.insn	2, 0x0000
    4265ec08:	b0df 10ad 0000      	.insn	6, 0x10adb0df
    4265ec0e:	0000                	.insn	2, 0x0000
    4265ec10:	b4df 10ad 0000      	.insn	6, 0x10adb4df
    4265ec16:	0000                	.insn	2, 0x0000
    4265ec18:	b8df 10ad 0000      	.insn	6, 0x10adb8df
    4265ec1e:	0000                	.insn	2, 0x0000
    4265ec20:	bcdf 10ad 0000      	.insn	6, 0x10adbcdf
    4265ec26:	0000                	.insn	2, 0x0000
    4265ec28:	c0df 10ad 0000      	.insn	6, 0x10adc0df
    4265ec2e:	0000                	.insn	2, 0x0000
    4265ec30:	c4df 10ad 0000      	.insn	6, 0x10adc4df
    4265ec36:	0000                	.insn	2, 0x0000
    4265ec38:	c8df 10ad 0000      	.insn	6, 0x10adc8df
    4265ec3e:	0000                	.insn	2, 0x0000
    4265ec40:	ccdf 10ad 0000      	.insn	6, 0x10adccdf
    4265ec46:	0000                	.insn	2, 0x0000
    4265ec48:	d0df 10ad 0000      	.insn	6, 0x10add0df
    4265ec4e:	0000                	.insn	2, 0x0000
    4265ec50:	d4df 10ad 0000      	.insn	6, 0x10add4df
    4265ec56:	0000                	.insn	2, 0x0000
    4265ec58:	d8df 10ad 0000      	.insn	6, 0x10add8df
    4265ec5e:	0000                	.insn	2, 0x0000
    4265ec60:	dcdf 10ad 0000      	.insn	6, 0x10addcdf
    4265ec66:	0000                	.insn	2, 0x0000
    4265ec68:	e0df 10ad 0000      	.insn	6, 0x10ade0df
    4265ec6e:	0000                	.insn	2, 0x0000
    4265ec70:	e4df 10ad 0000      	.insn	6, 0x10ade4df
    4265ec76:	0000                	.insn	2, 0x0000
    4265ec78:	e8df 10ad 0000      	.insn	6, 0x10ade8df
    4265ec7e:	0000                	.insn	2, 0x0000
    4265ec80:	ecdf 10ad 0000      	.insn	6, 0x10adecdf
    4265ec86:	0000                	.insn	2, 0x0000
    4265ec88:	f0df 10ad 0000      	.insn	6, 0x10adf0df
    4265ec8e:	0000                	.insn	2, 0x0000
    4265ec90:	f4df 10ad 0000      	.insn	6, 0x10adf4df
    4265ec96:	0000                	.insn	2, 0x0000
    4265ec98:	f8df 10ad 0000      	.insn	6, 0x10adf8df
    4265ec9e:	0000                	.insn	2, 0x0000
    4265eca0:	fcdf 10ad 0000      	.insn	6, 0x10adfcdf
	...

Disassembly of section .__pagetable_map_os_0x000000004254a000:

000000004254a000 <__pagetable_map_os_0x000000004254a000>:
	...
    4254a0b0:	10b004cf          	fnmadd.s	f9,f0,f11,f2,rne
    4254a0b4:	0000                	.insn	2, 0x0000
	...

Disassembly of section .__pagetable_map_os_0x0000000042547000:

0000000042547000 <__pagetable_map_os_0x0000000042547000>:
	...
    42547710:	88df 1063 0000      	.insn	6, 0x106388df
	...

Disassembly of section .__pagetable_map_os_0x0000000042858000:

0000000042858000 <__pagetable_map_os_0x0000000042858000>:
	...
    42858a78:	bcdf 1130 0000      	.insn	6, 0x1130bcdf
	...

