
/home/abdullah/RiescueC/riescue/10x_R/zicsr/testsuite/zicsr/user_sv57/tp_zicsr_1:     file format elf64-littleriscv


Disassembly of section .runtime:

0000000041000000 <_start>:
    41000000:	00000093          	li	x1,0
    41000004:	00000113          	li	x2,0
    41000008:	00000193          	li	x3,0
    4100000c:	00000213          	li	x4,0
    41000010:	00000293          	li	x5,0
    41000014:	00000313          	li	x6,0
    41000018:	00000393          	li	x7,0
    4100001c:	00000413          	li	x8,0
    41000020:	00000493          	li	x9,0
    41000024:	00000513          	li	x10,0
    41000028:	00000593          	li	x11,0
    4100002c:	00000613          	li	x12,0
    41000030:	00000693          	li	x13,0
    41000034:	00000713          	li	x14,0
    41000038:	00000793          	li	x15,0
    4100003c:	00000813          	li	x16,0
    41000040:	00000893          	li	x17,0
    41000044:	00000913          	li	x18,0
    41000048:	00000993          	li	x19,0
    4100004c:	00000a13          	li	x20,0
    41000050:	00000a93          	li	x21,0
    41000054:	00000b13          	li	x22,0
    41000058:	00000b93          	li	x23,0
    4100005c:	00000c13          	li	x24,0
    41000060:	00000c93          	li	x25,0
    41000064:	00000d13          	li	x26,0
    41000068:	00000d93          	li	x27,0
    4100006c:	00000e13          	li	x28,0
    41000070:	00000e93          	li	x29,0
    41000074:	00000f13          	li	x30,0
    41000078:	00000f93          	li	x31,0

000000004100007c <loader__load_panic_address>:
    4100007c:	00001297          	auipc	x5,0x1
    41000080:	9e828293          	addi	x5,x5,-1560 # 41000a64 <eot__failed>
    41000084:	30529073          	csrw	mtvec,x5

0000000041000088 <loader__initialize_runtime>:
    41000088:	00000293          	li	x5,0
    4100008c:	3012a2f3          	csrrs	x5,misa,x5

0000000041000090 <loader__set_mstatus>:
    41000090:	000402b7          	lui	x5,0x40
    41000094:	00a2829b          	addiw	x5,x5,10 # 4000a <pma_region_0_size+0xa>
    41000098:	3002a2f3          	csrrs	x5,mstatus,x5
    4100009c:	44d39237          	lui	x4,0x44d39
    410000a0:	34021073          	csrw	mscratch,x4

00000000410000a4 <loader__setup_menvcfg>:
    410000a4:	00000297          	auipc	x5,0x0
    410000a8:	4a828293          	addi	x5,x5,1192 # 4100054c <trap_handler_m__trap_entry>
    410000ac:	30529073          	csrw	mtvec,x5

00000000410000b0 <loader__enable_paging>:
    410000b0:	fffa00b7          	lui	x1,0xfffa0
    410000b4:	17d0809b          	addiw	x1,x1,381 # fffffffffffa017d <SID_ZICSR_12_stack+0xa8a4c251dd417d>
    410000b8:	01f09093          	slli	x1,x1,0x1f
    410000bc:	02108093          	addi	x1,x1,33
    410000c0:	00d09093          	slli	x1,x1,0xd
    410000c4:	7a408093          	addi	x1,x1,1956
    410000c8:	18009073          	csrw	satp,x1

00000000410000cc <loader__done>:
    410000cc:	1c10006f          	j	41000a8c <scheduler__init>

00000000410000d0 <loader__panic>:
    410000d0:	1950006f          	j	41000a64 <eot__failed>

00000000410000d4 <syscalls__syscall_check_schedule_next_test>:
    410000d4:	00f0029b          	addiw	x5,x0,15
    410000d8:	01c29293          	slli	x5,x5,0x1c
    410000dc:	00128293          	addi	x5,x5,1
    410000e0:	01f29a63          	bne	x5,x31,410000f4 <syscalls__syscall_check_fail_test>
    410000e4:	00000317          	auipc	x6,0x0
    410000e8:	46830313          	addi	x6,x6,1128 # 4100054c <trap_handler_m__trap_entry>
    410000ec:	30531073          	csrw	mtvec,x6
    410000f0:	6a00006f          	j	41000790 <enter_scheduler>

00000000410000f4 <syscalls__syscall_check_fail_test>:
    410000f4:	00f0029b          	addiw	x5,x0,15
    410000f8:	01c29293          	slli	x5,x5,0x1c
    410000fc:	00228293          	addi	x5,x5,2
    41000100:	01f29a63          	bne	x5,x31,41000114 <syscalls__syscall_check_end_test_without_failure>
    41000104:	00000317          	auipc	x6,0x0
    41000108:	44830313          	addi	x6,x6,1096 # 4100054c <trap_handler_m__trap_entry>
    4100010c:	30531073          	csrw	mtvec,x6
    41000110:	6b00006f          	j	410007c0 <test_failed>

0000000041000114 <syscalls__syscall_check_end_test_without_failure>:
    41000114:	00f0029b          	addiw	x5,x0,15
    41000118:	01c29293          	slli	x5,x5,0x1c
    4100011c:	00328293          	addi	x5,x5,3
    41000120:	01f29a63          	bne	x5,x31,41000134 <syscalls__syscall_check_switch_machine_mode>
    41000124:	00000317          	auipc	x6,0x0
    41000128:	42830313          	addi	x6,x6,1064 # 4100054c <trap_handler_m__trap_entry>
    4100012c:	30531073          	csrw	mtvec,x6
    41000130:	69c0006f          	j	410007cc <os_end_test>

0000000041000134 <syscalls__syscall_check_switch_machine_mode>:
    41000134:	000f02b7          	lui	x5,0xf0
    41000138:	0012829b          	addiw	x5,x5,1 # f0001 <SID_ZICSR_08_stack+0x83001>
    4100013c:	00c29293          	slli	x5,x5,0xc
    41000140:	00128293          	addi	x5,x5,1
    41000144:	0a5f8463          	beq	x31,x5,410001ec <syscalls__os_fn_f0001001>

0000000041000148 <syscalls__syscall_check_switch_super_mode>:
    41000148:	000f02b7          	lui	x5,0xf0
    4100014c:	0012829b          	addiw	x5,x5,1 # f0001 <SID_ZICSR_08_stack+0x83001>
    41000150:	00c29293          	slli	x5,x5,0xc
    41000154:	00228293          	addi	x5,x5,2
    41000158:	0c5f8063          	beq	x31,x5,41000218 <syscalls__os_fn_f0001002>

000000004100015c <syscalls__syscall_check_switch_user_mode>:
    4100015c:	000f02b7          	lui	x5,0xf0
    41000160:	0012829b          	addiw	x5,x5,1 # f0001 <SID_ZICSR_08_stack+0x83001>
    41000164:	00c29293          	slli	x5,x5,0xc
    41000168:	00328293          	addi	x5,x5,3
    4100016c:	0c5f8e63          	beq	x31,x5,41000248 <syscalls__os_fn_f0001003>

0000000041000170 <syscalls__syscall_check_switch_test_mode>:
    41000170:	000f02b7          	lui	x5,0xf0
    41000174:	0012829b          	addiw	x5,x5,1 # f0001 <SID_ZICSR_08_stack+0x83001>
    41000178:	00c29293          	slli	x5,x5,0xc
    4100017c:	00428293          	addi	x5,x5,4
    41000180:	0c5f8863          	beq	x31,x5,41000250 <syscalls__os_fn_f0001004>

0000000041000184 <syscalls__syscall_machine_csr_rw>:
    41000184:	000f02b7          	lui	x5,0xf0
    41000188:	0012829b          	addiw	x5,x5,1 # f0001 <SID_ZICSR_08_stack+0x83001>
    4100018c:	00c29293          	slli	x5,x5,0xc
    41000190:	00528293          	addi	x5,x5,5
    41000194:	0e5f8263          	beq	x31,x5,41000278 <syscalls__os_fn_f0001005>

0000000041000198 <syscalls__syscall_supervisor_csr_rw>:
    41000198:	000f02b7          	lui	x5,0xf0
    4100019c:	0012829b          	addiw	x5,x5,1 # f0001 <SID_ZICSR_08_stack+0x83001>
    410001a0:	00c29293          	slli	x5,x5,0xc
    410001a4:	00628293          	addi	x5,x5,6
    410001a8:	0e5f8e63          	beq	x31,x5,410002a4 <syscalls__os_fn_f0001006>

00000000410001ac <syscalls__syscall_machine_pte_read>:
    410001ac:	000f02b7          	lui	x5,0xf0
    410001b0:	0012829b          	addiw	x5,x5,1 # f0001 <SID_ZICSR_08_stack+0x83001>
    410001b4:	00c29293          	slli	x5,x5,0xc
    410001b8:	00728293          	addi	x5,x5,7
    410001bc:	105f8c63          	beq	x31,x5,410002d4 <syscalls__os_fn_f0001007>

00000000410001c0 <syscalls__syscall_machine_pte_write>:
    410001c0:	000f02b7          	lui	x5,0xf0
    410001c4:	0012829b          	addiw	x5,x5,1 # f0001 <SID_ZICSR_08_stack+0x83001>
    410001c8:	00c29293          	slli	x5,x5,0xc
    410001cc:	00828293          	addi	x5,x5,8
    410001d0:	1e5f8863          	beq	x31,x5,410003c0 <syscalls__os_fn_f0001008>

00000000410001d4 <syscalls__syscall_check_get_hart_context>:
    410001d4:	000782b7          	lui	x5,0x78
    410001d8:	0012829b          	addiw	x5,x5,1 # 78001 <SID_ZICSR_08_stack+0xb001>
    410001dc:	00d29293          	slli	x5,x5,0xd
    410001e0:	00128293          	addi	x5,x5,1
    410001e4:	2c5f8463          	beq	x31,x5,410004ac <syscalls__os_get_hart_context>
    410001e8:	4c00006f          	j	410006a8 <trap_handler_m__check_exception_label>

00000000410001ec <syscalls__os_fn_f0001001>:
    410001ec:	000022b7          	lui	x5,0x2
    410001f0:	8002829b          	addiw	x5,x5,-2048 # 1800 <pma_region_1_size+0x800>
    410001f4:	3002b073          	csrc	mstatus,x5
    410001f8:	000022b7          	lui	x5,0x2
    410001fc:	8002829b          	addiw	x5,x5,-2048 # 1800 <pma_region_1_size+0x800>
    41000200:	3002a073          	csrs	mstatus,x5
    41000204:	0010029b          	addiw	x5,x0,1
    41000208:	02729293          	slli	x5,x5,0x27
    4100020c:	3002b073          	csrc	mstatus,x5
    41000210:	411952b7          	lui	x5,0x41195
    41000214:	2a80006f          	j	410004bc <syscalls__ret_from_os_fn>

0000000041000218 <syscalls__os_fn_f0001002>:
    41000218:	000022b7          	lui	x5,0x2
    4100021c:	8002829b          	addiw	x5,x5,-2048 # 1800 <pma_region_1_size+0x800>
    41000220:	3002b073          	csrc	mstatus,x5
    41000224:	000012b7          	lui	x5,0x1
    41000228:	8002829b          	addiw	x5,x5,-2048 # 800 <XLEN+0x7c0>
    4100022c:	3002a073          	csrs	mstatus,x5
    41000230:	0010029b          	addiw	x5,x0,1
    41000234:	02729293          	slli	x5,x5,0x27
    41000238:	3002b073          	csrc	mstatus,x5
    4100023c:	12000073          	sfence.vma
    41000240:	410952b7          	lui	x5,0x41095
    41000244:	2780006f          	j	410004bc <syscalls__ret_from_os_fn>

0000000041000248 <syscalls__os_fn_f0001003>:
    41000248:	411152b7          	lui	x5,0x41115
    4100024c:	2700006f          	j	410004bc <syscalls__ret_from_os_fn>

0000000041000250 <syscalls__os_fn_f0001004>:
    41000250:	000022b7          	lui	x5,0x2
    41000254:	8002829b          	addiw	x5,x5,-2048 # 1800 <pma_region_1_size+0x800>
    41000258:	3002b073          	csrc	mstatus,x5
    4100025c:	00000293          	li	x5,0
    41000260:	3002a073          	csrs	mstatus,x5
    41000264:	0010029b          	addiw	x5,x0,1
    41000268:	02729293          	slli	x5,x5,0x27
    4100026c:	3002b073          	csrc	mstatus,x5
    41000270:	17823283          	ld	x5,376(x4) # 44d39178 <__section_hart_context+0x178>
    41000274:	2480006f          	j	410004bc <syscalls__ret_from_os_fn>

0000000041000278 <syscalls__os_fn_f0001005>:
    41000278:	000022b7          	lui	x5,0x2
    4100027c:	8002829b          	addiw	x5,x5,-2048 # 1800 <pma_region_1_size+0x800>
    41000280:	3002b073          	csrc	mstatus,x5
    41000284:	000022b7          	lui	x5,0x2
    41000288:	8002829b          	addiw	x5,x5,-2048 # 1800 <pma_region_1_size+0x800>
    4100028c:	3002a073          	csrs	mstatus,x5
    41000290:	0010029b          	addiw	x5,x0,1
    41000294:	02729293          	slli	x5,x5,0x27
    41000298:	3002b073          	csrc	mstatus,x5
    4100029c:	412152b7          	lui	x5,0x41215
    410002a0:	21c0006f          	j	410004bc <syscalls__ret_from_os_fn>

00000000410002a4 <syscalls__os_fn_f0001006>:
    410002a4:	000022b7          	lui	x5,0x2
    410002a8:	8002829b          	addiw	x5,x5,-2048 # 1800 <pma_region_1_size+0x800>
    410002ac:	3002b073          	csrc	mstatus,x5
    410002b0:	000012b7          	lui	x5,0x1
    410002b4:	8002829b          	addiw	x5,x5,-2048 # 800 <XLEN+0x7c0>
    410002b8:	3002a073          	csrs	mstatus,x5
    410002bc:	0010029b          	addiw	x5,x0,1
    410002c0:	02729293          	slli	x5,x5,0x27
    410002c4:	3002b073          	csrc	mstatus,x5
    410002c8:	12000073          	sfence.vma
    410002cc:	412162b7          	lui	x5,0x41216
    410002d0:	1ec0006f          	j	410004bc <syscalls__ret_from_os_fn>

00000000410002d4 <syscalls__os_fn_f0001007>:
    410002d4:	45010fb7          	lui	x31,0x45010
    410002d8:	0b0f8f9b          	addiw	x31,x31,176 # 450100b0 <pte_access_flags_pa>
    410002dc:	000fbf83          	ld	x31,0(x31)
    410002e0:	450102b7          	lui	x5,0x45010
    410002e4:	0b82829b          	addiw	x5,x5,184 # 450100b8 <pte_access_flags_pa+0x8>
    410002e8:	0002b283          	ld	x5,0(x5)
    410002ec:	45010e37          	lui	x28,0x45010
    410002f0:	0c0e0e1b          	addiw	x28,x28,192 # 450100c0 <pte_access_flags_pa+0x10>
    410002f4:	000e3e03          	ld	x28,0(x28)

00000000410002f8 <syscalls__pte_walk_check_glevel_without_gstage_read>:
    410002f8:	fff00f93          	li	x31,-1
    410002fc:	0dfe1063          	bne	x28,x31,410003bc <syscalls__pte_walk_fail_read>
    41000300:	18002373          	csrr	x6,satp
    41000304:	03c35e93          	srli	x29,x6,0x3c
    41000308:	01431313          	slli	x6,x6,0x14
    4100030c:	01435313          	srli	x6,x6,0x14
    41000310:	00c31313          	slli	x6,x6,0xc
    41000314:	ff8e8e93          	addi	x29,x29,-8
    41000318:	003e9f13          	slli	x30,x29,0x3
    4100031c:	01df0eb3          	add	x29,x30,x29
    41000320:	01ee8e93          	addi	x29,x29,30
    41000324:	00000f13          	li	x30,0

0000000041000328 <syscalls__pte_walk_loop_read>:
    41000328:	45010fb7          	lui	x31,0x45010
    4100032c:	0b0f8f9b          	addiw	x31,x31,176 # 450100b0 <pte_access_flags_pa>
    41000330:	000fbf83          	ld	x31,0(x31)
    41000334:	01dfdfb3          	srl	x31,x31,x29
    41000338:	1fffff93          	andi	x31,x31,511
    4100033c:	003f9f93          	slli	x31,x31,0x3
    41000340:	01f30333          	add	x6,x6,x31
    41000344:	005f0e63          	beq	x30,x5,41000360 <syscalls__pte_walk_done_read>
    41000348:	00033f83          	ld	x31,0(x6)
    4100034c:	00afdf93          	srli	x31,x31,0xa
    41000350:	00cf9313          	slli	x6,x31,0xc
    41000354:	001f0f13          	addi	x30,x30,1
    41000358:	ff7e8e93          	addi	x29,x29,-9
    4100035c:	fcdff06f          	j	41000328 <syscalls__pte_walk_loop_read>

0000000041000360 <syscalls__pte_walk_done_read>:
    41000360:	fff00f93          	li	x31,-1
    41000364:	05fe0263          	beq	x28,x31,410003a8 <syscalls__pte_walk_final_read>

0000000041000368 <syscalls__pte_walk_gstage_read>:
    41000368:	45010fb7          	lui	x31,0x45010
    4100036c:	0b0f8f9b          	addiw	x31,x31,176 # 450100b0 <pte_access_flags_pa>
    41000370:	006fb023          	sd	x6,0(x31)
    41000374:	000e0293          	mv	x5,x28
    41000378:	fff00e13          	li	x28,-1
    4100037c:	68002373          	csrr	x6,hgatp
    41000380:	03c35e93          	srli	x29,x6,0x3c
    41000384:	01431313          	slli	x6,x6,0x14
    41000388:	01435313          	srli	x6,x6,0x14
    4100038c:	00c31313          	slli	x6,x6,0xc
    41000390:	ff8e8e93          	addi	x29,x29,-8
    41000394:	003e9f13          	slli	x30,x29,0x3
    41000398:	01df0eb3          	add	x29,x30,x29
    4100039c:	01ee8e93          	addi	x29,x29,30
    410003a0:	00000f13          	li	x30,0
    410003a4:	f85ff06f          	j	41000328 <syscalls__pte_walk_loop_read>

00000000410003a8 <syscalls__pte_walk_final_read>:
    410003a8:	00033383          	ld	x7,0(x6)
    410003ac:	341022f3          	csrr	x5,mepc
    410003b0:	00428293          	addi	x5,x5,4
    410003b4:	16523c23          	sd	x5,376(x4) # 178 <XLEN+0x138>
    410003b8:	e99ff06f          	j	41000250 <syscalls__os_fn_f0001004>

00000000410003bc <syscalls__pte_walk_fail_read>:
    410003bc:	4040006f          	j	410007c0 <test_failed>

00000000410003c0 <syscalls__os_fn_f0001008>:
    410003c0:	45010fb7          	lui	x31,0x45010
    410003c4:	0b0f8f9b          	addiw	x31,x31,176 # 450100b0 <pte_access_flags_pa>
    410003c8:	000fbf83          	ld	x31,0(x31)
    410003cc:	450102b7          	lui	x5,0x45010
    410003d0:	0b82829b          	addiw	x5,x5,184 # 450100b8 <pte_access_flags_pa+0x8>
    410003d4:	0002b283          	ld	x5,0(x5)
    410003d8:	45010e37          	lui	x28,0x45010
    410003dc:	0c0e0e1b          	addiw	x28,x28,192 # 450100c0 <pte_access_flags_pa+0x10>
    410003e0:	000e3e03          	ld	x28,0(x28)

00000000410003e4 <syscalls__pte_walk_check_glevel_without_gstage_write>:
    410003e4:	fff00f93          	li	x31,-1
    410003e8:	0dfe1063          	bne	x28,x31,410004a8 <syscalls__pte_walk_fail_write>
    410003ec:	18002373          	csrr	x6,satp
    410003f0:	03c35e93          	srli	x29,x6,0x3c
    410003f4:	01431313          	slli	x6,x6,0x14
    410003f8:	01435313          	srli	x6,x6,0x14
    410003fc:	00c31313          	slli	x6,x6,0xc
    41000400:	ff8e8e93          	addi	x29,x29,-8
    41000404:	003e9f13          	slli	x30,x29,0x3
    41000408:	01df0eb3          	add	x29,x30,x29
    4100040c:	01ee8e93          	addi	x29,x29,30
    41000410:	00000f13          	li	x30,0

0000000041000414 <syscalls__pte_walk_loop_write>:
    41000414:	45010fb7          	lui	x31,0x45010
    41000418:	0b0f8f9b          	addiw	x31,x31,176 # 450100b0 <pte_access_flags_pa>
    4100041c:	000fbf83          	ld	x31,0(x31)
    41000420:	01dfdfb3          	srl	x31,x31,x29
    41000424:	1fffff93          	andi	x31,x31,511
    41000428:	003f9f93          	slli	x31,x31,0x3
    4100042c:	01f30333          	add	x6,x6,x31
    41000430:	005f0e63          	beq	x30,x5,4100044c <syscalls__pte_walk_done_write>
    41000434:	00033f83          	ld	x31,0(x6)
    41000438:	00afdf93          	srli	x31,x31,0xa
    4100043c:	00cf9313          	slli	x6,x31,0xc
    41000440:	001f0f13          	addi	x30,x30,1
    41000444:	ff7e8e93          	addi	x29,x29,-9
    41000448:	fcdff06f          	j	41000414 <syscalls__pte_walk_loop_write>

000000004100044c <syscalls__pte_walk_done_write>:
    4100044c:	fff00f93          	li	x31,-1
    41000450:	05fe0263          	beq	x28,x31,41000494 <syscalls__pte_walk_final_write>

0000000041000454 <syscalls__pte_walk_gstage_write>:
    41000454:	45010fb7          	lui	x31,0x45010
    41000458:	0b0f8f9b          	addiw	x31,x31,176 # 450100b0 <pte_access_flags_pa>
    4100045c:	006fb023          	sd	x6,0(x31)
    41000460:	000e0293          	mv	x5,x28
    41000464:	fff00e13          	li	x28,-1
    41000468:	68002373          	csrr	x6,hgatp
    4100046c:	03c35e93          	srli	x29,x6,0x3c
    41000470:	01431313          	slli	x6,x6,0x14
    41000474:	01435313          	srli	x6,x6,0x14
    41000478:	00c31313          	slli	x6,x6,0xc
    4100047c:	ff8e8e93          	addi	x29,x29,-8
    41000480:	003e9f13          	slli	x30,x29,0x3
    41000484:	01df0eb3          	add	x29,x30,x29
    41000488:	01ee8e93          	addi	x29,x29,30
    4100048c:	00000f13          	li	x30,0
    41000490:	f85ff06f          	j	41000414 <syscalls__pte_walk_loop_write>

0000000041000494 <syscalls__pte_walk_final_write>:
    41000494:	00733023          	sd	x7,0(x6)
    41000498:	341022f3          	csrr	x5,mepc
    4100049c:	00428293          	addi	x5,x5,4
    410004a0:	16523c23          	sd	x5,376(x4) # 178 <XLEN+0x138>
    410004a4:	dadff06f          	j	41000250 <syscalls__os_fn_f0001004>

00000000410004a8 <syscalls__pte_walk_fail_write>:
    410004a8:	3180006f          	j	410007c0 <test_failed>

00000000410004ac <syscalls__os_get_hart_context>:
    410004ac:	14002573          	csrr	x10,sscratch
    410004b0:	341022f3          	csrr	x5,mepc
    410004b4:	00428293          	addi	x5,x5,4
    410004b8:	0040006f          	j	410004bc <syscalls__ret_from_os_fn>

00000000410004bc <syscalls__ret_from_os_fn>:
    410004bc:	34102373          	csrr	x6,mepc
    410004c0:	00430313          	addi	x6,x6,4
    410004c4:	16623c23          	sd	x6,376(x4) # 178 <XLEN+0x138>
    410004c8:	34129073          	csrw	mepc,x5
    410004cc:	fff00f93          	li	x31,-1
    410004d0:	2a40006f          	j	41000774 <trap_handler_m__skip_xepc_write>

00000000410004d4 <trap_handler_m__invalid_interrupt>:
    410004d4:	2ec0006f          	j	410007c0 <test_failed>

00000000410004d8 <trap_handler_m__clear_all_interrupts>:
    410004d8:	34401073          	csrw	mip,x0
    410004dc:	30200073          	mret

00000000410004e0 <trap_handler_m___CLEAR_SSI>:
    410004e0:	00200293          	li	x5,2
    410004e4:	3442b073          	csrc	mip,x5
    410004e8:	30200073          	mret

00000000410004ec <trap_handler_m___CLEAR_MSI>:
    410004ec:	00800293          	li	x5,8
    410004f0:	3442b073          	csrc	mip,x5
    410004f4:	30200073          	mret

00000000410004f8 <trap_handler_m___CLEAR_STI>:
    410004f8:	02000293          	li	x5,32
    410004fc:	3442b073          	csrc	mip,x5
    41000500:	30200073          	mret

0000000041000504 <trap_handler_m___CLEAR_MTI>:
    41000504:	08000293          	li	x5,128
    41000508:	3442b073          	csrc	mip,x5
    4100050c:	30200073          	mret

0000000041000510 <trap_handler_m___CLEAR_SEI>:
    41000510:	20000293          	li	x5,512
    41000514:	3442b073          	csrc	mip,x5
    41000518:	30200073          	mret

000000004100051c <trap_handler_m___CLEAR_MEI>:
    4100051c:	000012b7          	lui	x5,0x1
    41000520:	8002829b          	addiw	x5,x5,-2048 # 800 <XLEN+0x7c0>
    41000524:	3442b073          	csrc	mip,x5
    41000528:	30200073          	mret

000000004100052c <trap_handler_m___CLEAR_COI>:
    4100052c:	000022b7          	lui	x5,0x2
    41000530:	3442b073          	csrc	mip,x5
    41000534:	30200073          	mret

0000000041000538 <trap_handler_m__clear_highest_priority_interrupt>:
    41000538:	344022f3          	csrr	x5,mip
    4100053c:	40500333          	neg	x6,x5
    41000540:	0062f2b3          	and	x5,x5,x6
    41000544:	3442b073          	csrc	mip,x5
    41000548:	30200073          	mret

000000004100054c <trap_handler_m__trap_entry>:
    4100054c:	0fc0006f          	j	41000648 <trap_handler_m__trap_handler>

0000000041000550 <trap_handler_m__interrupt_vector_table>:
    41000550:	f91ff06f          	j	410004e0 <trap_handler_m___CLEAR_SSI>
    41000554:	f81ff06f          	j	410004d4 <trap_handler_m__invalid_interrupt>
    41000558:	f95ff06f          	j	410004ec <trap_handler_m___CLEAR_MSI>
    4100055c:	f79ff06f          	j	410004d4 <trap_handler_m__invalid_interrupt>
    41000560:	f99ff06f          	j	410004f8 <trap_handler_m___CLEAR_STI>
    41000564:	f71ff06f          	j	410004d4 <trap_handler_m__invalid_interrupt>
    41000568:	f9dff06f          	j	41000504 <trap_handler_m___CLEAR_MTI>
    4100056c:	f69ff06f          	j	410004d4 <trap_handler_m__invalid_interrupt>
    41000570:	fa1ff06f          	j	41000510 <trap_handler_m___CLEAR_SEI>
    41000574:	f61ff06f          	j	410004d4 <trap_handler_m__invalid_interrupt>
    41000578:	fa5ff06f          	j	4100051c <trap_handler_m___CLEAR_MEI>
    4100057c:	f59ff06f          	j	410004d4 <trap_handler_m__invalid_interrupt>
    41000580:	fadff06f          	j	4100052c <trap_handler_m___CLEAR_COI>
    41000584:	f51ff06f          	j	410004d4 <trap_handler_m__invalid_interrupt>
    41000588:	f4dff06f          	j	410004d4 <trap_handler_m__invalid_interrupt>
    4100058c:	fadff06f          	j	41000538 <trap_handler_m__clear_highest_priority_interrupt>
    41000590:	fa9ff06f          	j	41000538 <trap_handler_m__clear_highest_priority_interrupt>
    41000594:	fa5ff06f          	j	41000538 <trap_handler_m__clear_highest_priority_interrupt>
    41000598:	fa1ff06f          	j	41000538 <trap_handler_m__clear_highest_priority_interrupt>
    4100059c:	f9dff06f          	j	41000538 <trap_handler_m__clear_highest_priority_interrupt>
    410005a0:	f99ff06f          	j	41000538 <trap_handler_m__clear_highest_priority_interrupt>
    410005a4:	f95ff06f          	j	41000538 <trap_handler_m__clear_highest_priority_interrupt>
    410005a8:	f91ff06f          	j	41000538 <trap_handler_m__clear_highest_priority_interrupt>
    410005ac:	f8dff06f          	j	41000538 <trap_handler_m__clear_highest_priority_interrupt>
    410005b0:	f89ff06f          	j	41000538 <trap_handler_m__clear_highest_priority_interrupt>
    410005b4:	f85ff06f          	j	41000538 <trap_handler_m__clear_highest_priority_interrupt>
    410005b8:	f81ff06f          	j	41000538 <trap_handler_m__clear_highest_priority_interrupt>
    410005bc:	f7dff06f          	j	41000538 <trap_handler_m__clear_highest_priority_interrupt>
    410005c0:	f79ff06f          	j	41000538 <trap_handler_m__clear_highest_priority_interrupt>
    410005c4:	f75ff06f          	j	41000538 <trap_handler_m__clear_highest_priority_interrupt>
    410005c8:	f71ff06f          	j	41000538 <trap_handler_m__clear_highest_priority_interrupt>
    410005cc:	f6dff06f          	j	41000538 <trap_handler_m__clear_highest_priority_interrupt>
    410005d0:	f69ff06f          	j	41000538 <trap_handler_m__clear_highest_priority_interrupt>
    410005d4:	f65ff06f          	j	41000538 <trap_handler_m__clear_highest_priority_interrupt>
    410005d8:	f61ff06f          	j	41000538 <trap_handler_m__clear_highest_priority_interrupt>
    410005dc:	f5dff06f          	j	41000538 <trap_handler_m__clear_highest_priority_interrupt>
    410005e0:	f59ff06f          	j	41000538 <trap_handler_m__clear_highest_priority_interrupt>
    410005e4:	f55ff06f          	j	41000538 <trap_handler_m__clear_highest_priority_interrupt>
    410005e8:	f51ff06f          	j	41000538 <trap_handler_m__clear_highest_priority_interrupt>
    410005ec:	f4dff06f          	j	41000538 <trap_handler_m__clear_highest_priority_interrupt>
    410005f0:	f49ff06f          	j	41000538 <trap_handler_m__clear_highest_priority_interrupt>
    410005f4:	f45ff06f          	j	41000538 <trap_handler_m__clear_highest_priority_interrupt>
    410005f8:	f41ff06f          	j	41000538 <trap_handler_m__clear_highest_priority_interrupt>
    410005fc:	f3dff06f          	j	41000538 <trap_handler_m__clear_highest_priority_interrupt>
    41000600:	f39ff06f          	j	41000538 <trap_handler_m__clear_highest_priority_interrupt>
    41000604:	f35ff06f          	j	41000538 <trap_handler_m__clear_highest_priority_interrupt>
    41000608:	f31ff06f          	j	41000538 <trap_handler_m__clear_highest_priority_interrupt>
    4100060c:	f2dff06f          	j	41000538 <trap_handler_m__clear_highest_priority_interrupt>
    41000610:	f29ff06f          	j	41000538 <trap_handler_m__clear_highest_priority_interrupt>
    41000614:	f25ff06f          	j	41000538 <trap_handler_m__clear_highest_priority_interrupt>
    41000618:	f21ff06f          	j	41000538 <trap_handler_m__clear_highest_priority_interrupt>
    4100061c:	f1dff06f          	j	41000538 <trap_handler_m__clear_highest_priority_interrupt>
    41000620:	f19ff06f          	j	41000538 <trap_handler_m__clear_highest_priority_interrupt>
    41000624:	f15ff06f          	j	41000538 <trap_handler_m__clear_highest_priority_interrupt>
    41000628:	f11ff06f          	j	41000538 <trap_handler_m__clear_highest_priority_interrupt>
    4100062c:	f0dff06f          	j	41000538 <trap_handler_m__clear_highest_priority_interrupt>
    41000630:	f09ff06f          	j	41000538 <trap_handler_m__clear_highest_priority_interrupt>
    41000634:	f05ff06f          	j	41000538 <trap_handler_m__clear_highest_priority_interrupt>
    41000638:	f01ff06f          	j	41000538 <trap_handler_m__clear_highest_priority_interrupt>
    4100063c:	efdff06f          	j	41000538 <trap_handler_m__clear_highest_priority_interrupt>
    41000640:	ef9ff06f          	j	41000538 <trap_handler_m__clear_highest_priority_interrupt>
    41000644:	ef5ff06f          	j	41000538 <trap_handler_m__clear_highest_priority_interrupt>

0000000041000648 <trap_handler_m__trap_handler>:
    41000648:	342022f3          	csrr	x5,mcause
    4100064c:	fff0031b          	addiw	x6,x0,-1
    41000650:	03f31313          	slli	x6,x6,0x3f
    41000654:	00537333          	and	x6,x6,x5
    41000658:	02030263          	beqz	x6,4100067c <trap_handler_m__exception_path>

000000004100065c <trap_handler_m__interrupt_handler>:
    4100065c:	fff0031b          	addiw	x6,x0,-1
    41000660:	03f31313          	slli	x6,x6,0x3f
    41000664:	0062c2b3          	xor	x5,x5,x6
    41000668:	00000317          	auipc	x6,0x0
    4100066c:	ee430313          	addi	x6,x6,-284 # 4100054c <trap_handler_m__trap_entry>
    41000670:	00229293          	slli	x5,x5,0x2
    41000674:	005302b3          	add	x5,x6,x5
    41000678:	00028067          	jr	x5 # 2000 <pma_region_1_size+0x1000>

000000004100067c <trap_handler_m__exception_path>:
    4100067c:	34021273          	csrrw	x4,mscratch,x4
    41000680:	00000297          	auipc	x5,0x0
    41000684:	10828293          	addi	x5,x5,264 # 41000788 <trap_handler_m__trap_panic>
    41000688:	30529073          	csrw	mtvec,x5
    4100068c:	0040006f          	j	41000690 <trap_handler_m__excp_entry>

0000000041000690 <trap_handler_m__excp_entry>:
    41000690:	34202373          	csrr	x6,mcause
    41000694:	00800293          	li	x5,8
    41000698:	00534863          	blt	x6,x5,410006a8 <trap_handler_m__check_exception_label>
    4100069c:	00b00293          	li	x5,11
    410006a0:	0062c463          	blt	x5,x6,410006a8 <trap_handler_m__check_exception_label>
    410006a4:	a31ff06f          	j	410000d4 <syscalls__syscall_check_schedule_next_test>

00000000410006a8 <trap_handler_m__check_exception_label>:
    410006a8:	04623c23          	sd	x6,88(x4) # 58 <XLEN+0x18>
    410006ac:	341022f3          	csrr	x5,mepc
    410006b0:	02523423          	sd	x5,40(x4) # 28 <SECURE_ACCESS_PROBABILITY+0xa>
    410006b4:	01820283          	lb	x5,24(x4) # 18 <STORE_GUEST_PAGE_FAULT+0x1>
    410006b8:	00029863          	bnez	x5,410006c8 <trap_handler_m__check_excp>
    410006bc:	00128293          	addi	x5,x5,1
    410006c0:	00520c23          	sb	x5,24(x4) # 18 <STORE_GUEST_PAGE_FAULT+0x1>
    410006c4:	0980006f          	j	4100075c <trap_handler_m__ecall_from_machine>

00000000410006c8 <trap_handler_m__check_excp>:
    410006c8:	06823283          	ld	x5,104(x4) # 68 <XLEN+0x28>
    410006cc:	06023423          	sd	x0,104(x4) # 68 <XLEN+0x28>
    410006d0:	00028663          	beqz	x5,410006dc <trap_handler_m__skip_mode_check>
    410006d4:	00100393          	li	x7,1
    410006d8:	0e729463          	bne	x5,x7,410007c0 <test_failed>

00000000410006dc <trap_handler_m__skip_mode_check>:
    410006dc:	05023283          	ld	x5,80(x4) # 50 <XLEN+0x10>
    410006e0:	04023823          	sd	x0,80(x4) # 50 <XLEN+0x10>
    410006e4:	0c531e63          	bne	x6,x5,410007c0 <test_failed>
    410006e8:	03823283          	ld	x5,56(x4) # 38 <SECURE_ACCESS_PROBABILITY+0x1a>
    410006ec:	02023c23          	sd	x0,56(x4) # 38 <SECURE_ACCESS_PROBABILITY+0x1a>
    410006f0:	06029463          	bnez	x5,41000758 <trap_handler_m__skip_gva_check>
    410006f4:	02023303          	ld	x6,32(x4) # 20 <SECURE_ACCESS_PROBABILITY+0x2>
    410006f8:	02023023          	sd	x0,32(x4) # 20 <SECURE_ACCESS_PROBABILITY+0x2>
    410006fc:	02823283          	ld	x5,40(x4) # 28 <SECURE_ACCESS_PROBABILITY+0xa>
    41000700:	02023423          	sd	x0,40(x4) # 28 <SECURE_ACCESS_PROBABILITY+0xa>
    41000704:	0a531e63          	bne	x6,x5,410007c0 <test_failed>
    41000708:	04023283          	ld	x5,64(x4) # 40 <XLEN>
    4100070c:	04023023          	sd	x0,64(x4) # 40 <XLEN>
    41000710:	00028663          	beqz	x5,4100071c <trap_handler_m__skip_nonzero_tval_check>

0000000041000714 <trap_handler_m__nonzero_tval_check>:
    41000714:	34302373          	csrr	x6,mtval
    41000718:	0a531463          	bne	x6,x5,410007c0 <test_failed>

000000004100071c <trap_handler_m__skip_nonzero_tval_check>:
    4100071c:	04823283          	ld	x5,72(x4) # 48 <XLEN+0x8>
    41000720:	04023423          	sd	x0,72(x4) # 48 <XLEN+0x8>
    41000724:	00028663          	beqz	x5,41000730 <trap_handler_m__skip_nonzero_htval_check>

0000000041000728 <trap_handler_m__nonzero_htval_check>:
    41000728:	34b02373          	csrr	x6,0x34b
    4100072c:	08531a63          	bne	x6,x5,410007c0 <test_failed>

0000000041000730 <trap_handler_m__skip_nonzero_htval_check>:
    41000730:	06023283          	ld	x5,96(x4) # 60 <XLEN+0x20>
    41000734:	06023023          	sd	x0,96(x4) # 60 <XLEN+0x20>
    41000738:	02028063          	beqz	x5,41000758 <trap_handler_m__skip_gva_check>

000000004100073c <trap_handler_m__gva_check>:
    4100073c:	30002373          	csrr	x6,mstatus
    41000740:	02635313          	srli	x6,x6,0x26
    41000744:	00137313          	andi	x6,x6,1
    41000748:	06030c63          	beqz	x6,410007c0 <test_failed>
    4100074c:	0010031b          	addiw	x6,x0,1
    41000750:	02631313          	slli	x6,x6,0x26
    41000754:	30033073          	csrc	mstatus,x6

0000000041000758 <trap_handler_m__skip_gva_check>:
    41000758:	0040006f          	j	4100075c <trap_handler_m__ecall_from_machine>

000000004100075c <trap_handler_m__ecall_from_machine>:
    4100075c:	03023283          	ld	x5,48(x4) # 30 <SECURE_ACCESS_PROBABILITY+0x12>
    41000760:	02023823          	sd	x0,48(x4) # 30 <SECURE_ACCESS_PROBABILITY+0x12>
    41000764:	07023303          	ld	x6,112(x4) # 70 <XLEN+0x30>
    41000768:	06023823          	sd	x0,112(x4) # 70 <XLEN+0x30>
    4100076c:	00031463          	bnez	x6,41000774 <trap_handler_m__skip_xepc_write>
    41000770:	34129073          	csrw	mepc,x5

0000000041000774 <trap_handler_m__skip_xepc_write>:
    41000774:	00000317          	auipc	x6,0x0
    41000778:	dd830313          	addi	x6,x6,-552 # 4100054c <trap_handler_m__trap_entry>
    4100077c:	30531073          	csrw	mtvec,x6
    41000780:	34021273          	csrrw	x4,mscratch,x4
    41000784:	30200073          	mret

0000000041000788 <trap_handler_m__trap_panic>:
    41000788:	00000193          	li	x3,0
    4100078c:	2b40006f          	j	41000a40 <eot__end_test>

0000000041000790 <enter_scheduler>:
    41000790:	0002f337          	lui	x6,0x2f
    41000794:	ab73031b          	addiw	x6,x6,-1353 # 2eab7 <__section_os_data_1+0x25ab7>
    41000798:	00e31313          	slli	x6,x6,0xe
    4100079c:	0de30313          	addi	x6,x6,222
    410007a0:	02628063          	beq	x5,x6,410007c0 <test_failed>
    410007a4:	00000513          	li	x10,0
    410007a8:	030000ef          	jal	410007d8 <rvcp_print_test_result>
    410007ac:	3180006f          	j	41000ac4 <scheduler__dispatch>

00000000410007b0 <test_passed>:
    410007b0:	34021273          	csrrw	x4,mscratch,x4
    410007b4:	00000513          	li	x10,0
    410007b8:	020000ef          	jal	410007d8 <rvcp_print_test_result>
    410007bc:	3080006f          	j	41000ac4 <scheduler__dispatch>

00000000410007c0 <test_failed>:
    410007c0:	34021273          	csrrw	x4,mscratch,x4
    410007c4:	00300193          	li	x3,3
    410007c8:	2780006f          	j	41000a40 <eot__end_test>

00000000410007cc <os_end_test>:
    410007cc:	34021273          	csrrw	x4,mscratch,x4
    410007d0:	00100193          	li	x3,1
    410007d4:	26c0006f          	j	41000a40 <eot__end_test>

00000000410007d8 <rvcp_print_test_result>:
    410007d8:	00050e13          	mv	x28,x10
    410007dc:	18823283          	ld	x5,392(x4) # 188 <XLEN+0x148>
    410007e0:	0010031b          	addiw	x6,x0,1
    410007e4:	02031313          	slli	x6,x6,0x20
    410007e8:	ffe30313          	addi	x6,x6,-2
    410007ec:	1c628063          	beq	x5,x6,410009ac <rvcp_print_test_result+0x1d4>
    410007f0:	0010031b          	addiw	x6,x0,1
    410007f4:	02031313          	slli	x6,x6,0x20
    410007f8:	fff30313          	addi	x6,x6,-1
    410007fc:	1a628863          	beq	x5,x6,410009ac <rvcp_print_test_result+0x1d4>
    41000800:	1a02c663          	bltz	x5,410009ac <rvcp_print_test_result+0x1d4>
    41000804:	00000317          	auipc	x6,0x0
    41000808:	52830313          	addi	x6,x6,1320 # 41000d2c <dtest_descriptor_table>
    4100080c:	00329393          	slli	x7,x5,0x3
    41000810:	00730333          	add	x6,x6,x7
    41000814:	00033e83          	ld	x29,0(x6)
    41000818:	45010f37          	lui	x30,0x45010
    4100081c:	030f0f1b          	addiw	x30,x30,48 # 45010030 <rvcp_prefix_str_pa>
    41000820:	000f4283          	lbu	x5,0(x30)
    41000824:	02028663          	beqz	x5,41000850 <rvcp_print_test_result+0x78>
    41000828:	1010031b          	addiw	x6,x0,257
    4100082c:	03031313          	slli	x6,x6,0x30
    41000830:	005362b3          	or	x5,x6,x5
    41000834:	0003f317          	auipc	x6,0x3f
    41000838:	7cc30313          	addi	x6,x6,1996 # 41040000 <tohost>
    4100083c:	00033383          	ld	x7,0(x6)
    41000840:	fe039ee3          	bnez	x7,4100083c <rvcp_print_test_result+0x64>
    41000844:	00533023          	sd	x5,0(x6)
    41000848:	001f0f13          	addi	x30,x30,1
    4100084c:	fd5ff06f          	j	41000820 <rvcp_print_test_result+0x48>
    41000850:	45010f37          	lui	x30,0x45010
    41000854:	041f0f1b          	addiw	x30,x30,65 # 45010041 <rvcp_testname_str_pa>
    41000858:	000f4283          	lbu	x5,0(x30)
    4100085c:	02028663          	beqz	x5,41000888 <rvcp_print_test_result+0xb0>
    41000860:	1010031b          	addiw	x6,x0,257
    41000864:	03031313          	slli	x6,x6,0x30
    41000868:	005362b3          	or	x5,x6,x5
    4100086c:	0003f317          	auipc	x6,0x3f
    41000870:	79430313          	addi	x6,x6,1940 # 41040000 <tohost>
    41000874:	00033383          	ld	x7,0(x6)
    41000878:	fe039ee3          	bnez	x7,41000874 <rvcp_print_test_result+0x9c>
    4100087c:	00533023          	sd	x5,0(x6)
    41000880:	001f0f13          	addi	x30,x30,1
    41000884:	fd5ff06f          	j	41000858 <rvcp_print_test_result+0x80>
    41000888:	45010f37          	lui	x30,0x45010
    4100088c:	05af0f1b          	addiw	x30,x30,90 # 4501005a <rvcp_space_str_pa>
    41000890:	000f4283          	lbu	x5,0(x30)
    41000894:	02028663          	beqz	x5,410008c0 <rvcp_print_test_result+0xe8>
    41000898:	1010031b          	addiw	x6,x0,257
    4100089c:	03031313          	slli	x6,x6,0x30
    410008a0:	005362b3          	or	x5,x6,x5
    410008a4:	0003f317          	auipc	x6,0x3f
    410008a8:	75c30313          	addi	x6,x6,1884 # 41040000 <tohost>
    410008ac:	00033383          	ld	x7,0(x6)
    410008b0:	fe039ee3          	bnez	x7,410008ac <rvcp_print_test_result+0xd4>
    410008b4:	00533023          	sd	x5,0(x6)
    410008b8:	001f0f13          	addi	x30,x30,1
    410008bc:	fd5ff06f          	j	41000890 <rvcp_print_test_result+0xb8>
    410008c0:	000e8f13          	mv	x30,x29
    410008c4:	000f4283          	lbu	x5,0(x30)
    410008c8:	02028663          	beqz	x5,410008f4 <rvcp_print_test_result+0x11c>
    410008cc:	1010031b          	addiw	x6,x0,257
    410008d0:	03031313          	slli	x6,x6,0x30
    410008d4:	005362b3          	or	x5,x6,x5
    410008d8:	0003f317          	auipc	x6,0x3f
    410008dc:	72830313          	addi	x6,x6,1832 # 41040000 <tohost>
    410008e0:	00033383          	ld	x7,0(x6)
    410008e4:	fe039ee3          	bnez	x7,410008e0 <rvcp_print_test_result+0x108>
    410008e8:	00533023          	sd	x5,0(x6)
    410008ec:	001f0f13          	addi	x30,x30,1
    410008f0:	fd5ff06f          	j	410008c4 <rvcp_print_test_result+0xec>
    410008f4:	45010f37          	lui	x30,0x45010
    410008f8:	05af0f1b          	addiw	x30,x30,90 # 4501005a <rvcp_space_str_pa>
    410008fc:	000f4283          	lbu	x5,0(x30)
    41000900:	02028663          	beqz	x5,4100092c <rvcp_print_test_result+0x154>
    41000904:	1010031b          	addiw	x6,x0,257
    41000908:	03031313          	slli	x6,x6,0x30
    4100090c:	005362b3          	or	x5,x6,x5
    41000910:	0003f317          	auipc	x6,0x3f
    41000914:	6f030313          	addi	x6,x6,1776 # 41040000 <tohost>
    41000918:	00033383          	ld	x7,0(x6)
    4100091c:	fe039ee3          	bnez	x7,41000918 <rvcp_print_test_result+0x140>
    41000920:	00533023          	sd	x5,0(x6)
    41000924:	001f0f13          	addi	x30,x30,1
    41000928:	fd5ff06f          	j	410008fc <rvcp_print_test_result+0x124>
    4100092c:	000e1863          	bnez	x28,4100093c <rvcp_print_test_result+0x164>
    41000930:	45010f37          	lui	x30,0x45010
    41000934:	04cf0f1b          	addiw	x30,x30,76 # 4501004c <rvcp_passed_str_pa>
    41000938:	00c0006f          	j	41000944 <rvcp_print_test_result+0x16c>
    4100093c:	45010f37          	lui	x30,0x45010
    41000940:	053f0f1b          	addiw	x30,x30,83 # 45010053 <rvcp_failed_str_pa>
    41000944:	000f4283          	lbu	x5,0(x30)
    41000948:	02028663          	beqz	x5,41000974 <rvcp_print_test_result+0x19c>
    4100094c:	1010031b          	addiw	x6,x0,257
    41000950:	03031313          	slli	x6,x6,0x30
    41000954:	005362b3          	or	x5,x6,x5
    41000958:	0003f317          	auipc	x6,0x3f
    4100095c:	6a830313          	addi	x6,x6,1704 # 41040000 <tohost>
    41000960:	00033383          	ld	x7,0(x6)
    41000964:	fe039ee3          	bnez	x7,41000960 <rvcp_print_test_result+0x188>
    41000968:	00533023          	sd	x5,0(x6)
    4100096c:	001f0f13          	addi	x30,x30,1
    41000970:	fd5ff06f          	j	41000944 <rvcp_print_test_result+0x16c>
    41000974:	45010f37          	lui	x30,0x45010
    41000978:	05cf0f1b          	addiw	x30,x30,92 # 4501005c <rvcp_newline_str_pa>
    4100097c:	000f4283          	lbu	x5,0(x30)
    41000980:	02028663          	beqz	x5,410009ac <rvcp_print_test_result+0x1d4>
    41000984:	1010031b          	addiw	x6,x0,257
    41000988:	03031313          	slli	x6,x6,0x30
    4100098c:	005362b3          	or	x5,x6,x5
    41000990:	0003f317          	auipc	x6,0x3f
    41000994:	67030313          	addi	x6,x6,1648 # 41040000 <tohost>
    41000998:	00033383          	ld	x7,0(x6)
    4100099c:	fe039ee3          	bnez	x7,41000998 <rvcp_print_test_result+0x1c0>
    410009a0:	00533023          	sd	x5,0(x6)
    410009a4:	001f0f13          	addi	x30,x30,1
    410009a8:	fd5ff06f          	j	4100097c <rvcp_print_test_result+0x1a4>
    410009ac:	00008067          	ret

00000000410009b0 <os_rng_orig>:
    410009b0:	f14023f3          	csrr	x7,mhartid
    410009b4:	00068313          	mv	x6,x13
    410009b8:	026383b3          	mul	x7,x7,x6
    410009bc:	00058313          	mv	x6,x11
    410009c0:	00730333          	add	x6,x6,x7
    410009c4:	00033283          	ld	x5,0(x6)
    410009c8:	01529313          	slli	x6,x5,0x15
    410009cc:	0062c2b3          	xor	x5,x5,x6
    410009d0:	0232d313          	srli	x6,x5,0x23
    410009d4:	0062c2b3          	xor	x5,x5,x6
    410009d8:	00429313          	slli	x6,x5,0x4
    410009dc:	0062c2b3          	xor	x5,x5,x6
    410009e0:	00058313          	mv	x6,x11
    410009e4:	00730333          	add	x6,x6,x7
    410009e8:	00533023          	sd	x5,0(x6)
    410009ec:	00060313          	mv	x6,x12
    410009f0:	0262f2b3          	remu	x5,x5,x6
    410009f4:	00028513          	mv	x10,x5
    410009f8:	00008067          	ret
    410009fc:	02a00513          	li	x10,42
    41000a00:	001965b7          	lui	x11,0x196
    41000a04:	60d5859b          	addiw	x11,x11,1549 # 19660d <SID_ZICSR_08_stack+0x12960d>
    41000a08:	3c6ef637          	lui	x12,0x3c6ef
    41000a0c:	35f6061b          	addiw	x12,x12,863 # 3c6ef35f <pma_region_2_size+0x386ef35f>
    41000a10:	02200693          	li	x13,34
    41000a14:	02b50533          	mul	x10,x10,x11
    41000a18:	00c50533          	add	x10,x10,x12
    41000a1c:	02d56533          	rem	x10,x10,x13
    41000a20:	00b00593          	li	x11,11
    41000a24:	02b56533          	rem	x10,x10,x11
    41000a28:	00008067          	ret
    41000a2c:	0000                	.insn	2, 0x0000
	...

0000000041000a30 <tohost_mutex>:
	...

0000000041000a38 <tohost_addr_mem>:
    41000a38:	0000                	.insn	2, 0x0000
    41000a3a:	4104                	.insn	2, 0x4104
    41000a3c:	0000                	.insn	2, 0x0000
	...

0000000041000a40 <eot__end_test>:
    41000a40:	00100293          	li	x5,1
    41000a44:	00328463          	beq	x5,x3,41000a4c <eot__passed>
    41000a48:	01c0006f          	j	41000a64 <eot__failed>

0000000041000a4c <eot__passed>:
    41000a4c:	0ff0000f          	fence
    41000a50:	00000297          	auipc	x5,0x0
    41000a54:	fe82b283          	ld	x5,-24(x5) # 41000a38 <tohost_addr_mem>
    41000a58:	00100313          	li	x6,1
    41000a5c:	0062a023          	sw	x6,0(x5)
    41000a60:	0240006f          	j	41000a84 <eot__halt>

0000000041000a64 <eot__failed>:
    41000a64:	00100513          	li	x10,1
    41000a68:	d71ff0ef          	jal	410007d8 <rvcp_print_test_result>
    41000a6c:	0ff0000f          	fence
    41000a70:	00000297          	auipc	x5,0x0
    41000a74:	fc82b283          	ld	x5,-56(x5) # 41000a38 <tohost_addr_mem>
    41000a78:	00300313          	li	x6,3
    41000a7c:	0062a023          	sw	x6,0(x5)
    41000a80:	0040006f          	j	41000a84 <eot__halt>

0000000041000a84 <eot__halt>:
    41000a84:	10500073          	wfi
    41000a88:	ffdff06f          	j	41000a84 <eot__halt>

0000000041000a8c <scheduler__init>:
    41000a8c:	00000297          	auipc	x5,0x0
    41000a90:	0d428293          	addi	x5,x5,212 # 41000b60 <scheduler__panic>
    41000a94:	305292f3          	csrrw	x5,mtvec,x5
    41000a98:	18523023          	sd	x5,384(x4) # 180 <XLEN+0x140>
    41000a9c:	03700293          	li	x5,55
    41000aa0:	18523823          	sd	x5,400(x4) # 190 <XLEN+0x150>
    41000aa4:	0010029b          	addiw	x5,x0,1
    41000aa8:	02029293          	slli	x5,x5,0x20
    41000aac:	ffe28293          	addi	x5,x5,-2
    41000ab0:	18523423          	sd	x5,392(x4) # 188 <XLEN+0x148>
    41000ab4:	00000317          	auipc	x6,0x0
    41000ab8:	4d030313          	addi	x6,x6,1232 # 41000f84 <scheduler__test_setup_ptr>
    41000abc:	00033303          	ld	x6,0(x6)
    41000ac0:	0780006f          	j	41000b38 <scheduler__execute_test>

0000000041000ac4 <scheduler__dispatch>:
    41000ac4:	00000297          	auipc	x5,0x0
    41000ac8:	09c28293          	addi	x5,x5,156 # 41000b60 <scheduler__panic>
    41000acc:	305292f3          	csrrw	x5,mtvec,x5
    41000ad0:	18523023          	sd	x5,384(x4) # 180 <XLEN+0x140>

0000000041000ad4 <scheduler__csr_read_randomization>:
    41000ad4:	344022f3          	csrr	x5,mip
    41000ad8:	141022f3          	csrr	x5,sepc
    41000adc:	143022f3          	csrr	x5,stval
    41000ae0:	105022f3          	csrr	x5,stvec
    41000ae4:	104022f3          	csrr	x5,sie
    41000ae8:	10a022f3          	csrr	x5,0x10a
    41000aec:	105022f3          	csrr	x5,stvec
    41000af0:	303022f3          	csrr	x5,mideleg
    41000af4:	141022f3          	csrr	x5,sepc
    41000af8:	342022f3          	csrr	x5,mcause

0000000041000afc <scheduler__load_num_runs>:
    41000afc:	19023303          	ld	x6,400(x4) # 190 <XLEN+0x150>
    41000b00:	04030c63          	beqz	x6,41000b58 <scheduler__finished>

0000000041000b04 <scheduler__decrement_num_runs>:
    41000b04:	fff30393          	addi	x7,x6,-1
    41000b08:	18723823          	sd	x7,400(x4) # 190 <XLEN+0x150>
    41000b0c:	00000e17          	auipc	x28,0x0
    41000b10:	39ce0e13          	addi	x28,x28,924 # 41000ea8 <dtest_index_map>
    41000b14:	00239e93          	slli	x29,x7,0x2
    41000b18:	01de0e33          	add	x28,x28,x29
    41000b1c:	000e2e03          	lw	x28,0(x28)
    41000b20:	19c23423          	sd	x28,392(x4) # 188 <XLEN+0x148>

0000000041000b24 <scheduler__calc_test_pointer>:
    41000b24:	00339293          	slli	x5,x7,0x3

0000000041000b28 <scheduler__load_test_addr>:
    41000b28:	00000317          	auipc	x6,0x0
    41000b2c:	04c30313          	addi	x6,x6,76 # 41000b74 <os_test_sequence>
    41000b30:	006282b3          	add	x5,x5,x6
    41000b34:	0002b303          	ld	x6,0(x5)

0000000041000b38 <scheduler__execute_test>:
    41000b38:	18023283          	ld	x5,384(x4) # 180 <XLEN+0x140>
    41000b3c:	30529073          	csrw	mtvec,x5
    41000b40:	34021273          	csrrw	x4,mscratch,x4
    41000b44:	00000213          	li	x4,0
    41000b48:	14131073          	csrw	sepc,x6
    41000b4c:	10000293          	li	x5,256
    41000b50:	1002b073          	csrc	sstatus,x5
    41000b54:	10200073          	sret

0000000041000b58 <scheduler__finished>:
    41000b58:	00100193          	li	x3,1
    41000b5c:	ee5ff06f          	j	41000a40 <eot__end_test>

0000000041000b60 <scheduler__panic>:
    41000b60:	00000193          	li	x3,0
    41000b64:	eddff06f          	j	41000a40 <eot__end_test>
    41000b68:	0000                	.insn	2, 0x0000
	...

0000000041000b6c <num_runs>:
    41000b6c:	00000037          	lui	x0,0x0
    41000b70:	0000                	.insn	2, 0x0000
	...

0000000041000b74 <os_test_sequence>:
    41000b74:	5b04                	.insn	2, 0x5b04
    41000b76:	4101                	.insn	2, 0x4101
    41000b78:	0000                	.insn	2, 0x0000
    41000b7a:	0000                	.insn	2, 0x0000
    41000b7c:	5060                	.insn	2, 0x5060
    41000b7e:	4101                	.insn	2, 0x4101
    41000b80:	0000                	.insn	2, 0x0000
    41000b82:	0000                	.insn	2, 0x0000
    41000b84:	55f4                	.insn	2, 0x55f4
    41000b86:	4101                	.insn	2, 0x4101
    41000b88:	0000                	.insn	2, 0x0000
    41000b8a:	0000                	.insn	2, 0x0000
    41000b8c:	51f0                	.insn	2, 0x51f0
    41000b8e:	4101                	.insn	2, 0x4101
    41000b90:	0000                	.insn	2, 0x0000
    41000b92:	0000                	.insn	2, 0x0000
    41000b94:	548c                	.insn	2, 0x548c
    41000b96:	4101                	.insn	2, 0x4101
    41000b98:	0000                	.insn	2, 0x0000
    41000b9a:	0000                	.insn	2, 0x0000
    41000b9c:	5390                	.insn	2, 0x5390
    41000b9e:	4101                	.insn	2, 0x4101
    41000ba0:	0000                	.insn	2, 0x0000
    41000ba2:	0000                	.insn	2, 0x0000
    41000ba4:	51f0                	.insn	2, 0x51f0
    41000ba6:	4101                	.insn	2, 0x4101
    41000ba8:	0000                	.insn	2, 0x0000
    41000baa:	0000                	.insn	2, 0x0000
    41000bac:	5390                	.insn	2, 0x5390
    41000bae:	4101                	.insn	2, 0x4101
    41000bb0:	0000                	.insn	2, 0x0000
    41000bb2:	0000                	.insn	2, 0x0000
    41000bb4:	5800                	.insn	2, 0x5800
    41000bb6:	4101                	.insn	2, 0x4101
    41000bb8:	0000                	.insn	2, 0x0000
    41000bba:	0000                	.insn	2, 0x0000
    41000bbc:	5300                	.insn	2, 0x5300
    41000bbe:	4101                	.insn	2, 0x4101
    41000bc0:	0000                	.insn	2, 0x0000
    41000bc2:	0000                	.insn	2, 0x0000
    41000bc4:	5508                	.insn	2, 0x5508
    41000bc6:	4101                	.insn	2, 0x4101
    41000bc8:	0000                	.insn	2, 0x0000
    41000bca:	0000                	.insn	2, 0x0000
    41000bcc:	5410                	.insn	2, 0x5410
    41000bce:	4101                	.insn	2, 0x4101
    41000bd0:	0000                	.insn	2, 0x0000
    41000bd2:	0000                	.insn	2, 0x0000
    41000bd4:	50e8                	.insn	2, 0x50e8
    41000bd6:	4101                	.insn	2, 0x4101
    41000bd8:	0000                	.insn	2, 0x0000
    41000bda:	0000                	.insn	2, 0x0000
    41000bdc:	50e8                	.insn	2, 0x50e8
    41000bde:	4101                	.insn	2, 0x4101
    41000be0:	0000                	.insn	2, 0x0000
    41000be2:	0000                	.insn	2, 0x0000
    41000be4:	5950                	.insn	2, 0x5950
    41000be6:	4101                	.insn	2, 0x4101
    41000be8:	0000                	.insn	2, 0x0000
    41000bea:	0000                	.insn	2, 0x0000
    41000bec:	55f4                	.insn	2, 0x55f4
    41000bee:	4101                	.insn	2, 0x4101
    41000bf0:	0000                	.insn	2, 0x0000
    41000bf2:	0000                	.insn	2, 0x0000
    41000bf4:	5534                	.insn	2, 0x5534
    41000bf6:	4101                	.insn	2, 0x4101
    41000bf8:	0000                	.insn	2, 0x0000
    41000bfa:	0000                	.insn	2, 0x0000
    41000bfc:	56c0                	.insn	2, 0x56c0
    41000bfe:	4101                	.insn	2, 0x4101
    41000c00:	0000                	.insn	2, 0x0000
    41000c02:	0000                	.insn	2, 0x0000
    41000c04:	5800                	.insn	2, 0x5800
    41000c06:	4101                	.insn	2, 0x4101
    41000c08:	0000                	.insn	2, 0x0000
    41000c0a:	0000                	.insn	2, 0x0000
    41000c0c:	5410                	.insn	2, 0x5410
    41000c0e:	4101                	.insn	2, 0x4101
    41000c10:	0000                	.insn	2, 0x0000
    41000c12:	0000                	.insn	2, 0x0000
    41000c14:	569c                	.insn	2, 0x569c
    41000c16:	4101                	.insn	2, 0x4101
    41000c18:	0000                	.insn	2, 0x0000
    41000c1a:	0000                	.insn	2, 0x0000
    41000c1c:	5618                	.insn	2, 0x5618
    41000c1e:	4101                	.insn	2, 0x4101
    41000c20:	0000                	.insn	2, 0x0000
    41000c22:	0000                	.insn	2, 0x0000
    41000c24:	5410                	.insn	2, 0x5410
    41000c26:	4101                	.insn	2, 0x4101
    41000c28:	0000                	.insn	2, 0x0000
    41000c2a:	0000                	.insn	2, 0x0000
    41000c2c:	5270                	.insn	2, 0x5270
    41000c2e:	4101                	.insn	2, 0x4101
    41000c30:	0000                	.insn	2, 0x0000
    41000c32:	0000                	.insn	2, 0x0000
    41000c34:	548c                	.insn	2, 0x548c
    41000c36:	4101                	.insn	2, 0x4101
    41000c38:	0000                	.insn	2, 0x0000
    41000c3a:	0000                	.insn	2, 0x0000
    41000c3c:	5568                	.insn	2, 0x5568
    41000c3e:	4101                	.insn	2, 0x4101
    41000c40:	0000                	.insn	2, 0x0000
    41000c42:	0000                	.insn	2, 0x0000
    41000c44:	5390                	.insn	2, 0x5390
    41000c46:	4101                	.insn	2, 0x4101
    41000c48:	0000                	.insn	2, 0x0000
    41000c4a:	0000                	.insn	2, 0x0000
    41000c4c:	5950                	.insn	2, 0x5950
    41000c4e:	4101                	.insn	2, 0x4101
    41000c50:	0000                	.insn	2, 0x0000
    41000c52:	0000                	.insn	2, 0x0000
    41000c54:	569c                	.insn	2, 0x569c
    41000c56:	4101                	.insn	2, 0x4101
    41000c58:	0000                	.insn	2, 0x0000
    41000c5a:	0000                	.insn	2, 0x0000
    41000c5c:	5568                	.insn	2, 0x5568
    41000c5e:	4101                	.insn	2, 0x4101
    41000c60:	0000                	.insn	2, 0x0000
    41000c62:	0000                	.insn	2, 0x0000
    41000c64:	51f0                	.insn	2, 0x51f0
    41000c66:	4101                	.insn	2, 0x4101
    41000c68:	0000                	.insn	2, 0x0000
    41000c6a:	0000                	.insn	2, 0x0000
    41000c6c:	5568                	.insn	2, 0x5568
    41000c6e:	4101                	.insn	2, 0x4101
    41000c70:	0000                	.insn	2, 0x0000
    41000c72:	0000                	.insn	2, 0x0000
    41000c74:	5618                	.insn	2, 0x5618
    41000c76:	4101                	.insn	2, 0x4101
    41000c78:	0000                	.insn	2, 0x0000
    41000c7a:	0000                	.insn	2, 0x0000
    41000c7c:	5270                	.insn	2, 0x5270
    41000c7e:	4101                	.insn	2, 0x4101
    41000c80:	0000                	.insn	2, 0x0000
    41000c82:	0000                	.insn	2, 0x0000
    41000c84:	5300                	.insn	2, 0x5300
    41000c86:	4101                	.insn	2, 0x4101
    41000c88:	0000                	.insn	2, 0x0000
    41000c8a:	0000                	.insn	2, 0x0000
    41000c8c:	56c0                	.insn	2, 0x56c0
    41000c8e:	4101                	.insn	2, 0x4101
    41000c90:	0000                	.insn	2, 0x0000
    41000c92:	0000                	.insn	2, 0x0000
    41000c94:	5060                	.insn	2, 0x5060
    41000c96:	4101                	.insn	2, 0x4101
    41000c98:	0000                	.insn	2, 0x0000
    41000c9a:	0000                	.insn	2, 0x0000
    41000c9c:	5508                	.insn	2, 0x5508
    41000c9e:	4101                	.insn	2, 0x4101
    41000ca0:	0000                	.insn	2, 0x0000
    41000ca2:	0000                	.insn	2, 0x0000
    41000ca4:	569c                	.insn	2, 0x569c
    41000ca6:	4101                	.insn	2, 0x4101
    41000ca8:	0000                	.insn	2, 0x0000
    41000caa:	0000                	.insn	2, 0x0000
    41000cac:	5060                	.insn	2, 0x5060
    41000cae:	4101                	.insn	2, 0x4101
    41000cb0:	0000                	.insn	2, 0x0000
    41000cb2:	0000                	.insn	2, 0x0000
    41000cb4:	56c0                	.insn	2, 0x56c0
    41000cb6:	4101                	.insn	2, 0x4101
    41000cb8:	0000                	.insn	2, 0x0000
    41000cba:	0000                	.insn	2, 0x0000
    41000cbc:	5170                	.insn	2, 0x5170
    41000cbe:	4101                	.insn	2, 0x4101
    41000cc0:	0000                	.insn	2, 0x0000
    41000cc2:	0000                	.insn	2, 0x0000
    41000cc4:	5270                	.insn	2, 0x5270
    41000cc6:	4101                	.insn	2, 0x4101
    41000cc8:	0000                	.insn	2, 0x0000
    41000cca:	0000                	.insn	2, 0x0000
    41000ccc:	548c                	.insn	2, 0x548c
    41000cce:	4101                	.insn	2, 0x4101
    41000cd0:	0000                	.insn	2, 0x0000
    41000cd2:	0000                	.insn	2, 0x0000
    41000cd4:	5618                	.insn	2, 0x5618
    41000cd6:	4101                	.insn	2, 0x4101
    41000cd8:	0000                	.insn	2, 0x0000
    41000cda:	0000                	.insn	2, 0x0000
    41000cdc:	5534                	.insn	2, 0x5534
    41000cde:	4101                	.insn	2, 0x4101
    41000ce0:	0000                	.insn	2, 0x0000
    41000ce2:	0000                	.insn	2, 0x0000
    41000ce4:	5508                	.insn	2, 0x5508
    41000ce6:	4101                	.insn	2, 0x4101
    41000ce8:	0000                	.insn	2, 0x0000
    41000cea:	0000                	.insn	2, 0x0000
    41000cec:	5534                	.insn	2, 0x5534
    41000cee:	4101                	.insn	2, 0x4101
    41000cf0:	0000                	.insn	2, 0x0000
    41000cf2:	0000                	.insn	2, 0x0000
    41000cf4:	5170                	.insn	2, 0x5170
    41000cf6:	4101                	.insn	2, 0x4101
    41000cf8:	0000                	.insn	2, 0x0000
    41000cfa:	0000                	.insn	2, 0x0000
    41000cfc:	5300                	.insn	2, 0x5300
    41000cfe:	4101                	.insn	2, 0x4101
    41000d00:	0000                	.insn	2, 0x0000
    41000d02:	0000                	.insn	2, 0x0000
    41000d04:	50e8                	.insn	2, 0x50e8
    41000d06:	4101                	.insn	2, 0x4101
    41000d08:	0000                	.insn	2, 0x0000
    41000d0a:	0000                	.insn	2, 0x0000
    41000d0c:	5800                	.insn	2, 0x5800
    41000d0e:	4101                	.insn	2, 0x4101
    41000d10:	0000                	.insn	2, 0x0000
    41000d12:	0000                	.insn	2, 0x0000
    41000d14:	5950                	.insn	2, 0x5950
    41000d16:	4101                	.insn	2, 0x4101
    41000d18:	0000                	.insn	2, 0x0000
    41000d1a:	0000                	.insn	2, 0x0000
    41000d1c:	55f4                	.insn	2, 0x55f4
    41000d1e:	4101                	.insn	2, 0x4101
    41000d20:	0000                	.insn	2, 0x0000
    41000d22:	0000                	.insn	2, 0x0000
    41000d24:	5170                	.insn	2, 0x5170
    41000d26:	4101                	.insn	2, 0x4101
    41000d28:	0000                	.insn	2, 0x0000
	...

0000000041000d2c <dtest_descriptor_table>:
    41000d2c:	0dbc                	.insn	2, 0x0dbc
    41000d2e:	4100                	.insn	2, 0x4100
    41000d30:	0000                	.insn	2, 0x0000
    41000d32:	0000                	.insn	2, 0x0000
    41000d34:	0dc9                	.insn	2, 0x0dc9
    41000d36:	4100                	.insn	2, 0x4100
    41000d38:	0000                	.insn	2, 0x0000
    41000d3a:	0000                	.insn	2, 0x0000
    41000d3c:	0dd6                	.insn	2, 0x0dd6
    41000d3e:	4100                	.insn	2, 0x4100
    41000d40:	0000                	.insn	2, 0x0000
    41000d42:	0000                	.insn	2, 0x0000
    41000d44:	41000de3          	beq	x0,x16,4100195e <__section__runtime_1+0x95e>
    41000d48:	0000                	.insn	2, 0x0000
    41000d4a:	0000                	.insn	2, 0x0000
    41000d4c:	0df0                	.insn	2, 0x0df0
    41000d4e:	4100                	.insn	2, 0x4100
    41000d50:	0000                	.insn	2, 0x0000
    41000d52:	0000                	.insn	2, 0x0000
    41000d54:	0dfd                	.insn	2, 0x0dfd
    41000d56:	4100                	.insn	2, 0x4100
    41000d58:	0000                	.insn	2, 0x0000
    41000d5a:	0000                	.insn	2, 0x0000
    41000d5c:	0e0a                	.insn	2, 0x0e0a
    41000d5e:	4100                	.insn	2, 0x4100
    41000d60:	0000                	.insn	2, 0x0000
    41000d62:	0000                	.insn	2, 0x0000
    41000d64:	41000e17          	auipc	x28,0x41000
    41000d68:	0000                	.insn	2, 0x0000
    41000d6a:	0000                	.insn	2, 0x0000
    41000d6c:	0e24                	.insn	2, 0x0e24
    41000d6e:	4100                	.insn	2, 0x4100
    41000d70:	0000                	.insn	2, 0x0000
    41000d72:	0000                	.insn	2, 0x0000
    41000d74:	0e31                	.insn	2, 0x0e31
    41000d76:	4100                	.insn	2, 0x4100
    41000d78:	0000                	.insn	2, 0x0000
    41000d7a:	0000                	.insn	2, 0x0000
    41000d7c:	0e3e                	.insn	2, 0x0e3e
    41000d7e:	4100                	.insn	2, 0x4100
    41000d80:	0000                	.insn	2, 0x0000
    41000d82:	0000                	.insn	2, 0x0000
    41000d84:	41000e4b          	fnmsub.s	f28,f0,f16,f8,rne
    41000d88:	0000                	.insn	2, 0x0000
    41000d8a:	0000                	.insn	2, 0x0000
    41000d8c:	0e58                	.insn	2, 0x0e58
    41000d8e:	4100                	.insn	2, 0x4100
    41000d90:	0000                	.insn	2, 0x0000
    41000d92:	0000                	.insn	2, 0x0000
    41000d94:	0e65                	.insn	2, 0x0e65
    41000d96:	4100                	.insn	2, 0x4100
    41000d98:	0000                	.insn	2, 0x0000
    41000d9a:	0000                	.insn	2, 0x0000
    41000d9c:	0e72                	.insn	2, 0x0e72
    41000d9e:	4100                	.insn	2, 0x4100
    41000da0:	0000                	.insn	2, 0x0000
    41000da2:	0000                	.insn	2, 0x0000
    41000da4:	0e7f 4100 0000 0000 	.insn	10, 0x0e8c0000000041000e7f
    41000dac:	0e8c 
    41000dae:	4100                	.insn	2, 0x4100
    41000db0:	0000                	.insn	2, 0x0000
    41000db2:	0000                	.insn	2, 0x0000
    41000db4:	0e99                	.insn	2, 0x0e99
    41000db6:	4100                	.insn	2, 0x4100
    41000db8:	0000                	.insn	2, 0x0000
	...

0000000041000dbc <dtest_name_0>:
    41000dbc:	5f444953          	.insn	4, 0x5f444953
    41000dc0:	495a                	.insn	2, 0x495a
    41000dc2:	5f525343          	.insn	4, 0x5f525343
    41000dc6:	3130                	.insn	2, 0x3130
	...

0000000041000dc9 <dtest_name_1>:
    41000dc9:	5f444953          	.insn	4, 0x5f444953
    41000dcd:	495a                	.insn	2, 0x495a
    41000dcf:	5f525343          	.insn	4, 0x5f525343
    41000dd3:	3230                	.insn	2, 0x3230
	...

0000000041000dd6 <dtest_name_2>:
    41000dd6:	5f444953          	.insn	4, 0x5f444953
    41000dda:	495a                	.insn	2, 0x495a
    41000ddc:	5f525343          	.insn	4, 0x5f525343
    41000de0:	3330                	.insn	2, 0x3330
	...

0000000041000de3 <dtest_name_3>:
    41000de3:	5f444953          	.insn	4, 0x5f444953
    41000de7:	495a                	.insn	2, 0x495a
    41000de9:	5f525343          	.insn	4, 0x5f525343
    41000ded:	3430                	.insn	2, 0x3430
	...

0000000041000df0 <dtest_name_4>:
    41000df0:	5f444953          	.insn	4, 0x5f444953
    41000df4:	495a                	.insn	2, 0x495a
    41000df6:	5f525343          	.insn	4, 0x5f525343
    41000dfa:	3530                	.insn	2, 0x3530
	...

0000000041000dfd <dtest_name_5>:
    41000dfd:	5f444953          	.insn	4, 0x5f444953
    41000e01:	495a                	.insn	2, 0x495a
    41000e03:	5f525343          	.insn	4, 0x5f525343
    41000e07:	3630                	.insn	2, 0x3630
	...

0000000041000e0a <dtest_name_6>:
    41000e0a:	5f444953          	.insn	4, 0x5f444953
    41000e0e:	495a                	.insn	2, 0x495a
    41000e10:	5f525343          	.insn	4, 0x5f525343
    41000e14:	3730                	.insn	2, 0x3730
	...

0000000041000e17 <dtest_name_7>:
    41000e17:	5f444953          	.insn	4, 0x5f444953
    41000e1b:	495a                	.insn	2, 0x495a
    41000e1d:	5f525343          	.insn	4, 0x5f525343
    41000e21:	3830                	.insn	2, 0x3830
	...

0000000041000e24 <dtest_name_8>:
    41000e24:	5f444953          	.insn	4, 0x5f444953
    41000e28:	495a                	.insn	2, 0x495a
    41000e2a:	5f525343          	.insn	4, 0x5f525343
    41000e2e:	3930                	.insn	2, 0x3930
	...

0000000041000e31 <dtest_name_9>:
    41000e31:	5f444953          	.insn	4, 0x5f444953
    41000e35:	495a                	.insn	2, 0x495a
    41000e37:	5f525343          	.insn	4, 0x5f525343
    41000e3b:	3031                	.insn	2, 0x3031
	...

0000000041000e3e <dtest_name_10>:
    41000e3e:	5f444953          	.insn	4, 0x5f444953
    41000e42:	495a                	.insn	2, 0x495a
    41000e44:	5f525343          	.insn	4, 0x5f525343
    41000e48:	3131                	.insn	2, 0x3131
	...

0000000041000e4b <dtest_name_11>:
    41000e4b:	5f444953          	.insn	4, 0x5f444953
    41000e4f:	495a                	.insn	2, 0x495a
    41000e51:	5f525343          	.insn	4, 0x5f525343
    41000e55:	3231                	.insn	2, 0x3231
	...

0000000041000e58 <dtest_name_12>:
    41000e58:	5f444953          	.insn	4, 0x5f444953
    41000e5c:	495a                	.insn	2, 0x495a
    41000e5e:	5f525343          	.insn	4, 0x5f525343
    41000e62:	3331                	.insn	2, 0x3331
	...

0000000041000e65 <dtest_name_13>:
    41000e65:	5f444953          	.insn	4, 0x5f444953
    41000e69:	495a                	.insn	2, 0x495a
    41000e6b:	5f525343          	.insn	4, 0x5f525343
    41000e6f:	3431                	.insn	2, 0x3431
	...

0000000041000e72 <dtest_name_14>:
    41000e72:	5f444953          	.insn	4, 0x5f444953
    41000e76:	495a                	.insn	2, 0x495a
    41000e78:	5f525343          	.insn	4, 0x5f525343
    41000e7c:	3531                	.insn	2, 0x3531
	...

0000000041000e7f <dtest_name_15>:
    41000e7f:	5f444953          	.insn	4, 0x5f444953
    41000e83:	495a                	.insn	2, 0x495a
    41000e85:	5f525343          	.insn	4, 0x5f525343
    41000e89:	3631                	.insn	2, 0x3631
	...

0000000041000e8c <dtest_name_16>:
    41000e8c:	5f444953          	.insn	4, 0x5f444953
    41000e90:	495a                	.insn	2, 0x495a
    41000e92:	5f525343          	.insn	4, 0x5f525343
    41000e96:	3731                	.insn	2, 0x3731
	...

0000000041000e99 <dtest_name_17>:
    41000e99:	5f444953          	.insn	4, 0x5f444953
    41000e9d:	495a                	.insn	2, 0x495a
    41000e9f:	5f525343          	.insn	4, 0x5f525343
    41000ea3:	3032                	.insn	2, 0x3032
    41000ea5:	0000                	.insn	2, 0x0000
	...

0000000041000ea8 <dtest_index_map>:
    41000ea8:	ffff                	.insn	2, 0xffff
    41000eaa:	ffff                	.insn	2, 0xffff
    41000eac:	0000                	.insn	2, 0x0000
    41000eae:	0000                	.insn	2, 0x0000
    41000eb0:	000c                	.insn	2, 0x000c
    41000eb2:	0000                	.insn	2, 0x0000
    41000eb4:	00000003          	lb	x0,0(x0) # 0 <ALL_4KB_PAGES>
    41000eb8:	0008                	.insn	2, 0x0008
    41000eba:	0000                	.insn	2, 0x0000
    41000ebc:	0006                	.insn	2, 0x0006
    41000ebe:	0000                	.insn	2, 0x0000
    41000ec0:	00000003          	lb	x0,0(x0) # 0 <ALL_4KB_PAGES>
    41000ec4:	0006                	.insn	2, 0x0006
    41000ec6:	0000                	.insn	2, 0x0000
    41000ec8:	0010                	.insn	2, 0x0010
    41000eca:	0000                	.insn	2, 0x0000
    41000ecc:	0005                	.insn	2, 0x0005
    41000ece:	0000                	.insn	2, 0x0000
    41000ed0:	0009                	.insn	2, 0x0009
    41000ed2:	0000                	.insn	2, 0x0000
    41000ed4:	00000007          	vle8.v	v0,(x0),v0.t
    41000ed8:	0001                	.insn	2, 0x0001
    41000eda:	0000                	.insn	2, 0x0000
    41000edc:	0001                	.insn	2, 0x0001
    41000ede:	0000                	.insn	2, 0x0000
    41000ee0:	0011                	.insn	2, 0x0011
    41000ee2:	0000                	.insn	2, 0x0000
    41000ee4:	000c                	.insn	2, 0x000c
    41000ee6:	0000                	.insn	2, 0x0000
    41000ee8:	000a                	.insn	2, 0x000a
    41000eea:	0000                	.insn	2, 0x0000
    41000eec:	0000000f          	fence	unknown,unknown
    41000ef0:	0010                	.insn	2, 0x0010
    41000ef2:	0000                	.insn	2, 0x0000
    41000ef4:	00000007          	vle8.v	v0,(x0),v0.t
    41000ef8:	000e                	.insn	2, 0x000e
    41000efa:	0000                	.insn	2, 0x0000
    41000efc:	000d                	.insn	2, 0x000d
    41000efe:	0000                	.insn	2, 0x0000
    41000f00:	00000007          	vle8.v	v0,(x0),v0.t
    41000f04:	0004                	.insn	2, 0x0004
    41000f06:	0000                	.insn	2, 0x0000
    41000f08:	0008                	.insn	2, 0x0008
    41000f0a:	0000                	.insn	2, 0x0000
    41000f0c:	0000000b          	.insn	4, 0x000b
    41000f10:	0006                	.insn	2, 0x0006
    41000f12:	0000                	.insn	2, 0x0000
    41000f14:	0011                	.insn	2, 0x0011
    41000f16:	0000                	.insn	2, 0x0000
    41000f18:	000e                	.insn	2, 0x000e
    41000f1a:	0000                	.insn	2, 0x0000
    41000f1c:	0000000b          	.insn	4, 0x000b
    41000f20:	00000003          	lb	x0,0(x0) # 0 <ALL_4KB_PAGES>
    41000f24:	0000000b          	.insn	4, 0x000b
    41000f28:	000d                	.insn	2, 0x000d
    41000f2a:	0000                	.insn	2, 0x0000
    41000f2c:	0004                	.insn	2, 0x0004
    41000f2e:	0000                	.insn	2, 0x0000
    41000f30:	0005                	.insn	2, 0x0005
    41000f32:	0000                	.insn	2, 0x0000
    41000f34:	0000000f          	fence	unknown,unknown
    41000f38:	0000                	.insn	2, 0x0000
    41000f3a:	0000                	.insn	2, 0x0000
    41000f3c:	0009                	.insn	2, 0x0009
    41000f3e:	0000                	.insn	2, 0x0000
    41000f40:	000e                	.insn	2, 0x000e
    41000f42:	0000                	.insn	2, 0x0000
    41000f44:	0000                	.insn	2, 0x0000
    41000f46:	0000                	.insn	2, 0x0000
    41000f48:	0000000f          	fence	unknown,unknown
    41000f4c:	0002                	.insn	2, 0x0002
    41000f4e:	0000                	.insn	2, 0x0000
    41000f50:	0004                	.insn	2, 0x0004
    41000f52:	0000                	.insn	2, 0x0000
    41000f54:	0008                	.insn	2, 0x0008
    41000f56:	0000                	.insn	2, 0x0000
    41000f58:	000d                	.insn	2, 0x000d
    41000f5a:	0000                	.insn	2, 0x0000
    41000f5c:	000a                	.insn	2, 0x000a
    41000f5e:	0000                	.insn	2, 0x0000
    41000f60:	0009                	.insn	2, 0x0009
    41000f62:	0000                	.insn	2, 0x0000
    41000f64:	000a                	.insn	2, 0x000a
    41000f66:	0000                	.insn	2, 0x0000
    41000f68:	0002                	.insn	2, 0x0002
    41000f6a:	0000                	.insn	2, 0x0000
    41000f6c:	0005                	.insn	2, 0x0005
    41000f6e:	0000                	.insn	2, 0x0000
    41000f70:	0001                	.insn	2, 0x0001
    41000f72:	0000                	.insn	2, 0x0000
    41000f74:	0010                	.insn	2, 0x0010
    41000f76:	0000                	.insn	2, 0x0000
    41000f78:	0011                	.insn	2, 0x0011
    41000f7a:	0000                	.insn	2, 0x0000
    41000f7c:	000c                	.insn	2, 0x000c
    41000f7e:	0000                	.insn	2, 0x0000
    41000f80:	0002                	.insn	2, 0x0002
	...

0000000041000f84 <scheduler__test_setup_ptr>:
    41000f84:	5050                	.insn	2, 0x5050
    41000f86:	4101                	.insn	2, 0x4101
    41000f88:	0000                	.insn	2, 0x0000
	...

0000000041000f8c <scheduler__test_cleanup_ptr>:
    41000f8c:	5b04                	.insn	2, 0x5b04
    41000f8e:	4101                	.insn	2, 0x4101
    41000f90:	0000                	.insn	2, 0x0000
	...

Disassembly of section .runtime_s:

0000000041011000 <trap_handler_s__invalid_interrupt>:
    41011000:	1740006f          	j	41011174 <trap_handler_s__test_failed>

0000000041011004 <trap_handler_s__clear_all_interrupts>:
    41011004:	14401073          	csrw	sip,x0
    41011008:	10200073          	sret

000000004101100c <trap_handler_s___CLEAR_SSI>:
    4101100c:	00200293          	li	x5,2
    41011010:	1442b073          	csrc	sip,x5
    41011014:	10200073          	sret

0000000041011018 <trap_handler_s___CLEAR_MSI>:
    41011018:	00800293          	li	x5,8
    4101101c:	1442b073          	csrc	sip,x5
    41011020:	10200073          	sret

0000000041011024 <trap_handler_s___CLEAR_STI>:
    41011024:	02000293          	li	x5,32
    41011028:	1442b073          	csrc	sip,x5
    4101102c:	10200073          	sret

0000000041011030 <trap_handler_s___CLEAR_MTI>:
    41011030:	08000293          	li	x5,128
    41011034:	1442b073          	csrc	sip,x5
    41011038:	10200073          	sret

000000004101103c <trap_handler_s___CLEAR_SEI>:
    4101103c:	20000293          	li	x5,512
    41011040:	1442b073          	csrc	sip,x5
    41011044:	10200073          	sret

0000000041011048 <trap_handler_s___CLEAR_MEI>:
    41011048:	000012b7          	lui	x5,0x1
    4101104c:	8002829b          	addiw	x5,x5,-2048 # 800 <XLEN+0x7c0>
    41011050:	1442b073          	csrc	sip,x5
    41011054:	10200073          	sret

0000000041011058 <trap_handler_s___CLEAR_COI>:
    41011058:	000022b7          	lui	x5,0x2
    4101105c:	1442b073          	csrc	sip,x5
    41011060:	10200073          	sret

0000000041011064 <trap_handler_s__clear_highest_priority_interrupt>:
    41011064:	144022f3          	csrr	x5,sip
    41011068:	40500333          	neg	x6,x5
    4101106c:	0062f2b3          	and	x5,x5,x6
    41011070:	1442b073          	csrc	sip,x5
    41011074:	10200073          	sret

0000000041011078 <trap_handler_s__trap_entry>:
    41011078:	10c0006f          	j	41011184 <trap_handler_s__trap_handler>

000000004101107c <trap_handler_s__interrupt_vector_table>:
    4101107c:	f91ff06f          	j	4101100c <trap_handler_s___CLEAR_SSI>
    41011080:	f81ff06f          	j	41011000 <trap_handler_s__invalid_interrupt>
    41011084:	f95ff06f          	j	41011018 <trap_handler_s___CLEAR_MSI>
    41011088:	f79ff06f          	j	41011000 <trap_handler_s__invalid_interrupt>
    4101108c:	f99ff06f          	j	41011024 <trap_handler_s___CLEAR_STI>
    41011090:	f71ff06f          	j	41011000 <trap_handler_s__invalid_interrupt>
    41011094:	f9dff06f          	j	41011030 <trap_handler_s___CLEAR_MTI>
    41011098:	f69ff06f          	j	41011000 <trap_handler_s__invalid_interrupt>
    4101109c:	fa1ff06f          	j	4101103c <trap_handler_s___CLEAR_SEI>
    410110a0:	f61ff06f          	j	41011000 <trap_handler_s__invalid_interrupt>
    410110a4:	fa5ff06f          	j	41011048 <trap_handler_s___CLEAR_MEI>
    410110a8:	f59ff06f          	j	41011000 <trap_handler_s__invalid_interrupt>
    410110ac:	fadff06f          	j	41011058 <trap_handler_s___CLEAR_COI>
    410110b0:	f51ff06f          	j	41011000 <trap_handler_s__invalid_interrupt>
    410110b4:	f4dff06f          	j	41011000 <trap_handler_s__invalid_interrupt>
    410110b8:	fadff06f          	j	41011064 <trap_handler_s__clear_highest_priority_interrupt>
    410110bc:	fa9ff06f          	j	41011064 <trap_handler_s__clear_highest_priority_interrupt>
    410110c0:	fa5ff06f          	j	41011064 <trap_handler_s__clear_highest_priority_interrupt>
    410110c4:	fa1ff06f          	j	41011064 <trap_handler_s__clear_highest_priority_interrupt>
    410110c8:	f9dff06f          	j	41011064 <trap_handler_s__clear_highest_priority_interrupt>
    410110cc:	f99ff06f          	j	41011064 <trap_handler_s__clear_highest_priority_interrupt>
    410110d0:	f95ff06f          	j	41011064 <trap_handler_s__clear_highest_priority_interrupt>
    410110d4:	f91ff06f          	j	41011064 <trap_handler_s__clear_highest_priority_interrupt>
    410110d8:	f8dff06f          	j	41011064 <trap_handler_s__clear_highest_priority_interrupt>
    410110dc:	f89ff06f          	j	41011064 <trap_handler_s__clear_highest_priority_interrupt>
    410110e0:	f85ff06f          	j	41011064 <trap_handler_s__clear_highest_priority_interrupt>
    410110e4:	f81ff06f          	j	41011064 <trap_handler_s__clear_highest_priority_interrupt>
    410110e8:	f7dff06f          	j	41011064 <trap_handler_s__clear_highest_priority_interrupt>
    410110ec:	f79ff06f          	j	41011064 <trap_handler_s__clear_highest_priority_interrupt>
    410110f0:	f75ff06f          	j	41011064 <trap_handler_s__clear_highest_priority_interrupt>
    410110f4:	f71ff06f          	j	41011064 <trap_handler_s__clear_highest_priority_interrupt>
    410110f8:	f6dff06f          	j	41011064 <trap_handler_s__clear_highest_priority_interrupt>
    410110fc:	f69ff06f          	j	41011064 <trap_handler_s__clear_highest_priority_interrupt>
    41011100:	f65ff06f          	j	41011064 <trap_handler_s__clear_highest_priority_interrupt>
    41011104:	f61ff06f          	j	41011064 <trap_handler_s__clear_highest_priority_interrupt>
    41011108:	f5dff06f          	j	41011064 <trap_handler_s__clear_highest_priority_interrupt>
    4101110c:	f59ff06f          	j	41011064 <trap_handler_s__clear_highest_priority_interrupt>
    41011110:	f55ff06f          	j	41011064 <trap_handler_s__clear_highest_priority_interrupt>
    41011114:	f51ff06f          	j	41011064 <trap_handler_s__clear_highest_priority_interrupt>
    41011118:	f4dff06f          	j	41011064 <trap_handler_s__clear_highest_priority_interrupt>
    4101111c:	f49ff06f          	j	41011064 <trap_handler_s__clear_highest_priority_interrupt>
    41011120:	f45ff06f          	j	41011064 <trap_handler_s__clear_highest_priority_interrupt>
    41011124:	f41ff06f          	j	41011064 <trap_handler_s__clear_highest_priority_interrupt>
    41011128:	f3dff06f          	j	41011064 <trap_handler_s__clear_highest_priority_interrupt>
    4101112c:	f39ff06f          	j	41011064 <trap_handler_s__clear_highest_priority_interrupt>
    41011130:	f35ff06f          	j	41011064 <trap_handler_s__clear_highest_priority_interrupt>
    41011134:	f31ff06f          	j	41011064 <trap_handler_s__clear_highest_priority_interrupt>
    41011138:	f2dff06f          	j	41011064 <trap_handler_s__clear_highest_priority_interrupt>
    4101113c:	f29ff06f          	j	41011064 <trap_handler_s__clear_highest_priority_interrupt>
    41011140:	f25ff06f          	j	41011064 <trap_handler_s__clear_highest_priority_interrupt>
    41011144:	f21ff06f          	j	41011064 <trap_handler_s__clear_highest_priority_interrupt>
    41011148:	f1dff06f          	j	41011064 <trap_handler_s__clear_highest_priority_interrupt>
    4101114c:	f19ff06f          	j	41011064 <trap_handler_s__clear_highest_priority_interrupt>
    41011150:	f15ff06f          	j	41011064 <trap_handler_s__clear_highest_priority_interrupt>
    41011154:	f11ff06f          	j	41011064 <trap_handler_s__clear_highest_priority_interrupt>
    41011158:	f0dff06f          	j	41011064 <trap_handler_s__clear_highest_priority_interrupt>
    4101115c:	f09ff06f          	j	41011064 <trap_handler_s__clear_highest_priority_interrupt>
    41011160:	f05ff06f          	j	41011064 <trap_handler_s__clear_highest_priority_interrupt>
    41011164:	f01ff06f          	j	41011064 <trap_handler_s__clear_highest_priority_interrupt>
    41011168:	efdff06f          	j	41011064 <trap_handler_s__clear_highest_priority_interrupt>
    4101116c:	ef9ff06f          	j	41011064 <trap_handler_s__clear_highest_priority_interrupt>
    41011170:	ef5ff06f          	j	41011064 <trap_handler_s__clear_highest_priority_interrupt>

0000000041011174 <trap_handler_s__test_failed>:
    41011174:	00f00f9b          	addiw	x31,x0,15
    41011178:	01cf9f93          	slli	x31,x31,0x1c
    4101117c:	002f8f93          	addi	x31,x31,2
    41011180:	00000073          	ecall

0000000041011184 <trap_handler_s__trap_handler>:
    41011184:	142022f3          	csrr	x5,scause
    41011188:	fff0031b          	addiw	x6,x0,-1
    4101118c:	03f31313          	slli	x6,x6,0x3f
    41011190:	00537333          	and	x6,x6,x5
    41011194:	02030263          	beqz	x6,410111b8 <trap_handler_s__exception_path>

0000000041011198 <trap_handler_s__interrupt_handler>:
    41011198:	fff0031b          	addiw	x6,x0,-1
    4101119c:	03f31313          	slli	x6,x6,0x3f
    410111a0:	0062c2b3          	xor	x5,x5,x6
    410111a4:	00000317          	auipc	x6,0x0
    410111a8:	ed430313          	addi	x6,x6,-300 # 41011078 <trap_handler_s__trap_entry>
    410111ac:	00229293          	slli	x5,x5,0x2
    410111b0:	005302b3          	add	x5,x6,x5
    410111b4:	00028067          	jr	x5 # 2000 <pma_region_1_size+0x1000>

00000000410111b8 <trap_handler_s__exception_path>:
    410111b8:	14021273          	csrrw	x4,sscratch,x4
    410111bc:	00000297          	auipc	x5,0x0
    410111c0:	0cc28293          	addi	x5,x5,204 # 41011288 <trap_handler_s__trap_panic>
    410111c4:	10529073          	csrw	stvec,x5
    410111c8:	0040006f          	j	410111cc <trap_handler_s__excp_entry>

00000000410111cc <trap_handler_s__excp_entry>:
    410111cc:	14202373          	csrr	x6,scause
    410111d0:	00800293          	li	x5,8
    410111d4:	00534863          	blt	x6,x5,410111e4 <trap_handler_s__check_exception_label>
    410111d8:	00b00293          	li	x5,11
    410111dc:	0062c463          	blt	x5,x6,410111e4 <trap_handler_s__check_exception_label>
    410111e0:	0a80006f          	j	41011288 <trap_handler_s__trap_panic>

00000000410111e4 <trap_handler_s__check_exception_label>:
    410111e4:	04623c23          	sd	x6,88(x4) # 58 <XLEN+0x18>
    410111e8:	141022f3          	csrr	x5,sepc
    410111ec:	02523423          	sd	x5,40(x4) # 28 <SECURE_ACCESS_PROBABILITY+0xa>
    410111f0:	01820283          	lb	x5,24(x4) # 18 <STORE_GUEST_PAGE_FAULT+0x1>
    410111f4:	00029863          	bnez	x5,41011204 <trap_handler_s__check_excp>
    410111f8:	00128293          	addi	x5,x5,1
    410111fc:	00520c23          	sb	x5,24(x4) # 18 <STORE_GUEST_PAGE_FAULT+0x1>
    41011200:	05c0006f          	j	4101125c <trap_handler_s__ecall_from_machine>

0000000041011204 <trap_handler_s__check_excp>:
    41011204:	06823283          	ld	x5,104(x4) # 68 <XLEN+0x28>
    41011208:	06023423          	sd	x0,104(x4) # 68 <XLEN+0x28>
    4101120c:	00028663          	beqz	x5,41011218 <trap_handler_s__skip_mode_check>
    41011210:	00300393          	li	x7,3
    41011214:	f67290e3          	bne	x5,x7,41011174 <trap_handler_s__test_failed>

0000000041011218 <trap_handler_s__skip_mode_check>:
    41011218:	05023283          	ld	x5,80(x4) # 50 <XLEN+0x10>
    4101121c:	04023823          	sd	x0,80(x4) # 50 <XLEN+0x10>
    41011220:	f4531ae3          	bne	x6,x5,41011174 <trap_handler_s__test_failed>
    41011224:	03823283          	ld	x5,56(x4) # 38 <SECURE_ACCESS_PROBABILITY+0x1a>
    41011228:	02023c23          	sd	x0,56(x4) # 38 <SECURE_ACCESS_PROBABILITY+0x1a>
    4101122c:	02029663          	bnez	x5,41011258 <trap_handler_s__skip_nonzero_tval_check>
    41011230:	02023303          	ld	x6,32(x4) # 20 <SECURE_ACCESS_PROBABILITY+0x2>
    41011234:	02023023          	sd	x0,32(x4) # 20 <SECURE_ACCESS_PROBABILITY+0x2>
    41011238:	02823283          	ld	x5,40(x4) # 28 <SECURE_ACCESS_PROBABILITY+0xa>
    4101123c:	02023423          	sd	x0,40(x4) # 28 <SECURE_ACCESS_PROBABILITY+0xa>
    41011240:	f2531ae3          	bne	x6,x5,41011174 <trap_handler_s__test_failed>
    41011244:	04023283          	ld	x5,64(x4) # 40 <XLEN>
    41011248:	04023023          	sd	x0,64(x4) # 40 <XLEN>
    4101124c:	00028663          	beqz	x5,41011258 <trap_handler_s__skip_nonzero_tval_check>

0000000041011250 <trap_handler_s__nonzero_tval_check>:
    41011250:	14302373          	csrr	x6,stval
    41011254:	f25310e3          	bne	x6,x5,41011174 <trap_handler_s__test_failed>

0000000041011258 <trap_handler_s__skip_nonzero_tval_check>:
    41011258:	0040006f          	j	4101125c <trap_handler_s__ecall_from_machine>

000000004101125c <trap_handler_s__ecall_from_machine>:
    4101125c:	03023283          	ld	x5,48(x4) # 30 <SECURE_ACCESS_PROBABILITY+0x12>
    41011260:	02023823          	sd	x0,48(x4) # 30 <SECURE_ACCESS_PROBABILITY+0x12>
    41011264:	07023303          	ld	x6,112(x4) # 70 <XLEN+0x30>
    41011268:	06023823          	sd	x0,112(x4) # 70 <XLEN+0x30>
    4101126c:	00031463          	bnez	x6,41011274 <trap_handler_s__skip_xepc_write>
    41011270:	14129073          	csrw	sepc,x5

0000000041011274 <trap_handler_s__skip_xepc_write>:
    41011274:	00000317          	auipc	x6,0x0
    41011278:	e0430313          	addi	x6,x6,-508 # 41011078 <trap_handler_s__trap_entry>
    4101127c:	10531073          	csrw	stvec,x6
    41011280:	14021273          	csrrw	x4,sscratch,x4
    41011284:	10200073          	sret

0000000041011288 <trap_handler_s__trap_panic>:
    41011288:	00000193          	li	x3,0
    4101128c:	00f00f9b          	addiw	x31,x0,15
    41011290:	01cf9f93          	slli	x31,x31,0x1c
    41011294:	002f8f93          	addi	x31,x31,2
    41011298:	00000073          	ecall

Disassembly of section .code:

0000000041015020 <passed>:
    41015020:	00f00f9b          	addiw	x31,x0,15
    41015024:	01cf9f93          	slli	x31,x31,0x1c
    41015028:	001f8f93          	addi	x31,x31,1
    4101502c:	00000073          	ecall

0000000041015030 <failed>:
    41015030:	00f00f9b          	addiw	x31,x0,15
    41015034:	01cf9f93          	slli	x31,x31,0x1c
    41015038:	002f8f93          	addi	x31,x31,2
    4101503c:	00000073          	ecall

0000000041015040 <end_test>:
    41015040:	00f00f9b          	addiw	x31,x0,15
    41015044:	01cf9f93          	slli	x31,x31,0x1c
    41015048:	003f8f93          	addi	x31,x31,3
    4101504c:	00000073          	ecall

0000000041015050 <test_setup>:
    41015050:	00f00f9b          	addiw	x31,x0,15
    41015054:	01cf9f93          	slli	x31,x31,0x1c
    41015058:	001f8f93          	addi	x31,x31,1
    4101505c:	00000073          	ecall

0000000041015060 <SID_ZICSR_01>:
    41015060:	3f713137          	lui	x2,0x3f713
    41015064:	00008fb7          	lui	x31,0x8
    41015068:	0a0f8f9b          	addiw	x31,x31,160 # 80a0 <machine_csr_jump_table_flags>
    4101506c:	00100f13          	li	x30,1
    41015070:	01efb023          	sd	x30,0(x31)
    41015074:	000f0fb7          	lui	x31,0xf0
    41015078:	001f8f9b          	addiw	x31,x31,1 # f0001 <SID_ZICSR_08_stack+0x83001>
    4101507c:	00cf9f93          	slli	x31,x31,0xc
    41015080:	005f8f93          	addi	x31,x31,5
    41015084:	00000073          	ecall
    41015088:	00713023          	sd	x7,0(x2) # 3f713000 <tp_csr_storage>
    4101508c:	000bb137          	lui	x2,0xbb
    41015090:	1a71011b          	addiw	x2,x2,423 # bb1a7 <SID_ZICSR_08_stack+0x4e1a7>
    41015094:	00f11113          	slli	x2,x2,0xf
    41015098:	000012b7          	lui	x5,0x1
    4101509c:	00510133          	add	x2,x2,x5
    410150a0:	ff017113          	andi	x2,x2,-16
    410150a4:	fff00713          	li	x14,-1
    410150a8:	001714f3          	fsflags	x9,x14
    410150ac:	3f713137          	lui	x2,0x3f713
    410150b0:	00013383          	ld	x7,0(x2) # 3f713000 <tp_csr_storage>
    410150b4:	00008fb7          	lui	x31,0x8
    410150b8:	0a0f8f9b          	addiw	x31,x31,160 # 80a0 <machine_csr_jump_table_flags>
    410150bc:	00200f13          	li	x30,2
    410150c0:	01efb023          	sd	x30,0(x31)
    410150c4:	000f0fb7          	lui	x31,0xf0
    410150c8:	001f8f9b          	addiw	x31,x31,1 # f0001 <SID_ZICSR_08_stack+0x83001>
    410150cc:	00cf9f93          	slli	x31,x31,0xc
    410150d0:	005f8f93          	addi	x31,x31,5
    410150d4:	00000073          	ecall

00000000410150d8 <SID_ZICSR_01_passed>:
    410150d8:	00f00f9b          	addiw	x31,x0,15
    410150dc:	01cf9f93          	slli	x31,x31,0x1c
    410150e0:	001f8f93          	addi	x31,x31,1
    410150e4:	00000073          	ecall

00000000410150e8 <SID_ZICSR_02>:
    410150e8:	3f713137          	lui	x2,0x3f713
    410150ec:	00008fb7          	lui	x31,0x8
    410150f0:	0a0f8f9b          	addiw	x31,x31,160 # 80a0 <machine_csr_jump_table_flags>
    410150f4:	00300f13          	li	x30,3
    410150f8:	01efb023          	sd	x30,0(x31)
    410150fc:	000f0fb7          	lui	x31,0xf0
    41015100:	001f8f9b          	addiw	x31,x31,1 # f0001 <SID_ZICSR_08_stack+0x83001>
    41015104:	00cf9f93          	slli	x31,x31,0xc
    41015108:	005f8f93          	addi	x31,x31,5
    4101510c:	00000073          	ecall
    41015110:	00713023          	sd	x7,0(x2) # 3f713000 <tp_csr_storage>
    41015114:	000b3137          	lui	x2,0xb3
    41015118:	a691011b          	addiw	x2,x2,-1431 # b2a69 <SID_ZICSR_08_stack+0x45a69>
    4101511c:	00c11113          	slli	x2,x2,0xc
    41015120:	000012b7          	lui	x5,0x1
    41015124:	00510133          	add	x2,x2,x5
    41015128:	ff017113          	andi	x2,x2,-16
    4101512c:	fff00f13          	li	x30,-1
    41015130:	002f1a73          	fsrm	x20,x30
    41015134:	3f713137          	lui	x2,0x3f713
    41015138:	00013383          	ld	x7,0(x2) # 3f713000 <tp_csr_storage>
    4101513c:	00008fb7          	lui	x31,0x8
    41015140:	0a0f8f9b          	addiw	x31,x31,160 # 80a0 <machine_csr_jump_table_flags>
    41015144:	00400f13          	li	x30,4
    41015148:	01efb023          	sd	x30,0(x31)
    4101514c:	000f0fb7          	lui	x31,0xf0
    41015150:	001f8f9b          	addiw	x31,x31,1 # f0001 <SID_ZICSR_08_stack+0x83001>
    41015154:	00cf9f93          	slli	x31,x31,0xc
    41015158:	005f8f93          	addi	x31,x31,5
    4101515c:	00000073          	ecall

0000000041015160 <SID_ZICSR_02_passed>:
    41015160:	00f00f9b          	addiw	x31,x0,15
    41015164:	01cf9f93          	slli	x31,x31,0x1c
    41015168:	001f8f93          	addi	x31,x31,1
    4101516c:	00000073          	ecall

0000000041015170 <SID_ZICSR_03>:
    41015170:	3f713137          	lui	x2,0x3f713
    41015174:	00008fb7          	lui	x31,0x8
    41015178:	0a0f8f9b          	addiw	x31,x31,160 # 80a0 <machine_csr_jump_table_flags>
    4101517c:	00300f13          	li	x30,3
    41015180:	01efb023          	sd	x30,0(x31)
    41015184:	000f0fb7          	lui	x31,0xf0
    41015188:	001f8f9b          	addiw	x31,x31,1 # f0001 <SID_ZICSR_08_stack+0x83001>
    4101518c:	00cf9f93          	slli	x31,x31,0xc
    41015190:	005f8f93          	addi	x31,x31,5
    41015194:	00000073          	ecall
    41015198:	00713023          	sd	x7,0(x2) # 3f713000 <tp_csr_storage>
    4101519c:	03c3f137          	lui	x2,0x3c3f
    410151a0:	000012b7          	lui	x5,0x1
    410151a4:	00510133          	add	x2,x2,x5
    410151a8:	ff017113          	andi	x2,x2,-16
    410151ac:	00000d13          	li	x26,0
    410151b0:	002d1973          	fsrm	x18,x26
    410151b4:	3f713137          	lui	x2,0x3f713
    410151b8:	00013383          	ld	x7,0(x2) # 3f713000 <tp_csr_storage>
    410151bc:	00008fb7          	lui	x31,0x8
    410151c0:	0a0f8f9b          	addiw	x31,x31,160 # 80a0 <machine_csr_jump_table_flags>
    410151c4:	00400f13          	li	x30,4
    410151c8:	01efb023          	sd	x30,0(x31)
    410151cc:	000f0fb7          	lui	x31,0xf0
    410151d0:	001f8f9b          	addiw	x31,x31,1 # f0001 <SID_ZICSR_08_stack+0x83001>
    410151d4:	00cf9f93          	slli	x31,x31,0xc
    410151d8:	005f8f93          	addi	x31,x31,5
    410151dc:	00000073          	ecall

00000000410151e0 <SID_ZICSR_03_passed>:
    410151e0:	00f00f9b          	addiw	x31,x0,15
    410151e4:	01cf9f93          	slli	x31,x31,0x1c
    410151e8:	001f8f93          	addi	x31,x31,1
    410151ec:	00000073          	ecall

00000000410151f0 <SID_ZICSR_04>:
    410151f0:	3f713137          	lui	x2,0x3f713
    410151f4:	00008fb7          	lui	x31,0x8
    410151f8:	0a0f8f9b          	addiw	x31,x31,160 # 80a0 <machine_csr_jump_table_flags>
    410151fc:	00100f13          	li	x30,1
    41015200:	01efb023          	sd	x30,0(x31)
    41015204:	000f0fb7          	lui	x31,0xf0
    41015208:	001f8f9b          	addiw	x31,x31,1 # f0001 <SID_ZICSR_08_stack+0x83001>
    4101520c:	00cf9f93          	slli	x31,x31,0xc
    41015210:	005f8f93          	addi	x31,x31,5
    41015214:	00000073          	ecall
    41015218:	00713023          	sd	x7,0(x2) # 3f713000 <tp_csr_storage>
    4101521c:	0033d137          	lui	x2,0x33d
    41015220:	000012b7          	lui	x5,0x1
    41015224:	00510133          	add	x2,x2,x5
    41015228:	ff017113          	andi	x2,x2,-16
    4101522c:	fff00493          	li	x9,-1
    41015230:	0014ab73          	csrrs	x22,fflags,x9
    41015234:	3f713137          	lui	x2,0x3f713
    41015238:	00013383          	ld	x7,0(x2) # 3f713000 <tp_csr_storage>
    4101523c:	00008fb7          	lui	x31,0x8
    41015240:	0a0f8f9b          	addiw	x31,x31,160 # 80a0 <machine_csr_jump_table_flags>
    41015244:	00200f13          	li	x30,2
    41015248:	01efb023          	sd	x30,0(x31)
    4101524c:	000f0fb7          	lui	x31,0xf0
    41015250:	001f8f9b          	addiw	x31,x31,1 # f0001 <SID_ZICSR_08_stack+0x83001>
    41015254:	00cf9f93          	slli	x31,x31,0xc
    41015258:	005f8f93          	addi	x31,x31,5
    4101525c:	00000073          	ecall

0000000041015260 <SID_ZICSR_04_passed>:
    41015260:	00f00f9b          	addiw	x31,x0,15
    41015264:	01cf9f93          	slli	x31,x31,0x1c
    41015268:	001f8f93          	addi	x31,x31,1
    4101526c:	00000073          	ecall

0000000041015270 <SID_ZICSR_05>:
    41015270:	3f713137          	lui	x2,0x3f713
    41015274:	00008fb7          	lui	x31,0x8
    41015278:	0a0f8f9b          	addiw	x31,x31,160 # 80a0 <machine_csr_jump_table_flags>
    4101527c:	00100f13          	li	x30,1
    41015280:	01efb023          	sd	x30,0(x31)
    41015284:	000f0fb7          	lui	x31,0xf0
    41015288:	001f8f9b          	addiw	x31,x31,1 # f0001 <SID_ZICSR_08_stack+0x83001>
    4101528c:	00cf9f93          	slli	x31,x31,0xc
    41015290:	005f8f93          	addi	x31,x31,5
    41015294:	00000073          	ecall
    41015298:	00713023          	sd	x7,0(x2) # 3f713000 <tp_csr_storage>
    4101529c:	00e17137          	lui	x2,0xe17
    410152a0:	a991011b          	addiw	x2,x2,-1383 # e16a99 <SID_ZICSR_04_stack+0xad9a99>
    410152a4:	00c11113          	slli	x2,x2,0xc
    410152a8:	7b910113          	addi	x2,x2,1977
    410152ac:	00e11113          	slli	x2,x2,0xe
    410152b0:	000012b7          	lui	x5,0x1
    410152b4:	00510133          	add	x2,x2,x5
    410152b8:	ff017113          	andi	x2,x2,-16
    410152bc:	00000913          	li	x18,0
    410152c0:	00192a73          	csrrs	x20,fflags,x18
    410152c4:	3f713137          	lui	x2,0x3f713
    410152c8:	00013383          	ld	x7,0(x2) # 3f713000 <tp_csr_storage>
    410152cc:	00008fb7          	lui	x31,0x8
    410152d0:	0a0f8f9b          	addiw	x31,x31,160 # 80a0 <machine_csr_jump_table_flags>
    410152d4:	00200f13          	li	x30,2
    410152d8:	01efb023          	sd	x30,0(x31)
    410152dc:	000f0fb7          	lui	x31,0xf0
    410152e0:	001f8f9b          	addiw	x31,x31,1 # f0001 <SID_ZICSR_08_stack+0x83001>
    410152e4:	00cf9f93          	slli	x31,x31,0xc
    410152e8:	005f8f93          	addi	x31,x31,5
    410152ec:	00000073          	ecall

00000000410152f0 <SID_ZICSR_05_passed>:
    410152f0:	00f00f9b          	addiw	x31,x0,15
    410152f4:	01cf9f93          	slli	x31,x31,0x1c
    410152f8:	001f8f93          	addi	x31,x31,1
    410152fc:	00000073          	ecall

0000000041015300 <SID_ZICSR_06>:
    41015300:	3f713137          	lui	x2,0x3f713
    41015304:	00008fb7          	lui	x31,0x8
    41015308:	0a0f8f9b          	addiw	x31,x31,160 # 80a0 <machine_csr_jump_table_flags>
    4101530c:	00b00f13          	li	x30,11
    41015310:	01efb023          	sd	x30,0(x31)
    41015314:	000f0fb7          	lui	x31,0xf0
    41015318:	001f8f9b          	addiw	x31,x31,1 # f0001 <SID_ZICSR_08_stack+0x83001>
    4101531c:	00cf9f93          	slli	x31,x31,0xc
    41015320:	005f8f93          	addi	x31,x31,5
    41015324:	00000073          	ecall
    41015328:	00713023          	sd	x7,0(x2) # 3f713000 <tp_csr_storage>
    4101532c:	0003f137          	lui	x2,0x3f
    41015330:	edb1011b          	addiw	x2,x2,-293 # 3eedb <__section_os_data_1+0x35edb>
    41015334:	00e11113          	slli	x2,x2,0xe
    41015338:	1c110113          	addi	x2,x2,449
    4101533c:	00d11113          	slli	x2,x2,0xd
    41015340:	000012b7          	lui	x5,0x1
    41015344:	00510133          	add	x2,x2,x5
    41015348:	ff017113          	andi	x2,x2,-16
    4101534c:	fff00f13          	li	x30,-1
    41015350:	003f3ff3          	csrrc	x31,fcsr,x30
    41015354:	3f713137          	lui	x2,0x3f713
    41015358:	00013383          	ld	x7,0(x2) # 3f713000 <tp_csr_storage>
    4101535c:	00008fb7          	lui	x31,0x8
    41015360:	0a0f8f9b          	addiw	x31,x31,160 # 80a0 <machine_csr_jump_table_flags>
    41015364:	00c00f13          	li	x30,12
    41015368:	01efb023          	sd	x30,0(x31)
    4101536c:	000f0fb7          	lui	x31,0xf0
    41015370:	001f8f9b          	addiw	x31,x31,1 # f0001 <SID_ZICSR_08_stack+0x83001>
    41015374:	00cf9f93          	slli	x31,x31,0xc
    41015378:	005f8f93          	addi	x31,x31,5
    4101537c:	00000073          	ecall

0000000041015380 <SID_ZICSR_06_passed>:
    41015380:	00f00f9b          	addiw	x31,x0,15
    41015384:	01cf9f93          	slli	x31,x31,0x1c
    41015388:	001f8f93          	addi	x31,x31,1
    4101538c:	00000073          	ecall

0000000041015390 <SID_ZICSR_07>:
    41015390:	3f713137          	lui	x2,0x3f713
    41015394:	00008fb7          	lui	x31,0x8
    41015398:	0a0f8f9b          	addiw	x31,x31,160 # 80a0 <machine_csr_jump_table_flags>
    4101539c:	00100f13          	li	x30,1
    410153a0:	01efb023          	sd	x30,0(x31)
    410153a4:	000f0fb7          	lui	x31,0xf0
    410153a8:	001f8f9b          	addiw	x31,x31,1 # f0001 <SID_ZICSR_08_stack+0x83001>
    410153ac:	00cf9f93          	slli	x31,x31,0xc
    410153b0:	005f8f93          	addi	x31,x31,5
    410153b4:	00000073          	ecall
    410153b8:	00713023          	sd	x7,0(x2) # 3f713000 <tp_csr_storage>
    410153bc:	02eb4137          	lui	x2,0x2eb4
    410153c0:	000012b7          	lui	x5,0x1
    410153c4:	00510133          	add	x2,x2,x5
    410153c8:	ff017113          	andi	x2,x2,-16
    410153cc:	00000e13          	li	x28,0
    410153d0:	001e3a73          	csrrc	x20,fflags,x28
    410153d4:	3f713137          	lui	x2,0x3f713
    410153d8:	00013383          	ld	x7,0(x2) # 3f713000 <tp_csr_storage>
    410153dc:	00008fb7          	lui	x31,0x8
    410153e0:	0a0f8f9b          	addiw	x31,x31,160 # 80a0 <machine_csr_jump_table_flags>
    410153e4:	00200f13          	li	x30,2
    410153e8:	01efb023          	sd	x30,0(x31)
    410153ec:	000f0fb7          	lui	x31,0xf0
    410153f0:	001f8f9b          	addiw	x31,x31,1 # f0001 <SID_ZICSR_08_stack+0x83001>
    410153f4:	00cf9f93          	slli	x31,x31,0xc
    410153f8:	005f8f93          	addi	x31,x31,5
    410153fc:	00000073          	ecall

0000000041015400 <SID_ZICSR_07_passed>:
    41015400:	00f00f9b          	addiw	x31,x0,15
    41015404:	01cf9f93          	slli	x31,x31,0x1c
    41015408:	001f8f93          	addi	x31,x31,1
    4101540c:	00000073          	ecall

0000000041015410 <SID_ZICSR_08>:
    41015410:	3f713137          	lui	x2,0x3f713
    41015414:	00008fb7          	lui	x31,0x8
    41015418:	0a0f8f9b          	addiw	x31,x31,160 # 80a0 <machine_csr_jump_table_flags>
    4101541c:	00300f13          	li	x30,3
    41015420:	01efb023          	sd	x30,0(x31)
    41015424:	000f0fb7          	lui	x31,0xf0
    41015428:	001f8f9b          	addiw	x31,x31,1 # f0001 <SID_ZICSR_08_stack+0x83001>
    4101542c:	00cf9f93          	slli	x31,x31,0xc
    41015430:	005f8f93          	addi	x31,x31,5
    41015434:	00000073          	ecall
    41015438:	00713023          	sd	x7,0(x2) # 3f713000 <tp_csr_storage>
    4101543c:	0006d137          	lui	x2,0x6d
    41015440:	000012b7          	lui	x5,0x1
    41015444:	00510133          	add	x2,x2,x5
    41015448:	ff017113          	andi	x2,x2,-16
    4101544c:	002fdef3          	fsrmi	x29,31
    41015450:	3f713137          	lui	x2,0x3f713
    41015454:	00013383          	ld	x7,0(x2) # 3f713000 <tp_csr_storage>
    41015458:	00008fb7          	lui	x31,0x8
    4101545c:	0a0f8f9b          	addiw	x31,x31,160 # 80a0 <machine_csr_jump_table_flags>
    41015460:	00400f13          	li	x30,4
    41015464:	01efb023          	sd	x30,0(x31)
    41015468:	000f0fb7          	lui	x31,0xf0
    4101546c:	001f8f9b          	addiw	x31,x31,1 # f0001 <SID_ZICSR_08_stack+0x83001>
    41015470:	00cf9f93          	slli	x31,x31,0xc
    41015474:	005f8f93          	addi	x31,x31,5
    41015478:	00000073          	ecall

000000004101547c <SID_ZICSR_08_passed>:
    4101547c:	00f00f9b          	addiw	x31,x0,15
    41015480:	01cf9f93          	slli	x31,x31,0x1c
    41015484:	001f8f93          	addi	x31,x31,1
    41015488:	00000073          	ecall

000000004101548c <SID_ZICSR_09>:
    4101548c:	3f713137          	lui	x2,0x3f713
    41015490:	00008fb7          	lui	x31,0x8
    41015494:	0a0f8f9b          	addiw	x31,x31,160 # 80a0 <machine_csr_jump_table_flags>
    41015498:	00100f13          	li	x30,1
    4101549c:	01efb023          	sd	x30,0(x31)
    410154a0:	000f0fb7          	lui	x31,0xf0
    410154a4:	001f8f9b          	addiw	x31,x31,1 # f0001 <SID_ZICSR_08_stack+0x83001>
    410154a8:	00cf9f93          	slli	x31,x31,0xc
    410154ac:	005f8f93          	addi	x31,x31,5
    410154b0:	00000073          	ecall
    410154b4:	00713023          	sd	x7,0(x2) # 3f713000 <tp_csr_storage>
    410154b8:	0123a137          	lui	x2,0x123a
    410154bc:	000012b7          	lui	x5,0x1
    410154c0:	00510133          	add	x2,x2,x5
    410154c4:	ff017113          	andi	x2,x2,-16
    410154c8:	001fdc73          	fsflagsi	x24,31
    410154cc:	3f713137          	lui	x2,0x3f713
    410154d0:	00013383          	ld	x7,0(x2) # 3f713000 <tp_csr_storage>
    410154d4:	00008fb7          	lui	x31,0x8
    410154d8:	0a0f8f9b          	addiw	x31,x31,160 # 80a0 <machine_csr_jump_table_flags>
    410154dc:	00200f13          	li	x30,2
    410154e0:	01efb023          	sd	x30,0(x31)
    410154e4:	000f0fb7          	lui	x31,0xf0
    410154e8:	001f8f9b          	addiw	x31,x31,1 # f0001 <SID_ZICSR_08_stack+0x83001>
    410154ec:	00cf9f93          	slli	x31,x31,0xc
    410154f0:	005f8f93          	addi	x31,x31,5
    410154f4:	00000073          	ecall

00000000410154f8 <SID_ZICSR_09_passed>:
    410154f8:	00f00f9b          	addiw	x31,x0,15
    410154fc:	01cf9f93          	slli	x31,x31,0x1c
    41015500:	001f8f93          	addi	x31,x31,1
    41015504:	00000073          	ecall

0000000041015508 <SID_ZICSR_10>:
    41015508:	03046137          	lui	x2,0x3046
    4101550c:	dcb1011b          	addiw	x2,x2,-565 # 3045dcb <SID_ZICSR_13_stack+0x18fdcb>
    41015510:	00c11113          	slli	x2,x2,0xc
    41015514:	000012b7          	lui	x5,0x1
    41015518:	00510133          	add	x2,x2,x5
    4101551c:	ff017113          	andi	x2,x2,-16
    41015520:	00105873          	fsflagsi	x16,0

0000000041015524 <SID_ZICSR_10_passed>:
    41015524:	00f00f9b          	addiw	x31,x0,15
    41015528:	01cf9f93          	slli	x31,x31,0x1c
    4101552c:	001f8f93          	addi	x31,x31,1
    41015530:	00000073          	ecall

0000000041015534 <SID_ZICSR_11>:
    41015534:	00585137          	lui	x2,0x585
    41015538:	9d51011b          	addiw	x2,x2,-1579 # 5849d5 <SID_ZICSR_04_stack+0x2479d5>
    4101553c:	01111113          	slli	x2,x2,0x11
    41015540:	bf310113          	addi	x2,x2,-1037
    41015544:	00d11113          	slli	x2,x2,0xd
    41015548:	000012b7          	lui	x5,0x1
    4101554c:	00510133          	add	x2,x2,x5
    41015550:	ff017113          	andi	x2,x2,-16
    41015554:	00105373          	fsflagsi	x6,0

0000000041015558 <SID_ZICSR_11_passed>:
    41015558:	00f00f9b          	addiw	x31,x0,15
    4101555c:	01cf9f93          	slli	x31,x31,0x1c
    41015560:	001f8f93          	addi	x31,x31,1
    41015564:	00000073          	ecall

0000000041015568 <SID_ZICSR_12>:
    41015568:	3f713137          	lui	x2,0x3f713
    4101556c:	00008fb7          	lui	x31,0x8
    41015570:	0a0f8f9b          	addiw	x31,x31,160 # 80a0 <machine_csr_jump_table_flags>
    41015574:	00100f13          	li	x30,1
    41015578:	01efb023          	sd	x30,0(x31)
    4101557c:	000f0fb7          	lui	x31,0xf0
    41015580:	001f8f9b          	addiw	x31,x31,1 # f0001 <SID_ZICSR_08_stack+0x83001>
    41015584:	00cf9f93          	slli	x31,x31,0xc
    41015588:	005f8f93          	addi	x31,x31,5
    4101558c:	00000073          	ecall
    41015590:	00713023          	sd	x7,0(x2) # 3f713000 <tp_csr_storage>
    41015594:	f575b137          	lui	x2,0xf575b
    41015598:	3db1011b          	addiw	x2,x2,987 # fffffffff575b3db <SID_ZICSR_12_stack+0xa8a4c24758f3db>
    4101559c:	00e11113          	slli	x2,x2,0xe
    410155a0:	87310113          	addi	x2,x2,-1933
    410155a4:	00e11113          	slli	x2,x2,0xe
    410155a8:	000012b7          	lui	x5,0x1
    410155ac:	00510133          	add	x2,x2,x5
    410155b0:	ff017113          	andi	x2,x2,-16
    410155b4:	001fed73          	csrrsi	x26,fflags,31
    410155b8:	3f713137          	lui	x2,0x3f713
    410155bc:	00013383          	ld	x7,0(x2) # 3f713000 <tp_csr_storage>
    410155c0:	00008fb7          	lui	x31,0x8
    410155c4:	0a0f8f9b          	addiw	x31,x31,160 # 80a0 <machine_csr_jump_table_flags>
    410155c8:	00200f13          	li	x30,2
    410155cc:	01efb023          	sd	x30,0(x31)
    410155d0:	000f0fb7          	lui	x31,0xf0
    410155d4:	001f8f9b          	addiw	x31,x31,1 # f0001 <SID_ZICSR_08_stack+0x83001>
    410155d8:	00cf9f93          	slli	x31,x31,0xc
    410155dc:	005f8f93          	addi	x31,x31,5
    410155e0:	00000073          	ecall

00000000410155e4 <SID_ZICSR_12_passed>:
    410155e4:	00f00f9b          	addiw	x31,x0,15
    410155e8:	01cf9f93          	slli	x31,x31,0x1c
    410155ec:	001f8f93          	addi	x31,x31,1
    410155f0:	00000073          	ecall

00000000410155f4 <SID_ZICSR_13>:
    410155f4:	02eb6137          	lui	x2,0x2eb6
    410155f8:	000012b7          	lui	x5,0x1
    410155fc:	00510133          	add	x2,x2,x5
    41015600:	ff017113          	andi	x2,x2,-16
    41015604:	00206373          	csrrsi	x6,frm,0

0000000041015608 <SID_ZICSR_13_passed>:
    41015608:	00f00f9b          	addiw	x31,x0,15
    4101560c:	01cf9f93          	slli	x31,x31,0x1c
    41015610:	001f8f93          	addi	x31,x31,1
    41015614:	00000073          	ecall

0000000041015618 <SID_ZICSR_14>:
    41015618:	3f713137          	lui	x2,0x3f713
    4101561c:	00008fb7          	lui	x31,0x8
    41015620:	0a0f8f9b          	addiw	x31,x31,160 # 80a0 <machine_csr_jump_table_flags>
    41015624:	00300f13          	li	x30,3
    41015628:	01efb023          	sd	x30,0(x31)
    4101562c:	000f0fb7          	lui	x31,0xf0
    41015630:	001f8f9b          	addiw	x31,x31,1 # f0001 <SID_ZICSR_08_stack+0x83001>
    41015634:	00cf9f93          	slli	x31,x31,0xc
    41015638:	005f8f93          	addi	x31,x31,5
    4101563c:	00000073          	ecall
    41015640:	00713023          	sd	x7,0(x2) # 3f713000 <tp_csr_storage>
    41015644:	0d21b137          	lui	x2,0xd21b
    41015648:	95f1011b          	addiw	x2,x2,-1697 # d21a95f <pma_region_2_size+0x921a95f>
    4101564c:	00c11113          	slli	x2,x2,0xc
    41015650:	000012b7          	lui	x5,0x1
    41015654:	00510133          	add	x2,x2,x5
    41015658:	ff017113          	andi	x2,x2,-16
    4101565c:	002ffdf3          	csrrci	x27,frm,31
    41015660:	3f713137          	lui	x2,0x3f713
    41015664:	00013383          	ld	x7,0(x2) # 3f713000 <tp_csr_storage>
    41015668:	00008fb7          	lui	x31,0x8
    4101566c:	0a0f8f9b          	addiw	x31,x31,160 # 80a0 <machine_csr_jump_table_flags>
    41015670:	00400f13          	li	x30,4
    41015674:	01efb023          	sd	x30,0(x31)
    41015678:	000f0fb7          	lui	x31,0xf0
    4101567c:	001f8f9b          	addiw	x31,x31,1 # f0001 <SID_ZICSR_08_stack+0x83001>
    41015680:	00cf9f93          	slli	x31,x31,0xc
    41015684:	005f8f93          	addi	x31,x31,5
    41015688:	00000073          	ecall

000000004101568c <SID_ZICSR_14_passed>:
    4101568c:	00f00f9b          	addiw	x31,x0,15
    41015690:	01cf9f93          	slli	x31,x31,0x1c
    41015694:	001f8f93          	addi	x31,x31,1
    41015698:	00000073          	ecall

000000004101569c <SID_ZICSR_15>:
    4101569c:	00004137          	lui	x2,0x4
    410156a0:	000012b7          	lui	x5,0x1
    410156a4:	00510133          	add	x2,x2,x5
    410156a8:	ff017113          	andi	x2,x2,-16
    410156ac:	002079f3          	csrrci	x19,frm,0

00000000410156b0 <SID_ZICSR_15_passed>:
    410156b0:	00f00f9b          	addiw	x31,x0,15
    410156b4:	01cf9f93          	slli	x31,x31,0x1c
    410156b8:	001f8f93          	addi	x31,x31,1
    410156bc:	00000073          	ecall

00000000410156c0 <SID_ZICSR_16>:
    410156c0:	14eb7137          	lui	x2,0x14eb7
    410156c4:	d2d1011b          	addiw	x2,x2,-723 # 14eb6d2d <pma_region_2_size+0x10eb6d2d>
    410156c8:	00c11113          	slli	x2,x2,0xc
    410156cc:	a6b10113          	addi	x2,x2,-1429
    410156d0:	00c11113          	slli	x2,x2,0xc
    410156d4:	000012b7          	lui	x5,0x1
    410156d8:	00510133          	add	x2,x2,x5
    410156dc:	ff017113          	andi	x2,x2,-16
    410156e0:	000ed7b7          	lui	x15,0xed
    410156e4:	2f97879b          	addiw	x15,x15,761 # ed2f9 <SID_ZICSR_08_stack+0x802f9>
    410156e8:	00c79793          	slli	x15,x15,0xc
    410156ec:	9dc78793          	addi	x15,x15,-1572
    410156f0:	05806cb7          	lui	x25,0x5806
    410156f4:	978c8c9b          	addiw	x25,x25,-1672 # 5805978 <pma_region_2_size+0x1805978>
    410156f8:	d237fed3          	fcvt.d.lu	f29,x15
    410156fc:	d03cf853          	fcvt.s.lu	f16,x25
    41015700:	110eff53          	fmul.s	f30,f29,f16
    41015704:	00301bf3          	fscsr	x23,x0
    41015708:	6a8ac9b7          	lui	x19,0x6a8ac
    4101570c:	4bd9899b          	addiw	x19,x19,1213 # 6a8ac4bd <pma_region_2_end+0x2586b4bd>
    41015710:	0001be37          	lui	x28,0x1b
    41015714:	cd7e0e1b          	addiw	x28,x28,-809 # 1acd7 <__section_os_data_1+0x11cd7>
    41015718:	00fe1e13          	slli	x28,x28,0xf
    4101571c:	2a1e0e13          	addi	x28,x28,673
    41015720:	03c9a3b3          	mulhsu	x7,x19,x28
    41015724:	00102d73          	frflags	x26
    41015728:	000eb737          	lui	x14,0xeb
    4101572c:	90b7071b          	addiw	x14,x14,-1781 # ea90b <SID_ZICSR_08_stack+0x7d90b>
    41015730:	00c71713          	slli	x14,x14,0xc
    41015734:	8f370713          	addi	x14,x14,-1805
    41015738:	0008e3b7          	lui	x7,0x8e
    4101573c:	73d3839b          	addiw	x7,x7,1853 # 8e73d <SID_ZICSR_08_stack+0x2173d>
    41015740:	00c39393          	slli	x7,x7,0xc
    41015744:	a4a38393          	addi	x7,x7,-1462
    41015748:	0a7733b3          	clmulh	x7,x14,x7
    4101574c:	00203b73          	csrrc	x22,frm,x0
    41015750:	000ecdb7          	lui	x27,0xec
    41015754:	149d8d9b          	addiw	x27,x27,329 # ec149 <SID_ZICSR_08_stack+0x7f149>
    41015758:	00cd9d93          	slli	x27,x27,0xc
    4101575c:	cb7d8d93          	addi	x27,x27,-841
    41015760:	00052d37          	lui	x26,0x52
    41015764:	36bd0d1b          	addiw	x26,x26,875 # 5236b <pma_region_0_size+0x1236b>
    41015768:	00dd1d13          	slli	x26,x26,0xd
    4101576c:	756d0d13          	addi	x26,x26,1878
    41015770:	03ada633          	mulhsu	x12,x27,x26
    41015774:	00105c73          	fsflagsi	x24,0
    41015778:	1999a9b7          	lui	x19,0x1999a
    4101577c:	e429899b          	addiw	x19,x19,-446 # 19999e42 <pma_region_2_size+0x15999e42>
    41015780:	2f979d37          	lui	x26,0x2f979
    41015784:	d8ad0d1b          	addiw	x26,x26,-630 # 2f978d8a <pma_region_2_size+0x2b978d8a>
    41015788:	03a9a9b3          	mulhsu	x19,x19,x26
    4101578c:	00106df3          	csrrsi	x27,fflags,0
    41015790:	00028d37          	lui	x26,0x28
    41015794:	475d0d1b          	addiw	x26,x26,1141 # 28475 <__section_os_data_1+0x1f475>
    41015798:	00ed1d13          	slli	x26,x26,0xe
    4101579c:	59dd0d13          	addi	x26,x26,1437
    410157a0:	000feeb7          	lui	x29,0xfe
    410157a4:	175e8e9b          	addiw	x29,x29,373 # fe175 <SID_ZICSR_08_stack+0x91175>
    410157a8:	00ce9e93          	slli	x29,x29,0xc
    410157ac:	333e8e93          	addi	x29,x29,819
    410157b0:	0005d4b7          	lui	x9,0x5d
    410157b4:	a034849b          	addiw	x9,x9,-1533 # 5ca03 <pma_region_0_size+0x1ca03>
    410157b8:	00d49493          	slli	x9,x9,0xd
    410157bc:	7f048493          	addi	x9,x9,2032
    410157c0:	d00d77d3          	fcvt.s.w	f15,x26
    410157c4:	d21e8c53          	fcvt.d.wu	f24,x29
    410157c8:	d024f9d3          	fcvt.s.l	f19,x9
    410157cc:	9b87f24b          	fnmsub.d	f4,f15,f24,f19
    410157d0:	00107ef3          	csrrci	x29,fflags,0
    410157d4:	000dc837          	lui	x16,0xdc
    410157d8:	2578081b          	addiw	x16,x16,599 # dc257 <SID_ZICSR_08_stack+0x6f257>
    410157dc:	00c81813          	slli	x16,x16,0xc
    410157e0:	4c080813          	addi	x16,x16,1216
    410157e4:	4be043b7          	lui	x7,0x4be04
    410157e8:	db33839b          	addiw	x7,x7,-589 # 4be03db3 <pma_region_2_end+0x6dc2db3>
    410157ec:	02787cb3          	remu	x25,x16,x7

00000000410157f0 <SID_ZICSR_16_passed>:
    410157f0:	00f00f9b          	addiw	x31,x0,15
    410157f4:	01cf9f93          	slli	x31,x31,0x1c
    410157f8:	001f8f93          	addi	x31,x31,1
    410157fc:	00000073          	ecall

0000000041015800 <SID_ZICSR_17>:
    41015800:	755cd137          	lui	x2,0x755cd
    41015804:	3811011b          	addiw	x2,x2,897 # 755cd381 <pma_region_2_end+0x3058c381>
    41015808:	00d11113          	slli	x2,x2,0xd
    4101580c:	12b10113          	addi	x2,x2,299
    41015810:	00c11113          	slli	x2,x2,0xc
    41015814:	000012b7          	lui	x5,0x1
    41015818:	00510133          	add	x2,x2,x5
    4101581c:	ff017113          	andi	x2,x2,-16
    41015820:	002013f3          	fsrm	x7,x0
    41015824:	00201e73          	fsrm	x28,x0
    41015828:	003014f3          	fscsr	x9,x0
    4101582c:	00102573          	frflags	x10
    41015830:	00201373          	fsrm	x6,x0
    41015834:	00103c73          	csrrc	x24,fflags,x0
    41015838:	00201473          	fsrm	x8,x0
    4101583c:	00305c73          	csrrwi	x24,fcsr,0
    41015840:	00301473          	fscsr	x8,x0
    41015844:	002069f3          	csrrsi	x19,frm,0
    41015848:	00301973          	fscsr	x18,x0
    4101584c:	00107af3          	csrrci	x21,fflags,0
    41015850:	00302773          	frcsr	x14
    41015854:	00101773          	fsflags	x14,x0
    41015858:	00202373          	frrm	x6
    4101585c:	002028f3          	frrm	x17
    41015860:	00202ef3          	frrm	x29
    41015864:	00103d73          	csrrc	x26,fflags,x0
    41015868:	002026f3          	frrm	x13
    4101586c:	00305b73          	csrrwi	x22,fcsr,0
    41015870:	00202bf3          	frrm	x23
    41015874:	00206ff3          	csrrsi	x31,frm,0
    41015878:	00102af3          	frflags	x21
    4101587c:	00207cf3          	csrrci	x25,frm,0
    41015880:	00303b73          	csrrc	x22,fcsr,x0
    41015884:	00301e73          	fscsr	x28,x0
    41015888:	00303bf3          	csrrc	x23,fcsr,x0
    4101588c:	00102cf3          	frflags	x25
    41015890:	00303573          	csrrc	x10,fcsr,x0
    41015894:	00303373          	csrrc	x6,fcsr,x0
    41015898:	00203bf3          	csrrc	x23,frm,x0
    4101589c:	00305473          	csrrwi	x8,fcsr,0
    410158a0:	00303d73          	csrrc	x26,fcsr,x0
    410158a4:	001066f3          	csrrsi	x13,fflags,0
    410158a8:	00103873          	csrrc	x16,fflags,x0
    410158ac:	003075f3          	csrrci	x11,fcsr,0
    410158b0:	00305973          	csrrwi	x18,fcsr,0
    410158b4:	00101ff3          	fsflags	x31,x0
    410158b8:	003058f3          	csrrwi	x17,fcsr,0
    410158bc:	00202e73          	frrm	x28
    410158c0:	00105e73          	fsflagsi	x28,0
    410158c4:	001034f3          	csrrc	x9,fflags,x0
    410158c8:	00105773          	fsflagsi	x14,0
    410158cc:	00205df3          	fsrmi	x27,0
    410158d0:	00205af3          	fsrmi	x21,0
    410158d4:	00206773          	csrrsi	x14,frm,0
    410158d8:	00305873          	csrrwi	x16,fcsr,0
    410158dc:	002079f3          	csrrci	x19,frm,0
    410158e0:	00206e73          	csrrsi	x28,frm,0
    410158e4:	00201d73          	fsrm	x26,x0
    410158e8:	00106673          	csrrsi	x12,fflags,0
    410158ec:	00302cf3          	frcsr	x25
    410158f0:	001067f3          	csrrsi	x15,fflags,0
    410158f4:	00303973          	csrrc	x18,fcsr,x0
    410158f8:	00106ef3          	csrrsi	x29,fflags,0
    410158fc:	00305f73          	csrrwi	x30,fcsr,0
    41015900:	00206973          	csrrsi	x18,frm,0
    41015904:	00206373          	csrrsi	x6,frm,0
    41015908:	00206773          	csrrsi	x14,frm,0
    4101590c:	00307f73          	csrrci	x30,fcsr,0
    41015910:	00107e73          	csrrci	x28,fflags,0
    41015914:	00301973          	fscsr	x18,x0
    41015918:	00107af3          	csrrci	x21,fflags,0
    4101591c:	00202cf3          	frrm	x25
    41015920:	003076f3          	csrrci	x13,fcsr,0
    41015924:	00203f73          	csrrc	x30,frm,x0
    41015928:	00207f73          	csrrci	x30,frm,0
    4101592c:	00305af3          	csrrwi	x21,fcsr,0
    41015930:	002077f3          	csrrci	x15,frm,0
    41015934:	00106d73          	csrrsi	x26,fflags,0
    41015938:	002075f3          	csrrci	x11,frm,0
    4101593c:	00307773          	csrrci	x14,fcsr,0

0000000041015940 <SID_ZICSR_17_passed>:
    41015940:	00f00f9b          	addiw	x31,x0,15
    41015944:	01cf9f93          	slli	x31,x31,0x1c
    41015948:	001f8f93          	addi	x31,x31,1
    4101594c:	00000073          	ecall

0000000041015950 <SID_ZICSR_20>:
    41015950:	3f713137          	lui	x2,0x3f713
    41015954:	00008fb7          	lui	x31,0x8
    41015958:	0a0f8f9b          	addiw	x31,x31,160 # 80a0 <machine_csr_jump_table_flags>
    4101595c:	00b00f13          	li	x30,11
    41015960:	01efb023          	sd	x30,0(x31)
    41015964:	000f0fb7          	lui	x31,0xf0
    41015968:	001f8f9b          	addiw	x31,x31,1 # f0001 <SID_ZICSR_08_stack+0x83001>
    4101596c:	00cf9f93          	slli	x31,x31,0xc
    41015970:	005f8f93          	addi	x31,x31,5
    41015974:	00000073          	ecall
    41015978:	00713023          	sd	x7,0(x2) # 3f713000 <tp_csr_storage>
    4101597c:	000f8137          	lui	x2,0xf8
    41015980:	a251011b          	addiw	x2,x2,-1499 # f7a25 <SID_ZICSR_08_stack+0x8aa25>
    41015984:	00e11113          	slli	x2,x2,0xe
    41015988:	000012b7          	lui	x5,0x1
    4101598c:	00510133          	add	x2,x2,x5
    41015990:	ff017113          	andi	x2,x2,-16
    41015994:	0ff00e13          	li	x28,255
    41015998:	00000413          	li	x8,0
    4101599c:	01f00a93          	li	x21,31
    410159a0:	0ff00e93          	li	x29,255
    410159a4:	003e18f3          	fscsr	x17,x28
    410159a8:	003023f3          	frcsr	x7
    410159ac:	00038393          	mv	x7,x7
    410159b0:	01d3f8b3          	and	x17,x7,x29
    410159b4:	01c88a63          	beq	x17,x28,410159c8 <pass_label_0>
    410159b8:	00008bb7          	lui	x23,0x8
    410159bc:	008b8b9b          	addiw	x23,x23,8 # 8008 <failed_addr>
    410159c0:	000bb483          	ld	x9,0(x23)
    410159c4:	00048067          	jr	x9

00000000410159c8 <pass_label_0>:
    410159c8:	00000993          	li	x19,0
    410159cc:	003996f3          	fscsr	x13,x19
    410159d0:	003023f3          	frcsr	x7
    410159d4:	00038813          	mv	x16,x7
    410159d8:	01d87533          	and	x10,x16,x29
    410159dc:	00850a63          	beq	x10,x8,410159f0 <pass_label_1>
    410159e0:	00008cb7          	lui	x25,0x8
    410159e4:	008c8c9b          	addiw	x25,x25,8 # 8008 <failed_addr>
    410159e8:	000cb603          	ld	x12,0(x25)
    410159ec:	00060067          	jr	x12

00000000410159f0 <pass_label_1>:
    410159f0:	003e2773          	csrrs	x14,fcsr,x28
    410159f4:	003023f3          	frcsr	x7
    410159f8:	00038f13          	mv	x30,x7
    410159fc:	01df7fb3          	and	x31,x30,x29
    41015a00:	01cf8a63          	beq	x31,x28,41015a14 <pass_label_2>
    41015a04:	00008b37          	lui	x22,0x8
    41015a08:	008b0b1b          	addiw	x22,x22,8 # 8008 <failed_addr>
    41015a0c:	000b3803          	ld	x16,0(x22)
    41015a10:	00080067          	jr	x16

0000000041015a14 <pass_label_2>:
    41015a14:	003e3f73          	csrrc	x30,fcsr,x28
    41015a18:	003023f3          	frcsr	x7
    41015a1c:	00038893          	mv	x17,x7
    41015a20:	01d8fa33          	and	x20,x17,x29
    41015a24:	008a0a63          	beq	x20,x8,41015a38 <pass_label_3>
    41015a28:	00008337          	lui	x6,0x8
    41015a2c:	0083031b          	addiw	x6,x6,8 # 8008 <failed_addr>
    41015a30:	00033e03          	ld	x28,0(x6)
    41015a34:	000e0067          	jr	x28

0000000041015a38 <pass_label_3>:
    41015a38:	003fd7f3          	csrrwi	x15,fcsr,31
    41015a3c:	003023f3          	frcsr	x7
    41015a40:	00038a13          	mv	x20,x7
    41015a44:	01da74b3          	and	x9,x20,x29
    41015a48:	01548a63          	beq	x9,x21,41015a5c <pass_label_4>
    41015a4c:	00008e37          	lui	x28,0x8
    41015a50:	008e0e1b          	addiw	x28,x28,8 # 8008 <failed_addr>
    41015a54:	000e3803          	ld	x16,0(x28)
    41015a58:	00080067          	jr	x16

0000000041015a5c <pass_label_4>:
    41015a5c:	00305bf3          	csrrwi	x23,fcsr,0
    41015a60:	003023f3          	frcsr	x7
    41015a64:	00038393          	mv	x7,x7
    41015a68:	01d3fe33          	and	x28,x7,x29
    41015a6c:	008e0a63          	beq	x28,x8,41015a80 <pass_label_5>
    41015a70:	000087b7          	lui	x15,0x8
    41015a74:	0087879b          	addiw	x15,x15,8 # 8008 <failed_addr>
    41015a78:	0007b903          	ld	x18,0(x15)
    41015a7c:	00090067          	jr	x18

0000000041015a80 <pass_label_5>:
    41015a80:	003fef73          	csrrsi	x30,fcsr,31
    41015a84:	003023f3          	frcsr	x7
    41015a88:	00038513          	mv	x10,x7
    41015a8c:	01d578b3          	and	x17,x10,x29
    41015a90:	01588a63          	beq	x17,x21,41015aa4 <pass_label_6>
    41015a94:	00008db7          	lui	x27,0x8
    41015a98:	008d8d9b          	addiw	x27,x27,8 # 8008 <failed_addr>
    41015a9c:	000db603          	ld	x12,0(x27)
    41015aa0:	00060067          	jr	x12

0000000041015aa4 <pass_label_6>:
    41015aa4:	003ff3f3          	csrrci	x7,fcsr,31
    41015aa8:	003023f3          	frcsr	x7
    41015aac:	00038d93          	mv	x27,x7
    41015ab0:	01ddfbb3          	and	x23,x27,x29
    41015ab4:	008b8a63          	beq	x23,x8,41015ac8 <pass_label_7>
    41015ab8:	00008ab7          	lui	x21,0x8
    41015abc:	008a8a9b          	addiw	x21,x21,8 # 8008 <failed_addr>
    41015ac0:	000ab703          	ld	x14,0(x21)
    41015ac4:	00070067          	jr	x14

0000000041015ac8 <pass_label_7>:
    41015ac8:	3f713137          	lui	x2,0x3f713
    41015acc:	00013383          	ld	x7,0(x2) # 3f713000 <tp_csr_storage>
    41015ad0:	00008fb7          	lui	x31,0x8
    41015ad4:	0a0f8f9b          	addiw	x31,x31,160 # 80a0 <machine_csr_jump_table_flags>
    41015ad8:	00c00f13          	li	x30,12
    41015adc:	01efb023          	sd	x30,0(x31)
    41015ae0:	000f0fb7          	lui	x31,0xf0
    41015ae4:	001f8f9b          	addiw	x31,x31,1 # f0001 <SID_ZICSR_08_stack+0x83001>
    41015ae8:	00cf9f93          	slli	x31,x31,0xc
    41015aec:	005f8f93          	addi	x31,x31,5
    41015af0:	00000073          	ecall

0000000041015af4 <SID_ZICSR_20_passed>:
    41015af4:	00f00f9b          	addiw	x31,x0,15
    41015af8:	01cf9f93          	slli	x31,x31,0x1c
    41015afc:	001f8f93          	addi	x31,x31,1
    41015b00:	00000073          	ecall

0000000041015b04 <test_cleanup>:
    41015b04:	00f00f9b          	addiw	x31,x0,15
    41015b08:	01cf9f93          	slli	x31,x31,0x1c
    41015b0c:	001f8f93          	addi	x31,x31,1
    41015b10:	00000073          	ecall

0000000041015b14 <local_test_failed>:
    41015b14:	00f00f9b          	addiw	x31,x0,15
    41015b18:	01cf9f93          	slli	x31,x31,0x1c
    41015b1c:	002f8f93          	addi	x31,x31,2
    41015b20:	00000073          	ecall

Disassembly of section .csr_machine_0:

0000000041215000 <csr_access_fflags_user_key_2_write-0x60>:
    41215000:	45010fb7          	lui	x31,0x45010
    41215004:	0a0f8f9b          	addiw	x31,x31,160 # 450100a0 <machine_csr_jump_table_flags_pa>
    41215008:	000fbf83          	ld	x31,0(x31)
    4121500c:	00200293          	li	x5,2
    41215010:	045f8863          	beq	x31,x5,41215060 <csr_access_fflags_user_key_2_write>
    41215014:	00100293          	li	x5,1
    41215018:	045f8863          	beq	x31,x5,41215068 <csr_access_fflags_user_key_1_read>
    4121501c:	00400293          	li	x5,4
    41215020:	045f8863          	beq	x31,x5,41215070 <csr_access_frm_user_key_4_write>
    41215024:	00300293          	li	x5,3
    41215028:	045f8863          	beq	x31,x5,41215078 <csr_access_frm_user_key_3_read>
    4121502c:	00c00293          	li	x5,12
    41215030:	045f8863          	beq	x31,x5,41215080 <csr_access_fcsr_user_key_12_write>
    41215034:	00b00293          	li	x5,11
    41215038:	045f8863          	beq	x31,x5,41215088 <csr_access_fcsr_user_key_11_read>
    4121503c:	01b00293          	li	x5,27
    41215040:	045f8863          	beq	x31,x5,41215090 <csr_access_mstatus_machine_key_27_set>
    41215044:	01900293          	li	x5,25
    41215048:	045f8863          	beq	x31,x5,41215098 <csr_access_mstatus_machine_key_25_clear>
    4121504c:	01e00293          	li	x5,30
    41215050:	045f8863          	beq	x31,x5,412150a0 <csr_access_mtvec_machine_key_30_set>
    41215054:	01d00293          	li	x5,29
    41215058:	045f8863          	beq	x31,x5,412150a8 <csr_access_mtvec_machine_key_29_clear>
    4121505c:	0540006f          	j	412150b0 <end_machine_label>

0000000041215060 <csr_access_fflags_user_key_2_write>:
    41215060:	00139073          	fsflags	x7
    41215064:	04c0006f          	j	412150b0 <end_machine_label>

0000000041215068 <csr_access_fflags_user_key_1_read>:
    41215068:	001023f3          	frflags	x7
    4121506c:	0440006f          	j	412150b0 <end_machine_label>

0000000041215070 <csr_access_frm_user_key_4_write>:
    41215070:	00239073          	fsrm	x7
    41215074:	03c0006f          	j	412150b0 <end_machine_label>

0000000041215078 <csr_access_frm_user_key_3_read>:
    41215078:	002023f3          	frrm	x7
    4121507c:	0340006f          	j	412150b0 <end_machine_label>

0000000041215080 <csr_access_fcsr_user_key_12_write>:
    41215080:	00339073          	fscsr	x7
    41215084:	02c0006f          	j	412150b0 <end_machine_label>

0000000041215088 <csr_access_fcsr_user_key_11_read>:
    41215088:	003023f3          	frcsr	x7
    4121508c:	0240006f          	j	412150b0 <end_machine_label>

0000000041215090 <csr_access_mstatus_machine_key_27_set>:
    41215090:	3003a073          	csrs	mstatus,x7
    41215094:	01c0006f          	j	412150b0 <end_machine_label>

0000000041215098 <csr_access_mstatus_machine_key_25_clear>:
    41215098:	3003b073          	csrc	mstatus,x7
    4121509c:	0140006f          	j	412150b0 <end_machine_label>

00000000412150a0 <csr_access_mtvec_machine_key_30_set>:
    412150a0:	3053a073          	csrs	mtvec,x7
    412150a4:	00c0006f          	j	412150b0 <end_machine_label>

00000000412150a8 <csr_access_mtvec_machine_key_29_clear>:
    412150a8:	3053b073          	csrc	mtvec,x7
    412150ac:	0040006f          	j	412150b0 <end_machine_label>

00000000412150b0 <end_machine_label>:
    412150b0:	000f0fb7          	lui	x31,0xf0
    412150b4:	001f8f9b          	addiw	x31,x31,1 # f0001 <SID_ZICSR_08_stack+0x83001>
    412150b8:	00cf9f93          	slli	x31,x31,0xc
    412150bc:	004f8f93          	addi	x31,x31,4
    412150c0:	00000073          	ecall

Disassembly of section .csr_super_0:

0000000041216000 <csr_access_sstatus_supervisor_key_28_set-0x30>:
    41216000:	00008fb7          	lui	x31,0x8
    41216004:	0a8f8f9b          	addiw	x31,x31,168 # 80a8 <super_csr_jump_table_flags>
    41216008:	000fbf83          	ld	x31,0(x31)
    4121600c:	01c00293          	li	x5,28
    41216010:	025f8063          	beq	x31,x5,41216030 <csr_access_sstatus_supervisor_key_28_set>
    41216014:	01a00293          	li	x5,26
    41216018:	025f8063          	beq	x31,x5,41216038 <csr_access_sstatus_supervisor_key_26_clear>
    4121601c:	02000293          	li	x5,32
    41216020:	025f8063          	beq	x31,x5,41216040 <csr_access_stvec_supervisor_key_32_set>
    41216024:	01f00293          	li	x5,31
    41216028:	025f8063          	beq	x31,x5,41216048 <csr_access_stvec_supervisor_key_31_clear>
    4121602c:	0240006f          	j	41216050 <end_super_label>

0000000041216030 <csr_access_sstatus_supervisor_key_28_set>:
    41216030:	1003a073          	csrs	sstatus,x7
    41216034:	01c0006f          	j	41216050 <end_super_label>

0000000041216038 <csr_access_sstatus_supervisor_key_26_clear>:
    41216038:	1003b073          	csrc	sstatus,x7
    4121603c:	0140006f          	j	41216050 <end_super_label>

0000000041216040 <csr_access_stvec_supervisor_key_32_set>:
    41216040:	1053a073          	csrs	stvec,x7
    41216044:	00c0006f          	j	41216050 <end_super_label>

0000000041216048 <csr_access_stvec_supervisor_key_31_clear>:
    41216048:	1053b073          	csrc	stvec,x7
    4121604c:	0040006f          	j	41216050 <end_super_label>

0000000041216050 <end_super_label>:
    41216050:	000f0fb7          	lui	x31,0xf0
    41216054:	001f8f9b          	addiw	x31,x31,1 # f0001 <SID_ZICSR_08_stack+0x83001>
    41216058:	00cf9f93          	slli	x31,x31,0xc
    4121605c:	004f8f93          	addi	x31,x31,4
    41216060:	00000073          	ecall

Disassembly of section .os_data:

0000000000008000 <passed_addr_ptr>:
    8000:	5020                	.insn	2, 0x5020
    8002:	4101                	.insn	2, 0x4101
    8004:	0000                	.insn	2, 0x0000
	...

0000000000008008 <failed_addr_ptr>:
    8008:	5030                	.insn	2, 0x5030
    800a:	4101                	.insn	2, 0x4101
    800c:	0000                	.insn	2, 0x0000
	...

0000000000008010 <end_test_addr_ptr>:
    8010:	5040                	.insn	2, 0x5040
    8012:	4101                	.insn	2, 0x4101
    8014:	0000                	.insn	2, 0x0000
	...

0000000000008018 <os_passed_addr_ptr>:
    8018:	07b0                	.insn	2, 0x07b0
    801a:	4100                	.insn	2, 0x4100
    801c:	0000                	.insn	2, 0x0000
	...

0000000000008020 <os_failed_addr_ptr>:
    8020:	07c0                	.insn	2, 0x07c0
    8022:	4100                	.insn	2, 0x4100
    8024:	0000                	.insn	2, 0x0000
	...

0000000000008028 <os_end_test_addr_ptr>:
    8028:	07cc                	.insn	2, 0x07cc
    802a:	4100                	.insn	2, 0x4100
    802c:	0000                	.insn	2, 0x0000
	...

0000000000008030 <rvcp_prefix_str_data>:
    8030:	5652                	.insn	2, 0x5652
    8032:	203a5043          	fmadd.s	f0,f20,f3,f4,unknown
    8036:	6554                	.insn	2, 0x6554
    8038:	46207473          	csrrci	x8,0x462,0
    803c:	6c69                	.insn	2, 0x6c69
    803e:	2065                	.insn	2, 0x2065
	...

0000000000008041 <rvcp_testname_str_data>:
    8041:	7074                	.insn	2, 0x7074
    8043:	7a5f 6369 7273      	.insn	6, 0x727363697a5f
    8049:	315f        	.insn	6, 0x53415000315f

000000000000804c <rvcp_passed_str_data>:
    804c:	4150                	.insn	2, 0x4150
    804e:	44455353          	fround.h	f6,f10,unknown
	...

0000000000008053 <rvcp_failed_str_data>:
    8053:	4146                	.insn	2, 0x4146
    8055:	4c49                	.insn	2, 0x4c49
    8057:	4445                	.insn	2, 0x4445
	...

000000000000805a <rvcp_space_str_data>:
    805a:	0020                	.insn	2, 0x0020

000000000000805c <rvcp_newline_str_data>:
    805c:	000a                	.insn	2, 0x000a
	...

0000000000008060 <excp_ignored_count_mem>:
	...

0000000000008068 <machine_flags_mem>:
	...

0000000000008070 <user_flags_mem>:
	...

0000000000008078 <super_flags_mem>:
	...

0000000000008080 <machine_area_mem>:
	...

0000000000008088 <user_area_mem>:
	...

0000000000008090 <super_area_mem>:
	...

0000000000008098 <zero_data_mem>:
	...

00000000000080a0 <machine_csr_jump_table_flags_mem>:
	...

00000000000080a8 <super_csr_jump_table_flags_mem>:
	...

00000000000080b0 <pte_access_flags_mem>:
	...

00000000000080c8 <num_harts_ended_mem>:
	...

00000000000080d0 <num_hard_fails_mem>:
	...

Disassembly of section .hart_context:

00003799335d2000 <hart_context_0>:
    3799335d2000:	5000                	.insn	2, 0x5000
    3799335d2002:	59ce                	.insn	2, 0x59ce
    3799335d2004:	00000007          	vle8.v	v0,(x0),v0.t
	...
    3799335d2018:	0001                	.insn	2, 0x0001
    3799335d201a:	0000                	.insn	2, 0x0000
    3799335d201c:	0000                	.insn	2, 0x0000
    3799335d201e:	0000                	.insn	2, 0x0000
    3799335d2020:	ffff                	.insn	2, 0xffff
    3799335d2022:	ffff                	.insn	2, 0xffff
    3799335d2024:	ffff                	.insn	2, 0xffff
    3799335d2026:	ffff                	.insn	2, 0xffff
    3799335d2028:	ffff                	.insn	2, 0xffff
    3799335d202a:	ffff                	.insn	2, 0xffff
    3799335d202c:	ffff                	.insn	2, 0xffff
    3799335d202e:	ffff                	.insn	2, 0xffff
    3799335d2030:	ffff                	.insn	2, 0xffff
    3799335d2032:	ffff                	.insn	2, 0xffff
    3799335d2034:	ffff                	.insn	2, 0xffff
    3799335d2036:	ffff                	.insn	2, 0xffff
	...
    3799335d2050:	00ff 0000 0000 0000 	.insn	10, 0x00ff00000000000000ff
    3799335d2058:	00ff 
	...
    3799335d2176:	0000                	.insn	2, 0x0000
    3799335d2178:	ffff                	.insn	2, 0xffff
    3799335d217a:	ffff                	.insn	2, 0xffff
    3799335d217c:	ffff                	.insn	2, 0xffff
    3799335d217e:	ffff                	.insn	2, 0xffff
	...
    3799335d2188:	ffff                	.insn	2, 0xffff
    3799335d218a:	ffff                	.insn	2, 0xffff
	...

Disassembly of section .hart_stack_0:

0000000759ce4000 <hart_stack_0>:
	...

Disassembly of section .io_htif:

0000000041040000 <tohost>:
	...

0000000041040040 <fromhost>:
	...

Disassembly of section .tp_csr_storage:

000000003f713000 <.tp_csr_storage>:
    3f713000:	c0de                	.insn	2, 0xc0de
    3f713002:	c001                	.insn	2, 0xc001
    3f713004:	0000                	.insn	2, 0x0000
	...

Disassembly of section .SID_ZICSR_01_stack:

00000005d8d38000 <.SID_ZICSR_01_stack>:
   5d8d38000:	c0de                	.insn	2, 0xc0de
   5d8d38002:	c001                	.insn	2, 0xc001
   5d8d38004:	0000                	.insn	2, 0x0000
	...

Disassembly of section .SID_ZICSR_02_stack:

00000000b2a69000 <.SID_ZICSR_02_stack>:
    b2a69000:	c0de                	.insn	2, 0xc0de
    b2a69002:	c001                	.insn	2, 0xc001
    b2a69004:	0000                	.insn	2, 0x0000
	...

Disassembly of section .SID_ZICSR_03_stack:

0000000003c3f000 <.SID_ZICSR_03_stack>:
 3c3f000:	c0de                	.insn	2, 0xc0de
 3c3f002:	c001                	.insn	2, 0xc001
 3c3f004:	0000                	.insn	2, 0x0000
	...

Disassembly of section .SID_ZICSR_04_stack:

000000000033d000 <.SID_ZICSR_04_stack>:
  33d000:	c0de                	.insn	2, 0xc0de
  33d002:	c001                	.insn	2, 0xc001
  33d004:	0000                	.insn	2, 0x0000
	...

Disassembly of section .SID_ZICSR_05_stack:

000385aa65ee4000 <.SID_ZICSR_05_stack>:
   385aa65ee4000:	c0de                	.insn	2, 0xc0de
   385aa65ee4002:	c001                	.insn	2, 0xc001
   385aa65ee4004:	0000                	.insn	2, 0x0000
	...

Disassembly of section .SID_ZICSR_06_stack:

00001f76d8382000 <.SID_ZICSR_06_stack>:
    1f76d8382000:	c0de                	.insn	2, 0xc0de
    1f76d8382002:	c001                	.insn	2, 0xc001
    1f76d8382004:	0000                	.insn	2, 0x0000
	...

Disassembly of section .SID_ZICSR_07_stack:

0000000002eb4000 <.SID_ZICSR_07_stack>:
 2eb4000:	c0de                	.insn	2, 0xc0de
 2eb4002:	c001                	.insn	2, 0xc001
 2eb4004:	0000                	.insn	2, 0x0000
	...

Disassembly of section .SID_ZICSR_08_stack:

000000000006d000 <.SID_ZICSR_08_stack>:
   6d000:	c0de                	.insn	2, 0xc0de
   6d002:	c001                	.insn	2, 0xc001
   6d004:	0000                	.insn	2, 0x0000
	...

Disassembly of section .SID_ZICSR_09_stack:

000000000123a000 <.SID_ZICSR_09_stack>:
 123a000:	c0de                	.insn	2, 0xc0de
 123a002:	c001                	.insn	2, 0xc001
 123a004:	0000                	.insn	2, 0x0000
	...

Disassembly of section .SID_ZICSR_10_stack:

0000003045dcb000 <.SID_ZICSR_10_stack>:
  3045dcb000:	c0de                	.insn	2, 0xc0de
  3045dcb002:	c001                	.insn	2, 0xc001
  3045dcb004:	0000                	.insn	2, 0x0000
	...

Disassembly of section .SID_ZICSR_11_stack:

001612753f7e6000 <.SID_ZICSR_11_stack>:
  1612753f7e6000:	c0de                	.insn	2, 0xc0de
  1612753f7e6002:	c001                	.insn	2, 0xc001
  1612753f7e6004:	0000                	.insn	2, 0x0000
	...

Disassembly of section .SID_ZICSR_12_stack:

ff575b3dae1cc000 <.SID_ZICSR_12_stack>:
ff575b3dae1cc000:	c0de                	.insn	2, 0xc0de
ff575b3dae1cc002:	c001                	.insn	2, 0xc001
ff575b3dae1cc004:	0000                	.insn	2, 0x0000
	...

Disassembly of section .SID_ZICSR_13_stack:

0000000002eb6000 <.SID_ZICSR_13_stack>:
 2eb6000:	c0de                	.insn	2, 0xc0de
 2eb6002:	c001                	.insn	2, 0xc001
 2eb6004:	0000                	.insn	2, 0x0000
	...

Disassembly of section .SID_ZICSR_14_stack:

000000d21a95f000 <.SID_ZICSR_14_stack>:
  d21a95f000:	c0de                	.insn	2, 0xc0de
  d21a95f002:	c001                	.insn	2, 0xc001
  d21a95f004:	0000                	.insn	2, 0x0000
	...

Disassembly of section .SID_ZICSR_15_stack:

0000000000004000 <.SID_ZICSR_15_stack>:
    4000:	c0de                	.insn	2, 0xc0de
    4002:	c001                	.insn	2, 0xc001
    4004:	0000                	.insn	2, 0x0000
	...

Disassembly of section .SID_ZICSR_16_stack:

0014eb6d2ca6b000 <.SID_ZICSR_16_stack>:
  14eb6d2ca6b000:	c0de                	.insn	2, 0xc0de
  14eb6d2ca6b002:	c001                	.insn	2, 0xc001
  14eb6d2ca6b004:	0000                	.insn	2, 0x0000
	...

Disassembly of section .SID_ZICSR_17_stack:

00eab9a70212b000 <.SID_ZICSR_17_stack>:
  eab9a70212b000:	c0de                	.insn	2, 0xc0de
  eab9a70212b002:	c001                	.insn	2, 0xc001
  eab9a70212b004:	0000                	.insn	2, 0x0000
	...

Disassembly of section .SID_ZICSR_20_stack:

00000003de894000 <.SID_ZICSR_20_stack>:
   3de894000:	c0de                	.insn	2, 0xc0de
   3de894002:	c001                	.insn	2, 0xc001
   3de894004:	0000                	.insn	2, 0x0000
	...

Disassembly of section .__pagetable_map_os_0x00000000427a4000:

00000000427a4000 <__pagetable_map_os_0x00000000427a4000>:
    427a4000:	3801                	.insn	2, 0x3801
    427a4002:	0000107b          	.insn	4, 0x107b
	...
    427a4016:	0000                	.insn	2, 0x0000
    427a4018:	a801                	.insn	2, 0xa801
    427a401a:	00001133          	sll	x2,x0,x0
	...
    427a409e:	0000                	.insn	2, 0x0000
    427a40a0:	5001                	.insn	2, 0x5001
    427a40a2:	00001133          	sll	x2,x0,x0
	...
    427a40ae:	0000                	.insn	2, 0x0000
    427a40b0:	9001                	.insn	2, 0x9001
    427a40b2:	111f 0000 0000      	.insn	6, 0x111f
	...
    427a4750:	6001                	.insn	2, 0x6001
    427a4752:	1139                	.insn	2, 0x1139
	...
    427a4ab8:	7401                	.insn	2, 0x7401
    427a4aba:	10b4                	.insn	2, 0x10b4
    427a4abc:	0000                	.insn	2, 0x0000
	...

Disassembly of section .__pagetable_map_os_0x0000000041ece000:

0000000041ece000 <__pagetable_map_os_0x0000000041ece000>:
    41ece000:	6401                	.insn	2, 0x6401
    41ece002:	1138                	.insn	2, 0x1138
    41ece004:	0000                	.insn	2, 0x0000
    41ece006:	0000                	.insn	2, 0x0000
    41ece008:	1001                	.insn	2, 0x1001
    41ece00a:	1058                	.insn	2, 0x1058
	...
    41ece1f0:	ec01                	.insn	2, 0xec01
    41ece1f2:	0000107b          	.insn	4, 0x107b
	...
    41ece376:	0000                	.insn	2, 0x0000
    41ece378:	6c01                	.insn	2, 0x6c01
    41ece37a:	113e                	.insn	2, 0x113e
    41ece37c:	0000                	.insn	2, 0x0000
	...

Disassembly of section .__pagetable_map_os_0x0000000044e19000:

0000000044e19000 <__pagetable_map_os_0x0000000044e19000>:
    44e19000:	d001                	.insn	2, 0xd001
    44e19002:	1130                	.insn	2, 0x1130
    44e19004:	0000                	.insn	2, 0x0000
    44e19006:	0000                	.insn	2, 0x0000
    44e19008:	e401                	.insn	2, 0xe401
    44e1900a:	1140                	.insn	2, 0x1140
    44e1900c:	0000                	.insn	2, 0x0000
    44e1900e:	0000                	.insn	2, 0x0000
    44e19010:	3801                	.insn	2, 0x3801
    44e19012:	113a                	.insn	2, 0x113a
	...
    44e19078:	5401                	.insn	2, 0x5401
    44e1907a:	1139                	.insn	2, 0x1139
	...
    44e190b8:	3c01                	.insn	2, 0x3c01
    44e190ba:	00001057          	vfadd.vv	v0,v0,v0,v0.t
	...
    44e190e6:	0000                	.insn	2, 0x0000
    44e190e8:	9801                	.insn	2, 0x9801
    44e190ea:	1130                	.insn	2, 0x1130
	...
    44e191b8:	bc01                	.insn	2, 0xbc01
    44e191ba:	104a                	.insn	2, 0x104a
	...
    44e19608:	6001                	.insn	2, 0x6001
    44e1960a:	1140                	.insn	2, 0x1140
    44e1960c:	0000                	.insn	2, 0x0000
	...

Disassembly of section .__pagetable_map_os_0x0000000045039000:

0000000045039000 <__pagetable_map_os_0x0000000045039000>:
	...
    45039040:	9001                	.insn	2, 0x9001
    45039042:	1131                	.insn	2, 0x1131
    45039044:	0000                	.insn	2, 0x0000
    45039046:	0000                	.insn	2, 0x0000
    45039048:	3c01                	.insn	2, 0x3c01
    4503904a:	0000107b          	.insn	4, 0x107b
	...
    45039096:	0000                	.insn	2, 0x0000
    45039098:	3801                	.insn	2, 0x3801
    4503909a:	000010c7          	fmsub.s	f1,f0,f0,f0,rtz
	...

Disassembly of section .__pagetable_map_os_0x0000000044c64000:

0000000044c64000 <__pagetable_map_os_0x0000000044c64000>:
	...
    44c64080:	40df 1040 0000      	.insn	6, 0x104040df
    44c64086:	0000                	.insn	2, 0x0000
    44c64088:	104044cf          	fnmadd.s	f9,f0,f4,f2,rmm
    44c6408c:	0000                	.insn	2, 0x0000
    44c6408e:	0000                	.insn	2, 0x0000
    44c64090:	104048cf          	fnmadd.s	f17,f0,f4,f2,rmm
    44c64094:	0000                	.insn	2, 0x0000
    44c64096:	0000                	.insn	2, 0x0000
    44c64098:	10404ccf          	fnmadd.s	f25,f0,f4,f2,rmm
    44c6409c:	0000                	.insn	2, 0x0000
    44c6409e:	0000                	.insn	2, 0x0000
    44c640a0:	104050cf          	fnmadd.s	f1,f0,f4,f2,unknown
    44c640a4:	0000                	.insn	2, 0x0000
    44c640a6:	0000                	.insn	2, 0x0000
    44c640a8:	00df 1128 0000      	.insn	6, 0x112800df
    44c640ae:	0000                	.insn	2, 0x0000
    44c640b0:	04df 1128 0000      	.insn	6, 0x112804df
    44c640b6:	0000                	.insn	2, 0x0000
    44c640b8:	08df 1128 0000      	.insn	6, 0x112808df
    44c640be:	0000                	.insn	2, 0x0000
    44c640c0:	0cdf 1128 0000      	.insn	6, 0x11280cdf
    44c640c6:	0000                	.insn	2, 0x0000
    44c640c8:	10df 1128 0000      	.insn	6, 0x112810df
    44c640ce:	0000                	.insn	2, 0x0000
    44c640d0:	14df 1128 0000      	.insn	6, 0x112814df
    44c640d6:	0000                	.insn	2, 0x0000
    44c640d8:	18df 1128 0000      	.insn	6, 0x112818df
    44c640de:	0000                	.insn	2, 0x0000
    44c640e0:	1cdf 1128 0000      	.insn	6, 0x11281cdf
    44c640e6:	0000                	.insn	2, 0x0000
    44c640e8:	20df 1128 0000      	.insn	6, 0x112820df
    44c640ee:	0000                	.insn	2, 0x0000
    44c640f0:	24df 1128 0000      	.insn	6, 0x112824df
    44c640f6:	0000                	.insn	2, 0x0000
    44c640f8:	28df 1128 0000      	.insn	6, 0x112828df
    44c640fe:	0000                	.insn	2, 0x0000
    44c64100:	2cdf 1128 0000      	.insn	6, 0x11282cdf
    44c64106:	0000                	.insn	2, 0x0000
    44c64108:	30df 1128 0000      	.insn	6, 0x112830df
    44c6410e:	0000                	.insn	2, 0x0000
    44c64110:	34df 1128 0000      	.insn	6, 0x112834df
    44c64116:	0000                	.insn	2, 0x0000
    44c64118:	38df 1128 0000      	.insn	6, 0x112838df
    44c6411e:	0000                	.insn	2, 0x0000
    44c64120:	3cdf 1128 0000      	.insn	6, 0x11283cdf
    44c64126:	0000                	.insn	2, 0x0000
    44c64128:	40df 1128 0000      	.insn	6, 0x112840df
    44c6412e:	0000                	.insn	2, 0x0000
    44c64130:	44df 1128 0000      	.insn	6, 0x112844df
    44c64136:	0000                	.insn	2, 0x0000
    44c64138:	48df 1128 0000      	.insn	6, 0x112848df
    44c6413e:	0000                	.insn	2, 0x0000
    44c64140:	4cdf 1128 0000      	.insn	6, 0x11284cdf
    44c64146:	0000                	.insn	2, 0x0000
    44c64148:	50df 1128 0000      	.insn	6, 0x112850df
    44c6414e:	0000                	.insn	2, 0x0000
    44c64150:	54df 1128 0000      	.insn	6, 0x112854df
    44c64156:	0000                	.insn	2, 0x0000
    44c64158:	58df 1128 0000      	.insn	6, 0x112858df
    44c6415e:	0000                	.insn	2, 0x0000
    44c64160:	5cdf 1128 0000      	.insn	6, 0x11285cdf
    44c64166:	0000                	.insn	2, 0x0000
    44c64168:	60df 1128 0000      	.insn	6, 0x112860df
    44c6416e:	0000                	.insn	2, 0x0000
    44c64170:	64df 1128 0000      	.insn	6, 0x112864df
    44c64176:	0000                	.insn	2, 0x0000
    44c64178:	68df 1128 0000      	.insn	6, 0x112868df
    44c6417e:	0000                	.insn	2, 0x0000
    44c64180:	6cdf 1128 0000      	.insn	6, 0x11286cdf
    44c64186:	0000                	.insn	2, 0x0000
    44c64188:	70df 1128 0000      	.insn	6, 0x112870df
    44c6418e:	0000                	.insn	2, 0x0000
    44c64190:	74df 1128 0000      	.insn	6, 0x112874df
    44c64196:	0000                	.insn	2, 0x0000
    44c64198:	78df 1128 0000      	.insn	6, 0x112878df
    44c6419e:	0000                	.insn	2, 0x0000
    44c641a0:	7cdf 1128 0000      	.insn	6, 0x11287cdf
    44c641a6:	0000                	.insn	2, 0x0000
    44c641a8:	80df 1128 0000      	.insn	6, 0x112880df
    44c641ae:	0000                	.insn	2, 0x0000
    44c641b0:	84df 1128 0000      	.insn	6, 0x112884df
    44c641b6:	0000                	.insn	2, 0x0000
    44c641b8:	88df 1128 0000      	.insn	6, 0x112888df
    44c641be:	0000                	.insn	2, 0x0000
    44c641c0:	8cdf 1128 0000      	.insn	6, 0x11288cdf
    44c641c6:	0000                	.insn	2, 0x0000
    44c641c8:	90df 1128 0000      	.insn	6, 0x112890df
    44c641ce:	0000                	.insn	2, 0x0000
    44c641d0:	94df 1128 0000      	.insn	6, 0x112894df
    44c641d6:	0000                	.insn	2, 0x0000
    44c641d8:	98df 1128 0000      	.insn	6, 0x112898df
    44c641de:	0000                	.insn	2, 0x0000
    44c641e0:	9cdf 1128 0000      	.insn	6, 0x11289cdf
    44c641e6:	0000                	.insn	2, 0x0000
    44c641e8:	a0df 1128 0000      	.insn	6, 0x1128a0df
    44c641ee:	0000                	.insn	2, 0x0000
    44c641f0:	a4df 1128 0000      	.insn	6, 0x1128a4df
    44c641f6:	0000                	.insn	2, 0x0000
    44c641f8:	a8df 1128 0000      	.insn	6, 0x1128a8df
    44c641fe:	0000                	.insn	2, 0x0000
    44c64200:	00df 1041 0000      	.insn	6, 0x104100df
    44c64206:	0000                	.insn	2, 0x0000
    44c64208:	b0df 1128 0000      	.insn	6, 0x1128b0df
    44c6420e:	0000                	.insn	2, 0x0000
    44c64210:	b4df 1128 0000      	.insn	6, 0x1128b4df
    44c64216:	0000                	.insn	2, 0x0000
    44c64218:	b8df 1128 0000      	.insn	6, 0x1128b8df
    44c6421e:	0000                	.insn	2, 0x0000
    44c64220:	bcdf 1128 0000      	.insn	6, 0x1128bcdf
    44c64226:	0000                	.insn	2, 0x0000
    44c64228:	c0df 1128 0000      	.insn	6, 0x1128c0df
    44c6422e:	0000                	.insn	2, 0x0000
    44c64230:	c4df 1128 0000      	.insn	6, 0x1128c4df
    44c64236:	0000                	.insn	2, 0x0000
    44c64238:	c8df 1128 0000      	.insn	6, 0x1128c8df
    44c6423e:	0000                	.insn	2, 0x0000
    44c64240:	ccdf 1128 0000      	.insn	6, 0x1128ccdf
    44c64246:	0000                	.insn	2, 0x0000
    44c64248:	d0df 1128 0000      	.insn	6, 0x1128d0df
    44c6424e:	0000                	.insn	2, 0x0000
    44c64250:	d4df 1128 0000      	.insn	6, 0x1128d4df
    44c64256:	0000                	.insn	2, 0x0000
    44c64258:	d8df 1128 0000      	.insn	6, 0x1128d8df
    44c6425e:	0000                	.insn	2, 0x0000
    44c64260:	dcdf 1128 0000      	.insn	6, 0x1128dcdf
    44c64266:	0000                	.insn	2, 0x0000
    44c64268:	e0df 1128 0000      	.insn	6, 0x1128e0df
    44c6426e:	0000                	.insn	2, 0x0000
    44c64270:	e4df 1128 0000      	.insn	6, 0x1128e4df
    44c64276:	0000                	.insn	2, 0x0000
    44c64278:	e8df 1128 0000      	.insn	6, 0x1128e8df
    44c6427e:	0000                	.insn	2, 0x0000
    44c64280:	ecdf 1128 0000      	.insn	6, 0x1128ecdf
    44c64286:	0000                	.insn	2, 0x0000
    44c64288:	f0df 1128 0000      	.insn	6, 0x1128f0df
    44c6428e:	0000                	.insn	2, 0x0000
    44c64290:	f4df 1128 0000      	.insn	6, 0x1128f4df
    44c64296:	0000                	.insn	2, 0x0000
    44c64298:	f8df 1128 0000      	.insn	6, 0x1128f8df
    44c6429e:	0000                	.insn	2, 0x0000
    44c642a0:	fcdf 1128 0000      	.insn	6, 0x1128fcdf
    44c642a6:	0000                	.insn	2, 0x0000
    44c642a8:	00df 1129 0000      	.insn	6, 0x112900df
    44c642ae:	0000                	.insn	2, 0x0000
    44c642b0:	04df 1129 0000      	.insn	6, 0x112904df
    44c642b6:	0000                	.insn	2, 0x0000
    44c642b8:	08df 1129 0000      	.insn	6, 0x112908df
    44c642be:	0000                	.insn	2, 0x0000
    44c642c0:	0cdf 1129 0000      	.insn	6, 0x11290cdf
    44c642c6:	0000                	.insn	2, 0x0000
    44c642c8:	10df 1129 0000      	.insn	6, 0x112910df
    44c642ce:	0000                	.insn	2, 0x0000
    44c642d0:	14df 1129 0000      	.insn	6, 0x112914df
    44c642d6:	0000                	.insn	2, 0x0000
    44c642d8:	18df 1129 0000      	.insn	6, 0x112918df
    44c642de:	0000                	.insn	2, 0x0000
    44c642e0:	1cdf 1129 0000      	.insn	6, 0x11291cdf
    44c642e6:	0000                	.insn	2, 0x0000
    44c642e8:	20df 1129 0000      	.insn	6, 0x112920df
    44c642ee:	0000                	.insn	2, 0x0000
    44c642f0:	24df 1129 0000      	.insn	6, 0x112924df
    44c642f6:	0000                	.insn	2, 0x0000
    44c642f8:	28df 1129 0000      	.insn	6, 0x112928df
    44c642fe:	0000                	.insn	2, 0x0000
    44c64300:	2cdf 1129 0000      	.insn	6, 0x11292cdf
    44c64306:	0000                	.insn	2, 0x0000
    44c64308:	30df 1129 0000      	.insn	6, 0x112930df
    44c6430e:	0000                	.insn	2, 0x0000
    44c64310:	34df 1129 0000      	.insn	6, 0x112934df
    44c64316:	0000                	.insn	2, 0x0000
    44c64318:	38df 1129 0000      	.insn	6, 0x112938df
    44c6431e:	0000                	.insn	2, 0x0000
    44c64320:	3cdf 1129 0000      	.insn	6, 0x11293cdf
    44c64326:	0000                	.insn	2, 0x0000
    44c64328:	40df 1129 0000      	.insn	6, 0x112940df
    44c6432e:	0000                	.insn	2, 0x0000
    44c64330:	44df 1129 0000      	.insn	6, 0x112944df
    44c64336:	0000                	.insn	2, 0x0000
    44c64338:	48df 1129 0000      	.insn	6, 0x112948df
    44c6433e:	0000                	.insn	2, 0x0000
    44c64340:	4cdf 1129 0000      	.insn	6, 0x11294cdf
    44c64346:	0000                	.insn	2, 0x0000
    44c64348:	50df 1129 0000      	.insn	6, 0x112950df
    44c6434e:	0000                	.insn	2, 0x0000
    44c64350:	54df 1129 0000      	.insn	6, 0x112954df
    44c64356:	0000                	.insn	2, 0x0000
    44c64358:	58df 1129 0000      	.insn	6, 0x112958df
    44c6435e:	0000                	.insn	2, 0x0000
    44c64360:	5cdf 1129 0000      	.insn	6, 0x11295cdf
    44c64366:	0000                	.insn	2, 0x0000
    44c64368:	60df 1129 0000      	.insn	6, 0x112960df
    44c6436e:	0000                	.insn	2, 0x0000
    44c64370:	64df 1129 0000      	.insn	6, 0x112964df
    44c64376:	0000                	.insn	2, 0x0000
    44c64378:	68df 1129 0000      	.insn	6, 0x112968df
    44c6437e:	0000                	.insn	2, 0x0000
    44c64380:	6cdf 1129 0000      	.insn	6, 0x11296cdf
    44c64386:	0000                	.insn	2, 0x0000
    44c64388:	70df 1129 0000      	.insn	6, 0x112970df
    44c6438e:	0000                	.insn	2, 0x0000
    44c64390:	74df 1129 0000      	.insn	6, 0x112974df
    44c64396:	0000                	.insn	2, 0x0000
    44c64398:	78df 1129 0000      	.insn	6, 0x112978df
    44c6439e:	0000                	.insn	2, 0x0000
    44c643a0:	7cdf 1129 0000      	.insn	6, 0x11297cdf
    44c643a6:	0000                	.insn	2, 0x0000
    44c643a8:	80df 1129 0000      	.insn	6, 0x112980df
    44c643ae:	0000                	.insn	2, 0x0000
    44c643b0:	84df 1129 0000      	.insn	6, 0x112984df
    44c643b6:	0000                	.insn	2, 0x0000
    44c643b8:	88df 1129 0000      	.insn	6, 0x112988df
    44c643be:	0000                	.insn	2, 0x0000
    44c643c0:	8cdf 1129 0000      	.insn	6, 0x11298cdf
    44c643c6:	0000                	.insn	2, 0x0000
    44c643c8:	90df 1129 0000      	.insn	6, 0x112990df
    44c643ce:	0000                	.insn	2, 0x0000
    44c643d0:	94df 1129 0000      	.insn	6, 0x112994df
    44c643d6:	0000                	.insn	2, 0x0000
    44c643d8:	98df 1129 0000      	.insn	6, 0x112998df
    44c643de:	0000                	.insn	2, 0x0000
    44c643e0:	9cdf 1129 0000      	.insn	6, 0x11299cdf
    44c643e6:	0000                	.insn	2, 0x0000
    44c643e8:	a0df 1129 0000      	.insn	6, 0x1129a0df
    44c643ee:	0000                	.insn	2, 0x0000
    44c643f0:	a4df 1129 0000      	.insn	6, 0x1129a4df
    44c643f6:	0000                	.insn	2, 0x0000
    44c643f8:	a8df 1129 0000      	.insn	6, 0x1129a8df
    44c643fe:	0000                	.insn	2, 0x0000
    44c64400:	acdf 1129 0000      	.insn	6, 0x1129acdf
    44c64406:	0000                	.insn	2, 0x0000
    44c64408:	b0df 1129 0000      	.insn	6, 0x1129b0df
    44c6440e:	0000                	.insn	2, 0x0000
    44c64410:	b4df 1129 0000      	.insn	6, 0x1129b4df
    44c64416:	0000                	.insn	2, 0x0000
    44c64418:	b8df 1129 0000      	.insn	6, 0x1129b8df
    44c6441e:	0000                	.insn	2, 0x0000
    44c64420:	bcdf 1129 0000      	.insn	6, 0x1129bcdf
    44c64426:	0000                	.insn	2, 0x0000
    44c64428:	c0df 1129 0000      	.insn	6, 0x1129c0df
    44c6442e:	0000                	.insn	2, 0x0000
    44c64430:	c4df 1129 0000      	.insn	6, 0x1129c4df
    44c64436:	0000                	.insn	2, 0x0000
    44c64438:	c8df 1129 0000      	.insn	6, 0x1129c8df
    44c6443e:	0000                	.insn	2, 0x0000
    44c64440:	ccdf 1129 0000      	.insn	6, 0x1129ccdf
    44c64446:	0000                	.insn	2, 0x0000
    44c64448:	d0df 1129 0000      	.insn	6, 0x1129d0df
    44c6444e:	0000                	.insn	2, 0x0000
    44c64450:	d4df 1129 0000      	.insn	6, 0x1129d4df
    44c64456:	0000                	.insn	2, 0x0000
    44c64458:	d8df 1129 0000      	.insn	6, 0x1129d8df
    44c6445e:	0000                	.insn	2, 0x0000
    44c64460:	dcdf 1129 0000      	.insn	6, 0x1129dcdf
    44c64466:	0000                	.insn	2, 0x0000
    44c64468:	e0df 1129 0000      	.insn	6, 0x1129e0df
    44c6446e:	0000                	.insn	2, 0x0000
    44c64470:	e4df 1129 0000      	.insn	6, 0x1129e4df
    44c64476:	0000                	.insn	2, 0x0000
    44c64478:	e8df 1129 0000      	.insn	6, 0x1129e8df
    44c6447e:	0000                	.insn	2, 0x0000
    44c64480:	ecdf 1129 0000      	.insn	6, 0x1129ecdf
    44c64486:	0000                	.insn	2, 0x0000
    44c64488:	f0df 1129 0000      	.insn	6, 0x1129f0df
    44c6448e:	0000                	.insn	2, 0x0000
    44c64490:	f4df 1129 0000      	.insn	6, 0x1129f4df
    44c64496:	0000                	.insn	2, 0x0000
    44c64498:	f8df 1129 0000      	.insn	6, 0x1129f8df
    44c6449e:	0000                	.insn	2, 0x0000
    44c644a0:	fcdf 1129 0000      	.insn	6, 0x1129fcdf
    44c644a6:	0000                	.insn	2, 0x0000
    44c644a8:	112a00cf          	fnmadd.s	f1,f20,f18,f2,rne
    44c644ac:	0000                	.insn	2, 0x0000
    44c644ae:	0000                	.insn	2, 0x0000
    44c644b0:	112a04cf          	fnmadd.s	f9,f20,f18,f2,rne
    44c644b4:	0000                	.insn	2, 0x0000
    44c644b6:	0000                	.insn	2, 0x0000
    44c644b8:	112a08cf          	fnmadd.s	f17,f20,f18,f2,rne
    44c644bc:	0000                	.insn	2, 0x0000
    44c644be:	0000                	.insn	2, 0x0000
    44c644c0:	112a0ccf          	fnmadd.s	f25,f20,f18,f2,rne
    44c644c4:	0000                	.insn	2, 0x0000
    44c644c6:	0000                	.insn	2, 0x0000
    44c644c8:	112a10cf          	fnmadd.s	f1,f20,f18,f2,rtz
    44c644cc:	0000                	.insn	2, 0x0000
    44c644ce:	0000                	.insn	2, 0x0000
    44c644d0:	112a14cf          	fnmadd.s	f9,f20,f18,f2,rtz
    44c644d4:	0000                	.insn	2, 0x0000
    44c644d6:	0000                	.insn	2, 0x0000
    44c644d8:	112a18cf          	fnmadd.s	f17,f20,f18,f2,rtz
    44c644dc:	0000                	.insn	2, 0x0000
    44c644de:	0000                	.insn	2, 0x0000
    44c644e0:	112a1ccf          	fnmadd.s	f25,f20,f18,f2,rtz
    44c644e4:	0000                	.insn	2, 0x0000
    44c644e6:	0000                	.insn	2, 0x0000
    44c644e8:	112a20cf          	fnmadd.s	f1,f20,f18,f2,rdn
    44c644ec:	0000                	.insn	2, 0x0000
    44c644ee:	0000                	.insn	2, 0x0000
    44c644f0:	112a24cf          	fnmadd.s	f9,f20,f18,f2,rdn
    44c644f4:	0000                	.insn	2, 0x0000
    44c644f6:	0000                	.insn	2, 0x0000
    44c644f8:	112a28cf          	fnmadd.s	f17,f20,f18,f2,rdn
    44c644fc:	0000                	.insn	2, 0x0000
    44c644fe:	0000                	.insn	2, 0x0000
    44c64500:	112a2ccf          	fnmadd.s	f25,f20,f18,f2,rdn
    44c64504:	0000                	.insn	2, 0x0000
    44c64506:	0000                	.insn	2, 0x0000
    44c64508:	112a30cf          	fnmadd.s	f1,f20,f18,f2,rup
    44c6450c:	0000                	.insn	2, 0x0000
    44c6450e:	0000                	.insn	2, 0x0000
    44c64510:	112a34cf          	fnmadd.s	f9,f20,f18,f2,rup
    44c64514:	0000                	.insn	2, 0x0000
    44c64516:	0000                	.insn	2, 0x0000
    44c64518:	112a38cf          	fnmadd.s	f17,f20,f18,f2,rup
    44c6451c:	0000                	.insn	2, 0x0000
    44c6451e:	0000                	.insn	2, 0x0000
    44c64520:	112a3ccf          	fnmadd.s	f25,f20,f18,f2,rup
    44c64524:	0000                	.insn	2, 0x0000
    44c64526:	0000                	.insn	2, 0x0000
    44c64528:	112a40cf          	fnmadd.s	f1,f20,f18,f2,rmm
    44c6452c:	0000                	.insn	2, 0x0000
    44c6452e:	0000                	.insn	2, 0x0000
    44c64530:	112a44cf          	fnmadd.s	f9,f20,f18,f2,rmm
    44c64534:	0000                	.insn	2, 0x0000
    44c64536:	0000                	.insn	2, 0x0000
    44c64538:	112a48cf          	fnmadd.s	f17,f20,f18,f2,rmm
    44c6453c:	0000                	.insn	2, 0x0000
    44c6453e:	0000                	.insn	2, 0x0000
    44c64540:	112a4ccf          	fnmadd.s	f25,f20,f18,f2,rmm
    44c64544:	0000                	.insn	2, 0x0000
    44c64546:	0000                	.insn	2, 0x0000
    44c64548:	112a50cf          	fnmadd.s	f1,f20,f18,f2,unknown
    44c6454c:	0000                	.insn	2, 0x0000
    44c6454e:	0000                	.insn	2, 0x0000
    44c64550:	112a54cf          	fnmadd.s	f9,f20,f18,f2,unknown
    44c64554:	0000                	.insn	2, 0x0000
    44c64556:	0000                	.insn	2, 0x0000
    44c64558:	112a58cf          	fnmadd.s	f17,f20,f18,f2,unknown
    44c6455c:	0000                	.insn	2, 0x0000
    44c6455e:	0000                	.insn	2, 0x0000
    44c64560:	112a5ccf          	fnmadd.s	f25,f20,f18,f2,unknown
    44c64564:	0000                	.insn	2, 0x0000
    44c64566:	0000                	.insn	2, 0x0000
    44c64568:	112a60cf          	fnmadd.s	f1,f20,f18,f2,unknown
    44c6456c:	0000                	.insn	2, 0x0000
    44c6456e:	0000                	.insn	2, 0x0000
    44c64570:	112a64cf          	fnmadd.s	f9,f20,f18,f2,unknown
    44c64574:	0000                	.insn	2, 0x0000
    44c64576:	0000                	.insn	2, 0x0000
    44c64578:	112a68cf          	fnmadd.s	f17,f20,f18,f2,unknown
    44c6457c:	0000                	.insn	2, 0x0000
    44c6457e:	0000                	.insn	2, 0x0000
    44c64580:	112a6ccf          	fnmadd.s	f25,f20,f18,f2,unknown
    44c64584:	0000                	.insn	2, 0x0000
    44c64586:	0000                	.insn	2, 0x0000
    44c64588:	112a70cf          	fnmadd.s	f1,f20,f18,f2
    44c6458c:	0000                	.insn	2, 0x0000
    44c6458e:	0000                	.insn	2, 0x0000
    44c64590:	112a74cf          	fnmadd.s	f9,f20,f18,f2
    44c64594:	0000                	.insn	2, 0x0000
    44c64596:	0000                	.insn	2, 0x0000
    44c64598:	112a78cf          	fnmadd.s	f17,f20,f18,f2
    44c6459c:	0000                	.insn	2, 0x0000
    44c6459e:	0000                	.insn	2, 0x0000
    44c645a0:	112a7ccf          	fnmadd.s	f25,f20,f18,f2
    44c645a4:	0000                	.insn	2, 0x0000
    44c645a6:	0000                	.insn	2, 0x0000
    44c645a8:	112a80cf          	fnmadd.s	f1,f21,f18,f2,rne
    44c645ac:	0000                	.insn	2, 0x0000
    44c645ae:	0000                	.insn	2, 0x0000
    44c645b0:	112a84cf          	fnmadd.s	f9,f21,f18,f2,rne
    44c645b4:	0000                	.insn	2, 0x0000
    44c645b6:	0000                	.insn	2, 0x0000
    44c645b8:	112a88cf          	fnmadd.s	f17,f21,f18,f2,rne
    44c645bc:	0000                	.insn	2, 0x0000
    44c645be:	0000                	.insn	2, 0x0000
    44c645c0:	112a8ccf          	fnmadd.s	f25,f21,f18,f2,rne
    44c645c4:	0000                	.insn	2, 0x0000
    44c645c6:	0000                	.insn	2, 0x0000
    44c645c8:	112a90cf          	fnmadd.s	f1,f21,f18,f2,rtz
    44c645cc:	0000                	.insn	2, 0x0000
    44c645ce:	0000                	.insn	2, 0x0000
    44c645d0:	112a94cf          	fnmadd.s	f9,f21,f18,f2,rtz
    44c645d4:	0000                	.insn	2, 0x0000
    44c645d6:	0000                	.insn	2, 0x0000
    44c645d8:	112a98cf          	fnmadd.s	f17,f21,f18,f2,rtz
    44c645dc:	0000                	.insn	2, 0x0000
    44c645de:	0000                	.insn	2, 0x0000
    44c645e0:	112a9ccf          	fnmadd.s	f25,f21,f18,f2,rtz
    44c645e4:	0000                	.insn	2, 0x0000
    44c645e6:	0000                	.insn	2, 0x0000
    44c645e8:	112aa0cf          	fnmadd.s	f1,f21,f18,f2,rdn
    44c645ec:	0000                	.insn	2, 0x0000
    44c645ee:	0000                	.insn	2, 0x0000
    44c645f0:	112aa4cf          	fnmadd.s	f9,f21,f18,f2,rdn
    44c645f4:	0000                	.insn	2, 0x0000
    44c645f6:	0000                	.insn	2, 0x0000
    44c645f8:	112aa8cf          	fnmadd.s	f17,f21,f18,f2,rdn
    44c645fc:	0000                	.insn	2, 0x0000
    44c645fe:	0000                	.insn	2, 0x0000
    44c64600:	112aaccf          	fnmadd.s	f25,f21,f18,f2,rdn
    44c64604:	0000                	.insn	2, 0x0000
    44c64606:	0000                	.insn	2, 0x0000
    44c64608:	112ab0cf          	fnmadd.s	f1,f21,f18,f2,rup
    44c6460c:	0000                	.insn	2, 0x0000
    44c6460e:	0000                	.insn	2, 0x0000
    44c64610:	112ab4cf          	fnmadd.s	f9,f21,f18,f2,rup
    44c64614:	0000                	.insn	2, 0x0000
    44c64616:	0000                	.insn	2, 0x0000
    44c64618:	112ab8cf          	fnmadd.s	f17,f21,f18,f2,rup
    44c6461c:	0000                	.insn	2, 0x0000
    44c6461e:	0000                	.insn	2, 0x0000
    44c64620:	112abccf          	fnmadd.s	f25,f21,f18,f2,rup
    44c64624:	0000                	.insn	2, 0x0000
    44c64626:	0000                	.insn	2, 0x0000
    44c64628:	112ac0cf          	fnmadd.s	f1,f21,f18,f2,rmm
    44c6462c:	0000                	.insn	2, 0x0000
    44c6462e:	0000                	.insn	2, 0x0000
    44c64630:	112ac4cf          	fnmadd.s	f9,f21,f18,f2,rmm
    44c64634:	0000                	.insn	2, 0x0000
    44c64636:	0000                	.insn	2, 0x0000
    44c64638:	112ac8cf          	fnmadd.s	f17,f21,f18,f2,rmm
    44c6463c:	0000                	.insn	2, 0x0000
    44c6463e:	0000                	.insn	2, 0x0000
    44c64640:	112acccf          	fnmadd.s	f25,f21,f18,f2,rmm
    44c64644:	0000                	.insn	2, 0x0000
    44c64646:	0000                	.insn	2, 0x0000
    44c64648:	112ad0cf          	fnmadd.s	f1,f21,f18,f2,unknown
    44c6464c:	0000                	.insn	2, 0x0000
    44c6464e:	0000                	.insn	2, 0x0000
    44c64650:	112ad4cf          	fnmadd.s	f9,f21,f18,f2,unknown
    44c64654:	0000                	.insn	2, 0x0000
    44c64656:	0000                	.insn	2, 0x0000
    44c64658:	112ad8cf          	fnmadd.s	f17,f21,f18,f2,unknown
    44c6465c:	0000                	.insn	2, 0x0000
    44c6465e:	0000                	.insn	2, 0x0000
    44c64660:	112adccf          	fnmadd.s	f25,f21,f18,f2,unknown
    44c64664:	0000                	.insn	2, 0x0000
    44c64666:	0000                	.insn	2, 0x0000
    44c64668:	112ae0cf          	fnmadd.s	f1,f21,f18,f2,unknown
    44c6466c:	0000                	.insn	2, 0x0000
    44c6466e:	0000                	.insn	2, 0x0000
    44c64670:	112ae4cf          	fnmadd.s	f9,f21,f18,f2,unknown
    44c64674:	0000                	.insn	2, 0x0000
    44c64676:	0000                	.insn	2, 0x0000
    44c64678:	112ae8cf          	fnmadd.s	f17,f21,f18,f2,unknown
    44c6467c:	0000                	.insn	2, 0x0000
    44c6467e:	0000                	.insn	2, 0x0000
    44c64680:	112aeccf          	fnmadd.s	f25,f21,f18,f2,unknown
    44c64684:	0000                	.insn	2, 0x0000
    44c64686:	0000                	.insn	2, 0x0000
    44c64688:	112af0cf          	fnmadd.s	f1,f21,f18,f2
    44c6468c:	0000                	.insn	2, 0x0000
    44c6468e:	0000                	.insn	2, 0x0000
    44c64690:	112af4cf          	fnmadd.s	f9,f21,f18,f2
    44c64694:	0000                	.insn	2, 0x0000
    44c64696:	0000                	.insn	2, 0x0000
    44c64698:	112af8cf          	fnmadd.s	f17,f21,f18,f2
    44c6469c:	0000                	.insn	2, 0x0000
    44c6469e:	0000                	.insn	2, 0x0000
    44c646a0:	112afccf          	fnmadd.s	f25,f21,f18,f2
    44c646a4:	0000                	.insn	2, 0x0000
    44c646a6:	0000                	.insn	2, 0x0000
    44c646a8:	112b00cf          	fnmadd.s	f1,f22,f18,f2,rne
    44c646ac:	0000                	.insn	2, 0x0000
    44c646ae:	0000                	.insn	2, 0x0000
    44c646b0:	112b04cf          	fnmadd.s	f9,f22,f18,f2,rne
    44c646b4:	0000                	.insn	2, 0x0000
    44c646b6:	0000                	.insn	2, 0x0000
    44c646b8:	112b08cf          	fnmadd.s	f17,f22,f18,f2,rne
    44c646bc:	0000                	.insn	2, 0x0000
    44c646be:	0000                	.insn	2, 0x0000
    44c646c0:	112b0ccf          	fnmadd.s	f25,f22,f18,f2,rne
    44c646c4:	0000                	.insn	2, 0x0000
    44c646c6:	0000                	.insn	2, 0x0000
    44c646c8:	112b10cf          	fnmadd.s	f1,f22,f18,f2,rtz
    44c646cc:	0000                	.insn	2, 0x0000
    44c646ce:	0000                	.insn	2, 0x0000
    44c646d0:	112b14cf          	fnmadd.s	f9,f22,f18,f2,rtz
    44c646d4:	0000                	.insn	2, 0x0000
    44c646d6:	0000                	.insn	2, 0x0000
    44c646d8:	112b18cf          	fnmadd.s	f17,f22,f18,f2,rtz
    44c646dc:	0000                	.insn	2, 0x0000
    44c646de:	0000                	.insn	2, 0x0000
    44c646e0:	112b1ccf          	fnmadd.s	f25,f22,f18,f2,rtz
    44c646e4:	0000                	.insn	2, 0x0000
    44c646e6:	0000                	.insn	2, 0x0000
    44c646e8:	112b20cf          	fnmadd.s	f1,f22,f18,f2,rdn
    44c646ec:	0000                	.insn	2, 0x0000
    44c646ee:	0000                	.insn	2, 0x0000
    44c646f0:	112b24cf          	fnmadd.s	f9,f22,f18,f2,rdn
    44c646f4:	0000                	.insn	2, 0x0000
    44c646f6:	0000                	.insn	2, 0x0000
    44c646f8:	112b28cf          	fnmadd.s	f17,f22,f18,f2,rdn
    44c646fc:	0000                	.insn	2, 0x0000
    44c646fe:	0000                	.insn	2, 0x0000
    44c64700:	112b2ccf          	fnmadd.s	f25,f22,f18,f2,rdn
    44c64704:	0000                	.insn	2, 0x0000
    44c64706:	0000                	.insn	2, 0x0000
    44c64708:	112b30cf          	fnmadd.s	f1,f22,f18,f2,rup
    44c6470c:	0000                	.insn	2, 0x0000
    44c6470e:	0000                	.insn	2, 0x0000
    44c64710:	112b34cf          	fnmadd.s	f9,f22,f18,f2,rup
    44c64714:	0000                	.insn	2, 0x0000
    44c64716:	0000                	.insn	2, 0x0000
    44c64718:	112b38cf          	fnmadd.s	f17,f22,f18,f2,rup
    44c6471c:	0000                	.insn	2, 0x0000
    44c6471e:	0000                	.insn	2, 0x0000
    44c64720:	112b3ccf          	fnmadd.s	f25,f22,f18,f2,rup
    44c64724:	0000                	.insn	2, 0x0000
    44c64726:	0000                	.insn	2, 0x0000
    44c64728:	112b40cf          	fnmadd.s	f1,f22,f18,f2,rmm
    44c6472c:	0000                	.insn	2, 0x0000
    44c6472e:	0000                	.insn	2, 0x0000
    44c64730:	112b44cf          	fnmadd.s	f9,f22,f18,f2,rmm
    44c64734:	0000                	.insn	2, 0x0000
    44c64736:	0000                	.insn	2, 0x0000
    44c64738:	112b48cf          	fnmadd.s	f17,f22,f18,f2,rmm
    44c6473c:	0000                	.insn	2, 0x0000
    44c6473e:	0000                	.insn	2, 0x0000
    44c64740:	112b4ccf          	fnmadd.s	f25,f22,f18,f2,rmm
    44c64744:	0000                	.insn	2, 0x0000
    44c64746:	0000                	.insn	2, 0x0000
    44c64748:	112b50cf          	fnmadd.s	f1,f22,f18,f2,unknown
    44c6474c:	0000                	.insn	2, 0x0000
    44c6474e:	0000                	.insn	2, 0x0000
    44c64750:	112b54cf          	fnmadd.s	f9,f22,f18,f2,unknown
    44c64754:	0000                	.insn	2, 0x0000
    44c64756:	0000                	.insn	2, 0x0000
    44c64758:	112b58cf          	fnmadd.s	f17,f22,f18,f2,unknown
    44c6475c:	0000                	.insn	2, 0x0000
    44c6475e:	0000                	.insn	2, 0x0000
    44c64760:	112b5ccf          	fnmadd.s	f25,f22,f18,f2,unknown
    44c64764:	0000                	.insn	2, 0x0000
    44c64766:	0000                	.insn	2, 0x0000
    44c64768:	112b60cf          	fnmadd.s	f1,f22,f18,f2,unknown
    44c6476c:	0000                	.insn	2, 0x0000
    44c6476e:	0000                	.insn	2, 0x0000
    44c64770:	112b64cf          	fnmadd.s	f9,f22,f18,f2,unknown
    44c64774:	0000                	.insn	2, 0x0000
    44c64776:	0000                	.insn	2, 0x0000
    44c64778:	112b68cf          	fnmadd.s	f17,f22,f18,f2,unknown
    44c6477c:	0000                	.insn	2, 0x0000
    44c6477e:	0000                	.insn	2, 0x0000
    44c64780:	112b6ccf          	fnmadd.s	f25,f22,f18,f2,unknown
    44c64784:	0000                	.insn	2, 0x0000
    44c64786:	0000                	.insn	2, 0x0000
    44c64788:	112b70cf          	fnmadd.s	f1,f22,f18,f2
    44c6478c:	0000                	.insn	2, 0x0000
    44c6478e:	0000                	.insn	2, 0x0000
    44c64790:	112b74cf          	fnmadd.s	f9,f22,f18,f2
    44c64794:	0000                	.insn	2, 0x0000
    44c64796:	0000                	.insn	2, 0x0000
    44c64798:	112b78cf          	fnmadd.s	f17,f22,f18,f2
    44c6479c:	0000                	.insn	2, 0x0000
    44c6479e:	0000                	.insn	2, 0x0000
    44c647a0:	112b7ccf          	fnmadd.s	f25,f22,f18,f2
    44c647a4:	0000                	.insn	2, 0x0000
    44c647a6:	0000                	.insn	2, 0x0000
    44c647a8:	112b80cf          	fnmadd.s	f1,f23,f18,f2,rne
    44c647ac:	0000                	.insn	2, 0x0000
    44c647ae:	0000                	.insn	2, 0x0000
    44c647b0:	112b84cf          	fnmadd.s	f9,f23,f18,f2,rne
    44c647b4:	0000                	.insn	2, 0x0000
    44c647b6:	0000                	.insn	2, 0x0000
    44c647b8:	112b88cf          	fnmadd.s	f17,f23,f18,f2,rne
    44c647bc:	0000                	.insn	2, 0x0000
    44c647be:	0000                	.insn	2, 0x0000
    44c647c0:	112b8ccf          	fnmadd.s	f25,f23,f18,f2,rne
    44c647c4:	0000                	.insn	2, 0x0000
    44c647c6:	0000                	.insn	2, 0x0000
    44c647c8:	112b90cf          	fnmadd.s	f1,f23,f18,f2,rtz
    44c647cc:	0000                	.insn	2, 0x0000
    44c647ce:	0000                	.insn	2, 0x0000
    44c647d0:	112b94cf          	fnmadd.s	f9,f23,f18,f2,rtz
    44c647d4:	0000                	.insn	2, 0x0000
    44c647d6:	0000                	.insn	2, 0x0000
    44c647d8:	112b98cf          	fnmadd.s	f17,f23,f18,f2,rtz
    44c647dc:	0000                	.insn	2, 0x0000
    44c647de:	0000                	.insn	2, 0x0000
    44c647e0:	112b9ccf          	fnmadd.s	f25,f23,f18,f2,rtz
    44c647e4:	0000                	.insn	2, 0x0000
    44c647e6:	0000                	.insn	2, 0x0000
    44c647e8:	112ba0cf          	fnmadd.s	f1,f23,f18,f2,rdn
    44c647ec:	0000                	.insn	2, 0x0000
    44c647ee:	0000                	.insn	2, 0x0000
    44c647f0:	112ba4cf          	fnmadd.s	f9,f23,f18,f2,rdn
    44c647f4:	0000                	.insn	2, 0x0000
    44c647f6:	0000                	.insn	2, 0x0000
    44c647f8:	112ba8cf          	fnmadd.s	f17,f23,f18,f2,rdn
    44c647fc:	0000                	.insn	2, 0x0000
    44c647fe:	0000                	.insn	2, 0x0000
    44c64800:	112baccf          	fnmadd.s	f25,f23,f18,f2,rdn
    44c64804:	0000                	.insn	2, 0x0000
    44c64806:	0000                	.insn	2, 0x0000
    44c64808:	112bb0cf          	fnmadd.s	f1,f23,f18,f2,rup
    44c6480c:	0000                	.insn	2, 0x0000
    44c6480e:	0000                	.insn	2, 0x0000
    44c64810:	112bb4cf          	fnmadd.s	f9,f23,f18,f2,rup
    44c64814:	0000                	.insn	2, 0x0000
    44c64816:	0000                	.insn	2, 0x0000
    44c64818:	112bb8cf          	fnmadd.s	f17,f23,f18,f2,rup
    44c6481c:	0000                	.insn	2, 0x0000
    44c6481e:	0000                	.insn	2, 0x0000
    44c64820:	112bbccf          	fnmadd.s	f25,f23,f18,f2,rup
    44c64824:	0000                	.insn	2, 0x0000
    44c64826:	0000                	.insn	2, 0x0000
    44c64828:	112bc0cf          	fnmadd.s	f1,f23,f18,f2,rmm
    44c6482c:	0000                	.insn	2, 0x0000
    44c6482e:	0000                	.insn	2, 0x0000
    44c64830:	112bc4cf          	fnmadd.s	f9,f23,f18,f2,rmm
    44c64834:	0000                	.insn	2, 0x0000
    44c64836:	0000                	.insn	2, 0x0000
    44c64838:	112bc8cf          	fnmadd.s	f17,f23,f18,f2,rmm
    44c6483c:	0000                	.insn	2, 0x0000
    44c6483e:	0000                	.insn	2, 0x0000
    44c64840:	112bcccf          	fnmadd.s	f25,f23,f18,f2,rmm
    44c64844:	0000                	.insn	2, 0x0000
    44c64846:	0000                	.insn	2, 0x0000
    44c64848:	112bd0cf          	fnmadd.s	f1,f23,f18,f2,unknown
    44c6484c:	0000                	.insn	2, 0x0000
    44c6484e:	0000                	.insn	2, 0x0000
    44c64850:	112bd4cf          	fnmadd.s	f9,f23,f18,f2,unknown
    44c64854:	0000                	.insn	2, 0x0000
    44c64856:	0000                	.insn	2, 0x0000
    44c64858:	112bd8cf          	fnmadd.s	f17,f23,f18,f2,unknown
    44c6485c:	0000                	.insn	2, 0x0000
    44c6485e:	0000                	.insn	2, 0x0000
    44c64860:	112bdccf          	fnmadd.s	f25,f23,f18,f2,unknown
    44c64864:	0000                	.insn	2, 0x0000
    44c64866:	0000                	.insn	2, 0x0000
    44c64868:	112be0cf          	fnmadd.s	f1,f23,f18,f2,unknown
    44c6486c:	0000                	.insn	2, 0x0000
    44c6486e:	0000                	.insn	2, 0x0000
    44c64870:	112be4cf          	fnmadd.s	f9,f23,f18,f2,unknown
    44c64874:	0000                	.insn	2, 0x0000
    44c64876:	0000                	.insn	2, 0x0000
    44c64878:	112be8cf          	fnmadd.s	f17,f23,f18,f2,unknown
    44c6487c:	0000                	.insn	2, 0x0000
    44c6487e:	0000                	.insn	2, 0x0000
    44c64880:	112beccf          	fnmadd.s	f25,f23,f18,f2,unknown
    44c64884:	0000                	.insn	2, 0x0000
    44c64886:	0000                	.insn	2, 0x0000
    44c64888:	112bf0cf          	fnmadd.s	f1,f23,f18,f2
    44c6488c:	0000                	.insn	2, 0x0000
    44c6488e:	0000                	.insn	2, 0x0000
    44c64890:	112bf4cf          	fnmadd.s	f9,f23,f18,f2
    44c64894:	0000                	.insn	2, 0x0000
    44c64896:	0000                	.insn	2, 0x0000
    44c64898:	112bf8cf          	fnmadd.s	f17,f23,f18,f2
    44c6489c:	0000                	.insn	2, 0x0000
    44c6489e:	0000                	.insn	2, 0x0000
    44c648a0:	112bfccf          	fnmadd.s	f25,f23,f18,f2
    44c648a4:	0000                	.insn	2, 0x0000
    44c648a6:	0000                	.insn	2, 0x0000
    44c648a8:	00df 112c 0000      	.insn	6, 0x112c00df
    44c648ae:	0000                	.insn	2, 0x0000
    44c648b0:	04df 112c 0000      	.insn	6, 0x112c04df
    44c648b6:	0000                	.insn	2, 0x0000
    44c648b8:	08df 112c 0000      	.insn	6, 0x112c08df
    44c648be:	0000                	.insn	2, 0x0000
    44c648c0:	0cdf 112c 0000      	.insn	6, 0x112c0cdf
    44c648c6:	0000                	.insn	2, 0x0000
    44c648c8:	10df 112c 0000      	.insn	6, 0x112c10df
    44c648ce:	0000                	.insn	2, 0x0000
    44c648d0:	14df 112c 0000      	.insn	6, 0x112c14df
    44c648d6:	0000                	.insn	2, 0x0000
    44c648d8:	18df 112c 0000      	.insn	6, 0x112c18df
    44c648de:	0000                	.insn	2, 0x0000
    44c648e0:	1cdf 112c 0000      	.insn	6, 0x112c1cdf
    44c648e6:	0000                	.insn	2, 0x0000
    44c648e8:	20df 112c 0000      	.insn	6, 0x112c20df
    44c648ee:	0000                	.insn	2, 0x0000
    44c648f0:	24df 112c 0000      	.insn	6, 0x112c24df
    44c648f6:	0000                	.insn	2, 0x0000
    44c648f8:	28df 112c 0000      	.insn	6, 0x112c28df
    44c648fe:	0000                	.insn	2, 0x0000
    44c64900:	2cdf 112c 0000      	.insn	6, 0x112c2cdf
    44c64906:	0000                	.insn	2, 0x0000
    44c64908:	30df 112c 0000      	.insn	6, 0x112c30df
    44c6490e:	0000                	.insn	2, 0x0000
    44c64910:	34df 112c 0000      	.insn	6, 0x112c34df
    44c64916:	0000                	.insn	2, 0x0000
    44c64918:	38df 112c 0000      	.insn	6, 0x112c38df
    44c6491e:	0000                	.insn	2, 0x0000
    44c64920:	3cdf 112c 0000      	.insn	6, 0x112c3cdf
    44c64926:	0000                	.insn	2, 0x0000
    44c64928:	40df 112c 0000      	.insn	6, 0x112c40df
    44c6492e:	0000                	.insn	2, 0x0000
    44c64930:	44df 112c 0000      	.insn	6, 0x112c44df
    44c64936:	0000                	.insn	2, 0x0000
    44c64938:	48df 112c 0000      	.insn	6, 0x112c48df
    44c6493e:	0000                	.insn	2, 0x0000
    44c64940:	4cdf 112c 0000      	.insn	6, 0x112c4cdf
    44c64946:	0000                	.insn	2, 0x0000
    44c64948:	50df 112c 0000      	.insn	6, 0x112c50df
    44c6494e:	0000                	.insn	2, 0x0000
    44c64950:	54df 112c 0000      	.insn	6, 0x112c54df
    44c64956:	0000                	.insn	2, 0x0000
    44c64958:	58df 112c 0000      	.insn	6, 0x112c58df
    44c6495e:	0000                	.insn	2, 0x0000
    44c64960:	5cdf 112c 0000      	.insn	6, 0x112c5cdf
    44c64966:	0000                	.insn	2, 0x0000
    44c64968:	60df 112c 0000      	.insn	6, 0x112c60df
    44c6496e:	0000                	.insn	2, 0x0000
    44c64970:	64df 112c 0000      	.insn	6, 0x112c64df
    44c64976:	0000                	.insn	2, 0x0000
    44c64978:	68df 112c 0000      	.insn	6, 0x112c68df
    44c6497e:	0000                	.insn	2, 0x0000
    44c64980:	6cdf 112c 0000      	.insn	6, 0x112c6cdf
    44c64986:	0000                	.insn	2, 0x0000
    44c64988:	70df 112c 0000      	.insn	6, 0x112c70df
    44c6498e:	0000                	.insn	2, 0x0000
    44c64990:	74df 112c 0000      	.insn	6, 0x112c74df
    44c64996:	0000                	.insn	2, 0x0000
    44c64998:	78df 112c 0000      	.insn	6, 0x112c78df
    44c6499e:	0000                	.insn	2, 0x0000
    44c649a0:	7cdf 112c 0000      	.insn	6, 0x112c7cdf
    44c649a6:	0000                	.insn	2, 0x0000
    44c649a8:	80df 112c 0000      	.insn	6, 0x112c80df
    44c649ae:	0000                	.insn	2, 0x0000
    44c649b0:	84df 112c 0000      	.insn	6, 0x112c84df
    44c649b6:	0000                	.insn	2, 0x0000
    44c649b8:	88df 112c 0000      	.insn	6, 0x112c88df
    44c649be:	0000                	.insn	2, 0x0000
    44c649c0:	8cdf 112c 0000      	.insn	6, 0x112c8cdf
    44c649c6:	0000                	.insn	2, 0x0000
    44c649c8:	90df 112c 0000      	.insn	6, 0x112c90df
    44c649ce:	0000                	.insn	2, 0x0000
    44c649d0:	94df 112c 0000      	.insn	6, 0x112c94df
    44c649d6:	0000                	.insn	2, 0x0000
    44c649d8:	98df 112c 0000      	.insn	6, 0x112c98df
    44c649de:	0000                	.insn	2, 0x0000
    44c649e0:	9cdf 112c 0000      	.insn	6, 0x112c9cdf
    44c649e6:	0000                	.insn	2, 0x0000
    44c649e8:	a0df 112c 0000      	.insn	6, 0x112ca0df
    44c649ee:	0000                	.insn	2, 0x0000
    44c649f0:	a4df 112c 0000      	.insn	6, 0x112ca4df
    44c649f6:	0000                	.insn	2, 0x0000
    44c649f8:	a8df 112c 0000      	.insn	6, 0x112ca8df
    44c649fe:	0000                	.insn	2, 0x0000
    44c64a00:	acdf 112c 0000      	.insn	6, 0x112cacdf
    44c64a06:	0000                	.insn	2, 0x0000
    44c64a08:	b0df 112c 0000      	.insn	6, 0x112cb0df
    44c64a0e:	0000                	.insn	2, 0x0000
    44c64a10:	b4df 112c 0000      	.insn	6, 0x112cb4df
    44c64a16:	0000                	.insn	2, 0x0000
    44c64a18:	b8df 112c 0000      	.insn	6, 0x112cb8df
    44c64a1e:	0000                	.insn	2, 0x0000
    44c64a20:	bcdf 112c 0000      	.insn	6, 0x112cbcdf
    44c64a26:	0000                	.insn	2, 0x0000
    44c64a28:	c0df 112c 0000      	.insn	6, 0x112cc0df
    44c64a2e:	0000                	.insn	2, 0x0000
    44c64a30:	c4df 112c 0000      	.insn	6, 0x112cc4df
    44c64a36:	0000                	.insn	2, 0x0000
    44c64a38:	c8df 112c 0000      	.insn	6, 0x112cc8df
    44c64a3e:	0000                	.insn	2, 0x0000
    44c64a40:	ccdf 112c 0000      	.insn	6, 0x112cccdf
    44c64a46:	0000                	.insn	2, 0x0000
    44c64a48:	d0df 112c 0000      	.insn	6, 0x112cd0df
    44c64a4e:	0000                	.insn	2, 0x0000
    44c64a50:	d4df 112c 0000      	.insn	6, 0x112cd4df
    44c64a56:	0000                	.insn	2, 0x0000
    44c64a58:	d8df 112c 0000      	.insn	6, 0x112cd8df
    44c64a5e:	0000                	.insn	2, 0x0000
    44c64a60:	dcdf 112c 0000      	.insn	6, 0x112cdcdf
    44c64a66:	0000                	.insn	2, 0x0000
    44c64a68:	e0df 112c 0000      	.insn	6, 0x112ce0df
    44c64a6e:	0000                	.insn	2, 0x0000
    44c64a70:	e4df 112c 0000      	.insn	6, 0x112ce4df
    44c64a76:	0000                	.insn	2, 0x0000
    44c64a78:	e8df 112c 0000      	.insn	6, 0x112ce8df
    44c64a7e:	0000                	.insn	2, 0x0000
    44c64a80:	ecdf 112c 0000      	.insn	6, 0x112cecdf
    44c64a86:	0000                	.insn	2, 0x0000
    44c64a88:	f0df 112c 0000      	.insn	6, 0x112cf0df
    44c64a8e:	0000                	.insn	2, 0x0000
    44c64a90:	f4df 112c 0000      	.insn	6, 0x112cf4df
    44c64a96:	0000                	.insn	2, 0x0000
    44c64a98:	f8df 112c 0000      	.insn	6, 0x112cf8df
    44c64a9e:	0000                	.insn	2, 0x0000
    44c64aa0:	fcdf 112c 0000      	.insn	6, 0x112cfcdf
    44c64aa6:	0000                	.insn	2, 0x0000
    44c64aa8:	00df 112d 0000      	.insn	6, 0x112d00df
    44c64aae:	0000                	.insn	2, 0x0000
    44c64ab0:	04df 112d 0000      	.insn	6, 0x112d04df
    44c64ab6:	0000                	.insn	2, 0x0000
    44c64ab8:	08df 112d 0000      	.insn	6, 0x112d08df
    44c64abe:	0000                	.insn	2, 0x0000
    44c64ac0:	0cdf 112d 0000      	.insn	6, 0x112d0cdf
    44c64ac6:	0000                	.insn	2, 0x0000
    44c64ac8:	10df 112d 0000      	.insn	6, 0x112d10df
    44c64ace:	0000                	.insn	2, 0x0000
    44c64ad0:	14df 112d 0000      	.insn	6, 0x112d14df
    44c64ad6:	0000                	.insn	2, 0x0000
    44c64ad8:	18df 112d 0000      	.insn	6, 0x112d18df
    44c64ade:	0000                	.insn	2, 0x0000
    44c64ae0:	1cdf 112d 0000      	.insn	6, 0x112d1cdf
    44c64ae6:	0000                	.insn	2, 0x0000
    44c64ae8:	20df 112d 0000      	.insn	6, 0x112d20df
    44c64aee:	0000                	.insn	2, 0x0000
    44c64af0:	24df 112d 0000      	.insn	6, 0x112d24df
    44c64af6:	0000                	.insn	2, 0x0000
    44c64af8:	28df 112d 0000      	.insn	6, 0x112d28df
    44c64afe:	0000                	.insn	2, 0x0000
    44c64b00:	2cdf 112d 0000      	.insn	6, 0x112d2cdf
    44c64b06:	0000                	.insn	2, 0x0000
    44c64b08:	30df 112d 0000      	.insn	6, 0x112d30df
    44c64b0e:	0000                	.insn	2, 0x0000
    44c64b10:	34df 112d 0000      	.insn	6, 0x112d34df
    44c64b16:	0000                	.insn	2, 0x0000
    44c64b18:	38df 112d 0000      	.insn	6, 0x112d38df
    44c64b1e:	0000                	.insn	2, 0x0000
    44c64b20:	3cdf 112d 0000      	.insn	6, 0x112d3cdf
    44c64b26:	0000                	.insn	2, 0x0000
    44c64b28:	40df 112d 0000      	.insn	6, 0x112d40df
    44c64b2e:	0000                	.insn	2, 0x0000
    44c64b30:	44df 112d 0000      	.insn	6, 0x112d44df
    44c64b36:	0000                	.insn	2, 0x0000
    44c64b38:	48df 112d 0000      	.insn	6, 0x112d48df
    44c64b3e:	0000                	.insn	2, 0x0000
    44c64b40:	4cdf 112d 0000      	.insn	6, 0x112d4cdf
    44c64b46:	0000                	.insn	2, 0x0000
    44c64b48:	50df 112d 0000      	.insn	6, 0x112d50df
    44c64b4e:	0000                	.insn	2, 0x0000
    44c64b50:	54df 112d 0000      	.insn	6, 0x112d54df
    44c64b56:	0000                	.insn	2, 0x0000
    44c64b58:	58df 112d 0000      	.insn	6, 0x112d58df
    44c64b5e:	0000                	.insn	2, 0x0000
    44c64b60:	5cdf 112d 0000      	.insn	6, 0x112d5cdf
    44c64b66:	0000                	.insn	2, 0x0000
    44c64b68:	60df 112d 0000      	.insn	6, 0x112d60df
    44c64b6e:	0000                	.insn	2, 0x0000
    44c64b70:	64df 112d 0000      	.insn	6, 0x112d64df
    44c64b76:	0000                	.insn	2, 0x0000
    44c64b78:	68df 112d 0000      	.insn	6, 0x112d68df
    44c64b7e:	0000                	.insn	2, 0x0000
    44c64b80:	6cdf 112d 0000      	.insn	6, 0x112d6cdf
    44c64b86:	0000                	.insn	2, 0x0000
    44c64b88:	70df 112d 0000      	.insn	6, 0x112d70df
    44c64b8e:	0000                	.insn	2, 0x0000
    44c64b90:	74df 112d 0000      	.insn	6, 0x112d74df
    44c64b96:	0000                	.insn	2, 0x0000
    44c64b98:	78df 112d 0000      	.insn	6, 0x112d78df
    44c64b9e:	0000                	.insn	2, 0x0000
    44c64ba0:	7cdf 112d 0000      	.insn	6, 0x112d7cdf
    44c64ba6:	0000                	.insn	2, 0x0000
    44c64ba8:	80df 112d 0000      	.insn	6, 0x112d80df
    44c64bae:	0000                	.insn	2, 0x0000
    44c64bb0:	84df 112d 0000      	.insn	6, 0x112d84df
    44c64bb6:	0000                	.insn	2, 0x0000
    44c64bb8:	88df 112d 0000      	.insn	6, 0x112d88df
    44c64bbe:	0000                	.insn	2, 0x0000
    44c64bc0:	8cdf 112d 0000      	.insn	6, 0x112d8cdf
    44c64bc6:	0000                	.insn	2, 0x0000
    44c64bc8:	90df 112d 0000      	.insn	6, 0x112d90df
    44c64bce:	0000                	.insn	2, 0x0000
    44c64bd0:	94df 112d 0000      	.insn	6, 0x112d94df
    44c64bd6:	0000                	.insn	2, 0x0000
    44c64bd8:	98df 112d 0000      	.insn	6, 0x112d98df
    44c64bde:	0000                	.insn	2, 0x0000
    44c64be0:	9cdf 112d 0000      	.insn	6, 0x112d9cdf
    44c64be6:	0000                	.insn	2, 0x0000
    44c64be8:	a0df 112d 0000      	.insn	6, 0x112da0df
    44c64bee:	0000                	.insn	2, 0x0000
    44c64bf0:	a4df 112d 0000      	.insn	6, 0x112da4df
    44c64bf6:	0000                	.insn	2, 0x0000
    44c64bf8:	a8df 112d 0000      	.insn	6, 0x112da8df
    44c64bfe:	0000                	.insn	2, 0x0000
    44c64c00:	acdf 112d 0000      	.insn	6, 0x112dacdf
    44c64c06:	0000                	.insn	2, 0x0000
    44c64c08:	b0df 112d 0000      	.insn	6, 0x112db0df
    44c64c0e:	0000                	.insn	2, 0x0000
    44c64c10:	b4df 112d 0000      	.insn	6, 0x112db4df
    44c64c16:	0000                	.insn	2, 0x0000
    44c64c18:	b8df 112d 0000      	.insn	6, 0x112db8df
    44c64c1e:	0000                	.insn	2, 0x0000
    44c64c20:	bcdf 112d 0000      	.insn	6, 0x112dbcdf
    44c64c26:	0000                	.insn	2, 0x0000
    44c64c28:	c0df 112d 0000      	.insn	6, 0x112dc0df
    44c64c2e:	0000                	.insn	2, 0x0000
    44c64c30:	c4df 112d 0000      	.insn	6, 0x112dc4df
    44c64c36:	0000                	.insn	2, 0x0000
    44c64c38:	c8df 112d 0000      	.insn	6, 0x112dc8df
    44c64c3e:	0000                	.insn	2, 0x0000
    44c64c40:	ccdf 112d 0000      	.insn	6, 0x112dccdf
    44c64c46:	0000                	.insn	2, 0x0000
    44c64c48:	d0df 112d 0000      	.insn	6, 0x112dd0df
    44c64c4e:	0000                	.insn	2, 0x0000
    44c64c50:	d4df 112d 0000      	.insn	6, 0x112dd4df
    44c64c56:	0000                	.insn	2, 0x0000
    44c64c58:	d8df 112d 0000      	.insn	6, 0x112dd8df
    44c64c5e:	0000                	.insn	2, 0x0000
    44c64c60:	dcdf 112d 0000      	.insn	6, 0x112ddcdf
    44c64c66:	0000                	.insn	2, 0x0000
    44c64c68:	e0df 112d 0000      	.insn	6, 0x112de0df
    44c64c6e:	0000                	.insn	2, 0x0000
    44c64c70:	e4df 112d 0000      	.insn	6, 0x112de4df
    44c64c76:	0000                	.insn	2, 0x0000
    44c64c78:	e8df 112d 0000      	.insn	6, 0x112de8df
    44c64c7e:	0000                	.insn	2, 0x0000
    44c64c80:	ecdf 112d 0000      	.insn	6, 0x112decdf
    44c64c86:	0000                	.insn	2, 0x0000
    44c64c88:	f0df 112d 0000      	.insn	6, 0x112df0df
    44c64c8e:	0000                	.insn	2, 0x0000
    44c64c90:	f4df 112d 0000      	.insn	6, 0x112df4df
    44c64c96:	0000                	.insn	2, 0x0000
    44c64c98:	f8df 112d 0000      	.insn	6, 0x112df8df
    44c64c9e:	0000                	.insn	2, 0x0000
    44c64ca0:	fcdf 112d 0000      	.insn	6, 0x112dfcdf
	...

Disassembly of section .__pagetable_map_os_0x0000000041ecf000:

0000000041ecf000 <__pagetable_map_os_0x0000000041ecf000>:
	...
    41ecf0b0:	113004cf          	fnmadd.s	f9,f0,f19,f2,rne
    41ecf0b4:	0000                	.insn	2, 0x0000
	...

Disassembly of section .__pagetable_map_os_0x00000000431ce000:

00000000431ce000 <__pagetable_map_os_0x00000000431ce000>:
	...
    431ced20:	90df 109e 0000      	.insn	6, 0x109e90df
	...

Disassembly of section .__pagetable_map_os_0x00000000412af000:

00000000412af000 <__pagetable_map_os_0x00000000412af000>:
	...
    412af570:	7801                	.insn	2, 0x7801
    412af572:	00001133          	sll	x2,x0,x0
	...

Disassembly of section .__pagetable_map_os_0x0000000044cde000:

0000000044cde000 <__pagetable_map_os_0x0000000044cde000>:
	...
    44cde7d0:	28df 1135 0000      	.insn	6, 0x113528df
    44cde7d6:	0000                	.insn	2, 0x0000
    44cde7d8:	2cdf 1135 0000      	.insn	6, 0x11352cdf
	...

Disassembly of section .__pagetable_map_os_0x0000000044c34000:

0000000044c34000 <__pagetable_map_os_0x0000000044c34000>:
    44c34000:	3401                	.insn	2, 0x3401
    44c34002:	113a                	.insn	2, 0x113a
    44c34004:	0000                	.insn	2, 0x0000
    44c34006:	0000                	.insn	2, 0x0000
    44c34008:	b401                	.insn	2, 0xb401
    44c3400a:	10b2                	.insn	2, 0x10b2
	...
    44c34048:	4001                	.insn	2, 0x4001
    44c3404a:	1130                	.insn	2, 0x1130
	...
    44c340b8:	a801                	.insn	2, 0xa801
    44c340ba:	1055                	.insn	2, 0x1055
	...
    44c340f0:	4001                	.insn	2, 0x4001
    44c340f2:	0000107b          	.insn	4, 0x107b
	...
    44c34fd6:	0000                	.insn	2, 0x0000
    44c34fd8:	c801                	.insn	2, 0xc801
    44c34fda:	10b6                	.insn	2, 0x10b6
    44c34fdc:	0000                	.insn	2, 0x0000
	...

Disassembly of section .__pagetable_map_os_0x0000000044e8d000:

0000000044e8d000 <__pagetable_map_os_0x0000000044e8d000>:
	...
    44e8d020:	1131ccd7          	vminu.vx	v25,v19,x3,v0.t
	...
    44e8d040:	40df 1140 0000      	.insn	6, 0x114040df
    44e8d046:	0000                	.insn	2, 0x0000
    44e8d048:	44df 1140 0000      	.insn	6, 0x114044df
	...
    44e8d366:	0000                	.insn	2, 0x0000
    44e8d368:	107ba4d7          	vredminu.vs	v9,v7,v23,v0.t
    44e8d36c:	0000                	.insn	2, 0x0000
	...

Disassembly of section .__pagetable_map_os_0x0000000042db2000:

0000000042db2000 <__pagetable_map_os_0x0000000042db2000>:
	...
    42db2898:	11318cd7          	vminu.vv	v25,v19,v3,v0.t
    42db289c:	0000                	.insn	2, 0x0000
	...

Disassembly of section .__pagetable_map_os_0x0000000041ed0000:

0000000041ed0000 <__pagetable_map_os_0x0000000041ed0000>:
	...
    41ed01f8:	113948d7          	vminu.vx	v17,v19,x18,v0.t
    41ed01fc:	0000                	.insn	2, 0x0000
	...

Disassembly of section .__pagetable_map_os_0x0000000042cad000:

0000000042cad000 <__pagetable_map_os_0x0000000042cad000>:
	...
    42cad9e8:	1130d4d7          	vfmin.vf	v9,v19,f1,v0.t
    42cad9ec:	0000                	.insn	2, 0x0000
	...

Disassembly of section .__pagetable_map_os_0x000000004156a000:

000000004156a000 <__pagetable_map_os_0x000000004156a000>:
	...
    4156a5a0:	11407cd7          	vsetvli	x25,x0,276
	...
    4156a5b0:	107aa0d7          	vredminu.vs	v1,v7,v21,v0.t
    4156a5b4:	0000                	.insn	2, 0x0000
	...

Disassembly of section .__pagetable_map_os_0x0000000044c10000:

0000000044c10000 <__pagetable_map_os_0x0000000044c10000>:
	...
    44c101d0:	1134fcd7          	vsetvli	x25,x9,275
    44c101d4:	0000                	.insn	2, 0x0000
	...

Disassembly of section .__pagetable_map_os_0x0000000044c26000:

0000000044c26000 <__pagetable_map_os_0x0000000044c26000>:
	...
    44c26670:	6001                	.insn	2, 0x6001
    44c26672:	00001133          	sll	x2,x0,x0
	...

Disassembly of section .__pagetable_map_os_0x0000000044cd8000:

0000000044cd8000 <__pagetable_map_os_0x0000000044cd8000>:
	...
    44cd8720:	2cdf 1058 0000      	.insn	6, 0x10582cdf
	...

Disassembly of section .__pagetable_map_os_0x00000000415cf000:

00000000415cf000 <__pagetable_map_os_0x00000000415cf000>:
	...
    415cf630:	3001                	.insn	2, 0x3001
    415cf632:	1138                	.insn	2, 0x1138
    415cf634:	0000                	.insn	2, 0x0000
	...

Disassembly of section .__pagetable_map_os_0x0000000044e0c000:

0000000044e0c000 <__pagetable_map_os_0x0000000044e0c000>:
	...
    44e0c9c0:	1134f8d7          	vsetvli	x17,x9,275
    44e0c9c4:	0000                	.insn	2, 0x0000
	...

Disassembly of section .__pagetable_map_os_0x0000000044e8e000:

0000000044e8e000 <__pagetable_map_os_0x0000000044e8e000>:
	...
    44e8eca8:	1c01                	.insn	2, 0x1c01
    44e8ecaa:	1135                	.insn	2, 0x1135
    44e8ecac:	0000                	.insn	2, 0x0000
	...

Disassembly of section .__pagetable_map_os_0x0000000044d47000:

0000000044d47000 <__pagetable_map_os_0x0000000044d47000>:
	...
    44d47348:	105290d7          	vfmin.vv	v1,v5,v5,v0.t
    44d4734c:	0000                	.insn	2, 0x0000
	...

Disassembly of section .__pagetable_map_os_0x0000000045018000:

0000000045018000 <__pagetable_map_os_0x0000000045018000>:
	...
    45018170:	2401                	.insn	2, 0x2401
    45018172:	1135                	.insn	2, 0x1135
    45018174:	0000                	.insn	2, 0x0000
	...

Disassembly of section .__pagetable_map_os_0x0000000044d49000:

0000000044d49000 <__pagetable_map_os_0x0000000044d49000>:
	...
    44d49e58:	113074d7          	vsetvli	x9,x0,275
    44d49e5c:	0000                	.insn	2, 0x0000
	...

Disassembly of section .__pagetable_map_os_0x0000000044e55000:

0000000044e55000 <__pagetable_map_os_0x0000000044e55000>:
	...
    44e557a0:	3c01                	.insn	2, 0x3c01
    44e557a2:	113a                	.insn	2, 0x113a
    44e557a4:	0000                	.insn	2, 0x0000
	...

Disassembly of section .__pagetable_map_os_0x0000000044e8f000:

0000000044e8f000 <__pagetable_map_os_0x0000000044e8f000>:
	...
    44e8f4a0:	1130c4d7          	vminu.vx	v9,v19,x1,v0.t
    44e8f4a4:	0000                	.insn	2, 0x0000
	...

Disassembly of section .__pagetable_map_os_0x0000000044f9b000:

0000000044f9b000 <__pagetable_map_os_0x0000000044f9b000>:
	...
    44f9b320:	ec01                	.insn	2, 0xec01
    44f9b322:	00001053          	fadd.s	f0,f0,f0,rtz
	...

Disassembly of section .__pagetable_map_os_0x00000000414fb000:

00000000414fb000 <__pagetable_map_os_0x00000000414fb000>:
	...
    414fbcd0:	7c01                	.insn	2, 0x7c01
    414fbcd2:	110e                	.insn	2, 0x110e
    414fbcd4:	0000                	.insn	2, 0x0000
	...

Disassembly of section .__pagetable_map_os_0x000000004439f000:

000000004439f000 <__pagetable_map_os_0x000000004439f000>:
	...
    4439fe90:	e4df 1134 0000      	.insn	6, 0x1134e4df
	...

Disassembly of section .__pagetable_map_os_0x0000000041efb000:

0000000041efb000 <__pagetable_map_os_0x0000000041efb000>:
	...
    41efbed8:	4c01                	.insn	2, 0x4c01
    41efbeda:	00001133          	sll	x2,x0,x0
	...

Disassembly of section .__pagetable_map_os_0x0000000044cd3000:

0000000044cd3000 <__pagetable_map_os_0x0000000044cd3000>:
	...
    44cd3608:	f801                	.insn	2, 0xf801
    44cd360a:	1140                	.insn	2, 0x1140
    44cd360c:	0000                	.insn	2, 0x0000
	...

Disassembly of section .__pagetable_map_os_0x000000004503e000:

000000004503e000 <__pagetable_map_os_0x000000004503e000>:
	...
    4503ec10:	10e084d7          	vminu.vv	v9,v14,v1,v0.t
    4503ec14:	0000                	.insn	2, 0x0000
	...

Disassembly of section .__pagetable_map_os_0x0000000041604000:

0000000041604000 <__pagetable_map_os_0x0000000041604000>:
	...
    41604a40:	2801                	.insn	2, 0x2801
    41604a42:	105a                	.insn	2, 0x105a
    41604a44:	0000                	.insn	2, 0x0000
	...

Disassembly of section .__pagetable_map_os_0x000000004168a000:

000000004168a000 <__pagetable_map_os_0x000000004168a000>:
	...
    4168a6a0:	b801                	.insn	2, 0xb801
    4168a6a2:	10b2                	.insn	2, 0x10b2
    4168a6a4:	0000                	.insn	2, 0x0000
	...

Disassembly of section .__pagetable_map_os_0x0000000042cae000:

0000000042cae000 <__pagetable_map_os_0x0000000042cae000>:
	...
    42caeaf8:	107c14d7          	vfmin.vv	v9,v7,v24,v0.t
    42caeafc:	0000                	.insn	2, 0x0000
	...

Disassembly of section .__pagetable_map_os_0x0000000044cea000:

0000000044cea000 <__pagetable_map_os_0x0000000044cea000>:
	...
    44cea858:	e001                	.insn	2, 0xe001
    44cea85a:	10ae                	.insn	2, 0x10ae
    44cea85c:	0000                	.insn	2, 0x0000
	...

Disassembly of section .__pagetable_map_os_0x0000000042bb8000:

0000000042bb8000 <__pagetable_map_os_0x0000000042bb8000>:
	...
    42bb8548:	2001                	.insn	2, 0x2001
    42bb854a:	1135                	.insn	2, 0x1135
    42bb854c:	0000                	.insn	2, 0x0000
	...

Disassembly of section .__pagetable_map_os_0x0000000044d48000:

0000000044d48000 <__pagetable_map_os_0x0000000044d48000>:
	...
    44d48978:	8c01                	.insn	2, 0x8c01
    44d4897a:	1138                	.insn	2, 0x1138
    44d4897c:	0000                	.insn	2, 0x0000
	...

Disassembly of section .__pagetable_map_os_0x0000000044e23000:

0000000044e23000 <__pagetable_map_os_0x0000000044e23000>:
	...
    44e23720:	1134e0d7          	.insn	4, 0x1134e0d7
    44e23724:	0000                	.insn	2, 0x0000
	...

Disassembly of section .__pagetable_map_os_0x00000000447e4000:

00000000447e4000 <__pagetable_map_os_0x00000000447e4000>:
	...
    447e4120:	f001                	.insn	2, 0xf001
    447e4122:	00001053          	fadd.s	f0,f0,f0,rtz
	...

Disassembly of section .__pagetable_map_os_0x00000000414fc000:

00000000414fc000 <__pagetable_map_os_0x00000000414fc000>:
	...
    414fcea0:	4801                	.insn	2, 0x4801
    414fcea2:	1140                	.insn	2, 0x1140
    414fcea4:	0000                	.insn	2, 0x0000
	...

Disassembly of section .__pagetable_map_os_0x0000000045012000:

0000000045012000 <__pagetable_map_os_0x0000000045012000>:
	...
    45012fd8:	d001                	.insn	2, 0xd001
    45012fda:	1131                	.insn	2, 0x1131
    45012fdc:	0000                	.insn	2, 0x0000
	...

Disassembly of section .__pagetable_map_os_0x0000000044c74000:

0000000044c74000 <__pagetable_map_os_0x0000000044c74000>:
	...
    44c74f30:	1130bcd7          	.insn	4, 0x1130bcd7
    44c74f34:	0000                	.insn	2, 0x0000
	...

Disassembly of section .__pagetable_map_os_0x0000000042d1d000:

0000000042d1d000 <__pagetable_map_os_0x0000000042d1d000>:
	...
    42d1d5b0:	1401                	.insn	2, 0x1401
    42d1d5b2:	1139                	.insn	2, 0x1139
    42d1d5b4:	0000                	.insn	2, 0x0000
	...

Disassembly of section .__pagetable_map_os_0x0000000044e45000:

0000000044e45000 <__pagetable_map_os_0x0000000044e45000>:
	...
    44e457b0:	2001                	.insn	2, 0x2001
    44e457b2:	1139                	.insn	2, 0x1139
    44e457b4:	0000                	.insn	2, 0x0000
	...

Disassembly of section .__pagetable_map_os_0x0000000044e48000:

0000000044e48000 <__pagetable_map_os_0x0000000044e48000>:
	...
    44e48b80:	1801                	.insn	2, 0x1801
    44e48b82:	1139                	.insn	2, 0x1139
    44e48b84:	0000                	.insn	2, 0x0000
	...

Disassembly of section .__pagetable_map_os_0x0000000044e46000:

0000000044e46000 <__pagetable_map_os_0x0000000044e46000>:
	...
    44e46e60:	113208d7          	vminu.vv	v17,v19,v4,v0.t
    44e46e64:	0000                	.insn	2, 0x0000
	...

Disassembly of section .__pagetable_map_os_0x0000000044cd4000:

0000000044cd4000 <__pagetable_map_os_0x0000000044cd4000>:
	...
    44cd4eb0:	cc01                	.insn	2, 0xcc01
    44cd4eb2:	107a                	.insn	2, 0x107a
    44cd4eb4:	0000                	.insn	2, 0x0000
	...

Disassembly of section .__pagetable_map_os_0x0000000041eb3000:

0000000041eb3000 <__pagetable_map_os_0x0000000041eb3000>:
	...
    41eb3da0:	8401                	.insn	2, 0x8401
    41eb3da2:	00001133          	sll	x2,x0,x0
	...

Disassembly of section .__pagetable_map_os_0x0000000044ce1000:

0000000044ce1000 <__pagetable_map_os_0x0000000044ce1000>:
	...
    44ce1b28:	ac01                	.insn	2, 0xac01
    44ce1b2a:	00001133          	sll	x2,x0,x0
	...

Disassembly of section .__pagetable_map_os_0x0000000044ceb000:

0000000044ceb000 <__pagetable_map_os_0x0000000044ceb000>:
	...
    44ceb358:	1134e8d7          	.insn	4, 0x1134e8d7
    44ceb35c:	0000                	.insn	2, 0x0000
	...

Disassembly of section .__pagetable_map_os_0x0000000044e58000:

0000000044e58000 <__pagetable_map_os_0x0000000044e58000>:
	...
    44e58b98:	6401                	.insn	2, 0x6401
    44e58b9a:	1056                	.insn	2, 0x1056
    44e58b9c:	0000                	.insn	2, 0x0000
	...

Disassembly of section .__pagetable_map_os_0x0000000041599000:

0000000041599000 <__pagetable_map_os_0x0000000041599000>:
	...
    415994e0:	ac01                	.insn	2, 0xac01
    415994e2:	1130                	.insn	2, 0x1130
    415994e4:	0000                	.insn	2, 0x0000
	...

Disassembly of section .__pagetable_map_os_0x0000000044c2b000:

0000000044c2b000 <__pagetable_map_os_0x0000000044c2b000>:
	...
    44c2b080:	b401                	.insn	2, 0xb401
    44c2b082:	1132                	.insn	2, 0x1132
    44c2b084:	0000                	.insn	2, 0x0000
	...

Disassembly of section .__pagetable_map_os_0x0000000044cad000:

0000000044cad000 <__pagetable_map_os_0x0000000044cad000>:
	...
    44cad958:	1134ecd7          	.insn	4, 0x1134ecd7
    44cad95c:	0000                	.insn	2, 0x0000
	...
