
/home/abdullah/RiescueC/riescue/10x_R/hypervisor_exceptions/testsuite/hypervisor_exceptions/virtualized/super_sv48_gdisable/tp_hypervisor_exceptions_1:     file format elf64-littleriscv


Disassembly of section .runtime:

0000000041000000 <_start>:
    41000000:	00000093          	li	x1,0
    41000004:	00000113          	li	x2,0
    41000008:	00000193          	li	x3,0
    4100000c:	00000213          	li	x4,0
    41000010:	00000293          	li	x5,0
    41000014:	00000313          	li	x6,0
    41000018:	00000393          	li	x7,0
    4100001c:	00000413          	li	x8,0
    41000020:	00000493          	li	x9,0
    41000024:	00000513          	li	x10,0
    41000028:	00000593          	li	x11,0
    4100002c:	00000613          	li	x12,0
    41000030:	00000693          	li	x13,0
    41000034:	00000713          	li	x14,0
    41000038:	00000793          	li	x15,0
    4100003c:	00000813          	li	x16,0
    41000040:	00000893          	li	x17,0
    41000044:	00000913          	li	x18,0
    41000048:	00000993          	li	x19,0
    4100004c:	00000a13          	li	x20,0
    41000050:	00000a93          	li	x21,0
    41000054:	00000b13          	li	x22,0
    41000058:	00000b93          	li	x23,0
    4100005c:	00000c13          	li	x24,0
    41000060:	00000c93          	li	x25,0
    41000064:	00000d13          	li	x26,0
    41000068:	00000d93          	li	x27,0
    4100006c:	00000e13          	li	x28,0
    41000070:	00000e93          	li	x29,0
    41000074:	00000f13          	li	x30,0
    41000078:	00000f93          	li	x31,0

000000004100007c <loader__load_panic_address>:
    4100007c:	00001297          	auipc	x5,0x1
    41000080:	a8828293          	addi	x5,x5,-1400 # 41000b04 <eot__failed>
    41000084:	30529073          	csrw	mtvec,x5

0000000041000088 <loader__initialize_runtime>:
    41000088:	00000293          	li	x5,0
    4100008c:	3012a2f3          	csrrs	x5,misa,x5

0000000041000090 <loader__set_mstatus>:
    41000090:	000402b7          	lui	x5,0x40
    41000094:	00a2829b          	addiw	x5,x5,10 # 4000a <pma_region_0_size+0xa>
    41000098:	3002a2f3          	csrrs	x5,mstatus,x5
    4100009c:	44fea237          	lui	x4,0x44fea
    410000a0:	34021073          	csrw	mscratch,x4
    410000a4:	00002237          	lui	x4,0x2
    410000a8:	24021073          	csrw	vsscratch,x4
    410000ac:	44fea237          	lui	x4,0x44fea

00000000410000b0 <loader__setup_menvcfg>:
    410000b0:	00000297          	auipc	x5,0x0
    410000b4:	53c28293          	addi	x5,x5,1340 # 410005ec <trap_handler_m__trap_entry>
    410000b8:	30529073          	csrw	mtvec,x5

00000000410000bc <setup_vmm>:
    410000bc:	00000013          	nop

00000000410000c0 <setup_hedeleg>:
    410000c0:	00f9d2b7          	lui	x5,0xf9d
    410000c4:	8592829b          	addiw	x5,x5,-1959 # f9c859 <SID_HEXCEP_19_misaligned_sc_delegated_stack+0xca7859>
    410000c8:	00c29293          	slli	x5,x5,0xc
    410000cc:	04328293          	addi	x5,x5,67
    410000d0:	00e29293          	slli	x5,x5,0xe
    410000d4:	03928293          	addi	x5,x5,57
    410000d8:	00d29293          	slli	x5,x5,0xd
    410000dc:	08c28293          	addi	x5,x5,140
    410000e0:	60229073          	csrw	hedeleg,x5

00000000410000e4 <setup_hideleg>:
    410000e4:	fff00293          	li	x5,-1
    410000e8:	60329073          	csrw	hideleg,x5

00000000410000ec <setup_henvcfg>:
    410000ec:	00000293          	li	x5,0
    410000f0:	60a29073          	csrw	henvcfg,x5
    410000f4:	00010297          	auipc	x5,0x10
    410000f8:	32c28293          	addi	x5,x5,812 # 41010420 <trap_handler_hs__trap_handler>
    410000fc:	10529073          	csrw	stvec,x5
    41000100:	e4b0029b          	addiw	x5,x0,-437
    41000104:	02a29293          	slli	x5,x5,0x2a
    41000108:	04128293          	addi	x5,x5,65
    4100010c:	00c29293          	slli	x5,x5,0xc
    41000110:	30028293          	addi	x5,x5,768
    41000114:	28029073          	csrw	vsatp,x5
    41000118:	200022f3          	csrr	x5,vsstatus
    4100011c:	00042337          	lui	x6,0x42
    41000120:	2003031b          	addiw	x6,x6,512 # 42200 <pma_region_0_size+0x2200>
    41000124:	0062e2b3          	or	x5,x5,x6
    41000128:	20029073          	csrw	vsstatus,x5

000000004100012c <loader__enable_paging>:
    4100012c:	fffc80b7          	lui	x1,0xfffc8
    41000130:	05b0809b          	addiw	x1,x1,91 # fffffffffffc805b <SID_HEXCEP_05_stack+0xffff9499bbeea05b>
    41000134:	02109093          	slli	x1,x1,0x21
    41000138:	04108093          	addi	x1,x1,65
    4100013c:	00c09093          	slli	x1,x1,0xc
    41000140:	30008093          	addi	x1,x1,768
    41000144:	18009073          	csrw	satp,x1

0000000041000148 <loader__done>:
    41000148:	1e50006f          	j	41000b2c <scheduler__init>

000000004100014c <loader__panic>:
    4100014c:	1b90006f          	j	41000b04 <eot__failed>

0000000041000150 <syscalls__syscall_check_schedule_next_test>:
    41000150:	00f0029b          	addiw	x5,x0,15
    41000154:	01c29293          	slli	x5,x5,0x1c
    41000158:	00128293          	addi	x5,x5,1
    4100015c:	01f29a63          	bne	x5,x31,41000170 <syscalls__syscall_check_fail_test>
    41000160:	00000317          	auipc	x6,0x0
    41000164:	48c30313          	addi	x6,x6,1164 # 410005ec <trap_handler_m__trap_entry>
    41000168:	30531073          	csrw	mtvec,x6
    4100016c:	6c40006f          	j	41000830 <enter_scheduler>

0000000041000170 <syscalls__syscall_check_fail_test>:
    41000170:	00f0029b          	addiw	x5,x0,15
    41000174:	01c29293          	slli	x5,x5,0x1c
    41000178:	00228293          	addi	x5,x5,2
    4100017c:	01f29a63          	bne	x5,x31,41000190 <syscalls__syscall_check_end_test_without_failure>
    41000180:	00000317          	auipc	x6,0x0
    41000184:	46c30313          	addi	x6,x6,1132 # 410005ec <trap_handler_m__trap_entry>
    41000188:	30531073          	csrw	mtvec,x6
    4100018c:	6d40006f          	j	41000860 <test_failed>

0000000041000190 <syscalls__syscall_check_end_test_without_failure>:
    41000190:	00f0029b          	addiw	x5,x0,15
    41000194:	01c29293          	slli	x5,x5,0x1c
    41000198:	00328293          	addi	x5,x5,3
    4100019c:	01f29a63          	bne	x5,x31,410001b0 <syscalls__syscall_check_switch_machine_mode>
    410001a0:	00000317          	auipc	x6,0x0
    410001a4:	44c30313          	addi	x6,x6,1100 # 410005ec <trap_handler_m__trap_entry>
    410001a8:	30531073          	csrw	mtvec,x6
    410001ac:	6c00006f          	j	4100086c <os_end_test>

00000000410001b0 <syscalls__syscall_check_switch_machine_mode>:
    410001b0:	000f02b7          	lui	x5,0xf0
    410001b4:	0012829b          	addiw	x5,x5,1 # f0001 <mem7+0x54001>
    410001b8:	00c29293          	slli	x5,x5,0xc
    410001bc:	00128293          	addi	x5,x5,1
    410001c0:	0a5f8463          	beq	x31,x5,41000268 <syscalls__os_fn_f0001001>

00000000410001c4 <syscalls__syscall_check_switch_super_mode>:
    410001c4:	000f02b7          	lui	x5,0xf0
    410001c8:	0012829b          	addiw	x5,x5,1 # f0001 <mem7+0x54001>
    410001cc:	00c29293          	slli	x5,x5,0xc
    410001d0:	00228293          	addi	x5,x5,2
    410001d4:	0c5f8063          	beq	x31,x5,41000294 <syscalls__os_fn_f0001002>

00000000410001d8 <syscalls__syscall_check_switch_user_mode>:
    410001d8:	000f02b7          	lui	x5,0xf0
    410001dc:	0012829b          	addiw	x5,x5,1 # f0001 <mem7+0x54001>
    410001e0:	00c29293          	slli	x5,x5,0xc
    410001e4:	00328293          	addi	x5,x5,3
    410001e8:	0c5f8e63          	beq	x31,x5,410002c4 <syscalls__os_fn_f0001003>

00000000410001ec <syscalls__syscall_check_switch_test_mode>:
    410001ec:	000f02b7          	lui	x5,0xf0
    410001f0:	0012829b          	addiw	x5,x5,1 # f0001 <mem7+0x54001>
    410001f4:	00c29293          	slli	x5,x5,0xc
    410001f8:	00428293          	addi	x5,x5,4
    410001fc:	0e5f8863          	beq	x31,x5,410002ec <syscalls__os_fn_f0001004>

0000000041000200 <syscalls__syscall_machine_csr_rw>:
    41000200:	000f02b7          	lui	x5,0xf0
    41000204:	0012829b          	addiw	x5,x5,1 # f0001 <mem7+0x54001>
    41000208:	00c29293          	slli	x5,x5,0xc
    4100020c:	00528293          	addi	x5,x5,5
    41000210:	105f8463          	beq	x31,x5,41000318 <syscalls__os_fn_f0001005>

0000000041000214 <syscalls__syscall_supervisor_csr_rw>:
    41000214:	000f02b7          	lui	x5,0xf0
    41000218:	0012829b          	addiw	x5,x5,1 # f0001 <mem7+0x54001>
    4100021c:	00c29293          	slli	x5,x5,0xc
    41000220:	00628293          	addi	x5,x5,6
    41000224:	125f8063          	beq	x31,x5,41000344 <syscalls__os_fn_f0001006>

0000000041000228 <syscalls__syscall_machine_pte_read>:
    41000228:	000f02b7          	lui	x5,0xf0
    4100022c:	0012829b          	addiw	x5,x5,1 # f0001 <mem7+0x54001>
    41000230:	00c29293          	slli	x5,x5,0xc
    41000234:	00728293          	addi	x5,x5,7
    41000238:	125f8e63          	beq	x31,x5,41000374 <syscalls__os_fn_f0001007>

000000004100023c <syscalls__syscall_machine_pte_write>:
    4100023c:	000f02b7          	lui	x5,0xf0
    41000240:	0012829b          	addiw	x5,x5,1 # f0001 <mem7+0x54001>
    41000244:	00c29293          	slli	x5,x5,0xc
    41000248:	00828293          	addi	x5,x5,8
    4100024c:	205f8a63          	beq	x31,x5,41000460 <syscalls__os_fn_f0001008>

0000000041000250 <syscalls__syscall_check_get_hart_context>:
    41000250:	000782b7          	lui	x5,0x78
    41000254:	0012829b          	addiw	x5,x5,1 # 78001 <SID_HEXCEP_17_vs0_both_stack+0x2e001>
    41000258:	00d29293          	slli	x5,x5,0xd
    4100025c:	00128293          	addi	x5,x5,1
    41000260:	2e5f8663          	beq	x31,x5,4100054c <syscalls__os_get_hart_context>
    41000264:	4e40006f          	j	41000748 <trap_handler_m__check_exception_label>

0000000041000268 <syscalls__os_fn_f0001001>:
    41000268:	000022b7          	lui	x5,0x2
    4100026c:	8002829b          	addiw	x5,x5,-2048 # 1800 <pma_region_1_size+0x800>
    41000270:	3002b073          	csrc	mstatus,x5
    41000274:	000022b7          	lui	x5,0x2
    41000278:	8002829b          	addiw	x5,x5,-2048 # 1800 <pma_region_1_size+0x800>
    4100027c:	3002a073          	csrs	mstatus,x5
    41000280:	0010029b          	addiw	x5,x0,1
    41000284:	02729293          	slli	x5,x5,0x27
    41000288:	3002b073          	csrc	mstatus,x5
    4100028c:	411942b7          	lui	x5,0x41194
    41000290:	2cc0006f          	j	4100055c <syscalls__ret_from_os_fn>

0000000041000294 <syscalls__os_fn_f0001002>:
    41000294:	000022b7          	lui	x5,0x2
    41000298:	8002829b          	addiw	x5,x5,-2048 # 1800 <pma_region_1_size+0x800>
    4100029c:	3002b073          	csrc	mstatus,x5
    410002a0:	000012b7          	lui	x5,0x1
    410002a4:	8002829b          	addiw	x5,x5,-2048 # 800 <XLEN+0x7c0>
    410002a8:	3002a073          	csrs	mstatus,x5
    410002ac:	0010029b          	addiw	x5,x0,1
    410002b0:	02729293          	slli	x5,x5,0x27
    410002b4:	3002b073          	csrc	mstatus,x5
    410002b8:	12000073          	sfence.vma
    410002bc:	410942b7          	lui	x5,0x41094
    410002c0:	29c0006f          	j	4100055c <syscalls__ret_from_os_fn>

00000000410002c4 <syscalls__os_fn_f0001003>:
    410002c4:	000022b7          	lui	x5,0x2
    410002c8:	8002829b          	addiw	x5,x5,-2048 # 1800 <pma_region_1_size+0x800>
    410002cc:	3002b073          	csrc	mstatus,x5
    410002d0:	00000293          	li	x5,0
    410002d4:	3002a073          	csrs	mstatus,x5
    410002d8:	0010029b          	addiw	x5,x0,1
    410002dc:	02729293          	slli	x5,x5,0x27
    410002e0:	3002b073          	csrc	mstatus,x5
    410002e4:	411142b7          	lui	x5,0x41114
    410002e8:	2740006f          	j	4100055c <syscalls__ret_from_os_fn>

00000000410002ec <syscalls__os_fn_f0001004>:
    410002ec:	000022b7          	lui	x5,0x2
    410002f0:	8002829b          	addiw	x5,x5,-2048 # 1800 <pma_region_1_size+0x800>
    410002f4:	3002b073          	csrc	mstatus,x5
    410002f8:	000012b7          	lui	x5,0x1
    410002fc:	8002829b          	addiw	x5,x5,-2048 # 800 <XLEN+0x7c0>
    41000300:	3002a073          	csrs	mstatus,x5
    41000304:	0010029b          	addiw	x5,x0,1
    41000308:	02729293          	slli	x5,x5,0x27
    4100030c:	3002a073          	csrs	mstatus,x5
    41000310:	17823283          	ld	x5,376(x4) # 44fea178 <__section_hart_context+0x178>
    41000314:	2480006f          	j	4100055c <syscalls__ret_from_os_fn>

0000000041000318 <syscalls__os_fn_f0001005>:
    41000318:	000022b7          	lui	x5,0x2
    4100031c:	8002829b          	addiw	x5,x5,-2048 # 1800 <pma_region_1_size+0x800>
    41000320:	3002b073          	csrc	mstatus,x5
    41000324:	000022b7          	lui	x5,0x2
    41000328:	8002829b          	addiw	x5,x5,-2048 # 1800 <pma_region_1_size+0x800>
    4100032c:	3002a073          	csrs	mstatus,x5
    41000330:	0010029b          	addiw	x5,x0,1
    41000334:	02729293          	slli	x5,x5,0x27
    41000338:	3002b073          	csrc	mstatus,x5
    4100033c:	412142b7          	lui	x5,0x41214
    41000340:	21c0006f          	j	4100055c <syscalls__ret_from_os_fn>

0000000041000344 <syscalls__os_fn_f0001006>:
    41000344:	000022b7          	lui	x5,0x2
    41000348:	8002829b          	addiw	x5,x5,-2048 # 1800 <pma_region_1_size+0x800>
    4100034c:	3002b073          	csrc	mstatus,x5
    41000350:	000012b7          	lui	x5,0x1
    41000354:	8002829b          	addiw	x5,x5,-2048 # 800 <XLEN+0x7c0>
    41000358:	3002a073          	csrs	mstatus,x5
    4100035c:	0010029b          	addiw	x5,x0,1
    41000360:	02729293          	slli	x5,x5,0x27
    41000364:	3002b073          	csrc	mstatus,x5
    41000368:	12000073          	sfence.vma
    4100036c:	412152b7          	lui	x5,0x41215
    41000370:	1ec0006f          	j	4100055c <syscalls__ret_from_os_fn>

0000000041000374 <syscalls__os_fn_f0001007>:
    41000374:	426e2fb7          	lui	x31,0x426e2
    41000378:	0c0f8f9b          	addiw	x31,x31,192 # 426e20c0 <pte_access_flags_pa>
    4100037c:	000fbf83          	ld	x31,0(x31)
    41000380:	426e22b7          	lui	x5,0x426e2
    41000384:	0c82829b          	addiw	x5,x5,200 # 426e20c8 <pte_access_flags_pa+0x8>
    41000388:	0002b283          	ld	x5,0(x5)
    4100038c:	426e2e37          	lui	x28,0x426e2
    41000390:	0d0e0e1b          	addiw	x28,x28,208 # 426e20d0 <pte_access_flags_pa+0x10>
    41000394:	000e3e03          	ld	x28,0(x28)

0000000041000398 <syscalls__pte_walk_check_glevel_without_gstage_read>:
    41000398:	fff00f93          	li	x31,-1
    4100039c:	0dfe1063          	bne	x28,x31,4100045c <syscalls__pte_walk_fail_read>
    410003a0:	18002373          	csrr	x6,satp
    410003a4:	03c35e93          	srli	x29,x6,0x3c
    410003a8:	01431313          	slli	x6,x6,0x14
    410003ac:	01435313          	srli	x6,x6,0x14
    410003b0:	00c31313          	slli	x6,x6,0xc
    410003b4:	ff8e8e93          	addi	x29,x29,-8
    410003b8:	003e9f13          	slli	x30,x29,0x3
    410003bc:	01df0eb3          	add	x29,x30,x29
    410003c0:	01ee8e93          	addi	x29,x29,30
    410003c4:	00000f13          	li	x30,0

00000000410003c8 <syscalls__pte_walk_loop_read>:
    410003c8:	426e2fb7          	lui	x31,0x426e2
    410003cc:	0c0f8f9b          	addiw	x31,x31,192 # 426e20c0 <pte_access_flags_pa>
    410003d0:	000fbf83          	ld	x31,0(x31)
    410003d4:	01dfdfb3          	srl	x31,x31,x29
    410003d8:	1fffff93          	andi	x31,x31,511
    410003dc:	003f9f93          	slli	x31,x31,0x3
    410003e0:	01f30333          	add	x6,x6,x31
    410003e4:	005f0e63          	beq	x30,x5,41000400 <syscalls__pte_walk_done_read>
    410003e8:	00033f83          	ld	x31,0(x6)
    410003ec:	00afdf93          	srli	x31,x31,0xa
    410003f0:	00cf9313          	slli	x6,x31,0xc
    410003f4:	001f0f13          	addi	x30,x30,1
    410003f8:	ff7e8e93          	addi	x29,x29,-9
    410003fc:	fcdff06f          	j	410003c8 <syscalls__pte_walk_loop_read>

0000000041000400 <syscalls__pte_walk_done_read>:
    41000400:	fff00f93          	li	x31,-1
    41000404:	05fe0263          	beq	x28,x31,41000448 <syscalls__pte_walk_final_read>

0000000041000408 <syscalls__pte_walk_gstage_read>:
    41000408:	426e2fb7          	lui	x31,0x426e2
    4100040c:	0c0f8f9b          	addiw	x31,x31,192 # 426e20c0 <pte_access_flags_pa>
    41000410:	006fb023          	sd	x6,0(x31)
    41000414:	000e0293          	mv	x5,x28
    41000418:	fff00e13          	li	x28,-1
    4100041c:	68002373          	csrr	x6,hgatp
    41000420:	03c35e93          	srli	x29,x6,0x3c
    41000424:	01431313          	slli	x6,x6,0x14
    41000428:	01435313          	srli	x6,x6,0x14
    4100042c:	00c31313          	slli	x6,x6,0xc
    41000430:	ff8e8e93          	addi	x29,x29,-8
    41000434:	003e9f13          	slli	x30,x29,0x3
    41000438:	01df0eb3          	add	x29,x30,x29
    4100043c:	01ee8e93          	addi	x29,x29,30
    41000440:	00000f13          	li	x30,0
    41000444:	f85ff06f          	j	410003c8 <syscalls__pte_walk_loop_read>

0000000041000448 <syscalls__pte_walk_final_read>:
    41000448:	00033383          	ld	x7,0(x6)
    4100044c:	341022f3          	csrr	x5,mepc
    41000450:	00428293          	addi	x5,x5,4
    41000454:	16523c23          	sd	x5,376(x4) # 178 <XLEN+0x138>
    41000458:	e95ff06f          	j	410002ec <syscalls__os_fn_f0001004>

000000004100045c <syscalls__pte_walk_fail_read>:
    4100045c:	4040006f          	j	41000860 <test_failed>

0000000041000460 <syscalls__os_fn_f0001008>:
    41000460:	426e2fb7          	lui	x31,0x426e2
    41000464:	0c0f8f9b          	addiw	x31,x31,192 # 426e20c0 <pte_access_flags_pa>
    41000468:	000fbf83          	ld	x31,0(x31)
    4100046c:	426e22b7          	lui	x5,0x426e2
    41000470:	0c82829b          	addiw	x5,x5,200 # 426e20c8 <pte_access_flags_pa+0x8>
    41000474:	0002b283          	ld	x5,0(x5)
    41000478:	426e2e37          	lui	x28,0x426e2
    4100047c:	0d0e0e1b          	addiw	x28,x28,208 # 426e20d0 <pte_access_flags_pa+0x10>
    41000480:	000e3e03          	ld	x28,0(x28)

0000000041000484 <syscalls__pte_walk_check_glevel_without_gstage_write>:
    41000484:	fff00f93          	li	x31,-1
    41000488:	0dfe1063          	bne	x28,x31,41000548 <syscalls__pte_walk_fail_write>
    4100048c:	18002373          	csrr	x6,satp
    41000490:	03c35e93          	srli	x29,x6,0x3c
    41000494:	01431313          	slli	x6,x6,0x14
    41000498:	01435313          	srli	x6,x6,0x14
    4100049c:	00c31313          	slli	x6,x6,0xc
    410004a0:	ff8e8e93          	addi	x29,x29,-8
    410004a4:	003e9f13          	slli	x30,x29,0x3
    410004a8:	01df0eb3          	add	x29,x30,x29
    410004ac:	01ee8e93          	addi	x29,x29,30
    410004b0:	00000f13          	li	x30,0

00000000410004b4 <syscalls__pte_walk_loop_write>:
    410004b4:	426e2fb7          	lui	x31,0x426e2
    410004b8:	0c0f8f9b          	addiw	x31,x31,192 # 426e20c0 <pte_access_flags_pa>
    410004bc:	000fbf83          	ld	x31,0(x31)
    410004c0:	01dfdfb3          	srl	x31,x31,x29
    410004c4:	1fffff93          	andi	x31,x31,511
    410004c8:	003f9f93          	slli	x31,x31,0x3
    410004cc:	01f30333          	add	x6,x6,x31
    410004d0:	005f0e63          	beq	x30,x5,410004ec <syscalls__pte_walk_done_write>
    410004d4:	00033f83          	ld	x31,0(x6)
    410004d8:	00afdf93          	srli	x31,x31,0xa
    410004dc:	00cf9313          	slli	x6,x31,0xc
    410004e0:	001f0f13          	addi	x30,x30,1
    410004e4:	ff7e8e93          	addi	x29,x29,-9
    410004e8:	fcdff06f          	j	410004b4 <syscalls__pte_walk_loop_write>

00000000410004ec <syscalls__pte_walk_done_write>:
    410004ec:	fff00f93          	li	x31,-1
    410004f0:	05fe0263          	beq	x28,x31,41000534 <syscalls__pte_walk_final_write>

00000000410004f4 <syscalls__pte_walk_gstage_write>:
    410004f4:	426e2fb7          	lui	x31,0x426e2
    410004f8:	0c0f8f9b          	addiw	x31,x31,192 # 426e20c0 <pte_access_flags_pa>
    410004fc:	006fb023          	sd	x6,0(x31)
    41000500:	000e0293          	mv	x5,x28
    41000504:	fff00e13          	li	x28,-1
    41000508:	68002373          	csrr	x6,hgatp
    4100050c:	03c35e93          	srli	x29,x6,0x3c
    41000510:	01431313          	slli	x6,x6,0x14
    41000514:	01435313          	srli	x6,x6,0x14
    41000518:	00c31313          	slli	x6,x6,0xc
    4100051c:	ff8e8e93          	addi	x29,x29,-8
    41000520:	003e9f13          	slli	x30,x29,0x3
    41000524:	01df0eb3          	add	x29,x30,x29
    41000528:	01ee8e93          	addi	x29,x29,30
    4100052c:	00000f13          	li	x30,0
    41000530:	f85ff06f          	j	410004b4 <syscalls__pte_walk_loop_write>

0000000041000534 <syscalls__pte_walk_final_write>:
    41000534:	00733023          	sd	x7,0(x6)
    41000538:	341022f3          	csrr	x5,mepc
    4100053c:	00428293          	addi	x5,x5,4
    41000540:	16523c23          	sd	x5,376(x4) # 178 <XLEN+0x138>
    41000544:	da9ff06f          	j	410002ec <syscalls__os_fn_f0001004>

0000000041000548 <syscalls__pte_walk_fail_write>:
    41000548:	3180006f          	j	41000860 <test_failed>

000000004100054c <syscalls__os_get_hart_context>:
    4100054c:	14002573          	csrr	x10,sscratch
    41000550:	341022f3          	csrr	x5,mepc
    41000554:	00428293          	addi	x5,x5,4
    41000558:	0040006f          	j	4100055c <syscalls__ret_from_os_fn>

000000004100055c <syscalls__ret_from_os_fn>:
    4100055c:	34102373          	csrr	x6,mepc
    41000560:	00430313          	addi	x6,x6,4
    41000564:	16623c23          	sd	x6,376(x4) # 178 <XLEN+0x138>
    41000568:	34129073          	csrw	mepc,x5
    4100056c:	fff00f93          	li	x31,-1
    41000570:	2a40006f          	j	41000814 <trap_handler_m__skip_xepc_write>

0000000041000574 <trap_handler_m__invalid_interrupt>:
    41000574:	2ec0006f          	j	41000860 <test_failed>

0000000041000578 <trap_handler_m__clear_all_interrupts>:
    41000578:	34401073          	csrw	mip,x0
    4100057c:	30200073          	mret

0000000041000580 <trap_handler_m___CLEAR_SSI>:
    41000580:	00200293          	li	x5,2
    41000584:	3442b073          	csrc	mip,x5
    41000588:	30200073          	mret

000000004100058c <trap_handler_m___CLEAR_MSI>:
    4100058c:	00800293          	li	x5,8
    41000590:	3442b073          	csrc	mip,x5
    41000594:	30200073          	mret

0000000041000598 <trap_handler_m___CLEAR_STI>:
    41000598:	02000293          	li	x5,32
    4100059c:	3442b073          	csrc	mip,x5
    410005a0:	30200073          	mret

00000000410005a4 <trap_handler_m___CLEAR_MTI>:
    410005a4:	08000293          	li	x5,128
    410005a8:	3442b073          	csrc	mip,x5
    410005ac:	30200073          	mret

00000000410005b0 <trap_handler_m___CLEAR_SEI>:
    410005b0:	20000293          	li	x5,512
    410005b4:	3442b073          	csrc	mip,x5
    410005b8:	30200073          	mret

00000000410005bc <trap_handler_m___CLEAR_MEI>:
    410005bc:	000012b7          	lui	x5,0x1
    410005c0:	8002829b          	addiw	x5,x5,-2048 # 800 <XLEN+0x7c0>
    410005c4:	3442b073          	csrc	mip,x5
    410005c8:	30200073          	mret

00000000410005cc <trap_handler_m___CLEAR_COI>:
    410005cc:	000022b7          	lui	x5,0x2
    410005d0:	3442b073          	csrc	mip,x5
    410005d4:	30200073          	mret

00000000410005d8 <trap_handler_m__clear_highest_priority_interrupt>:
    410005d8:	344022f3          	csrr	x5,mip
    410005dc:	40500333          	neg	x6,x5
    410005e0:	0062f2b3          	and	x5,x5,x6
    410005e4:	3442b073          	csrc	mip,x5
    410005e8:	30200073          	mret

00000000410005ec <trap_handler_m__trap_entry>:
    410005ec:	0fc0006f          	j	410006e8 <trap_handler_m__trap_handler>

00000000410005f0 <trap_handler_m__interrupt_vector_table>:
    410005f0:	f91ff06f          	j	41000580 <trap_handler_m___CLEAR_SSI>
    410005f4:	f81ff06f          	j	41000574 <trap_handler_m__invalid_interrupt>
    410005f8:	f95ff06f          	j	4100058c <trap_handler_m___CLEAR_MSI>
    410005fc:	f79ff06f          	j	41000574 <trap_handler_m__invalid_interrupt>
    41000600:	f99ff06f          	j	41000598 <trap_handler_m___CLEAR_STI>
    41000604:	f71ff06f          	j	41000574 <trap_handler_m__invalid_interrupt>
    41000608:	f9dff06f          	j	410005a4 <trap_handler_m___CLEAR_MTI>
    4100060c:	f69ff06f          	j	41000574 <trap_handler_m__invalid_interrupt>
    41000610:	fa1ff06f          	j	410005b0 <trap_handler_m___CLEAR_SEI>
    41000614:	f61ff06f          	j	41000574 <trap_handler_m__invalid_interrupt>
    41000618:	fa5ff06f          	j	410005bc <trap_handler_m___CLEAR_MEI>
    4100061c:	f59ff06f          	j	41000574 <trap_handler_m__invalid_interrupt>
    41000620:	fadff06f          	j	410005cc <trap_handler_m___CLEAR_COI>
    41000624:	f51ff06f          	j	41000574 <trap_handler_m__invalid_interrupt>
    41000628:	f4dff06f          	j	41000574 <trap_handler_m__invalid_interrupt>
    4100062c:	fadff06f          	j	410005d8 <trap_handler_m__clear_highest_priority_interrupt>
    41000630:	fa9ff06f          	j	410005d8 <trap_handler_m__clear_highest_priority_interrupt>
    41000634:	fa5ff06f          	j	410005d8 <trap_handler_m__clear_highest_priority_interrupt>
    41000638:	fa1ff06f          	j	410005d8 <trap_handler_m__clear_highest_priority_interrupt>
    4100063c:	f9dff06f          	j	410005d8 <trap_handler_m__clear_highest_priority_interrupt>
    41000640:	f99ff06f          	j	410005d8 <trap_handler_m__clear_highest_priority_interrupt>
    41000644:	f95ff06f          	j	410005d8 <trap_handler_m__clear_highest_priority_interrupt>
    41000648:	f91ff06f          	j	410005d8 <trap_handler_m__clear_highest_priority_interrupt>
    4100064c:	f8dff06f          	j	410005d8 <trap_handler_m__clear_highest_priority_interrupt>
    41000650:	f89ff06f          	j	410005d8 <trap_handler_m__clear_highest_priority_interrupt>
    41000654:	f85ff06f          	j	410005d8 <trap_handler_m__clear_highest_priority_interrupt>
    41000658:	f81ff06f          	j	410005d8 <trap_handler_m__clear_highest_priority_interrupt>
    4100065c:	f7dff06f          	j	410005d8 <trap_handler_m__clear_highest_priority_interrupt>
    41000660:	f79ff06f          	j	410005d8 <trap_handler_m__clear_highest_priority_interrupt>
    41000664:	f75ff06f          	j	410005d8 <trap_handler_m__clear_highest_priority_interrupt>
    41000668:	f71ff06f          	j	410005d8 <trap_handler_m__clear_highest_priority_interrupt>
    4100066c:	f6dff06f          	j	410005d8 <trap_handler_m__clear_highest_priority_interrupt>
    41000670:	f69ff06f          	j	410005d8 <trap_handler_m__clear_highest_priority_interrupt>
    41000674:	f65ff06f          	j	410005d8 <trap_handler_m__clear_highest_priority_interrupt>
    41000678:	f61ff06f          	j	410005d8 <trap_handler_m__clear_highest_priority_interrupt>
    4100067c:	f5dff06f          	j	410005d8 <trap_handler_m__clear_highest_priority_interrupt>
    41000680:	f59ff06f          	j	410005d8 <trap_handler_m__clear_highest_priority_interrupt>
    41000684:	f55ff06f          	j	410005d8 <trap_handler_m__clear_highest_priority_interrupt>
    41000688:	f51ff06f          	j	410005d8 <trap_handler_m__clear_highest_priority_interrupt>
    4100068c:	f4dff06f          	j	410005d8 <trap_handler_m__clear_highest_priority_interrupt>
    41000690:	f49ff06f          	j	410005d8 <trap_handler_m__clear_highest_priority_interrupt>
    41000694:	f45ff06f          	j	410005d8 <trap_handler_m__clear_highest_priority_interrupt>
    41000698:	f41ff06f          	j	410005d8 <trap_handler_m__clear_highest_priority_interrupt>
    4100069c:	f3dff06f          	j	410005d8 <trap_handler_m__clear_highest_priority_interrupt>
    410006a0:	f39ff06f          	j	410005d8 <trap_handler_m__clear_highest_priority_interrupt>
    410006a4:	f35ff06f          	j	410005d8 <trap_handler_m__clear_highest_priority_interrupt>
    410006a8:	f31ff06f          	j	410005d8 <trap_handler_m__clear_highest_priority_interrupt>
    410006ac:	f2dff06f          	j	410005d8 <trap_handler_m__clear_highest_priority_interrupt>
    410006b0:	f29ff06f          	j	410005d8 <trap_handler_m__clear_highest_priority_interrupt>
    410006b4:	f25ff06f          	j	410005d8 <trap_handler_m__clear_highest_priority_interrupt>
    410006b8:	f21ff06f          	j	410005d8 <trap_handler_m__clear_highest_priority_interrupt>
    410006bc:	f1dff06f          	j	410005d8 <trap_handler_m__clear_highest_priority_interrupt>
    410006c0:	f19ff06f          	j	410005d8 <trap_handler_m__clear_highest_priority_interrupt>
    410006c4:	f15ff06f          	j	410005d8 <trap_handler_m__clear_highest_priority_interrupt>
    410006c8:	f11ff06f          	j	410005d8 <trap_handler_m__clear_highest_priority_interrupt>
    410006cc:	f0dff06f          	j	410005d8 <trap_handler_m__clear_highest_priority_interrupt>
    410006d0:	f09ff06f          	j	410005d8 <trap_handler_m__clear_highest_priority_interrupt>
    410006d4:	f05ff06f          	j	410005d8 <trap_handler_m__clear_highest_priority_interrupt>
    410006d8:	f01ff06f          	j	410005d8 <trap_handler_m__clear_highest_priority_interrupt>
    410006dc:	efdff06f          	j	410005d8 <trap_handler_m__clear_highest_priority_interrupt>
    410006e0:	ef9ff06f          	j	410005d8 <trap_handler_m__clear_highest_priority_interrupt>
    410006e4:	ef5ff06f          	j	410005d8 <trap_handler_m__clear_highest_priority_interrupt>

00000000410006e8 <trap_handler_m__trap_handler>:
    410006e8:	342022f3          	csrr	x5,mcause
    410006ec:	fff0031b          	addiw	x6,x0,-1
    410006f0:	03f31313          	slli	x6,x6,0x3f
    410006f4:	00537333          	and	x6,x6,x5
    410006f8:	02030263          	beqz	x6,4100071c <trap_handler_m__exception_path>

00000000410006fc <trap_handler_m__interrupt_handler>:
    410006fc:	fff0031b          	addiw	x6,x0,-1
    41000700:	03f31313          	slli	x6,x6,0x3f
    41000704:	0062c2b3          	xor	x5,x5,x6
    41000708:	00000317          	auipc	x6,0x0
    4100070c:	ee430313          	addi	x6,x6,-284 # 410005ec <trap_handler_m__trap_entry>
    41000710:	00229293          	slli	x5,x5,0x2
    41000714:	005302b3          	add	x5,x6,x5
    41000718:	00028067          	jr	x5 # 2000 <hart_context>

000000004100071c <trap_handler_m__exception_path>:
    4100071c:	34021273          	csrrw	x4,mscratch,x4
    41000720:	00000297          	auipc	x5,0x0
    41000724:	10828293          	addi	x5,x5,264 # 41000828 <trap_handler_m__trap_panic>
    41000728:	30529073          	csrw	mtvec,x5
    4100072c:	0040006f          	j	41000730 <trap_handler_m__excp_entry>

0000000041000730 <trap_handler_m__excp_entry>:
    41000730:	34202373          	csrr	x6,mcause
    41000734:	00800293          	li	x5,8
    41000738:	00534863          	blt	x6,x5,41000748 <trap_handler_m__check_exception_label>
    4100073c:	00b00293          	li	x5,11
    41000740:	0062c463          	blt	x5,x6,41000748 <trap_handler_m__check_exception_label>
    41000744:	a0dff06f          	j	41000150 <syscalls__syscall_check_schedule_next_test>

0000000041000748 <trap_handler_m__check_exception_label>:
    41000748:	04623c23          	sd	x6,88(x4) # 58 <XLEN+0x18>
    4100074c:	341022f3          	csrr	x5,mepc
    41000750:	02523423          	sd	x5,40(x4) # 28 <SECURE_ACCESS_PROBABILITY+0xa>
    41000754:	01820283          	lb	x5,24(x4) # 18 <STORE_GUEST_PAGE_FAULT+0x1>
    41000758:	00029863          	bnez	x5,41000768 <trap_handler_m__check_excp>
    4100075c:	00128293          	addi	x5,x5,1
    41000760:	00520c23          	sb	x5,24(x4) # 18 <STORE_GUEST_PAGE_FAULT+0x1>
    41000764:	0980006f          	j	410007fc <trap_handler_m__ecall_from_machine>

0000000041000768 <trap_handler_m__check_excp>:
    41000768:	06823283          	ld	x5,104(x4) # 68 <XLEN+0x28>
    4100076c:	06023423          	sd	x0,104(x4) # 68 <XLEN+0x28>
    41000770:	00028663          	beqz	x5,4100077c <trap_handler_m__skip_mode_check>
    41000774:	00100393          	li	x7,1
    41000778:	0e729463          	bne	x5,x7,41000860 <test_failed>

000000004100077c <trap_handler_m__skip_mode_check>:
    4100077c:	05023283          	ld	x5,80(x4) # 50 <XLEN+0x10>
    41000780:	04023823          	sd	x0,80(x4) # 50 <XLEN+0x10>
    41000784:	0c531e63          	bne	x6,x5,41000860 <test_failed>
    41000788:	03823283          	ld	x5,56(x4) # 38 <SECURE_ACCESS_PROBABILITY+0x1a>
    4100078c:	02023c23          	sd	x0,56(x4) # 38 <SECURE_ACCESS_PROBABILITY+0x1a>
    41000790:	06029463          	bnez	x5,410007f8 <trap_handler_m__skip_gva_check>
    41000794:	02023303          	ld	x6,32(x4) # 20 <SECURE_ACCESS_PROBABILITY+0x2>
    41000798:	02023023          	sd	x0,32(x4) # 20 <SECURE_ACCESS_PROBABILITY+0x2>
    4100079c:	02823283          	ld	x5,40(x4) # 28 <SECURE_ACCESS_PROBABILITY+0xa>
    410007a0:	02023423          	sd	x0,40(x4) # 28 <SECURE_ACCESS_PROBABILITY+0xa>
    410007a4:	0a531e63          	bne	x6,x5,41000860 <test_failed>
    410007a8:	04023283          	ld	x5,64(x4) # 40 <XLEN>
    410007ac:	04023023          	sd	x0,64(x4) # 40 <XLEN>
    410007b0:	00028663          	beqz	x5,410007bc <trap_handler_m__skip_nonzero_tval_check>

00000000410007b4 <trap_handler_m__nonzero_tval_check>:
    410007b4:	34302373          	csrr	x6,mtval
    410007b8:	0a531463          	bne	x6,x5,41000860 <test_failed>

00000000410007bc <trap_handler_m__skip_nonzero_tval_check>:
    410007bc:	04823283          	ld	x5,72(x4) # 48 <XLEN+0x8>
    410007c0:	04023423          	sd	x0,72(x4) # 48 <XLEN+0x8>
    410007c4:	00028663          	beqz	x5,410007d0 <trap_handler_m__skip_nonzero_htval_check>

00000000410007c8 <trap_handler_m__nonzero_htval_check>:
    410007c8:	34b02373          	csrr	x6,0x34b
    410007cc:	08531a63          	bne	x6,x5,41000860 <test_failed>

00000000410007d0 <trap_handler_m__skip_nonzero_htval_check>:
    410007d0:	06023283          	ld	x5,96(x4) # 60 <XLEN+0x20>
    410007d4:	06023023          	sd	x0,96(x4) # 60 <XLEN+0x20>
    410007d8:	02028063          	beqz	x5,410007f8 <trap_handler_m__skip_gva_check>

00000000410007dc <trap_handler_m__gva_check>:
    410007dc:	30002373          	csrr	x6,mstatus
    410007e0:	02635313          	srli	x6,x6,0x26
    410007e4:	00137313          	andi	x6,x6,1
    410007e8:	06030c63          	beqz	x6,41000860 <test_failed>
    410007ec:	0010031b          	addiw	x6,x0,1
    410007f0:	02631313          	slli	x6,x6,0x26
    410007f4:	30033073          	csrc	mstatus,x6

00000000410007f8 <trap_handler_m__skip_gva_check>:
    410007f8:	0040006f          	j	410007fc <trap_handler_m__ecall_from_machine>

00000000410007fc <trap_handler_m__ecall_from_machine>:
    410007fc:	03023283          	ld	x5,48(x4) # 30 <SECURE_ACCESS_PROBABILITY+0x12>
    41000800:	02023823          	sd	x0,48(x4) # 30 <SECURE_ACCESS_PROBABILITY+0x12>
    41000804:	07023303          	ld	x6,112(x4) # 70 <XLEN+0x30>
    41000808:	06023823          	sd	x0,112(x4) # 70 <XLEN+0x30>
    4100080c:	00031463          	bnez	x6,41000814 <trap_handler_m__skip_xepc_write>
    41000810:	34129073          	csrw	mepc,x5

0000000041000814 <trap_handler_m__skip_xepc_write>:
    41000814:	00000317          	auipc	x6,0x0
    41000818:	dd830313          	addi	x6,x6,-552 # 410005ec <trap_handler_m__trap_entry>
    4100081c:	30531073          	csrw	mtvec,x6
    41000820:	34021273          	csrrw	x4,mscratch,x4
    41000824:	30200073          	mret

0000000041000828 <trap_handler_m__trap_panic>:
    41000828:	00000193          	li	x3,0
    4100082c:	2b40006f          	j	41000ae0 <eot__end_test>

0000000041000830 <enter_scheduler>:
    41000830:	0002f337          	lui	x6,0x2f
    41000834:	ab73031b          	addiw	x6,x6,-1353 # 2eab7 <SID_HEXCEP_17_sstatus_vs0_stack+0x24ab7>
    41000838:	00e31313          	slli	x6,x6,0xe
    4100083c:	0de30313          	addi	x6,x6,222
    41000840:	02628063          	beq	x5,x6,41000860 <test_failed>
    41000844:	00000513          	li	x10,0
    41000848:	030000ef          	jal	41000878 <rvcp_print_test_result>
    4100084c:	3180006f          	j	41000b64 <scheduler__dispatch>

0000000041000850 <test_passed>:
    41000850:	34021273          	csrrw	x4,mscratch,x4
    41000854:	00000513          	li	x10,0
    41000858:	020000ef          	jal	41000878 <rvcp_print_test_result>
    4100085c:	3080006f          	j	41000b64 <scheduler__dispatch>

0000000041000860 <test_failed>:
    41000860:	34021273          	csrrw	x4,mscratch,x4
    41000864:	00300193          	li	x3,3
    41000868:	2780006f          	j	41000ae0 <eot__end_test>

000000004100086c <os_end_test>:
    4100086c:	34021273          	csrrw	x4,mscratch,x4
    41000870:	00100193          	li	x3,1
    41000874:	26c0006f          	j	41000ae0 <eot__end_test>

0000000041000878 <rvcp_print_test_result>:
    41000878:	00050e13          	mv	x28,x10
    4100087c:	18823283          	ld	x5,392(x4) # 188 <XLEN+0x148>
    41000880:	0010031b          	addiw	x6,x0,1
    41000884:	02031313          	slli	x6,x6,0x20
    41000888:	ffe30313          	addi	x6,x6,-2
    4100088c:	1c628063          	beq	x5,x6,41000a4c <rvcp_print_test_result+0x1d4>
    41000890:	0010031b          	addiw	x6,x0,1
    41000894:	02031313          	slli	x6,x6,0x20
    41000898:	fff30313          	addi	x6,x6,-1
    4100089c:	1a628863          	beq	x5,x6,41000a4c <rvcp_print_test_result+0x1d4>
    410008a0:	1a02c663          	bltz	x5,41000a4c <rvcp_print_test_result+0x1d4>
    410008a4:	00000317          	auipc	x6,0x0
    410008a8:	41830313          	addi	x6,x6,1048 # 41000cbc <dtest_descriptor_table>
    410008ac:	00329393          	slli	x7,x5,0x3
    410008b0:	00730333          	add	x6,x6,x7
    410008b4:	00033e83          	ld	x29,0(x6)
    410008b8:	426e2f37          	lui	x30,0x426e2
    410008bc:	030f0f1b          	addiw	x30,x30,48 # 426e2030 <rvcp_prefix_str_pa>
    410008c0:	000f4283          	lbu	x5,0(x30)
    410008c4:	02028663          	beqz	x5,410008f0 <rvcp_print_test_result+0x78>
    410008c8:	1010031b          	addiw	x6,x0,257
    410008cc:	03031313          	slli	x6,x6,0x30
    410008d0:	005362b3          	or	x5,x6,x5
    410008d4:	0003f317          	auipc	x6,0x3f
    410008d8:	72c30313          	addi	x6,x6,1836 # 41040000 <tohost>
    410008dc:	00033383          	ld	x7,0(x6)
    410008e0:	fe039ee3          	bnez	x7,410008dc <rvcp_print_test_result+0x64>
    410008e4:	00533023          	sd	x5,0(x6)
    410008e8:	001f0f13          	addi	x30,x30,1
    410008ec:	fd5ff06f          	j	410008c0 <rvcp_print_test_result+0x48>
    410008f0:	426e2f37          	lui	x30,0x426e2
    410008f4:	041f0f1b          	addiw	x30,x30,65 # 426e2041 <rvcp_testname_str_pa>
    410008f8:	000f4283          	lbu	x5,0(x30)
    410008fc:	02028663          	beqz	x5,41000928 <rvcp_print_test_result+0xb0>
    41000900:	1010031b          	addiw	x6,x0,257
    41000904:	03031313          	slli	x6,x6,0x30
    41000908:	005362b3          	or	x5,x6,x5
    4100090c:	0003f317          	auipc	x6,0x3f
    41000910:	6f430313          	addi	x6,x6,1780 # 41040000 <tohost>
    41000914:	00033383          	ld	x7,0(x6)
    41000918:	fe039ee3          	bnez	x7,41000914 <rvcp_print_test_result+0x9c>
    4100091c:	00533023          	sd	x5,0(x6)
    41000920:	001f0f13          	addi	x30,x30,1
    41000924:	fd5ff06f          	j	410008f8 <rvcp_print_test_result+0x80>
    41000928:	426e2f37          	lui	x30,0x426e2
    4100092c:	06af0f1b          	addiw	x30,x30,106 # 426e206a <rvcp_space_str_pa>
    41000930:	000f4283          	lbu	x5,0(x30)
    41000934:	02028663          	beqz	x5,41000960 <rvcp_print_test_result+0xe8>
    41000938:	1010031b          	addiw	x6,x0,257
    4100093c:	03031313          	slli	x6,x6,0x30
    41000940:	005362b3          	or	x5,x6,x5
    41000944:	0003f317          	auipc	x6,0x3f
    41000948:	6bc30313          	addi	x6,x6,1724 # 41040000 <tohost>
    4100094c:	00033383          	ld	x7,0(x6)
    41000950:	fe039ee3          	bnez	x7,4100094c <rvcp_print_test_result+0xd4>
    41000954:	00533023          	sd	x5,0(x6)
    41000958:	001f0f13          	addi	x30,x30,1
    4100095c:	fd5ff06f          	j	41000930 <rvcp_print_test_result+0xb8>
    41000960:	000e8f13          	mv	x30,x29
    41000964:	000f4283          	lbu	x5,0(x30)
    41000968:	02028663          	beqz	x5,41000994 <rvcp_print_test_result+0x11c>
    4100096c:	1010031b          	addiw	x6,x0,257
    41000970:	03031313          	slli	x6,x6,0x30
    41000974:	005362b3          	or	x5,x6,x5
    41000978:	0003f317          	auipc	x6,0x3f
    4100097c:	68830313          	addi	x6,x6,1672 # 41040000 <tohost>
    41000980:	00033383          	ld	x7,0(x6)
    41000984:	fe039ee3          	bnez	x7,41000980 <rvcp_print_test_result+0x108>
    41000988:	00533023          	sd	x5,0(x6)
    4100098c:	001f0f13          	addi	x30,x30,1
    41000990:	fd5ff06f          	j	41000964 <rvcp_print_test_result+0xec>
    41000994:	426e2f37          	lui	x30,0x426e2
    41000998:	06af0f1b          	addiw	x30,x30,106 # 426e206a <rvcp_space_str_pa>
    4100099c:	000f4283          	lbu	x5,0(x30)
    410009a0:	02028663          	beqz	x5,410009cc <rvcp_print_test_result+0x154>
    410009a4:	1010031b          	addiw	x6,x0,257
    410009a8:	03031313          	slli	x6,x6,0x30
    410009ac:	005362b3          	or	x5,x6,x5
    410009b0:	0003f317          	auipc	x6,0x3f
    410009b4:	65030313          	addi	x6,x6,1616 # 41040000 <tohost>
    410009b8:	00033383          	ld	x7,0(x6)
    410009bc:	fe039ee3          	bnez	x7,410009b8 <rvcp_print_test_result+0x140>
    410009c0:	00533023          	sd	x5,0(x6)
    410009c4:	001f0f13          	addi	x30,x30,1
    410009c8:	fd5ff06f          	j	4100099c <rvcp_print_test_result+0x124>
    410009cc:	000e1863          	bnez	x28,410009dc <rvcp_print_test_result+0x164>
    410009d0:	426e2f37          	lui	x30,0x426e2
    410009d4:	05cf0f1b          	addiw	x30,x30,92 # 426e205c <rvcp_passed_str_pa>
    410009d8:	00c0006f          	j	410009e4 <rvcp_print_test_result+0x16c>
    410009dc:	426e2f37          	lui	x30,0x426e2
    410009e0:	063f0f1b          	addiw	x30,x30,99 # 426e2063 <rvcp_failed_str_pa>
    410009e4:	000f4283          	lbu	x5,0(x30)
    410009e8:	02028663          	beqz	x5,41000a14 <rvcp_print_test_result+0x19c>
    410009ec:	1010031b          	addiw	x6,x0,257
    410009f0:	03031313          	slli	x6,x6,0x30
    410009f4:	005362b3          	or	x5,x6,x5
    410009f8:	0003f317          	auipc	x6,0x3f
    410009fc:	60830313          	addi	x6,x6,1544 # 41040000 <tohost>
    41000a00:	00033383          	ld	x7,0(x6)
    41000a04:	fe039ee3          	bnez	x7,41000a00 <rvcp_print_test_result+0x188>
    41000a08:	00533023          	sd	x5,0(x6)
    41000a0c:	001f0f13          	addi	x30,x30,1
    41000a10:	fd5ff06f          	j	410009e4 <rvcp_print_test_result+0x16c>
    41000a14:	426e2f37          	lui	x30,0x426e2
    41000a18:	06cf0f1b          	addiw	x30,x30,108 # 426e206c <rvcp_newline_str_pa>
    41000a1c:	000f4283          	lbu	x5,0(x30)
    41000a20:	02028663          	beqz	x5,41000a4c <rvcp_print_test_result+0x1d4>
    41000a24:	1010031b          	addiw	x6,x0,257
    41000a28:	03031313          	slli	x6,x6,0x30
    41000a2c:	005362b3          	or	x5,x6,x5
    41000a30:	0003f317          	auipc	x6,0x3f
    41000a34:	5d030313          	addi	x6,x6,1488 # 41040000 <tohost>
    41000a38:	00033383          	ld	x7,0(x6)
    41000a3c:	fe039ee3          	bnez	x7,41000a38 <rvcp_print_test_result+0x1c0>
    41000a40:	00533023          	sd	x5,0(x6)
    41000a44:	001f0f13          	addi	x30,x30,1
    41000a48:	fd5ff06f          	j	41000a1c <rvcp_print_test_result+0x1a4>
    41000a4c:	00008067          	ret

0000000041000a50 <os_rng_orig>:
    41000a50:	f14023f3          	csrr	x7,mhartid
    41000a54:	00068313          	mv	x6,x13
    41000a58:	026383b3          	mul	x7,x7,x6
    41000a5c:	00058313          	mv	x6,x11
    41000a60:	00730333          	add	x6,x6,x7
    41000a64:	00033283          	ld	x5,0(x6)
    41000a68:	01529313          	slli	x6,x5,0x15
    41000a6c:	0062c2b3          	xor	x5,x5,x6
    41000a70:	0232d313          	srli	x6,x5,0x23
    41000a74:	0062c2b3          	xor	x5,x5,x6
    41000a78:	00429313          	slli	x6,x5,0x4
    41000a7c:	0062c2b3          	xor	x5,x5,x6
    41000a80:	00058313          	mv	x6,x11
    41000a84:	00730333          	add	x6,x6,x7
    41000a88:	00533023          	sd	x5,0(x6)
    41000a8c:	00060313          	mv	x6,x12
    41000a90:	0262f2b3          	remu	x5,x5,x6
    41000a94:	00028513          	mv	x10,x5
    41000a98:	00008067          	ret
    41000a9c:	02a00513          	li	x10,42
    41000aa0:	001965b7          	lui	x11,0x196
    41000aa4:	60d5859b          	addiw	x11,x11,1549 # 19660d <mem7+0xfa60d>
    41000aa8:	3c6ef637          	lui	x12,0x3c6ef
    41000aac:	35f6061b          	addiw	x12,x12,863 # 3c6ef35f <mem4+0x351b135f>
    41000ab0:	02200693          	li	x13,34
    41000ab4:	02b50533          	mul	x10,x10,x11
    41000ab8:	00c50533          	add	x10,x10,x12
    41000abc:	02d56533          	rem	x10,x10,x13
    41000ac0:	00b00593          	li	x11,11
    41000ac4:	02b56533          	rem	x10,x10,x11
    41000ac8:	00008067          	ret
    41000acc:	0000                	.insn	2, 0x0000
	...

0000000041000ad0 <tohost_mutex>:
	...

0000000041000ad8 <tohost_addr_mem>:
    41000ad8:	0000                	.insn	2, 0x0000
    41000ada:	4104                	.insn	2, 0x4104
    41000adc:	0000                	.insn	2, 0x0000
	...

0000000041000ae0 <eot__end_test>:
    41000ae0:	00100293          	li	x5,1
    41000ae4:	00328463          	beq	x5,x3,41000aec <eot__passed>
    41000ae8:	01c0006f          	j	41000b04 <eot__failed>

0000000041000aec <eot__passed>:
    41000aec:	0ff0000f          	fence
    41000af0:	00000297          	auipc	x5,0x0
    41000af4:	fe82b283          	ld	x5,-24(x5) # 41000ad8 <tohost_addr_mem>
    41000af8:	00100313          	li	x6,1
    41000afc:	0062a023          	sw	x6,0(x5)
    41000b00:	0240006f          	j	41000b24 <eot__halt>

0000000041000b04 <eot__failed>:
    41000b04:	00100513          	li	x10,1
    41000b08:	d71ff0ef          	jal	41000878 <rvcp_print_test_result>
    41000b0c:	0ff0000f          	fence
    41000b10:	00000297          	auipc	x5,0x0
    41000b14:	fc82b283          	ld	x5,-56(x5) # 41000ad8 <tohost_addr_mem>
    41000b18:	00300313          	li	x6,3
    41000b1c:	0062a023          	sw	x6,0(x5)
    41000b20:	0040006f          	j	41000b24 <eot__halt>

0000000041000b24 <eot__halt>:
    41000b24:	10500073          	wfi
    41000b28:	ffdff06f          	j	41000b24 <eot__halt>

0000000041000b2c <scheduler__init>:
    41000b2c:	00000297          	auipc	x5,0x0
    41000b30:	0c028293          	addi	x5,x5,192 # 41000bec <scheduler__panic>
    41000b34:	305292f3          	csrrw	x5,mtvec,x5
    41000b38:	18523023          	sd	x5,384(x4) # 180 <XLEN+0x140>
    41000b3c:	01800293          	li	x5,24
    41000b40:	18523823          	sd	x5,400(x4) # 190 <XLEN+0x150>
    41000b44:	0010029b          	addiw	x5,x0,1
    41000b48:	02029293          	slli	x5,x5,0x20
    41000b4c:	ffe28293          	addi	x5,x5,-2
    41000b50:	18523423          	sd	x5,392(x4) # 188 <XLEN+0x148>
    41000b54:	00000317          	auipc	x6,0x0
    41000b58:	4e830313          	addi	x6,x6,1256 # 4100103c <scheduler__test_setup_ptr>
    41000b5c:	00033303          	ld	x6,0(x6)
    41000b60:	05c0006f          	j	41000bbc <scheduler__execute_test>

0000000041000b64 <scheduler__dispatch>:
    41000b64:	00000297          	auipc	x5,0x0
    41000b68:	08828293          	addi	x5,x5,136 # 41000bec <scheduler__panic>
    41000b6c:	305292f3          	csrrw	x5,mtvec,x5
    41000b70:	18523023          	sd	x5,384(x4) # 180 <XLEN+0x140>

0000000041000b74 <scheduler__csr_read_randomization>:
    41000b74:	b02022f3          	csrr	x5,minstret
    41000b78:	104022f3          	csrr	x5,sie
    41000b7c:	140022f3          	csrr	x5,sscratch

0000000041000b80 <scheduler__load_num_runs>:
    41000b80:	19023303          	ld	x6,400(x4) # 190 <XLEN+0x150>
    41000b84:	06030063          	beqz	x6,41000be4 <scheduler__finished>

0000000041000b88 <scheduler__decrement_num_runs>:
    41000b88:	fff30393          	addi	x7,x6,-1
    41000b8c:	18723823          	sd	x7,400(x4) # 190 <XLEN+0x150>
    41000b90:	00000e17          	auipc	x28,0x0
    41000b94:	448e0e13          	addi	x28,x28,1096 # 41000fd8 <dtest_index_map>
    41000b98:	00239e93          	slli	x29,x7,0x2
    41000b9c:	01de0e33          	add	x28,x28,x29
    41000ba0:	000e2e03          	lw	x28,0(x28)
    41000ba4:	19c23423          	sd	x28,392(x4) # 188 <XLEN+0x148>

0000000041000ba8 <scheduler__calc_test_pointer>:
    41000ba8:	00339293          	slli	x5,x7,0x3

0000000041000bac <scheduler__load_test_addr>:
    41000bac:	00000317          	auipc	x6,0x0
    41000bb0:	05030313          	addi	x6,x6,80 # 41000bfc <os_test_sequence>
    41000bb4:	006282b3          	add	x5,x5,x6
    41000bb8:	0002b303          	ld	x6,0(x5)

0000000041000bbc <scheduler__execute_test>:
    41000bbc:	18023283          	ld	x5,384(x4) # 180 <XLEN+0x140>
    41000bc0:	30529073          	csrw	mtvec,x5
    41000bc4:	34021273          	csrrw	x4,mscratch,x4
    41000bc8:	00000213          	li	x4,0
    41000bcc:	14131073          	csrw	sepc,x6
    41000bd0:	10000293          	li	x5,256
    41000bd4:	1002a073          	csrs	sstatus,x5
    41000bd8:	08000093          	li	x1,128
    41000bdc:	6000a073          	csrs	hstatus,x1
    41000be0:	10200073          	sret

0000000041000be4 <scheduler__finished>:
    41000be4:	00100193          	li	x3,1
    41000be8:	ef9ff06f          	j	41000ae0 <eot__end_test>

0000000041000bec <scheduler__panic>:
    41000bec:	00000193          	li	x3,0
    41000bf0:	ef1ff06f          	j	41000ae0 <eot__end_test>

0000000041000bf4 <num_runs>:
    41000bf4:	0018                	.insn	2, 0x0018
    41000bf6:	0000                	.insn	2, 0x0000
    41000bf8:	0000                	.insn	2, 0x0000
	...

0000000041000bfc <os_test_sequence>:
    41000bfc:	8174                	.insn	2, 0x8174
    41000bfe:	4101                	.insn	2, 0x4101
    41000c00:	0000                	.insn	2, 0x0000
    41000c02:	0000                	.insn	2, 0x0000
    41000c04:	7b78                	.insn	2, 0x7b78
    41000c06:	4101                	.insn	2, 0x4101
    41000c08:	0000                	.insn	2, 0x0000
    41000c0a:	0000                	.insn	2, 0x0000
    41000c0c:	6810                	.insn	2, 0x6810
    41000c0e:	4101                	.insn	2, 0x4101
    41000c10:	0000                	.insn	2, 0x0000
    41000c12:	0000                	.insn	2, 0x0000
    41000c14:	7544                	.insn	2, 0x7544
    41000c16:	4101                	.insn	2, 0x4101
    41000c18:	0000                	.insn	2, 0x0000
    41000c1a:	0000                	.insn	2, 0x0000
    41000c1c:	6b94                	.insn	2, 0x6b94
    41000c1e:	4101                	.insn	2, 0x4101
    41000c20:	0000                	.insn	2, 0x0000
    41000c22:	0000                	.insn	2, 0x0000
    41000c24:	79f8                	.insn	2, 0x79f8
    41000c26:	4101                	.insn	2, 0x4101
    41000c28:	0000                	.insn	2, 0x0000
    41000c2a:	0000                	.insn	2, 0x0000
    41000c2c:	7f84                	.insn	2, 0x7f84
    41000c2e:	4101                	.insn	2, 0x4101
    41000c30:	0000                	.insn	2, 0x0000
    41000c32:	0000                	.insn	2, 0x0000
    41000c34:	6f70                	.insn	2, 0x6f70
    41000c36:	4101                	.insn	2, 0x4101
    41000c38:	0000                	.insn	2, 0x0000
    41000c3a:	0000                	.insn	2, 0x0000
    41000c3c:	71c8                	.insn	2, 0x71c8
    41000c3e:	4101                	.insn	2, 0x4101
    41000c40:	0000                	.insn	2, 0x0000
    41000c42:	0000                	.insn	2, 0x0000
    41000c44:	40f0                	.insn	2, 0x40f0
    41000c46:	4101                	.insn	2, 0x4101
    41000c48:	0000                	.insn	2, 0x0000
    41000c4a:	0000                	.insn	2, 0x0000
    41000c4c:	6a6c                	.insn	2, 0x6a6c
    41000c4e:	4101                	.insn	2, 0x4101
    41000c50:	0000                	.insn	2, 0x0000
    41000c52:	0000                	.insn	2, 0x0000
    41000c54:	552c                	.insn	2, 0x552c
    41000c56:	4101                	.insn	2, 0x4101
    41000c58:	0000                	.insn	2, 0x0000
    41000c5a:	0000                	.insn	2, 0x0000
    41000c5c:	7d88                	.insn	2, 0x7d88
    41000c5e:	4101                	.insn	2, 0x4101
    41000c60:	0000                	.insn	2, 0x0000
    41000c62:	0000                	.insn	2, 0x0000
    41000c64:	709c                	.insn	2, 0x709c
    41000c66:	4101                	.insn	2, 0x4101
    41000c68:	0000                	.insn	2, 0x0000
    41000c6a:	0000                	.insn	2, 0x0000
    41000c6c:	6930                	.insn	2, 0x6930
    41000c6e:	4101                	.insn	2, 0x4101
    41000c70:	0000                	.insn	2, 0x0000
    41000c72:	0000                	.insn	2, 0x0000
    41000c74:	6cc0                	.insn	2, 0x6cc0
    41000c76:	4101                	.insn	2, 0x4101
    41000c78:	0000                	.insn	2, 0x0000
    41000c7a:	0000                	.insn	2, 0x0000
    41000c7c:	7668                	.insn	2, 0x7668
    41000c7e:	4101                	.insn	2, 0x4101
    41000c80:	0000                	.insn	2, 0x0000
    41000c82:	0000                	.insn	2, 0x0000
    41000c84:	72f4                	.insn	2, 0x72f4
    41000c86:	4101                	.insn	2, 0x4101
    41000c88:	0000                	.insn	2, 0x0000
    41000c8a:	0000                	.insn	2, 0x0000
    41000c8c:	7418                	.insn	2, 0x7418
    41000c8e:	4101                	.insn	2, 0x4101
    41000c90:	0000                	.insn	2, 0x0000
    41000c92:	0000                	.insn	2, 0x0000
    41000c94:	6668                	.insn	2, 0x6668
    41000c96:	4101                	.insn	2, 0x4101
    41000c98:	0000                	.insn	2, 0x0000
    41000c9a:	0000                	.insn	2, 0x0000
    41000c9c:	6afc                	.insn	2, 0x6afc
    41000c9e:	4101                	.insn	2, 0x4101
    41000ca0:	0000                	.insn	2, 0x0000
    41000ca2:	0000                	.insn	2, 0x0000
    41000ca4:	63e0                	.insn	2, 0x63e0
    41000ca6:	4101                	.insn	2, 0x4101
    41000ca8:	0000                	.insn	2, 0x0000
    41000caa:	0000                	.insn	2, 0x0000
    41000cac:	7870                	.insn	2, 0x7870
    41000cae:	4101                	.insn	2, 0x4101
    41000cb0:	0000                	.insn	2, 0x0000
    41000cb2:	0000                	.insn	2, 0x0000
    41000cb4:	66f8                	.insn	2, 0x66f8
    41000cb6:	4101                	.insn	2, 0x4101
    41000cb8:	0000                	.insn	2, 0x0000
	...

0000000041000cbc <dtest_descriptor_table>:
    41000cbc:	0d74                	.insn	2, 0x0d74
    41000cbe:	4100                	.insn	2, 0x4100
    41000cc0:	0000                	.insn	2, 0x0000
    41000cc2:	0000                	.insn	2, 0x0000
    41000cc4:	0d82                	.insn	2, 0x0d82
    41000cc6:	4100                	.insn	2, 0x4100
    41000cc8:	0000                	.insn	2, 0x0000
    41000cca:	0000                	.insn	2, 0x0000
    41000ccc:	0d98                	.insn	2, 0x0d98
    41000cce:	4100                	.insn	2, 0x4100
    41000cd0:	0000                	.insn	2, 0x0000
    41000cd2:	0000                	.insn	2, 0x0000
    41000cd4:	0da6                	.insn	2, 0x0da6
    41000cd6:	4100                	.insn	2, 0x4100
    41000cd8:	0000                	.insn	2, 0x0000
    41000cda:	0000                	.insn	2, 0x0000
    41000cdc:	0dc2                	.insn	2, 0x0dc2
    41000cde:	4100                	.insn	2, 0x4100
    41000ce0:	0000                	.insn	2, 0x0000
    41000ce2:	0000                	.insn	2, 0x0000
    41000ce4:	0dde                	.insn	2, 0x0dde
    41000ce6:	4100                	.insn	2, 0x4100
    41000ce8:	0000                	.insn	2, 0x0000
    41000cea:	0000                	.insn	2, 0x0000
    41000cec:	0e00                	.insn	2, 0x0e00
    41000cee:	4100                	.insn	2, 0x4100
    41000cf0:	0000                	.insn	2, 0x0000
    41000cf2:	0000                	.insn	2, 0x0000
    41000cf4:	0e22                	.insn	2, 0x0e22
    41000cf6:	4100                	.insn	2, 0x4100
    41000cf8:	0000                	.insn	2, 0x0000
    41000cfa:	0000                	.insn	2, 0x0000
    41000cfc:	41000e3f 00000000 	.insn	8, 0x41000e3f
    41000d04:	0e5c                	.insn	2, 0x0e5c
    41000d06:	4100                	.insn	2, 0x4100
    41000d08:	0000                	.insn	2, 0x0000
    41000d0a:	0000                	.insn	2, 0x0000
    41000d0c:	0e6a                	.insn	2, 0x0e6a
    41000d0e:	4100                	.insn	2, 0x4100
    41000d10:	0000                	.insn	2, 0x0000
    41000d12:	0000                	.insn	2, 0x0000
    41000d14:	0e78                	.insn	2, 0x0e78
    41000d16:	4100                	.insn	2, 0x4100
    41000d18:	0000                	.insn	2, 0x0000
    41000d1a:	0000                	.insn	2, 0x0000
    41000d1c:	41000e8f          	.insn	4, 0x41000e8f
    41000d20:	0000                	.insn	2, 0x0000
    41000d22:	0000                	.insn	2, 0x0000
    41000d24:	0eaa                	.insn	2, 0x0eaa
    41000d26:	4100                	.insn	2, 0x4100
    41000d28:	0000                	.insn	2, 0x0000
    41000d2a:	0000                	.insn	2, 0x0000
    41000d2c:	0ec4                	.insn	2, 0x0ec4
    41000d2e:	4100                	.insn	2, 0x4100
    41000d30:	0000                	.insn	2, 0x0000
    41000d32:	0000                	.insn	2, 0x0000
    41000d34:	41000edb          	.insn	4, 0x41000edb
    41000d38:	0000                	.insn	2, 0x0000
    41000d3a:	0000                	.insn	2, 0x0000
    41000d3c:	0ef6                	.insn	2, 0x0ef6
    41000d3e:	4100                	.insn	2, 0x4100
    41000d40:	0000                	.insn	2, 0x0000
    41000d42:	0000                	.insn	2, 0x0000
    41000d44:	0f10                	.insn	2, 0x0f10
    41000d46:	4100                	.insn	2, 0x4100
    41000d48:	0000                	.insn	2, 0x0000
    41000d4a:	0000                	.insn	2, 0x0000
    41000d4c:	0f2d                	.insn	2, 0x0f2d
    41000d4e:	4100                	.insn	2, 0x4100
    41000d50:	0000                	.insn	2, 0x0000
    41000d52:	0000                	.insn	2, 0x0000
    41000d54:	0f49                	.insn	2, 0x0f49
    41000d56:	4100                	.insn	2, 0x4100
    41000d58:	0000                	.insn	2, 0x0000
    41000d5a:	0000                	.insn	2, 0x0000
    41000d5c:	0f65                	.insn	2, 0x0f65
    41000d5e:	4100                	.insn	2, 0x4100
    41000d60:	0000                	.insn	2, 0x0000
    41000d62:	0000                	.insn	2, 0x0000
    41000d64:	0f8c                	.insn	2, 0x0f8c
    41000d66:	4100                	.insn	2, 0x4100
    41000d68:	0000                	.insn	2, 0x0000
    41000d6a:	0000                	.insn	2, 0x0000
    41000d6c:	0fb2                	.insn	2, 0x0fb2
    41000d6e:	4100                	.insn	2, 0x4100
    41000d70:	0000                	.insn	2, 0x0000
	...

0000000041000d74 <dtest_name_0>:
    41000d74:	5f444953          	.insn	4, 0x5f444953
    41000d78:	4548                	.insn	2, 0x4548
    41000d7a:	4358                	.insn	2, 0x4358
    41000d7c:	5045                	.insn	2, 0x5045
    41000d7e:	305f 0035       	.insn	6, 0x49530035305f

0000000041000d82 <dtest_name_1>:
    41000d82:	5f444953          	.insn	4, 0x5f444953
    41000d86:	4548                	.insn	2, 0x4548
    41000d88:	4358                	.insn	2, 0x4358
    41000d8a:	5045                	.insn	2, 0x5045
    41000d8c:	305f 5f37 7376      	.insn	6, 0x73765f37305f
    41000d92:	6d5f 646f 0065      	.insn	6, 0x0065646f6d5f

0000000041000d98 <dtest_name_2>:
    41000d98:	5f444953          	.insn	4, 0x5f444953
    41000d9c:	4548                	.insn	2, 0x4548
    41000d9e:	4358                	.insn	2, 0x4358
    41000da0:	5045                	.insn	2, 0x5045
    41000da2:	305f 0038       	.insn	6, 0x49530038305f

0000000041000da6 <dtest_name_3>:
    41000da6:	5f444953          	.insn	4, 0x5f444953
    41000daa:	4548                	.insn	2, 0x4548
    41000dac:	4358                	.insn	2, 0x4358
    41000dae:	5045                	.insn	2, 0x5045
    41000db0:	305f 5f39 726d      	.insn	6, 0x726d5f39305f
    41000db6:	7465                	.insn	2, 0x7465
    41000db8:	695f 5f6e 7376      	.insn	6, 0x73765f6e695f
    41000dbe:	765f 0075       	.insn	6, 0x49530075765f

0000000041000dc2 <dtest_name_4>:
    41000dc2:	5f444953          	.insn	4, 0x5f444953
    41000dc6:	4548                	.insn	2, 0x4548
    41000dc8:	4358                	.insn	2, 0x4358
    41000dca:	5045                	.insn	2, 0x5045
    41000dcc:	305f 5f39 7273      	.insn	6, 0x72735f39305f
    41000dd2:	7465                	.insn	2, 0x7465
    41000dd4:	765f 7374 3172      	.insn	6, 0x31727374765f
    41000dda:	765f 0073       	.insn	6, 0x49530073765f

0000000041000dde <dtest_name_5>:
    41000dde:	5f444953          	.insn	4, 0x5f444953
    41000de2:	4548                	.insn	2, 0x4548
    41000de4:	4358                	.insn	2, 0x4358
    41000de6:	5045                	.insn	2, 0x5045
    41000de8:	305f 5f39 6673      	.insn	6, 0x66735f39305f
    41000dee:	6e65                	.insn	2, 0x6e65
    41000df0:	765f6563          	bltu	x30,x5,4100155a <scheduler__test_cleanup_ptr+0x516>
    41000df4:	616d                	.insn	2, 0x616d
    41000df6:	765f 7674 316d      	.insn	6, 0x316d7674765f
    41000dfc:	765f 0073       	.insn	6, 0x49530073765f

0000000041000e00 <dtest_name_6>:
    41000e00:	5f444953          	.insn	4, 0x5f444953
    41000e04:	4548                	.insn	2, 0x4548
    41000e06:	4358                	.insn	2, 0x4358
    41000e08:	5045                	.insn	2, 0x5045
    41000e0a:	305f 5f39 6973      	.insn	6, 0x69735f39305f
    41000e10:	766e                	.insn	2, 0x766e
    41000e12:	6c61                	.insn	2, 0x6c61
    41000e14:	765f 616d 765f      	.insn	6, 0x765f616d765f
    41000e1a:	7674                	.insn	2, 0x7674
    41000e1c:	316d                	.insn	2, 0x316d
    41000e1e:	765f 0073       	.insn	6, 0x49530073765f

0000000041000e22 <dtest_name_7>:
    41000e22:	5f444953          	.insn	4, 0x5f444953
    41000e26:	4548                	.insn	2, 0x4548
    41000e28:	4358                	.insn	2, 0x4358
    41000e2a:	5045                	.insn	2, 0x5045
    41000e2c:	305f 5f39 6968      	.insn	6, 0x69685f39305f
    41000e32:	766e                	.insn	2, 0x766e
    41000e34:	6c61                	.insn	2, 0x6c61
    41000e36:	765f 6d76 5f61      	.insn	6, 0x5f616d76765f
    41000e3c:	7376                	.insn	2, 0x7376
	...

0000000041000e3f <dtest_name_8>:
    41000e3f:	5f444953          	.insn	4, 0x5f444953
    41000e43:	4548                	.insn	2, 0x4548
    41000e45:	4358                	.insn	2, 0x4358
    41000e47:	5045                	.insn	2, 0x5045
    41000e49:	305f 5f39 6968      	.insn	6, 0x69685f39305f
    41000e4f:	766e                	.insn	2, 0x766e
    41000e51:	6c61                	.insn	2, 0x6c61
    41000e53:	675f 6d76 5f61      	.insn	6, 0x5f616d76675f
    41000e59:	7376                	.insn	2, 0x7376
	...

0000000041000e5c <dtest_name_9>:
    41000e5c:	5f444953          	.insn	4, 0x5f444953
    41000e60:	4548                	.insn	2, 0x4548
    41000e62:	4358                	.insn	2, 0x4358
    41000e64:	5045                	.insn	2, 0x5045
    41000e66:	315f 0030       	.insn	6, 0x49530030315f

0000000041000e6a <dtest_name_10>:
    41000e6a:	5f444953          	.insn	4, 0x5f444953
    41000e6e:	4548                	.insn	2, 0x4548
    41000e70:	4358                	.insn	2, 0x4358
    41000e72:	5045                	.insn	2, 0x5045
    41000e74:	315f 0031       	.insn	6, 0x49530031315f

0000000041000e78 <dtest_name_11>:
    41000e78:	5f444953          	.insn	4, 0x5f444953
    41000e7c:	4548                	.insn	2, 0x4548
    41000e7e:	4358                	.insn	2, 0x4358
    41000e80:	5045                	.insn	2, 0x5045
    41000e82:	315f 5f36 7366      	.insn	6, 0x73665f36315f
    41000e88:	5f30                	.insn	2, 0x5f30
    41000e8a:	6f62                	.insn	2, 0x6f62
    41000e8c:	6874                	.insn	2, 0x6874
	...

0000000041000e8f <dtest_name_12>:
    41000e8f:	5f444953          	.insn	4, 0x5f444953
    41000e93:	4548                	.insn	2, 0x4548
    41000e95:	4358                	.insn	2, 0x4358
    41000e97:	5045                	.insn	2, 0x5045
    41000e99:	315f 5f36 7376      	.insn	6, 0x73765f36315f
    41000e9f:	74617473          	csrrci	x8,0x746,2
    41000ea3:	7375                	.insn	2, 0x7375
    41000ea5:	665f 3073       	.insn	6, 0x53003073665f

0000000041000eaa <dtest_name_13>:
    41000eaa:	5f444953          	.insn	4, 0x5f444953
    41000eae:	4548                	.insn	2, 0x4548
    41000eb0:	4358                	.insn	2, 0x4358
    41000eb2:	5045                	.insn	2, 0x5045
    41000eb4:	315f 5f36 7373      	.insn	6, 0x73735f36315f
    41000eba:	6174                	.insn	2, 0x6174
    41000ebc:	7574                	.insn	2, 0x7574
    41000ebe:	73665f73          	csrrwi	x30,mhpmevent22h,12
    41000ec2:	0030                	.insn	2, 0x0030

0000000041000ec4 <dtest_name_14>:
    41000ec4:	5f444953          	.insn	4, 0x5f444953
    41000ec8:	4548                	.insn	2, 0x4548
    41000eca:	4358                	.insn	2, 0x4358
    41000ecc:	5045                	.insn	2, 0x5045
    41000ece:	315f 5f37 7376      	.insn	6, 0x73765f37315f
    41000ed4:	5f30                	.insn	2, 0x5f30
    41000ed6:	6f62                	.insn	2, 0x6f62
    41000ed8:	6874                	.insn	2, 0x6874
	...

0000000041000edb <dtest_name_15>:
    41000edb:	5f444953          	.insn	4, 0x5f444953
    41000edf:	4548                	.insn	2, 0x4548
    41000ee1:	4358                	.insn	2, 0x4358
    41000ee3:	5045                	.insn	2, 0x5045
    41000ee5:	315f 5f37 7376      	.insn	6, 0x73765f37315f
    41000eeb:	74617473          	csrrci	x8,0x746,2
    41000eef:	7375                	.insn	2, 0x7375
    41000ef1:	765f 3073       	.insn	6, 0x53003073765f

0000000041000ef6 <dtest_name_16>:
    41000ef6:	5f444953          	.insn	4, 0x5f444953
    41000efa:	4548                	.insn	2, 0x4548
    41000efc:	4358                	.insn	2, 0x4358
    41000efe:	5045                	.insn	2, 0x5045
    41000f00:	315f 5f37 7373      	.insn	6, 0x73735f37315f
    41000f06:	6174                	.insn	2, 0x6174
    41000f08:	7574                	.insn	2, 0x7574
    41000f0a:	73765f73          	csrrwi	x30,mhpmevent23h,12
    41000f0e:	0030                	.insn	2, 0x0030

0000000041000f10 <dtest_name_17>:
    41000f10:	5f444953          	.insn	4, 0x5f444953
    41000f14:	4548                	.insn	2, 0x4548
    41000f16:	4358                	.insn	2, 0x4358
    41000f18:	5045                	.insn	2, 0x5045
    41000f1a:	315f 5f39 696d      	.insn	6, 0x696d5f39315f
    41000f20:	696c6173          	csrrsi	x2,0x696,24
    41000f24:	64656e67          	.insn	4, 0x64656e67
    41000f28:	615f 6f6d       	.insn	6, 0x53006f6d615f

0000000041000f2d <dtest_name_18>:
    41000f2d:	5f444953          	.insn	4, 0x5f444953
    41000f31:	4548                	.insn	2, 0x4548
    41000f33:	4358                	.insn	2, 0x4358
    41000f35:	5045                	.insn	2, 0x5045
    41000f37:	315f 5f39 696d      	.insn	6, 0x696d5f39315f
    41000f3d:	696c6173          	csrrsi	x2,0x696,24
    41000f41:	64656e67          	.insn	4, 0x64656e67
    41000f45:	6c5f 0072       	.insn	6, 0x495300726c5f

0000000041000f49 <dtest_name_19>:
    41000f49:	5f444953          	.insn	4, 0x5f444953
    41000f4d:	4548                	.insn	2, 0x4548
    41000f4f:	4358                	.insn	2, 0x4358
    41000f51:	5045                	.insn	2, 0x5045
    41000f53:	315f 5f39 696d      	.insn	6, 0x696d5f39315f
    41000f59:	696c6173          	csrrsi	x2,0x696,24
    41000f5d:	64656e67          	.insn	4, 0x64656e67
    41000f61:	735f 0063       	.insn	6, 0x49530063735f

0000000041000f65 <dtest_name_20>:
    41000f65:	5f444953          	.insn	4, 0x5f444953
    41000f69:	4548                	.insn	2, 0x4548
    41000f6b:	4358                	.insn	2, 0x4358
    41000f6d:	5045                	.insn	2, 0x5045
    41000f6f:	315f 5f39 696d      	.insn	6, 0x696d5f39315f
    41000f75:	696c6173          	csrrsi	x2,0x696,24
    41000f79:	64656e67          	.insn	4, 0x64656e67
    41000f7d:	615f 6f6d 645f      	.insn	6, 0x645f6f6d615f
    41000f83:	6c65                	.insn	2, 0x6c65
    41000f85:	6765                	.insn	2, 0x6765
    41000f87:	7461                	.insn	2, 0x7461
    41000f89:	6465                	.insn	2, 0x6465
	...

0000000041000f8c <dtest_name_21>:
    41000f8c:	5f444953          	.insn	4, 0x5f444953
    41000f90:	4548                	.insn	2, 0x4548
    41000f92:	4358                	.insn	2, 0x4358
    41000f94:	5045                	.insn	2, 0x5045
    41000f96:	315f 5f39 696d      	.insn	6, 0x696d5f39315f
    41000f9c:	696c6173          	csrrsi	x2,0x696,24
    41000fa0:	64656e67          	.insn	4, 0x64656e67
    41000fa4:	6c5f 5f72 6564      	.insn	6, 0x65645f726c5f
    41000faa:	656c                	.insn	2, 0x656c
    41000fac:	65746167          	.insn	4, 0x65746167
    41000fb0:	0064                	.insn	2, 0x0064

0000000041000fb2 <dtest_name_22>:
    41000fb2:	5f444953          	.insn	4, 0x5f444953
    41000fb6:	4548                	.insn	2, 0x4548
    41000fb8:	4358                	.insn	2, 0x4358
    41000fba:	5045                	.insn	2, 0x5045
    41000fbc:	315f 5f39 696d      	.insn	6, 0x696d5f39315f
    41000fc2:	696c6173          	csrrsi	x2,0x696,24
    41000fc6:	64656e67          	.insn	4, 0x64656e67
    41000fca:	735f 5f63 6564      	.insn	6, 0x65645f63735f
    41000fd0:	656c                	.insn	2, 0x656c
    41000fd2:	65746167          	.insn	4, 0x65746167
    41000fd6:	0064                	.insn	2, 0x0064

0000000041000fd8 <dtest_index_map>:
    41000fd8:	ffff                	.insn	2, 0xffff
    41000fda:	ffff                	.insn	2, 0xffff
    41000fdc:	0014                	.insn	2, 0x0014
    41000fde:	0000                	.insn	2, 0x0000
    41000fe0:	0005                	.insn	2, 0x0005
    41000fe2:	0000                	.insn	2, 0x0000
    41000fe4:	0010                	.insn	2, 0x0010
    41000fe6:	0000                	.insn	2, 0x0000
    41000fe8:	0009                	.insn	2, 0x0009
    41000fea:	0000                	.insn	2, 0x0000
    41000fec:	00000013          	nop
    41000ff0:	0016                	.insn	2, 0x0016
    41000ff2:	0000                	.insn	2, 0x0000
    41000ff4:	0000000b          	.insn	4, 0x000b
    41000ff8:	000d                	.insn	2, 0x000d
    41000ffa:	0000                	.insn	2, 0x0000
    41000ffc:	0000                	.insn	2, 0x0000
    41000ffe:	0000                	.insn	2, 0x0000
    41001000:	00000007          	vle8.v	v0,(x0),v0.t
    41001004:	0001                	.insn	2, 0x0001
    41001006:	0000                	.insn	2, 0x0000
    41001008:	0015                	.insn	2, 0x0015
    4100100a:	0000                	.insn	2, 0x0000
    4100100c:	000c                	.insn	2, 0x000c
    4100100e:	0000                	.insn	2, 0x0000
    41001010:	0006                	.insn	2, 0x0006
    41001012:	0000                	.insn	2, 0x0000
    41001014:	000a                	.insn	2, 0x000a
    41001016:	0000                	.insn	2, 0x0000
    41001018:	0011                	.insn	2, 0x0011
    4100101a:	0000                	.insn	2, 0x0000
    4100101c:	000e                	.insn	2, 0x000e
    4100101e:	0000                	.insn	2, 0x0000
    41001020:	0000000f          	fence	unknown,unknown
    41001024:	00000003          	lb	x0,0(x0) # 0 <ALL_4KB_PAGES>
    41001028:	0008                	.insn	2, 0x0008
    4100102a:	0000                	.insn	2, 0x0000
    4100102c:	0002                	.insn	2, 0x0002
    4100102e:	0000                	.insn	2, 0x0000
    41001030:	0012                	.insn	2, 0x0012
    41001032:	0000                	.insn	2, 0x0000
    41001034:	0004                	.insn	2, 0x0004
    41001036:	0000                	.insn	2, 0x0000
    41001038:	0000                	.insn	2, 0x0000
	...

000000004100103c <scheduler__test_setup_ptr>:
    4100103c:	40e0                	.insn	2, 0x40e0
    4100103e:	4101                	.insn	2, 0x4101
    41001040:	0000                	.insn	2, 0x0000
	...

0000000041001044 <scheduler__test_cleanup_ptr>:
    41001044:	8174                	.insn	2, 0x8174
    41001046:	4101                	.insn	2, 0x4101
    41001048:	0000                	.insn	2, 0x0000
	...

Disassembly of section .runtime_s:

0000000041010000 <trap_handler_s__invalid_interrupt>:
    41010000:	1740006f          	j	41010174 <trap_handler_s__test_failed>

0000000041010004 <trap_handler_s__clear_all_interrupts>:
    41010004:	14401073          	csrw	sip,x0
    41010008:	10200073          	sret

000000004101000c <trap_handler_s___CLEAR_SSI>:
    4101000c:	00200293          	li	x5,2
    41010010:	1442b073          	csrc	sip,x5
    41010014:	10200073          	sret

0000000041010018 <trap_handler_s___CLEAR_MSI>:
    41010018:	00800293          	li	x5,8
    4101001c:	1442b073          	csrc	sip,x5
    41010020:	10200073          	sret

0000000041010024 <trap_handler_s___CLEAR_STI>:
    41010024:	02000293          	li	x5,32
    41010028:	1442b073          	csrc	sip,x5
    4101002c:	10200073          	sret

0000000041010030 <trap_handler_s___CLEAR_MTI>:
    41010030:	08000293          	li	x5,128
    41010034:	1442b073          	csrc	sip,x5
    41010038:	10200073          	sret

000000004101003c <trap_handler_s___CLEAR_SEI>:
    4101003c:	20000293          	li	x5,512
    41010040:	1442b073          	csrc	sip,x5
    41010044:	10200073          	sret

0000000041010048 <trap_handler_s___CLEAR_MEI>:
    41010048:	000012b7          	lui	x5,0x1
    4101004c:	8002829b          	addiw	x5,x5,-2048 # 800 <XLEN+0x7c0>
    41010050:	1442b073          	csrc	sip,x5
    41010054:	10200073          	sret

0000000041010058 <trap_handler_s___CLEAR_COI>:
    41010058:	000022b7          	lui	x5,0x2
    4101005c:	1442b073          	csrc	sip,x5
    41010060:	10200073          	sret

0000000041010064 <trap_handler_s__clear_highest_priority_interrupt>:
    41010064:	144022f3          	csrr	x5,sip
    41010068:	40500333          	neg	x6,x5
    4101006c:	0062f2b3          	and	x5,x5,x6
    41010070:	1442b073          	csrc	sip,x5
    41010074:	10200073          	sret

0000000041010078 <trap_handler_s__trap_entry>:
    41010078:	10c0006f          	j	41010184 <trap_handler_s__trap_handler>

000000004101007c <trap_handler_s__interrupt_vector_table>:
    4101007c:	f91ff06f          	j	4101000c <trap_handler_s___CLEAR_SSI>
    41010080:	f81ff06f          	j	41010000 <trap_handler_s__invalid_interrupt>
    41010084:	f95ff06f          	j	41010018 <trap_handler_s___CLEAR_MSI>
    41010088:	f79ff06f          	j	41010000 <trap_handler_s__invalid_interrupt>
    4101008c:	f99ff06f          	j	41010024 <trap_handler_s___CLEAR_STI>
    41010090:	f71ff06f          	j	41010000 <trap_handler_s__invalid_interrupt>
    41010094:	f9dff06f          	j	41010030 <trap_handler_s___CLEAR_MTI>
    41010098:	f69ff06f          	j	41010000 <trap_handler_s__invalid_interrupt>
    4101009c:	fa1ff06f          	j	4101003c <trap_handler_s___CLEAR_SEI>
    410100a0:	f61ff06f          	j	41010000 <trap_handler_s__invalid_interrupt>
    410100a4:	fa5ff06f          	j	41010048 <trap_handler_s___CLEAR_MEI>
    410100a8:	f59ff06f          	j	41010000 <trap_handler_s__invalid_interrupt>
    410100ac:	fadff06f          	j	41010058 <trap_handler_s___CLEAR_COI>
    410100b0:	f51ff06f          	j	41010000 <trap_handler_s__invalid_interrupt>
    410100b4:	f4dff06f          	j	41010000 <trap_handler_s__invalid_interrupt>
    410100b8:	fadff06f          	j	41010064 <trap_handler_s__clear_highest_priority_interrupt>
    410100bc:	fa9ff06f          	j	41010064 <trap_handler_s__clear_highest_priority_interrupt>
    410100c0:	fa5ff06f          	j	41010064 <trap_handler_s__clear_highest_priority_interrupt>
    410100c4:	fa1ff06f          	j	41010064 <trap_handler_s__clear_highest_priority_interrupt>
    410100c8:	f9dff06f          	j	41010064 <trap_handler_s__clear_highest_priority_interrupt>
    410100cc:	f99ff06f          	j	41010064 <trap_handler_s__clear_highest_priority_interrupt>
    410100d0:	f95ff06f          	j	41010064 <trap_handler_s__clear_highest_priority_interrupt>
    410100d4:	f91ff06f          	j	41010064 <trap_handler_s__clear_highest_priority_interrupt>
    410100d8:	f8dff06f          	j	41010064 <trap_handler_s__clear_highest_priority_interrupt>
    410100dc:	f89ff06f          	j	41010064 <trap_handler_s__clear_highest_priority_interrupt>
    410100e0:	f85ff06f          	j	41010064 <trap_handler_s__clear_highest_priority_interrupt>
    410100e4:	f81ff06f          	j	41010064 <trap_handler_s__clear_highest_priority_interrupt>
    410100e8:	f7dff06f          	j	41010064 <trap_handler_s__clear_highest_priority_interrupt>
    410100ec:	f79ff06f          	j	41010064 <trap_handler_s__clear_highest_priority_interrupt>
    410100f0:	f75ff06f          	j	41010064 <trap_handler_s__clear_highest_priority_interrupt>
    410100f4:	f71ff06f          	j	41010064 <trap_handler_s__clear_highest_priority_interrupt>
    410100f8:	f6dff06f          	j	41010064 <trap_handler_s__clear_highest_priority_interrupt>
    410100fc:	f69ff06f          	j	41010064 <trap_handler_s__clear_highest_priority_interrupt>
    41010100:	f65ff06f          	j	41010064 <trap_handler_s__clear_highest_priority_interrupt>
    41010104:	f61ff06f          	j	41010064 <trap_handler_s__clear_highest_priority_interrupt>
    41010108:	f5dff06f          	j	41010064 <trap_handler_s__clear_highest_priority_interrupt>
    4101010c:	f59ff06f          	j	41010064 <trap_handler_s__clear_highest_priority_interrupt>
    41010110:	f55ff06f          	j	41010064 <trap_handler_s__clear_highest_priority_interrupt>
    41010114:	f51ff06f          	j	41010064 <trap_handler_s__clear_highest_priority_interrupt>
    41010118:	f4dff06f          	j	41010064 <trap_handler_s__clear_highest_priority_interrupt>
    4101011c:	f49ff06f          	j	41010064 <trap_handler_s__clear_highest_priority_interrupt>
    41010120:	f45ff06f          	j	41010064 <trap_handler_s__clear_highest_priority_interrupt>
    41010124:	f41ff06f          	j	41010064 <trap_handler_s__clear_highest_priority_interrupt>
    41010128:	f3dff06f          	j	41010064 <trap_handler_s__clear_highest_priority_interrupt>
    4101012c:	f39ff06f          	j	41010064 <trap_handler_s__clear_highest_priority_interrupt>
    41010130:	f35ff06f          	j	41010064 <trap_handler_s__clear_highest_priority_interrupt>
    41010134:	f31ff06f          	j	41010064 <trap_handler_s__clear_highest_priority_interrupt>
    41010138:	f2dff06f          	j	41010064 <trap_handler_s__clear_highest_priority_interrupt>
    4101013c:	f29ff06f          	j	41010064 <trap_handler_s__clear_highest_priority_interrupt>
    41010140:	f25ff06f          	j	41010064 <trap_handler_s__clear_highest_priority_interrupt>
    41010144:	f21ff06f          	j	41010064 <trap_handler_s__clear_highest_priority_interrupt>
    41010148:	f1dff06f          	j	41010064 <trap_handler_s__clear_highest_priority_interrupt>
    4101014c:	f19ff06f          	j	41010064 <trap_handler_s__clear_highest_priority_interrupt>
    41010150:	f15ff06f          	j	41010064 <trap_handler_s__clear_highest_priority_interrupt>
    41010154:	f11ff06f          	j	41010064 <trap_handler_s__clear_highest_priority_interrupt>
    41010158:	f0dff06f          	j	41010064 <trap_handler_s__clear_highest_priority_interrupt>
    4101015c:	f09ff06f          	j	41010064 <trap_handler_s__clear_highest_priority_interrupt>
    41010160:	f05ff06f          	j	41010064 <trap_handler_s__clear_highest_priority_interrupt>
    41010164:	f01ff06f          	j	41010064 <trap_handler_s__clear_highest_priority_interrupt>
    41010168:	efdff06f          	j	41010064 <trap_handler_s__clear_highest_priority_interrupt>
    4101016c:	ef9ff06f          	j	41010064 <trap_handler_s__clear_highest_priority_interrupt>
    41010170:	ef5ff06f          	j	41010064 <trap_handler_s__clear_highest_priority_interrupt>

0000000041010174 <trap_handler_s__test_failed>:
    41010174:	00f00f9b          	addiw	x31,x0,15
    41010178:	01cf9f93          	slli	x31,x31,0x1c
    4101017c:	002f8f93          	addi	x31,x31,2
    41010180:	00000073          	ecall

0000000041010184 <trap_handler_s__trap_handler>:
    41010184:	142022f3          	csrr	x5,scause
    41010188:	fff0031b          	addiw	x6,x0,-1
    4101018c:	03f31313          	slli	x6,x6,0x3f
    41010190:	00537333          	and	x6,x6,x5
    41010194:	02030263          	beqz	x6,410101b8 <trap_handler_s__exception_path>

0000000041010198 <trap_handler_s__interrupt_handler>:
    41010198:	fff0031b          	addiw	x6,x0,-1
    4101019c:	03f31313          	slli	x6,x6,0x3f
    410101a0:	0062c2b3          	xor	x5,x5,x6
    410101a4:	00000317          	auipc	x6,0x0
    410101a8:	ed430313          	addi	x6,x6,-300 # 41010078 <trap_handler_s__trap_entry>
    410101ac:	00229293          	slli	x5,x5,0x2
    410101b0:	005302b3          	add	x5,x6,x5
    410101b4:	00028067          	jr	x5 # 2000 <hart_context>

00000000410101b8 <trap_handler_s__exception_path>:
    410101b8:	14021273          	csrrw	x4,sscratch,x4
    410101bc:	00000297          	auipc	x5,0x0
    410101c0:	0cc28293          	addi	x5,x5,204 # 41010288 <trap_handler_s__trap_panic>
    410101c4:	10529073          	csrw	stvec,x5
    410101c8:	0040006f          	j	410101cc <trap_handler_s__excp_entry>

00000000410101cc <trap_handler_s__excp_entry>:
    410101cc:	14202373          	csrr	x6,scause
    410101d0:	00800293          	li	x5,8
    410101d4:	00534863          	blt	x6,x5,410101e4 <trap_handler_s__check_exception_label>
    410101d8:	00b00293          	li	x5,11
    410101dc:	0062c463          	blt	x5,x6,410101e4 <trap_handler_s__check_exception_label>
    410101e0:	0a80006f          	j	41010288 <trap_handler_s__trap_panic>

00000000410101e4 <trap_handler_s__check_exception_label>:
    410101e4:	04623c23          	sd	x6,88(x4) # 58 <XLEN+0x18>
    410101e8:	141022f3          	csrr	x5,sepc
    410101ec:	02523423          	sd	x5,40(x4) # 28 <SECURE_ACCESS_PROBABILITY+0xa>
    410101f0:	01820283          	lb	x5,24(x4) # 18 <STORE_GUEST_PAGE_FAULT+0x1>
    410101f4:	00029863          	bnez	x5,41010204 <trap_handler_s__check_excp>
    410101f8:	00128293          	addi	x5,x5,1
    410101fc:	00520c23          	sb	x5,24(x4) # 18 <STORE_GUEST_PAGE_FAULT+0x1>
    41010200:	05c0006f          	j	4101025c <trap_handler_s__ecall_from_machine>

0000000041010204 <trap_handler_s__check_excp>:
    41010204:	06823283          	ld	x5,104(x4) # 68 <XLEN+0x28>
    41010208:	06023423          	sd	x0,104(x4) # 68 <XLEN+0x28>
    4101020c:	00028663          	beqz	x5,41010218 <trap_handler_s__skip_mode_check>
    41010210:	00300393          	li	x7,3
    41010214:	f67290e3          	bne	x5,x7,41010174 <trap_handler_s__test_failed>

0000000041010218 <trap_handler_s__skip_mode_check>:
    41010218:	05023283          	ld	x5,80(x4) # 50 <XLEN+0x10>
    4101021c:	04023823          	sd	x0,80(x4) # 50 <XLEN+0x10>
    41010220:	f4531ae3          	bne	x6,x5,41010174 <trap_handler_s__test_failed>
    41010224:	03823283          	ld	x5,56(x4) # 38 <SECURE_ACCESS_PROBABILITY+0x1a>
    41010228:	02023c23          	sd	x0,56(x4) # 38 <SECURE_ACCESS_PROBABILITY+0x1a>
    4101022c:	02029663          	bnez	x5,41010258 <trap_handler_s__skip_nonzero_tval_check>
    41010230:	02023303          	ld	x6,32(x4) # 20 <SECURE_ACCESS_PROBABILITY+0x2>
    41010234:	02023023          	sd	x0,32(x4) # 20 <SECURE_ACCESS_PROBABILITY+0x2>
    41010238:	02823283          	ld	x5,40(x4) # 28 <SECURE_ACCESS_PROBABILITY+0xa>
    4101023c:	02023423          	sd	x0,40(x4) # 28 <SECURE_ACCESS_PROBABILITY+0xa>
    41010240:	f2531ae3          	bne	x6,x5,41010174 <trap_handler_s__test_failed>
    41010244:	04023283          	ld	x5,64(x4) # 40 <XLEN>
    41010248:	04023023          	sd	x0,64(x4) # 40 <XLEN>
    4101024c:	00028663          	beqz	x5,41010258 <trap_handler_s__skip_nonzero_tval_check>

0000000041010250 <trap_handler_s__nonzero_tval_check>:
    41010250:	14302373          	csrr	x6,stval
    41010254:	f25310e3          	bne	x6,x5,41010174 <trap_handler_s__test_failed>

0000000041010258 <trap_handler_s__skip_nonzero_tval_check>:
    41010258:	0040006f          	j	4101025c <trap_handler_s__ecall_from_machine>

000000004101025c <trap_handler_s__ecall_from_machine>:
    4101025c:	03023283          	ld	x5,48(x4) # 30 <SECURE_ACCESS_PROBABILITY+0x12>
    41010260:	02023823          	sd	x0,48(x4) # 30 <SECURE_ACCESS_PROBABILITY+0x12>
    41010264:	07023303          	ld	x6,112(x4) # 70 <XLEN+0x30>
    41010268:	06023823          	sd	x0,112(x4) # 70 <XLEN+0x30>
    4101026c:	00031463          	bnez	x6,41010274 <trap_handler_s__skip_xepc_write>
    41010270:	14129073          	csrw	sepc,x5

0000000041010274 <trap_handler_s__skip_xepc_write>:
    41010274:	00000317          	auipc	x6,0x0
    41010278:	e0430313          	addi	x6,x6,-508 # 41010078 <trap_handler_s__trap_entry>
    4101027c:	10531073          	csrw	stvec,x6
    41010280:	14021273          	csrrw	x4,sscratch,x4
    41010284:	10200073          	sret

0000000041010288 <trap_handler_s__trap_panic>:
    41010288:	00000193          	li	x3,0
    4101028c:	00f00f9b          	addiw	x31,x0,15
    41010290:	01cf9f93          	slli	x31,x31,0x1c
    41010294:	002f8f93          	addi	x31,x31,2
    41010298:	00000073          	ecall

000000004101029c <trap_handler_hs__invalid_interrupt>:
    4101029c:	1740006f          	j	41010410 <trap_handler_hs__test_failed>

00000000410102a0 <trap_handler_hs__clear_all_interrupts>:
    410102a0:	14401073          	csrw	sip,x0
    410102a4:	10200073          	sret

00000000410102a8 <trap_handler_hs___CLEAR_SSI>:
    410102a8:	00200293          	li	x5,2
    410102ac:	1442b073          	csrc	sip,x5
    410102b0:	10200073          	sret

00000000410102b4 <trap_handler_hs___CLEAR_MSI>:
    410102b4:	00800293          	li	x5,8
    410102b8:	1442b073          	csrc	sip,x5
    410102bc:	10200073          	sret

00000000410102c0 <trap_handler_hs___CLEAR_STI>:
    410102c0:	02000293          	li	x5,32
    410102c4:	1442b073          	csrc	sip,x5
    410102c8:	10200073          	sret

00000000410102cc <trap_handler_hs___CLEAR_MTI>:
    410102cc:	08000293          	li	x5,128
    410102d0:	1442b073          	csrc	sip,x5
    410102d4:	10200073          	sret

00000000410102d8 <trap_handler_hs___CLEAR_SEI>:
    410102d8:	20000293          	li	x5,512
    410102dc:	1442b073          	csrc	sip,x5
    410102e0:	10200073          	sret

00000000410102e4 <trap_handler_hs___CLEAR_MEI>:
    410102e4:	000012b7          	lui	x5,0x1
    410102e8:	8002829b          	addiw	x5,x5,-2048 # 800 <XLEN+0x7c0>
    410102ec:	1442b073          	csrc	sip,x5
    410102f0:	10200073          	sret

00000000410102f4 <trap_handler_hs___CLEAR_COI>:
    410102f4:	000022b7          	lui	x5,0x2
    410102f8:	1442b073          	csrc	sip,x5
    410102fc:	10200073          	sret

0000000041010300 <trap_handler_hs__clear_highest_priority_interrupt>:
    41010300:	144022f3          	csrr	x5,sip
    41010304:	40500333          	neg	x6,x5
    41010308:	0062f2b3          	and	x5,x5,x6
    4101030c:	1442b073          	csrc	sip,x5
    41010310:	10200073          	sret

0000000041010314 <trap_handler_hs__trap_entry>:
    41010314:	10c0006f          	j	41010420 <trap_handler_hs__trap_handler>

0000000041010318 <trap_handler_hs__interrupt_vector_table>:
    41010318:	f91ff06f          	j	410102a8 <trap_handler_hs___CLEAR_SSI>
    4101031c:	f81ff06f          	j	4101029c <trap_handler_hs__invalid_interrupt>
    41010320:	f95ff06f          	j	410102b4 <trap_handler_hs___CLEAR_MSI>
    41010324:	f79ff06f          	j	4101029c <trap_handler_hs__invalid_interrupt>
    41010328:	f99ff06f          	j	410102c0 <trap_handler_hs___CLEAR_STI>
    4101032c:	f71ff06f          	j	4101029c <trap_handler_hs__invalid_interrupt>
    41010330:	f9dff06f          	j	410102cc <trap_handler_hs___CLEAR_MTI>
    41010334:	f69ff06f          	j	4101029c <trap_handler_hs__invalid_interrupt>
    41010338:	fa1ff06f          	j	410102d8 <trap_handler_hs___CLEAR_SEI>
    4101033c:	f61ff06f          	j	4101029c <trap_handler_hs__invalid_interrupt>
    41010340:	fa5ff06f          	j	410102e4 <trap_handler_hs___CLEAR_MEI>
    41010344:	f59ff06f          	j	4101029c <trap_handler_hs__invalid_interrupt>
    41010348:	fadff06f          	j	410102f4 <trap_handler_hs___CLEAR_COI>
    4101034c:	f51ff06f          	j	4101029c <trap_handler_hs__invalid_interrupt>
    41010350:	f4dff06f          	j	4101029c <trap_handler_hs__invalid_interrupt>
    41010354:	fadff06f          	j	41010300 <trap_handler_hs__clear_highest_priority_interrupt>
    41010358:	fa9ff06f          	j	41010300 <trap_handler_hs__clear_highest_priority_interrupt>
    4101035c:	fa5ff06f          	j	41010300 <trap_handler_hs__clear_highest_priority_interrupt>
    41010360:	fa1ff06f          	j	41010300 <trap_handler_hs__clear_highest_priority_interrupt>
    41010364:	f9dff06f          	j	41010300 <trap_handler_hs__clear_highest_priority_interrupt>
    41010368:	f99ff06f          	j	41010300 <trap_handler_hs__clear_highest_priority_interrupt>
    4101036c:	f95ff06f          	j	41010300 <trap_handler_hs__clear_highest_priority_interrupt>
    41010370:	f91ff06f          	j	41010300 <trap_handler_hs__clear_highest_priority_interrupt>
    41010374:	f8dff06f          	j	41010300 <trap_handler_hs__clear_highest_priority_interrupt>
    41010378:	f89ff06f          	j	41010300 <trap_handler_hs__clear_highest_priority_interrupt>
    4101037c:	f85ff06f          	j	41010300 <trap_handler_hs__clear_highest_priority_interrupt>
    41010380:	f81ff06f          	j	41010300 <trap_handler_hs__clear_highest_priority_interrupt>
    41010384:	f7dff06f          	j	41010300 <trap_handler_hs__clear_highest_priority_interrupt>
    41010388:	f79ff06f          	j	41010300 <trap_handler_hs__clear_highest_priority_interrupt>
    4101038c:	f75ff06f          	j	41010300 <trap_handler_hs__clear_highest_priority_interrupt>
    41010390:	f71ff06f          	j	41010300 <trap_handler_hs__clear_highest_priority_interrupt>
    41010394:	f6dff06f          	j	41010300 <trap_handler_hs__clear_highest_priority_interrupt>
    41010398:	f69ff06f          	j	41010300 <trap_handler_hs__clear_highest_priority_interrupt>
    4101039c:	f65ff06f          	j	41010300 <trap_handler_hs__clear_highest_priority_interrupt>
    410103a0:	f61ff06f          	j	41010300 <trap_handler_hs__clear_highest_priority_interrupt>
    410103a4:	f5dff06f          	j	41010300 <trap_handler_hs__clear_highest_priority_interrupt>
    410103a8:	f59ff06f          	j	41010300 <trap_handler_hs__clear_highest_priority_interrupt>
    410103ac:	f55ff06f          	j	41010300 <trap_handler_hs__clear_highest_priority_interrupt>
    410103b0:	f51ff06f          	j	41010300 <trap_handler_hs__clear_highest_priority_interrupt>
    410103b4:	f4dff06f          	j	41010300 <trap_handler_hs__clear_highest_priority_interrupt>
    410103b8:	f49ff06f          	j	41010300 <trap_handler_hs__clear_highest_priority_interrupt>
    410103bc:	f45ff06f          	j	41010300 <trap_handler_hs__clear_highest_priority_interrupt>
    410103c0:	f41ff06f          	j	41010300 <trap_handler_hs__clear_highest_priority_interrupt>
    410103c4:	f3dff06f          	j	41010300 <trap_handler_hs__clear_highest_priority_interrupt>
    410103c8:	f39ff06f          	j	41010300 <trap_handler_hs__clear_highest_priority_interrupt>
    410103cc:	f35ff06f          	j	41010300 <trap_handler_hs__clear_highest_priority_interrupt>
    410103d0:	f31ff06f          	j	41010300 <trap_handler_hs__clear_highest_priority_interrupt>
    410103d4:	f2dff06f          	j	41010300 <trap_handler_hs__clear_highest_priority_interrupt>
    410103d8:	f29ff06f          	j	41010300 <trap_handler_hs__clear_highest_priority_interrupt>
    410103dc:	f25ff06f          	j	41010300 <trap_handler_hs__clear_highest_priority_interrupt>
    410103e0:	f21ff06f          	j	41010300 <trap_handler_hs__clear_highest_priority_interrupt>
    410103e4:	f1dff06f          	j	41010300 <trap_handler_hs__clear_highest_priority_interrupt>
    410103e8:	f19ff06f          	j	41010300 <trap_handler_hs__clear_highest_priority_interrupt>
    410103ec:	f15ff06f          	j	41010300 <trap_handler_hs__clear_highest_priority_interrupt>
    410103f0:	f11ff06f          	j	41010300 <trap_handler_hs__clear_highest_priority_interrupt>
    410103f4:	f0dff06f          	j	41010300 <trap_handler_hs__clear_highest_priority_interrupt>
    410103f8:	f09ff06f          	j	41010300 <trap_handler_hs__clear_highest_priority_interrupt>
    410103fc:	f05ff06f          	j	41010300 <trap_handler_hs__clear_highest_priority_interrupt>
    41010400:	f01ff06f          	j	41010300 <trap_handler_hs__clear_highest_priority_interrupt>
    41010404:	efdff06f          	j	41010300 <trap_handler_hs__clear_highest_priority_interrupt>
    41010408:	ef9ff06f          	j	41010300 <trap_handler_hs__clear_highest_priority_interrupt>
    4101040c:	ef5ff06f          	j	41010300 <trap_handler_hs__clear_highest_priority_interrupt>

0000000041010410 <trap_handler_hs__test_failed>:
    41010410:	00f00f9b          	addiw	x31,x0,15
    41010414:	01cf9f93          	slli	x31,x31,0x1c
    41010418:	002f8f93          	addi	x31,x31,2
    4101041c:	00000073          	ecall

0000000041010420 <trap_handler_hs__trap_handler>:
    41010420:	142022f3          	csrr	x5,scause
    41010424:	fff0031b          	addiw	x6,x0,-1
    41010428:	03f31313          	slli	x6,x6,0x3f
    4101042c:	00537333          	and	x6,x6,x5
    41010430:	02030263          	beqz	x6,41010454 <trap_handler_hs__exception_path>

0000000041010434 <trap_handler_hs__interrupt_handler>:
    41010434:	fff0031b          	addiw	x6,x0,-1
    41010438:	03f31313          	slli	x6,x6,0x3f
    4101043c:	0062c2b3          	xor	x5,x5,x6
    41010440:	00000317          	auipc	x6,0x0
    41010444:	ed430313          	addi	x6,x6,-300 # 41010314 <trap_handler_hs__trap_entry>
    41010448:	00229293          	slli	x5,x5,0x2
    4101044c:	005302b3          	add	x5,x6,x5
    41010450:	00028067          	jr	x5 # 2000 <hart_context>

0000000041010454 <trap_handler_hs__exception_path>:
    41010454:	14021273          	csrrw	x4,sscratch,x4
    41010458:	00000297          	auipc	x5,0x0
    4101045c:	10428293          	addi	x5,x5,260 # 4101055c <trap_handler_hs__trap_panic>
    41010460:	10529073          	csrw	stvec,x5
    41010464:	0040006f          	j	41010468 <trap_handler_hs__excp_entry>

0000000041010468 <trap_handler_hs__excp_entry>:
    41010468:	14202373          	csrr	x6,scause
    4101046c:	00800293          	li	x5,8
    41010470:	00534863          	blt	x6,x5,41010480 <trap_handler_hs__check_exception_label>
    41010474:	00b00293          	li	x5,11
    41010478:	0062c463          	blt	x5,x6,41010480 <trap_handler_hs__check_exception_label>
    4101047c:	0e00006f          	j	4101055c <trap_handler_hs__trap_panic>

0000000041010480 <trap_handler_hs__check_exception_label>:
    41010480:	04623c23          	sd	x6,88(x4) # 58 <XLEN+0x18>
    41010484:	141022f3          	csrr	x5,sepc
    41010488:	02523423          	sd	x5,40(x4) # 28 <SECURE_ACCESS_PROBABILITY+0xa>
    4101048c:	01820283          	lb	x5,24(x4) # 18 <STORE_GUEST_PAGE_FAULT+0x1>
    41010490:	00029863          	bnez	x5,410104a0 <trap_handler_hs__check_excp>
    41010494:	00128293          	addi	x5,x5,1
    41010498:	00520c23          	sb	x5,24(x4) # 18 <STORE_GUEST_PAGE_FAULT+0x1>
    4101049c:	0940006f          	j	41010530 <trap_handler_hs__ecall_from_machine>

00000000410104a0 <trap_handler_hs__check_excp>:
    410104a0:	06823283          	ld	x5,104(x4) # 68 <XLEN+0x28>
    410104a4:	06023423          	sd	x0,104(x4) # 68 <XLEN+0x28>
    410104a8:	00028663          	beqz	x5,410104b4 <trap_handler_hs__skip_mode_check>
    410104ac:	00200393          	li	x7,2
    410104b0:	f67290e3          	bne	x5,x7,41010410 <trap_handler_hs__test_failed>

00000000410104b4 <trap_handler_hs__skip_mode_check>:
    410104b4:	05023283          	ld	x5,80(x4) # 50 <XLEN+0x10>
    410104b8:	04023823          	sd	x0,80(x4) # 50 <XLEN+0x10>
    410104bc:	f4531ae3          	bne	x6,x5,41010410 <trap_handler_hs__test_failed>
    410104c0:	03823283          	ld	x5,56(x4) # 38 <SECURE_ACCESS_PROBABILITY+0x1a>
    410104c4:	02023c23          	sd	x0,56(x4) # 38 <SECURE_ACCESS_PROBABILITY+0x1a>
    410104c8:	06029263          	bnez	x5,4101052c <trap_handler_hs__skip_gva_check>
    410104cc:	02023303          	ld	x6,32(x4) # 20 <SECURE_ACCESS_PROBABILITY+0x2>
    410104d0:	02023023          	sd	x0,32(x4) # 20 <SECURE_ACCESS_PROBABILITY+0x2>
    410104d4:	02823283          	ld	x5,40(x4) # 28 <SECURE_ACCESS_PROBABILITY+0xa>
    410104d8:	02023423          	sd	x0,40(x4) # 28 <SECURE_ACCESS_PROBABILITY+0xa>
    410104dc:	f2531ae3          	bne	x6,x5,41010410 <trap_handler_hs__test_failed>
    410104e0:	04023283          	ld	x5,64(x4) # 40 <XLEN>
    410104e4:	04023023          	sd	x0,64(x4) # 40 <XLEN>
    410104e8:	00028663          	beqz	x5,410104f4 <trap_handler_hs__skip_nonzero_tval_check>

00000000410104ec <trap_handler_hs__nonzero_tval_check>:
    410104ec:	14302373          	csrr	x6,stval
    410104f0:	f25310e3          	bne	x6,x5,41010410 <trap_handler_hs__test_failed>

00000000410104f4 <trap_handler_hs__skip_nonzero_tval_check>:
    410104f4:	04823283          	ld	x5,72(x4) # 48 <XLEN+0x8>
    410104f8:	04023423          	sd	x0,72(x4) # 48 <XLEN+0x8>
    410104fc:	00028663          	beqz	x5,41010508 <trap_handler_hs__skip_nonzero_htval_check>

0000000041010500 <trap_handler_hs__nonzero_htval_check>:
    41010500:	64302373          	csrr	x6,htval
    41010504:	f05316e3          	bne	x6,x5,41010410 <trap_handler_hs__test_failed>

0000000041010508 <trap_handler_hs__skip_nonzero_htval_check>:
    41010508:	06023283          	ld	x5,96(x4) # 60 <XLEN+0x20>
    4101050c:	06023023          	sd	x0,96(x4) # 60 <XLEN+0x20>
    41010510:	00028e63          	beqz	x5,4101052c <trap_handler_hs__skip_gva_check>

0000000041010514 <trap_handler_hs__gva_check>:
    41010514:	60002373          	csrr	x6,hstatus
    41010518:	00635313          	srli	x6,x6,0x6
    4101051c:	00137313          	andi	x6,x6,1
    41010520:	ee0308e3          	beqz	x6,41010410 <trap_handler_hs__test_failed>
    41010524:	04000313          	li	x6,64
    41010528:	60033073          	csrc	hstatus,x6

000000004101052c <trap_handler_hs__skip_gva_check>:
    4101052c:	0040006f          	j	41010530 <trap_handler_hs__ecall_from_machine>

0000000041010530 <trap_handler_hs__ecall_from_machine>:
    41010530:	03023283          	ld	x5,48(x4) # 30 <SECURE_ACCESS_PROBABILITY+0x12>
    41010534:	02023823          	sd	x0,48(x4) # 30 <SECURE_ACCESS_PROBABILITY+0x12>
    41010538:	07023303          	ld	x6,112(x4) # 70 <XLEN+0x30>
    4101053c:	06023823          	sd	x0,112(x4) # 70 <XLEN+0x30>
    41010540:	00031463          	bnez	x6,41010548 <trap_handler_hs__skip_xepc_write>
    41010544:	14129073          	csrw	sepc,x5

0000000041010548 <trap_handler_hs__skip_xepc_write>:
    41010548:	00000317          	auipc	x6,0x0
    4101054c:	dcc30313          	addi	x6,x6,-564 # 41010314 <trap_handler_hs__trap_entry>
    41010550:	10531073          	csrw	stvec,x6
    41010554:	14021273          	csrrw	x4,sscratch,x4
    41010558:	10200073          	sret

000000004101055c <trap_handler_hs__trap_panic>:
    4101055c:	00000193          	li	x3,0
    41010560:	00f00f9b          	addiw	x31,x0,15
    41010564:	01cf9f93          	slli	x31,x31,0x1c
    41010568:	002f8f93          	addi	x31,x31,2
    4101056c:	00000073          	ecall

Disassembly of section .code:

00000000410140b0 <passed>:
    410140b0:	00f00f9b          	addiw	x31,x0,15
    410140b4:	01cf9f93          	slli	x31,x31,0x1c
    410140b8:	001f8f93          	addi	x31,x31,1
    410140bc:	00000073          	ecall

00000000410140c0 <failed>:
    410140c0:	00f00f9b          	addiw	x31,x0,15
    410140c4:	01cf9f93          	slli	x31,x31,0x1c
    410140c8:	002f8f93          	addi	x31,x31,2
    410140cc:	00000073          	ecall

00000000410140d0 <end_test>:
    410140d0:	00f00f9b          	addiw	x31,x0,15
    410140d4:	01cf9f93          	slli	x31,x31,0x1c
    410140d8:	003f8f93          	addi	x31,x31,3
    410140dc:	00000073          	ecall

00000000410140e0 <test_setup>:
    410140e0:	00f00f9b          	addiw	x31,x0,15
    410140e4:	01cf9f93          	slli	x31,x31,0x1c
    410140e8:	001f8f93          	addi	x31,x31,1
    410140ec:	00000073          	ecall

00000000410140f0 <SID_HEXCEP_05>:
    410140f0:	01ec5137          	lui	x2,0x1ec5
    410140f4:	6431011b          	addiw	x2,x2,1603 # 1ec5643 <SID_HEXCEP_19_misaligned_sc_delegated_stack+0x1bd0643>
    410140f8:	00d11113          	slli	x2,x2,0xd
    410140fc:	5940afb7          	lui	x31,0x5940a
    41014100:	0b0f8f9b          	addiw	x31,x31,176 # 5940a0b0 <machine_csr_jump_table_flags>
    41014104:	00100f13          	li	x30,1
    41014108:	01efb023          	sd	x30,0(x31)
    4101410c:	000f0fb7          	lui	x31,0xf0
    41014110:	001f8f9b          	addiw	x31,x31,1 # f0001 <mem7+0x54001>
    41014114:	00cf9f93          	slli	x31,x31,0xc
    41014118:	005f8f93          	addi	x31,x31,5
    4101411c:	00000073          	ecall
    41014120:	00713023          	sd	x7,0(x2)
    41014124:	001ae137          	lui	x2,0x1ae
    41014128:	9911011b          	addiw	x2,x2,-1647 # 1ad991 <mem7+0x111991>
    4101412c:	00d11113          	slli	x2,x2,0xd
    41014130:	06f10113          	addi	x2,x2,111
    41014134:	00d11113          	slli	x2,x2,0xd
    41014138:	000012b7          	lui	x5,0x1
    4101413c:	00510133          	add	x2,x2,x5
    41014140:	ff017113          	andi	x2,x2,-16
    41014144:	001003b7          	lui	x7,0x100
    41014148:	5940afb7          	lui	x31,0x5940a
    4101414c:	0b0f8f9b          	addiw	x31,x31,176 # 5940a0b0 <machine_csr_jump_table_flags>
    41014150:	00200f13          	li	x30,2
    41014154:	01efb023          	sd	x30,0(x31)
    41014158:	000f0fb7          	lui	x31,0xf0
    4101415c:	001f8f9b          	addiw	x31,x31,1 # f0001 <mem7+0x54001>
    41014160:	00cf9f93          	slli	x31,x31,0xc
    41014164:	005f8f93          	addi	x31,x31,5
    41014168:	00000073          	ecall
    4101416c:	00000513          	li	x10,0
    41014170:	00002237          	lui	x4,0x2
    41014174:	01600e13          	li	x28,22
    41014178:	05c23823          	sd	x28,80(x4) # 2050 <check_excp_expected_cause>
    4101417c:	00000e17          	auipc	x28,0x0
    41014180:	04ce0e13          	addi	x28,x28,76 # 410141c8 <fault_label_0>
    41014184:	03c23023          	sd	x28,32(x4) # 20 <SECURE_ACCESS_PROBABILITY+0x2>
    41014188:	00000e13          	li	x28,0
    4101418c:	05c23023          	sd	x28,64(x4) # 40 <XLEN>
    41014190:	00000e13          	li	x28,0
    41014194:	05c23423          	sd	x28,72(x4) # 48 <XLEN+0x8>
    41014198:	00000e17          	auipc	x28,0x0
    4101419c:	044e0e13          	addi	x28,x28,68 # 410141dc <excp_return_label_0>
    410141a0:	03c23823          	sd	x28,48(x4) # 30 <SECURE_ACCESS_PROBABILITY+0x12>
    410141a4:	00000e13          	li	x28,0
    410141a8:	03c23c23          	sd	x28,56(x4) # 38 <SECURE_ACCESS_PROBABILITY+0x1a>
    410141ac:	00000e13          	li	x28,0
    410141b0:	07c23023          	sd	x28,96(x4) # 60 <XLEN+0x20>
    410141b4:	00000e13          	li	x28,0
    410141b8:	07c23423          	sd	x28,104(x4) # 68 <XLEN+0x28>
    410141bc:	00000e13          	li	x28,0
    410141c0:	07c23823          	sd	x28,112(x4) # 70 <XLEN+0x30>
    410141c4:	00000813          	li	x16,0

00000000410141c8 <fault_label_0>:
    410141c8:	200825f3          	csrrs	x11,vsstatus,x16
    410141cc:	5940acb7          	lui	x25,0x5940a
    410141d0:	008c8c9b          	addiw	x25,x25,8 # 5940a008 <failed_addr>
    410141d4:	000cbc83          	ld	x25,0(x25)
    410141d8:	000c8067          	jr	x25

00000000410141dc <excp_return_label_0>:
    410141dc:	00002237          	lui	x4,0x2
    410141e0:	01600e13          	li	x28,22
    410141e4:	05c23823          	sd	x28,80(x4) # 2050 <check_excp_expected_cause>
    410141e8:	00000e17          	auipc	x28,0x0
    410141ec:	048e0e13          	addi	x28,x28,72 # 41014230 <fault_label_1>
    410141f0:	03c23023          	sd	x28,32(x4) # 20 <SECURE_ACCESS_PROBABILITY+0x2>
    410141f4:	00000e13          	li	x28,0
    410141f8:	05c23023          	sd	x28,64(x4) # 40 <XLEN>
    410141fc:	00000e13          	li	x28,0
    41014200:	05c23423          	sd	x28,72(x4) # 48 <XLEN+0x8>
    41014204:	00000e17          	auipc	x28,0x0
    41014208:	040e0e13          	addi	x28,x28,64 # 41014244 <excp_return_label_1>
    4101420c:	03c23823          	sd	x28,48(x4) # 30 <SECURE_ACCESS_PROBABILITY+0x12>
    41014210:	00000e13          	li	x28,0
    41014214:	03c23c23          	sd	x28,56(x4) # 38 <SECURE_ACCESS_PROBABILITY+0x1a>
    41014218:	00000e13          	li	x28,0
    4101421c:	07c23023          	sd	x28,96(x4) # 60 <XLEN+0x20>
    41014220:	00000e13          	li	x28,0
    41014224:	07c23423          	sd	x28,104(x4) # 68 <XLEN+0x28>
    41014228:	00000e13          	li	x28,0
    4101422c:	07c23823          	sd	x28,112(x4) # 70 <XLEN+0x30>

0000000041014230 <fault_label_1>:
    41014230:	20051c73          	csrrw	x24,vsstatus,x10
    41014234:	5940adb7          	lui	x27,0x5940a
    41014238:	008d8d9b          	addiw	x27,x27,8 # 5940a008 <failed_addr>
    4101423c:	000db803          	ld	x16,0(x27)
    41014240:	00080067          	jr	x16

0000000041014244 <excp_return_label_1>:
    41014244:	00002237          	lui	x4,0x2
    41014248:	01600e13          	li	x28,22
    4101424c:	05c23823          	sd	x28,80(x4) # 2050 <check_excp_expected_cause>
    41014250:	00000e17          	auipc	x28,0x0
    41014254:	04ce0e13          	addi	x28,x28,76 # 4101429c <fault_label_2>
    41014258:	03c23023          	sd	x28,32(x4) # 20 <SECURE_ACCESS_PROBABILITY+0x2>
    4101425c:	00000e13          	li	x28,0
    41014260:	05c23023          	sd	x28,64(x4) # 40 <XLEN>
    41014264:	00000e13          	li	x28,0
    41014268:	05c23423          	sd	x28,72(x4) # 48 <XLEN+0x8>
    4101426c:	00000e17          	auipc	x28,0x0
    41014270:	044e0e13          	addi	x28,x28,68 # 410142b0 <excp_return_label_2>
    41014274:	03c23823          	sd	x28,48(x4) # 30 <SECURE_ACCESS_PROBABILITY+0x12>
    41014278:	00000e13          	li	x28,0
    4101427c:	03c23c23          	sd	x28,56(x4) # 38 <SECURE_ACCESS_PROBABILITY+0x1a>
    41014280:	00000e13          	li	x28,0
    41014284:	07c23023          	sd	x28,96(x4) # 60 <XLEN+0x20>
    41014288:	00000e13          	li	x28,0
    4101428c:	07c23423          	sd	x28,104(x4) # 68 <XLEN+0x28>
    41014290:	00000e13          	li	x28,0
    41014294:	07c23823          	sd	x28,112(x4) # 70 <XLEN+0x30>
    41014298:	00000b13          	li	x22,0

000000004101429c <fault_label_2>:
    4101429c:	244b27f3          	csrrs	x15,vsip,x22
    410142a0:	5940a637          	lui	x12,0x5940a
    410142a4:	0086061b          	addiw	x12,x12,8 # 5940a008 <failed_addr>
    410142a8:	00063f83          	ld	x31,0(x12)
    410142ac:	000f8067          	jr	x31

00000000410142b0 <excp_return_label_2>:
    410142b0:	00002237          	lui	x4,0x2
    410142b4:	01600e13          	li	x28,22
    410142b8:	05c23823          	sd	x28,80(x4) # 2050 <check_excp_expected_cause>
    410142bc:	00000e17          	auipc	x28,0x0
    410142c0:	048e0e13          	addi	x28,x28,72 # 41014304 <fault_label_3>
    410142c4:	03c23023          	sd	x28,32(x4) # 20 <SECURE_ACCESS_PROBABILITY+0x2>
    410142c8:	00000e13          	li	x28,0
    410142cc:	05c23023          	sd	x28,64(x4) # 40 <XLEN>
    410142d0:	00000e13          	li	x28,0
    410142d4:	05c23423          	sd	x28,72(x4) # 48 <XLEN+0x8>
    410142d8:	00000e17          	auipc	x28,0x0
    410142dc:	040e0e13          	addi	x28,x28,64 # 41014318 <excp_return_label_3>
    410142e0:	03c23823          	sd	x28,48(x4) # 30 <SECURE_ACCESS_PROBABILITY+0x12>
    410142e4:	00000e13          	li	x28,0
    410142e8:	03c23c23          	sd	x28,56(x4) # 38 <SECURE_ACCESS_PROBABILITY+0x1a>
    410142ec:	00000e13          	li	x28,0
    410142f0:	07c23023          	sd	x28,96(x4) # 60 <XLEN+0x20>
    410142f4:	00000e13          	li	x28,0
    410142f8:	07c23423          	sd	x28,104(x4) # 68 <XLEN+0x28>
    410142fc:	00000e13          	li	x28,0
    41014300:	07c23823          	sd	x28,112(x4) # 70 <XLEN+0x30>

0000000041014304 <fault_label_3>:
    41014304:	24451373          	csrrw	x6,vsip,x10
    41014308:	5940aeb7          	lui	x29,0x5940a
    4101430c:	008e8e9b          	addiw	x29,x29,8 # 5940a008 <failed_addr>
    41014310:	000eb383          	ld	x7,0(x29)
    41014314:	00038067          	jr	x7 # 100000 <mem7+0x64000>

0000000041014318 <excp_return_label_3>:
    41014318:	00002237          	lui	x4,0x2
    4101431c:	01600e13          	li	x28,22
    41014320:	05c23823          	sd	x28,80(x4) # 2050 <check_excp_expected_cause>
    41014324:	00000e17          	auipc	x28,0x0
    41014328:	04ce0e13          	addi	x28,x28,76 # 41014370 <fault_label_4>
    4101432c:	03c23023          	sd	x28,32(x4) # 20 <SECURE_ACCESS_PROBABILITY+0x2>
    41014330:	00000e13          	li	x28,0
    41014334:	05c23023          	sd	x28,64(x4) # 40 <XLEN>
    41014338:	00000e13          	li	x28,0
    4101433c:	05c23423          	sd	x28,72(x4) # 48 <XLEN+0x8>
    41014340:	00000e17          	auipc	x28,0x0
    41014344:	044e0e13          	addi	x28,x28,68 # 41014384 <excp_return_label_4>
    41014348:	03c23823          	sd	x28,48(x4) # 30 <SECURE_ACCESS_PROBABILITY+0x12>
    4101434c:	00000e13          	li	x28,0
    41014350:	03c23c23          	sd	x28,56(x4) # 38 <SECURE_ACCESS_PROBABILITY+0x1a>
    41014354:	00000e13          	li	x28,0
    41014358:	07c23023          	sd	x28,96(x4) # 60 <XLEN+0x20>
    4101435c:	00000e13          	li	x28,0
    41014360:	07c23423          	sd	x28,104(x4) # 68 <XLEN+0x28>
    41014364:	00000e13          	li	x28,0
    41014368:	07c23823          	sd	x28,112(x4) # 70 <XLEN+0x30>
    4101436c:	00000793          	li	x15,0

0000000041014370 <fault_label_4>:
    41014370:	2047a7f3          	csrrs	x15,vsie,x15
    41014374:	5940a7b7          	lui	x15,0x5940a
    41014378:	0087879b          	addiw	x15,x15,8 # 5940a008 <failed_addr>
    4101437c:	0007b403          	ld	x8,0(x15)
    41014380:	00040067          	jr	x8

0000000041014384 <excp_return_label_4>:
    41014384:	00002237          	lui	x4,0x2
    41014388:	01600e13          	li	x28,22
    4101438c:	05c23823          	sd	x28,80(x4) # 2050 <check_excp_expected_cause>
    41014390:	00000e17          	auipc	x28,0x0
    41014394:	048e0e13          	addi	x28,x28,72 # 410143d8 <fault_label_5>
    41014398:	03c23023          	sd	x28,32(x4) # 20 <SECURE_ACCESS_PROBABILITY+0x2>
    4101439c:	00000e13          	li	x28,0
    410143a0:	05c23023          	sd	x28,64(x4) # 40 <XLEN>
    410143a4:	00000e13          	li	x28,0
    410143a8:	05c23423          	sd	x28,72(x4) # 48 <XLEN+0x8>
    410143ac:	00000e17          	auipc	x28,0x0
    410143b0:	040e0e13          	addi	x28,x28,64 # 410143ec <excp_return_label_5>
    410143b4:	03c23823          	sd	x28,48(x4) # 30 <SECURE_ACCESS_PROBABILITY+0x12>
    410143b8:	00000e13          	li	x28,0
    410143bc:	03c23c23          	sd	x28,56(x4) # 38 <SECURE_ACCESS_PROBABILITY+0x1a>
    410143c0:	00000e13          	li	x28,0
    410143c4:	07c23023          	sd	x28,96(x4) # 60 <XLEN+0x20>
    410143c8:	00000e13          	li	x28,0
    410143cc:	07c23423          	sd	x28,104(x4) # 68 <XLEN+0x28>
    410143d0:	00000e13          	li	x28,0
    410143d4:	07c23823          	sd	x28,112(x4) # 70 <XLEN+0x30>

00000000410143d8 <fault_label_5>:
    410143d8:	204513f3          	csrrw	x7,vsie,x10
    410143dc:	5940ac37          	lui	x24,0x5940a
    410143e0:	008c0c1b          	addiw	x24,x24,8 # 5940a008 <failed_addr>
    410143e4:	000c3b83          	ld	x23,0(x24)
    410143e8:	000b8067          	jr	x23

00000000410143ec <excp_return_label_5>:
    410143ec:	00002237          	lui	x4,0x2
    410143f0:	01600e13          	li	x28,22
    410143f4:	05c23823          	sd	x28,80(x4) # 2050 <check_excp_expected_cause>
    410143f8:	00000e17          	auipc	x28,0x0
    410143fc:	04ce0e13          	addi	x28,x28,76 # 41014444 <fault_label_6>
    41014400:	03c23023          	sd	x28,32(x4) # 20 <SECURE_ACCESS_PROBABILITY+0x2>
    41014404:	00000e13          	li	x28,0
    41014408:	05c23023          	sd	x28,64(x4) # 40 <XLEN>
    4101440c:	00000e13          	li	x28,0
    41014410:	05c23423          	sd	x28,72(x4) # 48 <XLEN+0x8>
    41014414:	00000e17          	auipc	x28,0x0
    41014418:	044e0e13          	addi	x28,x28,68 # 41014458 <excp_return_label_6>
    4101441c:	03c23823          	sd	x28,48(x4) # 30 <SECURE_ACCESS_PROBABILITY+0x12>
    41014420:	00000e13          	li	x28,0
    41014424:	03c23c23          	sd	x28,56(x4) # 38 <SECURE_ACCESS_PROBABILITY+0x1a>
    41014428:	00000e13          	li	x28,0
    4101442c:	07c23023          	sd	x28,96(x4) # 60 <XLEN+0x20>
    41014430:	00000e13          	li	x28,0
    41014434:	07c23423          	sd	x28,104(x4) # 68 <XLEN+0x28>
    41014438:	00000e13          	li	x28,0
    4101443c:	07c23823          	sd	x28,112(x4) # 70 <XLEN+0x30>
    41014440:	00000c13          	li	x24,0

0000000041014444 <fault_label_6>:
    41014444:	205c2af3          	csrrs	x21,vstvec,x24
    41014448:	5940aeb7          	lui	x29,0x5940a
    4101444c:	008e8e9b          	addiw	x29,x29,8 # 5940a008 <failed_addr>
    41014450:	000eb883          	ld	x17,0(x29)
    41014454:	00088067          	jr	x17

0000000041014458 <excp_return_label_6>:
    41014458:	00002237          	lui	x4,0x2
    4101445c:	01600e13          	li	x28,22
    41014460:	05c23823          	sd	x28,80(x4) # 2050 <check_excp_expected_cause>
    41014464:	00000e17          	auipc	x28,0x0
    41014468:	048e0e13          	addi	x28,x28,72 # 410144ac <fault_label_7>
    4101446c:	03c23023          	sd	x28,32(x4) # 20 <SECURE_ACCESS_PROBABILITY+0x2>
    41014470:	00000e13          	li	x28,0
    41014474:	05c23023          	sd	x28,64(x4) # 40 <XLEN>
    41014478:	00000e13          	li	x28,0
    4101447c:	05c23423          	sd	x28,72(x4) # 48 <XLEN+0x8>
    41014480:	00000e17          	auipc	x28,0x0
    41014484:	040e0e13          	addi	x28,x28,64 # 410144c0 <excp_return_label_7>
    41014488:	03c23823          	sd	x28,48(x4) # 30 <SECURE_ACCESS_PROBABILITY+0x12>
    4101448c:	00000e13          	li	x28,0
    41014490:	03c23c23          	sd	x28,56(x4) # 38 <SECURE_ACCESS_PROBABILITY+0x1a>
    41014494:	00000e13          	li	x28,0
    41014498:	07c23023          	sd	x28,96(x4) # 60 <XLEN+0x20>
    4101449c:	00000e13          	li	x28,0
    410144a0:	07c23423          	sd	x28,104(x4) # 68 <XLEN+0x28>
    410144a4:	00000e13          	li	x28,0
    410144a8:	07c23823          	sd	x28,112(x4) # 70 <XLEN+0x30>

00000000410144ac <fault_label_7>:
    410144ac:	20551cf3          	csrrw	x25,vstvec,x10
    410144b0:	5940a4b7          	lui	x9,0x5940a
    410144b4:	0084849b          	addiw	x9,x9,8 # 5940a008 <failed_addr>
    410144b8:	0004b683          	ld	x13,0(x9)
    410144bc:	00068067          	jr	x13

00000000410144c0 <excp_return_label_7>:
    410144c0:	00002237          	lui	x4,0x2
    410144c4:	01600e13          	li	x28,22
    410144c8:	05c23823          	sd	x28,80(x4) # 2050 <check_excp_expected_cause>
    410144cc:	00000e17          	auipc	x28,0x0
    410144d0:	04ce0e13          	addi	x28,x28,76 # 41014518 <fault_label_8>
    410144d4:	03c23023          	sd	x28,32(x4) # 20 <SECURE_ACCESS_PROBABILITY+0x2>
    410144d8:	00000e13          	li	x28,0
    410144dc:	05c23023          	sd	x28,64(x4) # 40 <XLEN>
    410144e0:	00000e13          	li	x28,0
    410144e4:	05c23423          	sd	x28,72(x4) # 48 <XLEN+0x8>
    410144e8:	00000e17          	auipc	x28,0x0
    410144ec:	044e0e13          	addi	x28,x28,68 # 4101452c <excp_return_label_8>
    410144f0:	03c23823          	sd	x28,48(x4) # 30 <SECURE_ACCESS_PROBABILITY+0x12>
    410144f4:	00000e13          	li	x28,0
    410144f8:	03c23c23          	sd	x28,56(x4) # 38 <SECURE_ACCESS_PROBABILITY+0x1a>
    410144fc:	00000e13          	li	x28,0
    41014500:	07c23023          	sd	x28,96(x4) # 60 <XLEN+0x20>
    41014504:	00000e13          	li	x28,0
    41014508:	07c23423          	sd	x28,104(x4) # 68 <XLEN+0x28>
    4101450c:	00000e13          	li	x28,0
    41014510:	07c23823          	sd	x28,112(x4) # 70 <XLEN+0x30>
    41014514:	00000713          	li	x14,0

0000000041014518 <fault_label_8>:
    41014518:	240728f3          	csrrs	x17,vsscratch,x14
    4101451c:	5940ac37          	lui	x24,0x5940a
    41014520:	008c0c1b          	addiw	x24,x24,8 # 5940a008 <failed_addr>
    41014524:	000c3903          	ld	x18,0(x24)
    41014528:	00090067          	jr	x18

000000004101452c <excp_return_label_8>:
    4101452c:	00002237          	lui	x4,0x2
    41014530:	01600e13          	li	x28,22
    41014534:	05c23823          	sd	x28,80(x4) # 2050 <check_excp_expected_cause>
    41014538:	00000e17          	auipc	x28,0x0
    4101453c:	048e0e13          	addi	x28,x28,72 # 41014580 <fault_label_9>
    41014540:	03c23023          	sd	x28,32(x4) # 20 <SECURE_ACCESS_PROBABILITY+0x2>
    41014544:	00000e13          	li	x28,0
    41014548:	05c23023          	sd	x28,64(x4) # 40 <XLEN>
    4101454c:	00000e13          	li	x28,0
    41014550:	05c23423          	sd	x28,72(x4) # 48 <XLEN+0x8>
    41014554:	00000e17          	auipc	x28,0x0
    41014558:	040e0e13          	addi	x28,x28,64 # 41014594 <excp_return_label_9>
    4101455c:	03c23823          	sd	x28,48(x4) # 30 <SECURE_ACCESS_PROBABILITY+0x12>
    41014560:	00000e13          	li	x28,0
    41014564:	03c23c23          	sd	x28,56(x4) # 38 <SECURE_ACCESS_PROBABILITY+0x1a>
    41014568:	00000e13          	li	x28,0
    4101456c:	07c23023          	sd	x28,96(x4) # 60 <XLEN+0x20>
    41014570:	00000e13          	li	x28,0
    41014574:	07c23423          	sd	x28,104(x4) # 68 <XLEN+0x28>
    41014578:	00000e13          	li	x28,0
    4101457c:	07c23823          	sd	x28,112(x4) # 70 <XLEN+0x30>

0000000041014580 <fault_label_9>:
    41014580:	240517f3          	csrrw	x15,vsscratch,x10
    41014584:	5940a8b7          	lui	x17,0x5940a
    41014588:	0088889b          	addiw	x17,x17,8 # 5940a008 <failed_addr>
    4101458c:	0008bd83          	ld	x27,0(x17)
    41014590:	000d8067          	jr	x27

0000000041014594 <excp_return_label_9>:
    41014594:	00002237          	lui	x4,0x2
    41014598:	01600e13          	li	x28,22
    4101459c:	05c23823          	sd	x28,80(x4) # 2050 <check_excp_expected_cause>
    410145a0:	00000e17          	auipc	x28,0x0
    410145a4:	04ce0e13          	addi	x28,x28,76 # 410145ec <fault_label_10>
    410145a8:	03c23023          	sd	x28,32(x4) # 20 <SECURE_ACCESS_PROBABILITY+0x2>
    410145ac:	00000e13          	li	x28,0
    410145b0:	05c23023          	sd	x28,64(x4) # 40 <XLEN>
    410145b4:	00000e13          	li	x28,0
    410145b8:	05c23423          	sd	x28,72(x4) # 48 <XLEN+0x8>
    410145bc:	00000e17          	auipc	x28,0x0
    410145c0:	044e0e13          	addi	x28,x28,68 # 41014600 <excp_return_label_10>
    410145c4:	03c23823          	sd	x28,48(x4) # 30 <SECURE_ACCESS_PROBABILITY+0x12>
    410145c8:	00000e13          	li	x28,0
    410145cc:	03c23c23          	sd	x28,56(x4) # 38 <SECURE_ACCESS_PROBABILITY+0x1a>
    410145d0:	00000e13          	li	x28,0
    410145d4:	07c23023          	sd	x28,96(x4) # 60 <XLEN+0x20>
    410145d8:	00000e13          	li	x28,0
    410145dc:	07c23423          	sd	x28,104(x4) # 68 <XLEN+0x28>
    410145e0:	00000e13          	li	x28,0
    410145e4:	07c23823          	sd	x28,112(x4) # 70 <XLEN+0x30>
    410145e8:	00000b93          	li	x23,0

00000000410145ec <fault_label_10>:
    410145ec:	241badf3          	csrrs	x27,vsepc,x23
    410145f0:	5940a9b7          	lui	x19,0x5940a
    410145f4:	0089899b          	addiw	x19,x19,8 # 5940a008 <failed_addr>
    410145f8:	0009b683          	ld	x13,0(x19)
    410145fc:	00068067          	jr	x13

0000000041014600 <excp_return_label_10>:
    41014600:	00002237          	lui	x4,0x2
    41014604:	01600e13          	li	x28,22
    41014608:	05c23823          	sd	x28,80(x4) # 2050 <check_excp_expected_cause>
    4101460c:	00000e17          	auipc	x28,0x0
    41014610:	048e0e13          	addi	x28,x28,72 # 41014654 <fault_label_11>
    41014614:	03c23023          	sd	x28,32(x4) # 20 <SECURE_ACCESS_PROBABILITY+0x2>
    41014618:	00000e13          	li	x28,0
    4101461c:	05c23023          	sd	x28,64(x4) # 40 <XLEN>
    41014620:	00000e13          	li	x28,0
    41014624:	05c23423          	sd	x28,72(x4) # 48 <XLEN+0x8>
    41014628:	00000e17          	auipc	x28,0x0
    4101462c:	040e0e13          	addi	x28,x28,64 # 41014668 <excp_return_label_11>
    41014630:	03c23823          	sd	x28,48(x4) # 30 <SECURE_ACCESS_PROBABILITY+0x12>
    41014634:	00000e13          	li	x28,0
    41014638:	03c23c23          	sd	x28,56(x4) # 38 <SECURE_ACCESS_PROBABILITY+0x1a>
    4101463c:	00000e13          	li	x28,0
    41014640:	07c23023          	sd	x28,96(x4) # 60 <XLEN+0x20>
    41014644:	00000e13          	li	x28,0
    41014648:	07c23423          	sd	x28,104(x4) # 68 <XLEN+0x28>
    4101464c:	00000e13          	li	x28,0
    41014650:	07c23823          	sd	x28,112(x4) # 70 <XLEN+0x30>

0000000041014654 <fault_label_11>:
    41014654:	24151673          	csrrw	x12,vsepc,x10
    41014658:	5940a637          	lui	x12,0x5940a
    4101465c:	0086061b          	addiw	x12,x12,8 # 5940a008 <failed_addr>
    41014660:	00063483          	ld	x9,0(x12)
    41014664:	00048067          	jr	x9

0000000041014668 <excp_return_label_11>:
    41014668:	00002237          	lui	x4,0x2
    4101466c:	01600e13          	li	x28,22
    41014670:	05c23823          	sd	x28,80(x4) # 2050 <check_excp_expected_cause>
    41014674:	00000e17          	auipc	x28,0x0
    41014678:	04ce0e13          	addi	x28,x28,76 # 410146c0 <fault_label_12>
    4101467c:	03c23023          	sd	x28,32(x4) # 20 <SECURE_ACCESS_PROBABILITY+0x2>
    41014680:	00000e13          	li	x28,0
    41014684:	05c23023          	sd	x28,64(x4) # 40 <XLEN>
    41014688:	00000e13          	li	x28,0
    4101468c:	05c23423          	sd	x28,72(x4) # 48 <XLEN+0x8>
    41014690:	00000e17          	auipc	x28,0x0
    41014694:	044e0e13          	addi	x28,x28,68 # 410146d4 <excp_return_label_12>
    41014698:	03c23823          	sd	x28,48(x4) # 30 <SECURE_ACCESS_PROBABILITY+0x12>
    4101469c:	00000e13          	li	x28,0
    410146a0:	03c23c23          	sd	x28,56(x4) # 38 <SECURE_ACCESS_PROBABILITY+0x1a>
    410146a4:	00000e13          	li	x28,0
    410146a8:	07c23023          	sd	x28,96(x4) # 60 <XLEN+0x20>
    410146ac:	00000e13          	li	x28,0
    410146b0:	07c23423          	sd	x28,104(x4) # 68 <XLEN+0x28>
    410146b4:	00000e13          	li	x28,0
    410146b8:	07c23823          	sd	x28,112(x4) # 70 <XLEN+0x30>
    410146bc:	00000c13          	li	x24,0

00000000410146c0 <fault_label_12>:
    410146c0:	242c28f3          	csrrs	x17,vscause,x24
    410146c4:	5940afb7          	lui	x31,0x5940a
    410146c8:	008f8f9b          	addiw	x31,x31,8 # 5940a008 <failed_addr>
    410146cc:	000fbe83          	ld	x29,0(x31)
    410146d0:	000e8067          	jr	x29

00000000410146d4 <excp_return_label_12>:
    410146d4:	00002237          	lui	x4,0x2
    410146d8:	01600e13          	li	x28,22
    410146dc:	05c23823          	sd	x28,80(x4) # 2050 <check_excp_expected_cause>
    410146e0:	00000e17          	auipc	x28,0x0
    410146e4:	048e0e13          	addi	x28,x28,72 # 41014728 <fault_label_13>
    410146e8:	03c23023          	sd	x28,32(x4) # 20 <SECURE_ACCESS_PROBABILITY+0x2>
    410146ec:	00000e13          	li	x28,0
    410146f0:	05c23023          	sd	x28,64(x4) # 40 <XLEN>
    410146f4:	00000e13          	li	x28,0
    410146f8:	05c23423          	sd	x28,72(x4) # 48 <XLEN+0x8>
    410146fc:	00000e17          	auipc	x28,0x0
    41014700:	040e0e13          	addi	x28,x28,64 # 4101473c <excp_return_label_13>
    41014704:	03c23823          	sd	x28,48(x4) # 30 <SECURE_ACCESS_PROBABILITY+0x12>
    41014708:	00000e13          	li	x28,0
    4101470c:	03c23c23          	sd	x28,56(x4) # 38 <SECURE_ACCESS_PROBABILITY+0x1a>
    41014710:	00000e13          	li	x28,0
    41014714:	07c23023          	sd	x28,96(x4) # 60 <XLEN+0x20>
    41014718:	00000e13          	li	x28,0
    4101471c:	07c23423          	sd	x28,104(x4) # 68 <XLEN+0x28>
    41014720:	00000e13          	li	x28,0
    41014724:	07c23823          	sd	x28,112(x4) # 70 <XLEN+0x30>

0000000041014728 <fault_label_13>:
    41014728:	24251373          	csrrw	x6,vscause,x10
    4101472c:	5940a8b7          	lui	x17,0x5940a
    41014730:	0088889b          	addiw	x17,x17,8 # 5940a008 <failed_addr>
    41014734:	0008b403          	ld	x8,0(x17)
    41014738:	00040067          	jr	x8

000000004101473c <excp_return_label_13>:
    4101473c:	00002237          	lui	x4,0x2
    41014740:	01600e13          	li	x28,22
    41014744:	05c23823          	sd	x28,80(x4) # 2050 <check_excp_expected_cause>
    41014748:	00000e17          	auipc	x28,0x0
    4101474c:	04ce0e13          	addi	x28,x28,76 # 41014794 <fault_label_14>
    41014750:	03c23023          	sd	x28,32(x4) # 20 <SECURE_ACCESS_PROBABILITY+0x2>
    41014754:	00000e13          	li	x28,0
    41014758:	05c23023          	sd	x28,64(x4) # 40 <XLEN>
    4101475c:	00000e13          	li	x28,0
    41014760:	05c23423          	sd	x28,72(x4) # 48 <XLEN+0x8>
    41014764:	00000e17          	auipc	x28,0x0
    41014768:	044e0e13          	addi	x28,x28,68 # 410147a8 <excp_return_label_14>
    4101476c:	03c23823          	sd	x28,48(x4) # 30 <SECURE_ACCESS_PROBABILITY+0x12>
    41014770:	00000e13          	li	x28,0
    41014774:	03c23c23          	sd	x28,56(x4) # 38 <SECURE_ACCESS_PROBABILITY+0x1a>
    41014778:	00000e13          	li	x28,0
    4101477c:	07c23023          	sd	x28,96(x4) # 60 <XLEN+0x20>
    41014780:	00000e13          	li	x28,0
    41014784:	07c23423          	sd	x28,104(x4) # 68 <XLEN+0x28>
    41014788:	00000e13          	li	x28,0
    4101478c:	07c23823          	sd	x28,112(x4) # 70 <XLEN+0x30>
    41014790:	00000413          	li	x8,0

0000000041014794 <fault_label_14>:
    41014794:	24342df3          	csrrs	x27,vstval,x8
    41014798:	5940acb7          	lui	x25,0x5940a
    4101479c:	008c8c9b          	addiw	x25,x25,8 # 5940a008 <failed_addr>
    410147a0:	000cba03          	ld	x20,0(x25)
    410147a4:	000a0067          	jr	x20

00000000410147a8 <excp_return_label_14>:
    410147a8:	00002237          	lui	x4,0x2
    410147ac:	01600e13          	li	x28,22
    410147b0:	05c23823          	sd	x28,80(x4) # 2050 <check_excp_expected_cause>
    410147b4:	00000e17          	auipc	x28,0x0
    410147b8:	048e0e13          	addi	x28,x28,72 # 410147fc <fault_label_15>
    410147bc:	03c23023          	sd	x28,32(x4) # 20 <SECURE_ACCESS_PROBABILITY+0x2>
    410147c0:	00000e13          	li	x28,0
    410147c4:	05c23023          	sd	x28,64(x4) # 40 <XLEN>
    410147c8:	00000e13          	li	x28,0
    410147cc:	05c23423          	sd	x28,72(x4) # 48 <XLEN+0x8>
    410147d0:	00000e17          	auipc	x28,0x0
    410147d4:	040e0e13          	addi	x28,x28,64 # 41014810 <excp_return_label_15>
    410147d8:	03c23823          	sd	x28,48(x4) # 30 <SECURE_ACCESS_PROBABILITY+0x12>
    410147dc:	00000e13          	li	x28,0
    410147e0:	03c23c23          	sd	x28,56(x4) # 38 <SECURE_ACCESS_PROBABILITY+0x1a>
    410147e4:	00000e13          	li	x28,0
    410147e8:	07c23023          	sd	x28,96(x4) # 60 <XLEN+0x20>
    410147ec:	00000e13          	li	x28,0
    410147f0:	07c23423          	sd	x28,104(x4) # 68 <XLEN+0x28>
    410147f4:	00000e13          	li	x28,0
    410147f8:	07c23823          	sd	x28,112(x4) # 70 <XLEN+0x30>

00000000410147fc <fault_label_15>:
    410147fc:	243516f3          	csrrw	x13,vstval,x10
    41014800:	5940aeb7          	lui	x29,0x5940a
    41014804:	008e8e9b          	addiw	x29,x29,8 # 5940a008 <failed_addr>
    41014808:	000ebd83          	ld	x27,0(x29)
    4101480c:	000d8067          	jr	x27

0000000041014810 <excp_return_label_15>:
    41014810:	00002237          	lui	x4,0x2
    41014814:	01600e13          	li	x28,22
    41014818:	05c23823          	sd	x28,80(x4) # 2050 <check_excp_expected_cause>
    4101481c:	00000e17          	auipc	x28,0x0
    41014820:	04ce0e13          	addi	x28,x28,76 # 41014868 <fault_label_16>
    41014824:	03c23023          	sd	x28,32(x4) # 20 <SECURE_ACCESS_PROBABILITY+0x2>
    41014828:	00000e13          	li	x28,0
    4101482c:	05c23023          	sd	x28,64(x4) # 40 <XLEN>
    41014830:	00000e13          	li	x28,0
    41014834:	05c23423          	sd	x28,72(x4) # 48 <XLEN+0x8>
    41014838:	00000e17          	auipc	x28,0x0
    4101483c:	044e0e13          	addi	x28,x28,68 # 4101487c <excp_return_label_16>
    41014840:	03c23823          	sd	x28,48(x4) # 30 <SECURE_ACCESS_PROBABILITY+0x12>
    41014844:	00000e13          	li	x28,0
    41014848:	03c23c23          	sd	x28,56(x4) # 38 <SECURE_ACCESS_PROBABILITY+0x1a>
    4101484c:	00000e13          	li	x28,0
    41014850:	07c23023          	sd	x28,96(x4) # 60 <XLEN+0x20>
    41014854:	00000e13          	li	x28,0
    41014858:	07c23423          	sd	x28,104(x4) # 68 <XLEN+0x28>
    4101485c:	00000e13          	li	x28,0
    41014860:	07c23823          	sd	x28,112(x4) # 70 <XLEN+0x30>
    41014864:	00000593          	li	x11,0

0000000041014868 <fault_label_16>:
    41014868:	2805a3f3          	csrrs	x7,vsatp,x11
    4101486c:	5940a6b7          	lui	x13,0x5940a
    41014870:	0086869b          	addiw	x13,x13,8 # 5940a008 <failed_addr>
    41014874:	0006b383          	ld	x7,0(x13)
    41014878:	00038067          	jr	x7

000000004101487c <excp_return_label_16>:
    4101487c:	00002237          	lui	x4,0x2
    41014880:	01600e13          	li	x28,22
    41014884:	05c23823          	sd	x28,80(x4) # 2050 <check_excp_expected_cause>
    41014888:	00000e17          	auipc	x28,0x0
    4101488c:	048e0e13          	addi	x28,x28,72 # 410148d0 <fault_label_17>
    41014890:	03c23023          	sd	x28,32(x4) # 20 <SECURE_ACCESS_PROBABILITY+0x2>
    41014894:	00000e13          	li	x28,0
    41014898:	05c23023          	sd	x28,64(x4) # 40 <XLEN>
    4101489c:	00000e13          	li	x28,0
    410148a0:	05c23423          	sd	x28,72(x4) # 48 <XLEN+0x8>
    410148a4:	00000e17          	auipc	x28,0x0
    410148a8:	040e0e13          	addi	x28,x28,64 # 410148e4 <excp_return_label_17>
    410148ac:	03c23823          	sd	x28,48(x4) # 30 <SECURE_ACCESS_PROBABILITY+0x12>
    410148b0:	00000e13          	li	x28,0
    410148b4:	03c23c23          	sd	x28,56(x4) # 38 <SECURE_ACCESS_PROBABILITY+0x1a>
    410148b8:	00000e13          	li	x28,0
    410148bc:	07c23023          	sd	x28,96(x4) # 60 <XLEN+0x20>
    410148c0:	00000e13          	li	x28,0
    410148c4:	07c23423          	sd	x28,104(x4) # 68 <XLEN+0x28>
    410148c8:	00000e13          	li	x28,0
    410148cc:	07c23823          	sd	x28,112(x4) # 70 <XLEN+0x30>

00000000410148d0 <fault_label_17>:
    410148d0:	28051bf3          	csrrw	x23,vsatp,x10
    410148d4:	5940a837          	lui	x16,0x5940a
    410148d8:	0088081b          	addiw	x16,x16,8 # 5940a008 <failed_addr>
    410148dc:	00083b83          	ld	x23,0(x16)
    410148e0:	000b8067          	jr	x23

00000000410148e4 <excp_return_label_17>:
    410148e4:	00002237          	lui	x4,0x2
    410148e8:	01600e13          	li	x28,22
    410148ec:	05c23823          	sd	x28,80(x4) # 2050 <check_excp_expected_cause>
    410148f0:	00000e17          	auipc	x28,0x0
    410148f4:	04ce0e13          	addi	x28,x28,76 # 4101493c <fault_label_18>
    410148f8:	03c23023          	sd	x28,32(x4) # 20 <SECURE_ACCESS_PROBABILITY+0x2>
    410148fc:	00000e13          	li	x28,0
    41014900:	05c23023          	sd	x28,64(x4) # 40 <XLEN>
    41014904:	00000e13          	li	x28,0
    41014908:	05c23423          	sd	x28,72(x4) # 48 <XLEN+0x8>
    4101490c:	00000e17          	auipc	x28,0x0
    41014910:	044e0e13          	addi	x28,x28,68 # 41014950 <excp_return_label_18>
    41014914:	03c23823          	sd	x28,48(x4) # 30 <SECURE_ACCESS_PROBABILITY+0x12>
    41014918:	00000e13          	li	x28,0
    4101491c:	03c23c23          	sd	x28,56(x4) # 38 <SECURE_ACCESS_PROBABILITY+0x1a>
    41014920:	00000e13          	li	x28,0
    41014924:	07c23023          	sd	x28,96(x4) # 60 <XLEN+0x20>
    41014928:	00000e13          	li	x28,0
    4101492c:	07c23423          	sd	x28,104(x4) # 68 <XLEN+0x28>
    41014930:	00000e13          	li	x28,0
    41014934:	07c23823          	sd	x28,112(x4) # 70 <XLEN+0x30>
    41014938:	00000493          	li	x9,0

000000004101493c <fault_label_18>:
    4101493c:	6004abf3          	csrrs	x23,hstatus,x9
    41014940:	5940a837          	lui	x16,0x5940a
    41014944:	0088081b          	addiw	x16,x16,8 # 5940a008 <failed_addr>
    41014948:	00083a03          	ld	x20,0(x16)
    4101494c:	000a0067          	jr	x20

0000000041014950 <excp_return_label_18>:
    41014950:	00002237          	lui	x4,0x2
    41014954:	01600e13          	li	x28,22
    41014958:	05c23823          	sd	x28,80(x4) # 2050 <check_excp_expected_cause>
    4101495c:	00000e17          	auipc	x28,0x0
    41014960:	048e0e13          	addi	x28,x28,72 # 410149a4 <fault_label_19>
    41014964:	03c23023          	sd	x28,32(x4) # 20 <SECURE_ACCESS_PROBABILITY+0x2>
    41014968:	00000e13          	li	x28,0
    4101496c:	05c23023          	sd	x28,64(x4) # 40 <XLEN>
    41014970:	00000e13          	li	x28,0
    41014974:	05c23423          	sd	x28,72(x4) # 48 <XLEN+0x8>
    41014978:	00000e17          	auipc	x28,0x0
    4101497c:	040e0e13          	addi	x28,x28,64 # 410149b8 <excp_return_label_19>
    41014980:	03c23823          	sd	x28,48(x4) # 30 <SECURE_ACCESS_PROBABILITY+0x12>
    41014984:	00000e13          	li	x28,0
    41014988:	03c23c23          	sd	x28,56(x4) # 38 <SECURE_ACCESS_PROBABILITY+0x1a>
    4101498c:	00000e13          	li	x28,0
    41014990:	07c23023          	sd	x28,96(x4) # 60 <XLEN+0x20>
    41014994:	00000e13          	li	x28,0
    41014998:	07c23423          	sd	x28,104(x4) # 68 <XLEN+0x28>
    4101499c:	00000e13          	li	x28,0
    410149a0:	07c23823          	sd	x28,112(x4) # 70 <XLEN+0x30>

00000000410149a4 <fault_label_19>:
    410149a4:	600518f3          	csrrw	x17,hstatus,x10
    410149a8:	5940adb7          	lui	x27,0x5940a
    410149ac:	008d8d9b          	addiw	x27,x27,8 # 5940a008 <failed_addr>
    410149b0:	000db803          	ld	x16,0(x27)
    410149b4:	00080067          	jr	x16

00000000410149b8 <excp_return_label_19>:
    410149b8:	00002237          	lui	x4,0x2
    410149bc:	01600e13          	li	x28,22
    410149c0:	05c23823          	sd	x28,80(x4) # 2050 <check_excp_expected_cause>
    410149c4:	00000e17          	auipc	x28,0x0
    410149c8:	04ce0e13          	addi	x28,x28,76 # 41014a10 <fault_label_20>
    410149cc:	03c23023          	sd	x28,32(x4) # 20 <SECURE_ACCESS_PROBABILITY+0x2>
    410149d0:	00000e13          	li	x28,0
    410149d4:	05c23023          	sd	x28,64(x4) # 40 <XLEN>
    410149d8:	00000e13          	li	x28,0
    410149dc:	05c23423          	sd	x28,72(x4) # 48 <XLEN+0x8>
    410149e0:	00000e17          	auipc	x28,0x0
    410149e4:	044e0e13          	addi	x28,x28,68 # 41014a24 <excp_return_label_20>
    410149e8:	03c23823          	sd	x28,48(x4) # 30 <SECURE_ACCESS_PROBABILITY+0x12>
    410149ec:	00000e13          	li	x28,0
    410149f0:	03c23c23          	sd	x28,56(x4) # 38 <SECURE_ACCESS_PROBABILITY+0x1a>
    410149f4:	00000e13          	li	x28,0
    410149f8:	07c23023          	sd	x28,96(x4) # 60 <XLEN+0x20>
    410149fc:	00000e13          	li	x28,0
    41014a00:	07c23423          	sd	x28,104(x4) # 68 <XLEN+0x28>
    41014a04:	00000e13          	li	x28,0
    41014a08:	07c23823          	sd	x28,112(x4) # 70 <XLEN+0x30>
    41014a0c:	00000913          	li	x18,0

0000000041014a10 <fault_label_20>:
    41014a10:	60292c73          	csrrs	x24,hedeleg,x18
    41014a14:	5940afb7          	lui	x31,0x5940a
    41014a18:	008f8f9b          	addiw	x31,x31,8 # 5940a008 <failed_addr>
    41014a1c:	000fba03          	ld	x20,0(x31)
    41014a20:	000a0067          	jr	x20

0000000041014a24 <excp_return_label_20>:
    41014a24:	00002237          	lui	x4,0x2
    41014a28:	01600e13          	li	x28,22
    41014a2c:	05c23823          	sd	x28,80(x4) # 2050 <check_excp_expected_cause>
    41014a30:	00000e17          	auipc	x28,0x0
    41014a34:	048e0e13          	addi	x28,x28,72 # 41014a78 <fault_label_21>
    41014a38:	03c23023          	sd	x28,32(x4) # 20 <SECURE_ACCESS_PROBABILITY+0x2>
    41014a3c:	00000e13          	li	x28,0
    41014a40:	05c23023          	sd	x28,64(x4) # 40 <XLEN>
    41014a44:	00000e13          	li	x28,0
    41014a48:	05c23423          	sd	x28,72(x4) # 48 <XLEN+0x8>
    41014a4c:	00000e17          	auipc	x28,0x0
    41014a50:	040e0e13          	addi	x28,x28,64 # 41014a8c <excp_return_label_21>
    41014a54:	03c23823          	sd	x28,48(x4) # 30 <SECURE_ACCESS_PROBABILITY+0x12>
    41014a58:	00000e13          	li	x28,0
    41014a5c:	03c23c23          	sd	x28,56(x4) # 38 <SECURE_ACCESS_PROBABILITY+0x1a>
    41014a60:	00000e13          	li	x28,0
    41014a64:	07c23023          	sd	x28,96(x4) # 60 <XLEN+0x20>
    41014a68:	00000e13          	li	x28,0
    41014a6c:	07c23423          	sd	x28,104(x4) # 68 <XLEN+0x28>
    41014a70:	00000e13          	li	x28,0
    41014a74:	07c23823          	sd	x28,112(x4) # 70 <XLEN+0x30>

0000000041014a78 <fault_label_21>:
    41014a78:	602513f3          	csrrw	x7,hedeleg,x10
    41014a7c:	5940abb7          	lui	x23,0x5940a
    41014a80:	008b8b9b          	addiw	x23,x23,8 # 5940a008 <failed_addr>
    41014a84:	000bbe83          	ld	x29,0(x23)
    41014a88:	000e8067          	jr	x29

0000000041014a8c <excp_return_label_21>:
    41014a8c:	00002237          	lui	x4,0x2
    41014a90:	01600e13          	li	x28,22
    41014a94:	05c23823          	sd	x28,80(x4) # 2050 <check_excp_expected_cause>
    41014a98:	00000e17          	auipc	x28,0x0
    41014a9c:	04ce0e13          	addi	x28,x28,76 # 41014ae4 <fault_label_22>
    41014aa0:	03c23023          	sd	x28,32(x4) # 20 <SECURE_ACCESS_PROBABILITY+0x2>
    41014aa4:	00000e13          	li	x28,0
    41014aa8:	05c23023          	sd	x28,64(x4) # 40 <XLEN>
    41014aac:	00000e13          	li	x28,0
    41014ab0:	05c23423          	sd	x28,72(x4) # 48 <XLEN+0x8>
    41014ab4:	00000e17          	auipc	x28,0x0
    41014ab8:	044e0e13          	addi	x28,x28,68 # 41014af8 <excp_return_label_22>
    41014abc:	03c23823          	sd	x28,48(x4) # 30 <SECURE_ACCESS_PROBABILITY+0x12>
    41014ac0:	00000e13          	li	x28,0
    41014ac4:	03c23c23          	sd	x28,56(x4) # 38 <SECURE_ACCESS_PROBABILITY+0x1a>
    41014ac8:	00000e13          	li	x28,0
    41014acc:	07c23023          	sd	x28,96(x4) # 60 <XLEN+0x20>
    41014ad0:	00000e13          	li	x28,0
    41014ad4:	07c23423          	sd	x28,104(x4) # 68 <XLEN+0x28>
    41014ad8:	00000e13          	li	x28,0
    41014adc:	07c23823          	sd	x28,112(x4) # 70 <XLEN+0x30>
    41014ae0:	00000913          	li	x18,0

0000000041014ae4 <fault_label_22>:
    41014ae4:	60392e73          	csrrs	x28,hideleg,x18
    41014ae8:	5940adb7          	lui	x27,0x5940a
    41014aec:	008d8d9b          	addiw	x27,x27,8 # 5940a008 <failed_addr>
    41014af0:	000db603          	ld	x12,0(x27)
    41014af4:	00060067          	jr	x12

0000000041014af8 <excp_return_label_22>:
    41014af8:	00002237          	lui	x4,0x2
    41014afc:	01600e13          	li	x28,22
    41014b00:	05c23823          	sd	x28,80(x4) # 2050 <check_excp_expected_cause>
    41014b04:	00000e17          	auipc	x28,0x0
    41014b08:	048e0e13          	addi	x28,x28,72 # 41014b4c <fault_label_23>
    41014b0c:	03c23023          	sd	x28,32(x4) # 20 <SECURE_ACCESS_PROBABILITY+0x2>
    41014b10:	00000e13          	li	x28,0
    41014b14:	05c23023          	sd	x28,64(x4) # 40 <XLEN>
    41014b18:	00000e13          	li	x28,0
    41014b1c:	05c23423          	sd	x28,72(x4) # 48 <XLEN+0x8>
    41014b20:	00000e17          	auipc	x28,0x0
    41014b24:	040e0e13          	addi	x28,x28,64 # 41014b60 <excp_return_label_23>
    41014b28:	03c23823          	sd	x28,48(x4) # 30 <SECURE_ACCESS_PROBABILITY+0x12>
    41014b2c:	00000e13          	li	x28,0
    41014b30:	03c23c23          	sd	x28,56(x4) # 38 <SECURE_ACCESS_PROBABILITY+0x1a>
    41014b34:	00000e13          	li	x28,0
    41014b38:	07c23023          	sd	x28,96(x4) # 60 <XLEN+0x20>
    41014b3c:	00000e13          	li	x28,0
    41014b40:	07c23423          	sd	x28,104(x4) # 68 <XLEN+0x28>
    41014b44:	00000e13          	li	x28,0
    41014b48:	07c23823          	sd	x28,112(x4) # 70 <XLEN+0x30>

0000000041014b4c <fault_label_23>:
    41014b4c:	60351df3          	csrrw	x27,hideleg,x10
    41014b50:	5940a4b7          	lui	x9,0x5940a
    41014b54:	0084849b          	addiw	x9,x9,8 # 5940a008 <failed_addr>
    41014b58:	0004b803          	ld	x16,0(x9)
    41014b5c:	00080067          	jr	x16

0000000041014b60 <excp_return_label_23>:
    41014b60:	00002237          	lui	x4,0x2
    41014b64:	01600e13          	li	x28,22
    41014b68:	05c23823          	sd	x28,80(x4) # 2050 <check_excp_expected_cause>
    41014b6c:	00000e17          	auipc	x28,0x0
    41014b70:	04ce0e13          	addi	x28,x28,76 # 41014bb8 <fault_label_24>
    41014b74:	03c23023          	sd	x28,32(x4) # 20 <SECURE_ACCESS_PROBABILITY+0x2>
    41014b78:	00000e13          	li	x28,0
    41014b7c:	05c23023          	sd	x28,64(x4) # 40 <XLEN>
    41014b80:	00000e13          	li	x28,0
    41014b84:	05c23423          	sd	x28,72(x4) # 48 <XLEN+0x8>
    41014b88:	00000e17          	auipc	x28,0x0
    41014b8c:	044e0e13          	addi	x28,x28,68 # 41014bcc <excp_return_label_24>
    41014b90:	03c23823          	sd	x28,48(x4) # 30 <SECURE_ACCESS_PROBABILITY+0x12>
    41014b94:	00000e13          	li	x28,0
    41014b98:	03c23c23          	sd	x28,56(x4) # 38 <SECURE_ACCESS_PROBABILITY+0x1a>
    41014b9c:	00000e13          	li	x28,0
    41014ba0:	07c23023          	sd	x28,96(x4) # 60 <XLEN+0x20>
    41014ba4:	00000e13          	li	x28,0
    41014ba8:	07c23423          	sd	x28,104(x4) # 68 <XLEN+0x28>
    41014bac:	00000e13          	li	x28,0
    41014bb0:	07c23823          	sd	x28,112(x4) # 70 <XLEN+0x30>
    41014bb4:	00000613          	li	x12,0

0000000041014bb8 <fault_label_24>:
    41014bb8:	645627f3          	csrrs	x15,hvip,x12
    41014bbc:	5940a8b7          	lui	x17,0x5940a
    41014bc0:	0088889b          	addiw	x17,x17,8 # 5940a008 <failed_addr>
    41014bc4:	0008b903          	ld	x18,0(x17)
    41014bc8:	00090067          	jr	x18

0000000041014bcc <excp_return_label_24>:
    41014bcc:	00002237          	lui	x4,0x2
    41014bd0:	01600e13          	li	x28,22
    41014bd4:	05c23823          	sd	x28,80(x4) # 2050 <check_excp_expected_cause>
    41014bd8:	00000e17          	auipc	x28,0x0
    41014bdc:	048e0e13          	addi	x28,x28,72 # 41014c20 <fault_label_25>
    41014be0:	03c23023          	sd	x28,32(x4) # 20 <SECURE_ACCESS_PROBABILITY+0x2>
    41014be4:	00000e13          	li	x28,0
    41014be8:	05c23023          	sd	x28,64(x4) # 40 <XLEN>
    41014bec:	00000e13          	li	x28,0
    41014bf0:	05c23423          	sd	x28,72(x4) # 48 <XLEN+0x8>
    41014bf4:	00000e17          	auipc	x28,0x0
    41014bf8:	040e0e13          	addi	x28,x28,64 # 41014c34 <excp_return_label_25>
    41014bfc:	03c23823          	sd	x28,48(x4) # 30 <SECURE_ACCESS_PROBABILITY+0x12>
    41014c00:	00000e13          	li	x28,0
    41014c04:	03c23c23          	sd	x28,56(x4) # 38 <SECURE_ACCESS_PROBABILITY+0x1a>
    41014c08:	00000e13          	li	x28,0
    41014c0c:	07c23023          	sd	x28,96(x4) # 60 <XLEN+0x20>
    41014c10:	00000e13          	li	x28,0
    41014c14:	07c23423          	sd	x28,104(x4) # 68 <XLEN+0x28>
    41014c18:	00000e13          	li	x28,0
    41014c1c:	07c23823          	sd	x28,112(x4) # 70 <XLEN+0x30>

0000000041014c20 <fault_label_25>:
    41014c20:	645517f3          	csrrw	x15,hvip,x10
    41014c24:	5940a7b7          	lui	x15,0x5940a
    41014c28:	0087879b          	addiw	x15,x15,8 # 5940a008 <failed_addr>
    41014c2c:	0007b603          	ld	x12,0(x15)
    41014c30:	00060067          	jr	x12

0000000041014c34 <excp_return_label_25>:
    41014c34:	00002237          	lui	x4,0x2
    41014c38:	01600e13          	li	x28,22
    41014c3c:	05c23823          	sd	x28,80(x4) # 2050 <check_excp_expected_cause>
    41014c40:	00000e17          	auipc	x28,0x0
    41014c44:	04ce0e13          	addi	x28,x28,76 # 41014c8c <fault_label_26>
    41014c48:	03c23023          	sd	x28,32(x4) # 20 <SECURE_ACCESS_PROBABILITY+0x2>
    41014c4c:	00000e13          	li	x28,0
    41014c50:	05c23023          	sd	x28,64(x4) # 40 <XLEN>
    41014c54:	00000e13          	li	x28,0
    41014c58:	05c23423          	sd	x28,72(x4) # 48 <XLEN+0x8>
    41014c5c:	00000e17          	auipc	x28,0x0
    41014c60:	044e0e13          	addi	x28,x28,68 # 41014ca0 <excp_return_label_26>
    41014c64:	03c23823          	sd	x28,48(x4) # 30 <SECURE_ACCESS_PROBABILITY+0x12>
    41014c68:	00000e13          	li	x28,0
    41014c6c:	03c23c23          	sd	x28,56(x4) # 38 <SECURE_ACCESS_PROBABILITY+0x1a>
    41014c70:	00000e13          	li	x28,0
    41014c74:	07c23023          	sd	x28,96(x4) # 60 <XLEN+0x20>
    41014c78:	00000e13          	li	x28,0
    41014c7c:	07c23423          	sd	x28,104(x4) # 68 <XLEN+0x28>
    41014c80:	00000e13          	li	x28,0
    41014c84:	07c23823          	sd	x28,112(x4) # 70 <XLEN+0x30>
    41014c88:	00000793          	li	x15,0

0000000041014c8c <fault_label_26>:
    41014c8c:	6447ac73          	csrrs	x24,hip,x15
    41014c90:	5940ab37          	lui	x22,0x5940a
    41014c94:	008b0b1b          	addiw	x22,x22,8 # 5940a008 <failed_addr>
    41014c98:	000b3e83          	ld	x29,0(x22)
    41014c9c:	000e8067          	jr	x29

0000000041014ca0 <excp_return_label_26>:
    41014ca0:	00002237          	lui	x4,0x2
    41014ca4:	01600e13          	li	x28,22
    41014ca8:	05c23823          	sd	x28,80(x4) # 2050 <check_excp_expected_cause>
    41014cac:	00000e17          	auipc	x28,0x0
    41014cb0:	048e0e13          	addi	x28,x28,72 # 41014cf4 <fault_label_27>
    41014cb4:	03c23023          	sd	x28,32(x4) # 20 <SECURE_ACCESS_PROBABILITY+0x2>
    41014cb8:	00000e13          	li	x28,0
    41014cbc:	05c23023          	sd	x28,64(x4) # 40 <XLEN>
    41014cc0:	00000e13          	li	x28,0
    41014cc4:	05c23423          	sd	x28,72(x4) # 48 <XLEN+0x8>
    41014cc8:	00000e17          	auipc	x28,0x0
    41014ccc:	040e0e13          	addi	x28,x28,64 # 41014d08 <excp_return_label_27>
    41014cd0:	03c23823          	sd	x28,48(x4) # 30 <SECURE_ACCESS_PROBABILITY+0x12>
    41014cd4:	00000e13          	li	x28,0
    41014cd8:	03c23c23          	sd	x28,56(x4) # 38 <SECURE_ACCESS_PROBABILITY+0x1a>
    41014cdc:	00000e13          	li	x28,0
    41014ce0:	07c23023          	sd	x28,96(x4) # 60 <XLEN+0x20>
    41014ce4:	00000e13          	li	x28,0
    41014ce8:	07c23423          	sd	x28,104(x4) # 68 <XLEN+0x28>
    41014cec:	00000e13          	li	x28,0
    41014cf0:	07c23823          	sd	x28,112(x4) # 70 <XLEN+0x30>

0000000041014cf4 <fault_label_27>:
    41014cf4:	644517f3          	csrrw	x15,hip,x10
    41014cf8:	5940a4b7          	lui	x9,0x5940a
    41014cfc:	0084849b          	addiw	x9,x9,8 # 5940a008 <failed_addr>
    41014d00:	0004b703          	ld	x14,0(x9)
    41014d04:	00070067          	jr	x14

0000000041014d08 <excp_return_label_27>:
    41014d08:	00002237          	lui	x4,0x2
    41014d0c:	01600e13          	li	x28,22
    41014d10:	05c23823          	sd	x28,80(x4) # 2050 <check_excp_expected_cause>
    41014d14:	00000e17          	auipc	x28,0x0
    41014d18:	04ce0e13          	addi	x28,x28,76 # 41014d60 <fault_label_28>
    41014d1c:	03c23023          	sd	x28,32(x4) # 20 <SECURE_ACCESS_PROBABILITY+0x2>
    41014d20:	00000e13          	li	x28,0
    41014d24:	05c23023          	sd	x28,64(x4) # 40 <XLEN>
    41014d28:	00000e13          	li	x28,0
    41014d2c:	05c23423          	sd	x28,72(x4) # 48 <XLEN+0x8>
    41014d30:	00000e17          	auipc	x28,0x0
    41014d34:	044e0e13          	addi	x28,x28,68 # 41014d74 <excp_return_label_28>
    41014d38:	03c23823          	sd	x28,48(x4) # 30 <SECURE_ACCESS_PROBABILITY+0x12>
    41014d3c:	00000e13          	li	x28,0
    41014d40:	03c23c23          	sd	x28,56(x4) # 38 <SECURE_ACCESS_PROBABILITY+0x1a>
    41014d44:	00000e13          	li	x28,0
    41014d48:	07c23023          	sd	x28,96(x4) # 60 <XLEN+0x20>
    41014d4c:	00000e13          	li	x28,0
    41014d50:	07c23423          	sd	x28,104(x4) # 68 <XLEN+0x28>
    41014d54:	00000e13          	li	x28,0
    41014d58:	07c23823          	sd	x28,112(x4) # 70 <XLEN+0x30>
    41014d5c:	00000713          	li	x14,0

0000000041014d60 <fault_label_28>:
    41014d60:	60472473          	csrrs	x8,hie,x14
    41014d64:	5940a937          	lui	x18,0x5940a
    41014d68:	0089091b          	addiw	x18,x18,8 # 5940a008 <failed_addr>
    41014d6c:	00093e03          	ld	x28,0(x18)
    41014d70:	000e0067          	jr	x28

0000000041014d74 <excp_return_label_28>:
    41014d74:	00002237          	lui	x4,0x2
    41014d78:	01600e13          	li	x28,22
    41014d7c:	05c23823          	sd	x28,80(x4) # 2050 <check_excp_expected_cause>
    41014d80:	00000e17          	auipc	x28,0x0
    41014d84:	048e0e13          	addi	x28,x28,72 # 41014dc8 <fault_label_29>
    41014d88:	03c23023          	sd	x28,32(x4) # 20 <SECURE_ACCESS_PROBABILITY+0x2>
    41014d8c:	00000e13          	li	x28,0
    41014d90:	05c23023          	sd	x28,64(x4) # 40 <XLEN>
    41014d94:	00000e13          	li	x28,0
    41014d98:	05c23423          	sd	x28,72(x4) # 48 <XLEN+0x8>
    41014d9c:	00000e17          	auipc	x28,0x0
    41014da0:	040e0e13          	addi	x28,x28,64 # 41014ddc <excp_return_label_29>
    41014da4:	03c23823          	sd	x28,48(x4) # 30 <SECURE_ACCESS_PROBABILITY+0x12>
    41014da8:	00000e13          	li	x28,0
    41014dac:	03c23c23          	sd	x28,56(x4) # 38 <SECURE_ACCESS_PROBABILITY+0x1a>
    41014db0:	00000e13          	li	x28,0
    41014db4:	07c23023          	sd	x28,96(x4) # 60 <XLEN+0x20>
    41014db8:	00000e13          	li	x28,0
    41014dbc:	07c23423          	sd	x28,104(x4) # 68 <XLEN+0x28>
    41014dc0:	00000e13          	li	x28,0
    41014dc4:	07c23823          	sd	x28,112(x4) # 70 <XLEN+0x30>

0000000041014dc8 <fault_label_29>:
    41014dc8:	60451bf3          	csrrw	x23,hie,x10
    41014dcc:	5940ac37          	lui	x24,0x5940a
    41014dd0:	008c0c1b          	addiw	x24,x24,8 # 5940a008 <failed_addr>
    41014dd4:	000c3b83          	ld	x23,0(x24)
    41014dd8:	000b8067          	jr	x23

0000000041014ddc <excp_return_label_29>:
    41014ddc:	00002237          	lui	x4,0x2
    41014de0:	01600e13          	li	x28,22
    41014de4:	05c23823          	sd	x28,80(x4) # 2050 <check_excp_expected_cause>
    41014de8:	00000e17          	auipc	x28,0x0
    41014dec:	04ce0e13          	addi	x28,x28,76 # 41014e34 <fault_label_30>
    41014df0:	03c23023          	sd	x28,32(x4) # 20 <SECURE_ACCESS_PROBABILITY+0x2>
    41014df4:	00000e13          	li	x28,0
    41014df8:	05c23023          	sd	x28,64(x4) # 40 <XLEN>
    41014dfc:	00000e13          	li	x28,0
    41014e00:	05c23423          	sd	x28,72(x4) # 48 <XLEN+0x8>
    41014e04:	00000e17          	auipc	x28,0x0
    41014e08:	044e0e13          	addi	x28,x28,68 # 41014e48 <excp_return_label_30>
    41014e0c:	03c23823          	sd	x28,48(x4) # 30 <SECURE_ACCESS_PROBABILITY+0x12>
    41014e10:	00000e13          	li	x28,0
    41014e14:	03c23c23          	sd	x28,56(x4) # 38 <SECURE_ACCESS_PROBABILITY+0x1a>
    41014e18:	00000e13          	li	x28,0
    41014e1c:	07c23023          	sd	x28,96(x4) # 60 <XLEN+0x20>
    41014e20:	00000e13          	li	x28,0
    41014e24:	07c23423          	sd	x28,104(x4) # 68 <XLEN+0x28>
    41014e28:	00000e13          	li	x28,0
    41014e2c:	07c23823          	sd	x28,112(x4) # 70 <XLEN+0x30>
    41014e30:	00000d13          	li	x26,0

0000000041014e34 <fault_label_30>:
    41014e34:	607d2ef3          	csrrs	x29,hgeie,x26
    41014e38:	5940aab7          	lui	x21,0x5940a
    41014e3c:	008a8a9b          	addiw	x21,x21,8 # 5940a008 <failed_addr>
    41014e40:	000abd83          	ld	x27,0(x21)
    41014e44:	000d8067          	jr	x27

0000000041014e48 <excp_return_label_30>:
    41014e48:	00002237          	lui	x4,0x2
    41014e4c:	01600e13          	li	x28,22
    41014e50:	05c23823          	sd	x28,80(x4) # 2050 <check_excp_expected_cause>
    41014e54:	00000e17          	auipc	x28,0x0
    41014e58:	048e0e13          	addi	x28,x28,72 # 41014e9c <fault_label_31>
    41014e5c:	03c23023          	sd	x28,32(x4) # 20 <SECURE_ACCESS_PROBABILITY+0x2>
    41014e60:	00000e13          	li	x28,0
    41014e64:	05c23023          	sd	x28,64(x4) # 40 <XLEN>
    41014e68:	00000e13          	li	x28,0
    41014e6c:	05c23423          	sd	x28,72(x4) # 48 <XLEN+0x8>
    41014e70:	00000e17          	auipc	x28,0x0
    41014e74:	040e0e13          	addi	x28,x28,64 # 41014eb0 <excp_return_label_31>
    41014e78:	03c23823          	sd	x28,48(x4) # 30 <SECURE_ACCESS_PROBABILITY+0x12>
    41014e7c:	00000e13          	li	x28,0
    41014e80:	03c23c23          	sd	x28,56(x4) # 38 <SECURE_ACCESS_PROBABILITY+0x1a>
    41014e84:	00000e13          	li	x28,0
    41014e88:	07c23023          	sd	x28,96(x4) # 60 <XLEN+0x20>
    41014e8c:	00000e13          	li	x28,0
    41014e90:	07c23423          	sd	x28,104(x4) # 68 <XLEN+0x28>
    41014e94:	00000e13          	li	x28,0
    41014e98:	07c23823          	sd	x28,112(x4) # 70 <XLEN+0x30>

0000000041014e9c <fault_label_31>:
    41014e9c:	60751ef3          	csrrw	x29,hgeie,x10
    41014ea0:	5940ac37          	lui	x24,0x5940a
    41014ea4:	008c0c1b          	addiw	x24,x24,8 # 5940a008 <failed_addr>
    41014ea8:	000c3e03          	ld	x28,0(x24)
    41014eac:	000e0067          	jr	x28

0000000041014eb0 <excp_return_label_31>:
    41014eb0:	00002237          	lui	x4,0x2
    41014eb4:	01600e13          	li	x28,22
    41014eb8:	05c23823          	sd	x28,80(x4) # 2050 <check_excp_expected_cause>
    41014ebc:	00000e17          	auipc	x28,0x0
    41014ec0:	04ce0e13          	addi	x28,x28,76 # 41014f08 <fault_label_32>
    41014ec4:	03c23023          	sd	x28,32(x4) # 20 <SECURE_ACCESS_PROBABILITY+0x2>
    41014ec8:	00000e13          	li	x28,0
    41014ecc:	05c23023          	sd	x28,64(x4) # 40 <XLEN>
    41014ed0:	00000e13          	li	x28,0
    41014ed4:	05c23423          	sd	x28,72(x4) # 48 <XLEN+0x8>
    41014ed8:	00000e17          	auipc	x28,0x0
    41014edc:	044e0e13          	addi	x28,x28,68 # 41014f1c <excp_return_label_32>
    41014ee0:	03c23823          	sd	x28,48(x4) # 30 <SECURE_ACCESS_PROBABILITY+0x12>
    41014ee4:	00000e13          	li	x28,0
    41014ee8:	03c23c23          	sd	x28,56(x4) # 38 <SECURE_ACCESS_PROBABILITY+0x1a>
    41014eec:	00000e13          	li	x28,0
    41014ef0:	07c23023          	sd	x28,96(x4) # 60 <XLEN+0x20>
    41014ef4:	00000e13          	li	x28,0
    41014ef8:	07c23423          	sd	x28,104(x4) # 68 <XLEN+0x28>
    41014efc:	00000e13          	li	x28,0
    41014f00:	07c23823          	sd	x28,112(x4) # 70 <XLEN+0x30>
    41014f04:	00000b93          	li	x23,0

0000000041014f08 <fault_label_32>:
    41014f08:	60abab73          	csrrs	x22,henvcfg,x23
    41014f0c:	5940aeb7          	lui	x29,0x5940a
    41014f10:	008e8e9b          	addiw	x29,x29,8 # 5940a008 <failed_addr>
    41014f14:	000eb683          	ld	x13,0(x29)
    41014f18:	00068067          	jr	x13

0000000041014f1c <excp_return_label_32>:
    41014f1c:	00002237          	lui	x4,0x2
    41014f20:	01600e13          	li	x28,22
    41014f24:	05c23823          	sd	x28,80(x4) # 2050 <check_excp_expected_cause>
    41014f28:	00000e17          	auipc	x28,0x0
    41014f2c:	048e0e13          	addi	x28,x28,72 # 41014f70 <fault_label_33>
    41014f30:	03c23023          	sd	x28,32(x4) # 20 <SECURE_ACCESS_PROBABILITY+0x2>
    41014f34:	00000e13          	li	x28,0
    41014f38:	05c23023          	sd	x28,64(x4) # 40 <XLEN>
    41014f3c:	00000e13          	li	x28,0
    41014f40:	05c23423          	sd	x28,72(x4) # 48 <XLEN+0x8>
    41014f44:	00000e17          	auipc	x28,0x0
    41014f48:	040e0e13          	addi	x28,x28,64 # 41014f84 <excp_return_label_33>
    41014f4c:	03c23823          	sd	x28,48(x4) # 30 <SECURE_ACCESS_PROBABILITY+0x12>
    41014f50:	00000e13          	li	x28,0
    41014f54:	03c23c23          	sd	x28,56(x4) # 38 <SECURE_ACCESS_PROBABILITY+0x1a>
    41014f58:	00000e13          	li	x28,0
    41014f5c:	07c23023          	sd	x28,96(x4) # 60 <XLEN+0x20>
    41014f60:	00000e13          	li	x28,0
    41014f64:	07c23423          	sd	x28,104(x4) # 68 <XLEN+0x28>
    41014f68:	00000e13          	li	x28,0
    41014f6c:	07c23823          	sd	x28,112(x4) # 70 <XLEN+0x30>

0000000041014f70 <fault_label_33>:
    41014f70:	60a51ff3          	csrrw	x31,henvcfg,x10
    41014f74:	5940aab7          	lui	x21,0x5940a
    41014f78:	008a8a9b          	addiw	x21,x21,8 # 5940a008 <failed_addr>
    41014f7c:	000ab803          	ld	x16,0(x21)
    41014f80:	00080067          	jr	x16

0000000041014f84 <excp_return_label_33>:
    41014f84:	00002237          	lui	x4,0x2
    41014f88:	01600e13          	li	x28,22
    41014f8c:	05c23823          	sd	x28,80(x4) # 2050 <check_excp_expected_cause>
    41014f90:	00000e17          	auipc	x28,0x0
    41014f94:	04ce0e13          	addi	x28,x28,76 # 41014fdc <fault_label_34>
    41014f98:	03c23023          	sd	x28,32(x4) # 20 <SECURE_ACCESS_PROBABILITY+0x2>
    41014f9c:	00000e13          	li	x28,0
    41014fa0:	05c23023          	sd	x28,64(x4) # 40 <XLEN>
    41014fa4:	00000e13          	li	x28,0
    41014fa8:	05c23423          	sd	x28,72(x4) # 48 <XLEN+0x8>
    41014fac:	00000e17          	auipc	x28,0x0
    41014fb0:	044e0e13          	addi	x28,x28,68 # 41014ff0 <excp_return_label_34>
    41014fb4:	03c23823          	sd	x28,48(x4) # 30 <SECURE_ACCESS_PROBABILITY+0x12>
    41014fb8:	00000e13          	li	x28,0
    41014fbc:	03c23c23          	sd	x28,56(x4) # 38 <SECURE_ACCESS_PROBABILITY+0x1a>
    41014fc0:	00000e13          	li	x28,0
    41014fc4:	07c23023          	sd	x28,96(x4) # 60 <XLEN+0x20>
    41014fc8:	00000e13          	li	x28,0
    41014fcc:	07c23423          	sd	x28,104(x4) # 68 <XLEN+0x28>
    41014fd0:	00000e13          	li	x28,0
    41014fd4:	07c23823          	sd	x28,112(x4) # 70 <XLEN+0x30>
    41014fd8:	00000f13          	li	x30,0

0000000041014fdc <fault_label_34>:
    41014fdc:	606f2f73          	csrrs	x30,hcounteren,x30
    41014fe0:	5940a8b7          	lui	x17,0x5940a
    41014fe4:	0088889b          	addiw	x17,x17,8 # 5940a008 <failed_addr>
    41014fe8:	0008bb03          	ld	x22,0(x17)
    41014fec:	000b0067          	jr	x22

0000000041014ff0 <excp_return_label_34>:
    41014ff0:	00002237          	lui	x4,0x2
    41014ff4:	01600e13          	li	x28,22
    41014ff8:	05c23823          	sd	x28,80(x4) # 2050 <check_excp_expected_cause>
    41014ffc:	00000e17          	auipc	x28,0x0
    41015000:	048e0e13          	addi	x28,x28,72 # 41015044 <fault_label_35>
    41015004:	03c23023          	sd	x28,32(x4) # 20 <SECURE_ACCESS_PROBABILITY+0x2>
    41015008:	00000e13          	li	x28,0
    4101500c:	05c23023          	sd	x28,64(x4) # 40 <XLEN>
    41015010:	00000e13          	li	x28,0
    41015014:	05c23423          	sd	x28,72(x4) # 48 <XLEN+0x8>
    41015018:	00000e17          	auipc	x28,0x0
    4101501c:	040e0e13          	addi	x28,x28,64 # 41015058 <excp_return_label_35>
    41015020:	03c23823          	sd	x28,48(x4) # 30 <SECURE_ACCESS_PROBABILITY+0x12>
    41015024:	00000e13          	li	x28,0
    41015028:	03c23c23          	sd	x28,56(x4) # 38 <SECURE_ACCESS_PROBABILITY+0x1a>
    4101502c:	00000e13          	li	x28,0
    41015030:	07c23023          	sd	x28,96(x4) # 60 <XLEN+0x20>
    41015034:	00000e13          	li	x28,0
    41015038:	07c23423          	sd	x28,104(x4) # 68 <XLEN+0x28>
    4101503c:	00000e13          	li	x28,0
    41015040:	07c23823          	sd	x28,112(x4) # 70 <XLEN+0x30>

0000000041015044 <fault_label_35>:
    41015044:	60651ef3          	csrrw	x29,hcounteren,x10
    41015048:	5940a7b7          	lui	x15,0x5940a
    4101504c:	0087879b          	addiw	x15,x15,8 # 5940a008 <failed_addr>
    41015050:	0007bd83          	ld	x27,0(x15)
    41015054:	000d8067          	jr	x27

0000000041015058 <excp_return_label_35>:
    41015058:	00002237          	lui	x4,0x2
    4101505c:	01600e13          	li	x28,22
    41015060:	05c23823          	sd	x28,80(x4) # 2050 <check_excp_expected_cause>
    41015064:	00000e17          	auipc	x28,0x0
    41015068:	04ce0e13          	addi	x28,x28,76 # 410150b0 <fault_label_36>
    4101506c:	03c23023          	sd	x28,32(x4) # 20 <SECURE_ACCESS_PROBABILITY+0x2>
    41015070:	00000e13          	li	x28,0
    41015074:	05c23023          	sd	x28,64(x4) # 40 <XLEN>
    41015078:	00000e13          	li	x28,0
    4101507c:	05c23423          	sd	x28,72(x4) # 48 <XLEN+0x8>
    41015080:	00000e17          	auipc	x28,0x0
    41015084:	044e0e13          	addi	x28,x28,68 # 410150c4 <excp_return_label_36>
    41015088:	03c23823          	sd	x28,48(x4) # 30 <SECURE_ACCESS_PROBABILITY+0x12>
    4101508c:	00000e13          	li	x28,0
    41015090:	03c23c23          	sd	x28,56(x4) # 38 <SECURE_ACCESS_PROBABILITY+0x1a>
    41015094:	00000e13          	li	x28,0
    41015098:	07c23023          	sd	x28,96(x4) # 60 <XLEN+0x20>
    4101509c:	00000e13          	li	x28,0
    410150a0:	07c23423          	sd	x28,104(x4) # 68 <XLEN+0x28>
    410150a4:	00000e13          	li	x28,0
    410150a8:	07c23823          	sd	x28,112(x4) # 70 <XLEN+0x30>
    410150ac:	00000f93          	li	x31,0

00000000410150b0 <fault_label_36>:
    410150b0:	605fad73          	csrrs	x26,htimedelta,x31
    410150b4:	5940a8b7          	lui	x17,0x5940a
    410150b8:	0088889b          	addiw	x17,x17,8 # 5940a008 <failed_addr>
    410150bc:	0008bc03          	ld	x24,0(x17)
    410150c0:	000c0067          	jr	x24

00000000410150c4 <excp_return_label_36>:
    410150c4:	00002237          	lui	x4,0x2
    410150c8:	01600e13          	li	x28,22
    410150cc:	05c23823          	sd	x28,80(x4) # 2050 <check_excp_expected_cause>
    410150d0:	00000e17          	auipc	x28,0x0
    410150d4:	048e0e13          	addi	x28,x28,72 # 41015118 <fault_label_37>
    410150d8:	03c23023          	sd	x28,32(x4) # 20 <SECURE_ACCESS_PROBABILITY+0x2>
    410150dc:	00000e13          	li	x28,0
    410150e0:	05c23023          	sd	x28,64(x4) # 40 <XLEN>
    410150e4:	00000e13          	li	x28,0
    410150e8:	05c23423          	sd	x28,72(x4) # 48 <XLEN+0x8>
    410150ec:	00000e17          	auipc	x28,0x0
    410150f0:	040e0e13          	addi	x28,x28,64 # 4101512c <excp_return_label_37>
    410150f4:	03c23823          	sd	x28,48(x4) # 30 <SECURE_ACCESS_PROBABILITY+0x12>
    410150f8:	00000e13          	li	x28,0
    410150fc:	03c23c23          	sd	x28,56(x4) # 38 <SECURE_ACCESS_PROBABILITY+0x1a>
    41015100:	00000e13          	li	x28,0
    41015104:	07c23023          	sd	x28,96(x4) # 60 <XLEN+0x20>
    41015108:	00000e13          	li	x28,0
    4101510c:	07c23423          	sd	x28,104(x4) # 68 <XLEN+0x28>
    41015110:	00000e13          	li	x28,0
    41015114:	07c23823          	sd	x28,112(x4) # 70 <XLEN+0x30>

0000000041015118 <fault_label_37>:
    41015118:	60551af3          	csrrw	x21,htimedelta,x10
    4101511c:	5940a737          	lui	x14,0x5940a
    41015120:	0087071b          	addiw	x14,x14,8 # 5940a008 <failed_addr>
    41015124:	00073883          	ld	x17,0(x14)
    41015128:	00088067          	jr	x17

000000004101512c <excp_return_label_37>:
    4101512c:	00002237          	lui	x4,0x2
    41015130:	01600e13          	li	x28,22
    41015134:	05c23823          	sd	x28,80(x4) # 2050 <check_excp_expected_cause>
    41015138:	00000e17          	auipc	x28,0x0
    4101513c:	04ce0e13          	addi	x28,x28,76 # 41015184 <fault_label_38>
    41015140:	03c23023          	sd	x28,32(x4) # 20 <SECURE_ACCESS_PROBABILITY+0x2>
    41015144:	00000e13          	li	x28,0
    41015148:	05c23023          	sd	x28,64(x4) # 40 <XLEN>
    4101514c:	00000e13          	li	x28,0
    41015150:	05c23423          	sd	x28,72(x4) # 48 <XLEN+0x8>
    41015154:	00000e17          	auipc	x28,0x0
    41015158:	044e0e13          	addi	x28,x28,68 # 41015198 <excp_return_label_38>
    4101515c:	03c23823          	sd	x28,48(x4) # 30 <SECURE_ACCESS_PROBABILITY+0x12>
    41015160:	00000e13          	li	x28,0
    41015164:	03c23c23          	sd	x28,56(x4) # 38 <SECURE_ACCESS_PROBABILITY+0x1a>
    41015168:	00000e13          	li	x28,0
    4101516c:	07c23023          	sd	x28,96(x4) # 60 <XLEN+0x20>
    41015170:	00000e13          	li	x28,0
    41015174:	07c23423          	sd	x28,104(x4) # 68 <XLEN+0x28>
    41015178:	00000e13          	li	x28,0
    4101517c:	07c23823          	sd	x28,112(x4) # 70 <XLEN+0x30>
    41015180:	00000793          	li	x15,0

0000000041015184 <fault_label_38>:
    41015184:	6437ad73          	csrrs	x26,htval,x15
    41015188:	5940a7b7          	lui	x15,0x5940a
    4101518c:	0087879b          	addiw	x15,x15,8 # 5940a008 <failed_addr>
    41015190:	0007b983          	ld	x19,0(x15)
    41015194:	00098067          	jr	x19

0000000041015198 <excp_return_label_38>:
    41015198:	00002237          	lui	x4,0x2
    4101519c:	01600e13          	li	x28,22
    410151a0:	05c23823          	sd	x28,80(x4) # 2050 <check_excp_expected_cause>
    410151a4:	00000e17          	auipc	x28,0x0
    410151a8:	048e0e13          	addi	x28,x28,72 # 410151ec <fault_label_39>
    410151ac:	03c23023          	sd	x28,32(x4) # 20 <SECURE_ACCESS_PROBABILITY+0x2>
    410151b0:	00000e13          	li	x28,0
    410151b4:	05c23023          	sd	x28,64(x4) # 40 <XLEN>
    410151b8:	00000e13          	li	x28,0
    410151bc:	05c23423          	sd	x28,72(x4) # 48 <XLEN+0x8>
    410151c0:	00000e17          	auipc	x28,0x0
    410151c4:	040e0e13          	addi	x28,x28,64 # 41015200 <excp_return_label_39>
    410151c8:	03c23823          	sd	x28,48(x4) # 30 <SECURE_ACCESS_PROBABILITY+0x12>
    410151cc:	00000e13          	li	x28,0
    410151d0:	03c23c23          	sd	x28,56(x4) # 38 <SECURE_ACCESS_PROBABILITY+0x1a>
    410151d4:	00000e13          	li	x28,0
    410151d8:	07c23023          	sd	x28,96(x4) # 60 <XLEN+0x20>
    410151dc:	00000e13          	li	x28,0
    410151e0:	07c23423          	sd	x28,104(x4) # 68 <XLEN+0x28>
    410151e4:	00000e13          	li	x28,0
    410151e8:	07c23823          	sd	x28,112(x4) # 70 <XLEN+0x30>

00000000410151ec <fault_label_39>:
    410151ec:	64351873          	csrrw	x16,htval,x10
    410151f0:	5940a9b7          	lui	x19,0x5940a
    410151f4:	0089899b          	addiw	x19,x19,8 # 5940a008 <failed_addr>
    410151f8:	0009bf83          	ld	x31,0(x19)
    410151fc:	000f8067          	jr	x31

0000000041015200 <excp_return_label_39>:
    41015200:	00002237          	lui	x4,0x2
    41015204:	01600e13          	li	x28,22
    41015208:	05c23823          	sd	x28,80(x4) # 2050 <check_excp_expected_cause>
    4101520c:	00000e17          	auipc	x28,0x0
    41015210:	04ce0e13          	addi	x28,x28,76 # 41015258 <fault_label_40>
    41015214:	03c23023          	sd	x28,32(x4) # 20 <SECURE_ACCESS_PROBABILITY+0x2>
    41015218:	00000e13          	li	x28,0
    4101521c:	05c23023          	sd	x28,64(x4) # 40 <XLEN>
    41015220:	00000e13          	li	x28,0
    41015224:	05c23423          	sd	x28,72(x4) # 48 <XLEN+0x8>
    41015228:	00000e17          	auipc	x28,0x0
    4101522c:	044e0e13          	addi	x28,x28,68 # 4101526c <excp_return_label_40>
    41015230:	03c23823          	sd	x28,48(x4) # 30 <SECURE_ACCESS_PROBABILITY+0x12>
    41015234:	00000e13          	li	x28,0
    41015238:	03c23c23          	sd	x28,56(x4) # 38 <SECURE_ACCESS_PROBABILITY+0x1a>
    4101523c:	00000e13          	li	x28,0
    41015240:	07c23023          	sd	x28,96(x4) # 60 <XLEN+0x20>
    41015244:	00000e13          	li	x28,0
    41015248:	07c23423          	sd	x28,104(x4) # 68 <XLEN+0x28>
    4101524c:	00000e13          	li	x28,0
    41015250:	07c23823          	sd	x28,112(x4) # 70 <XLEN+0x30>
    41015254:	00000393          	li	x7,0

0000000041015258 <fault_label_40>:
    41015258:	64a3aaf3          	csrrs	x21,htinst,x7
    4101525c:	5940aab7          	lui	x21,0x5940a
    41015260:	008a8a9b          	addiw	x21,x21,8 # 5940a008 <failed_addr>
    41015264:	000ab883          	ld	x17,0(x21)
    41015268:	00088067          	jr	x17

000000004101526c <excp_return_label_40>:
    4101526c:	00002237          	lui	x4,0x2
    41015270:	01600e13          	li	x28,22
    41015274:	05c23823          	sd	x28,80(x4) # 2050 <check_excp_expected_cause>
    41015278:	00000e17          	auipc	x28,0x0
    4101527c:	048e0e13          	addi	x28,x28,72 # 410152c0 <fault_label_41>
    41015280:	03c23023          	sd	x28,32(x4) # 20 <SECURE_ACCESS_PROBABILITY+0x2>
    41015284:	00000e13          	li	x28,0
    41015288:	05c23023          	sd	x28,64(x4) # 40 <XLEN>
    4101528c:	00000e13          	li	x28,0
    41015290:	05c23423          	sd	x28,72(x4) # 48 <XLEN+0x8>
    41015294:	00000e17          	auipc	x28,0x0
    41015298:	040e0e13          	addi	x28,x28,64 # 410152d4 <excp_return_label_41>
    4101529c:	03c23823          	sd	x28,48(x4) # 30 <SECURE_ACCESS_PROBABILITY+0x12>
    410152a0:	00000e13          	li	x28,0
    410152a4:	03c23c23          	sd	x28,56(x4) # 38 <SECURE_ACCESS_PROBABILITY+0x1a>
    410152a8:	00000e13          	li	x28,0
    410152ac:	07c23023          	sd	x28,96(x4) # 60 <XLEN+0x20>
    410152b0:	00000e13          	li	x28,0
    410152b4:	07c23423          	sd	x28,104(x4) # 68 <XLEN+0x28>
    410152b8:	00000e13          	li	x28,0
    410152bc:	07c23823          	sd	x28,112(x4) # 70 <XLEN+0x30>

00000000410152c0 <fault_label_41>:
    410152c0:	64a51473          	csrrw	x8,htinst,x10
    410152c4:	5940adb7          	lui	x27,0x5940a
    410152c8:	008d8d9b          	addiw	x27,x27,8 # 5940a008 <failed_addr>
    410152cc:	000dbc83          	ld	x25,0(x27)
    410152d0:	000c8067          	jr	x25

00000000410152d4 <excp_return_label_41>:
    410152d4:	00002237          	lui	x4,0x2
    410152d8:	01600e13          	li	x28,22
    410152dc:	05c23823          	sd	x28,80(x4) # 2050 <check_excp_expected_cause>
    410152e0:	00000e17          	auipc	x28,0x0
    410152e4:	04ce0e13          	addi	x28,x28,76 # 4101532c <fault_label_42>
    410152e8:	03c23023          	sd	x28,32(x4) # 20 <SECURE_ACCESS_PROBABILITY+0x2>
    410152ec:	00000e13          	li	x28,0
    410152f0:	05c23023          	sd	x28,64(x4) # 40 <XLEN>
    410152f4:	00000e13          	li	x28,0
    410152f8:	05c23423          	sd	x28,72(x4) # 48 <XLEN+0x8>
    410152fc:	00000e17          	auipc	x28,0x0
    41015300:	044e0e13          	addi	x28,x28,68 # 41015340 <excp_return_label_42>
    41015304:	03c23823          	sd	x28,48(x4) # 30 <SECURE_ACCESS_PROBABILITY+0x12>
    41015308:	00000e13          	li	x28,0
    4101530c:	03c23c23          	sd	x28,56(x4) # 38 <SECURE_ACCESS_PROBABILITY+0x1a>
    41015310:	00000e13          	li	x28,0
    41015314:	07c23023          	sd	x28,96(x4) # 60 <XLEN+0x20>
    41015318:	00000e13          	li	x28,0
    4101531c:	07c23423          	sd	x28,104(x4) # 68 <XLEN+0x28>
    41015320:	00000e13          	li	x28,0
    41015324:	07c23823          	sd	x28,112(x4) # 70 <XLEN+0x30>
    41015328:	00000793          	li	x15,0

000000004101532c <fault_label_42>:
    4101532c:	6807aef3          	csrrs	x29,hgatp,x15
    41015330:	5940aab7          	lui	x21,0x5940a
    41015334:	008a8a9b          	addiw	x21,x21,8 # 5940a008 <failed_addr>
    41015338:	000ab383          	ld	x7,0(x21)
    4101533c:	00038067          	jr	x7

0000000041015340 <excp_return_label_42>:
    41015340:	00002237          	lui	x4,0x2
    41015344:	01600e13          	li	x28,22
    41015348:	05c23823          	sd	x28,80(x4) # 2050 <check_excp_expected_cause>
    4101534c:	00000e17          	auipc	x28,0x0
    41015350:	048e0e13          	addi	x28,x28,72 # 41015394 <fault_label_43>
    41015354:	03c23023          	sd	x28,32(x4) # 20 <SECURE_ACCESS_PROBABILITY+0x2>
    41015358:	00000e13          	li	x28,0
    4101535c:	05c23023          	sd	x28,64(x4) # 40 <XLEN>
    41015360:	00000e13          	li	x28,0
    41015364:	05c23423          	sd	x28,72(x4) # 48 <XLEN+0x8>
    41015368:	00000e17          	auipc	x28,0x0
    4101536c:	040e0e13          	addi	x28,x28,64 # 410153a8 <excp_return_label_43>
    41015370:	03c23823          	sd	x28,48(x4) # 30 <SECURE_ACCESS_PROBABILITY+0x12>
    41015374:	00000e13          	li	x28,0
    41015378:	03c23c23          	sd	x28,56(x4) # 38 <SECURE_ACCESS_PROBABILITY+0x1a>
    4101537c:	00000e13          	li	x28,0
    41015380:	07c23023          	sd	x28,96(x4) # 60 <XLEN+0x20>
    41015384:	00000e13          	li	x28,0
    41015388:	07c23423          	sd	x28,104(x4) # 68 <XLEN+0x28>
    4101538c:	00000e13          	li	x28,0
    41015390:	07c23823          	sd	x28,112(x4) # 70 <XLEN+0x30>

0000000041015394 <fault_label_43>:
    41015394:	68051e73          	csrrw	x28,hgatp,x10
    41015398:	5940a8b7          	lui	x17,0x5940a
    4101539c:	0088889b          	addiw	x17,x17,8 # 5940a008 <failed_addr>
    410153a0:	0008b803          	ld	x16,0(x17)
    410153a4:	00080067          	jr	x16

00000000410153a8 <excp_return_label_43>:
    410153a8:	00002237          	lui	x4,0x2
    410153ac:	01600e13          	li	x28,22
    410153b0:	05c23823          	sd	x28,80(x4) # 2050 <check_excp_expected_cause>
    410153b4:	00000e17          	auipc	x28,0x0
    410153b8:	04ce0e13          	addi	x28,x28,76 # 41015400 <fault_label_44>
    410153bc:	03c23023          	sd	x28,32(x4) # 20 <SECURE_ACCESS_PROBABILITY+0x2>
    410153c0:	00000e13          	li	x28,0
    410153c4:	05c23023          	sd	x28,64(x4) # 40 <XLEN>
    410153c8:	00000e13          	li	x28,0
    410153cc:	05c23423          	sd	x28,72(x4) # 48 <XLEN+0x8>
    410153d0:	00000e17          	auipc	x28,0x0
    410153d4:	044e0e13          	addi	x28,x28,68 # 41015414 <excp_return_label_44>
    410153d8:	03c23823          	sd	x28,48(x4) # 30 <SECURE_ACCESS_PROBABILITY+0x12>
    410153dc:	00000e13          	li	x28,0
    410153e0:	03c23c23          	sd	x28,56(x4) # 38 <SECURE_ACCESS_PROBABILITY+0x1a>
    410153e4:	00000e13          	li	x28,0
    410153e8:	07c23023          	sd	x28,96(x4) # 60 <XLEN+0x20>
    410153ec:	00000e13          	li	x28,0
    410153f0:	07c23423          	sd	x28,104(x4) # 68 <XLEN+0x28>
    410153f4:	00000e13          	li	x28,0
    410153f8:	07c23823          	sd	x28,112(x4) # 70 <XLEN+0x30>
    410153fc:	00000413          	li	x8,0

0000000041015400 <fault_label_44>:
    41015400:	6a842773          	csrrs	x14,hcontext,x8
    41015404:	5940afb7          	lui	x31,0x5940a
    41015408:	008f8f9b          	addiw	x31,x31,8 # 5940a008 <failed_addr>
    4101540c:	000fbd03          	ld	x26,0(x31)
    41015410:	000d0067          	jr	x26

0000000041015414 <excp_return_label_44>:
    41015414:	00002237          	lui	x4,0x2
    41015418:	01600e13          	li	x28,22
    4101541c:	05c23823          	sd	x28,80(x4) # 2050 <check_excp_expected_cause>
    41015420:	00000e17          	auipc	x28,0x0
    41015424:	048e0e13          	addi	x28,x28,72 # 41015468 <fault_label_45>
    41015428:	03c23023          	sd	x28,32(x4) # 20 <SECURE_ACCESS_PROBABILITY+0x2>
    4101542c:	00000e13          	li	x28,0
    41015430:	05c23023          	sd	x28,64(x4) # 40 <XLEN>
    41015434:	00000e13          	li	x28,0
    41015438:	05c23423          	sd	x28,72(x4) # 48 <XLEN+0x8>
    4101543c:	00000e17          	auipc	x28,0x0
    41015440:	040e0e13          	addi	x28,x28,64 # 4101547c <excp_return_label_45>
    41015444:	03c23823          	sd	x28,48(x4) # 30 <SECURE_ACCESS_PROBABILITY+0x12>
    41015448:	00000e13          	li	x28,0
    4101544c:	03c23c23          	sd	x28,56(x4) # 38 <SECURE_ACCESS_PROBABILITY+0x1a>
    41015450:	00000e13          	li	x28,0
    41015454:	07c23023          	sd	x28,96(x4) # 60 <XLEN+0x20>
    41015458:	00000e13          	li	x28,0
    4101545c:	07c23423          	sd	x28,104(x4) # 68 <XLEN+0x28>
    41015460:	00000e13          	li	x28,0
    41015464:	07c23823          	sd	x28,112(x4) # 70 <XLEN+0x30>

0000000041015468 <fault_label_45>:
    41015468:	6a851373          	csrrw	x6,hcontext,x10
    4101546c:	5940ae37          	lui	x28,0x5940a
    41015470:	008e0e1b          	addiw	x28,x28,8 # 5940a008 <failed_addr>
    41015474:	000e3883          	ld	x17,0(x28)
    41015478:	00088067          	jr	x17

000000004101547c <excp_return_label_45>:
    4101547c:	00002237          	lui	x4,0x2
    41015480:	01600e13          	li	x28,22
    41015484:	05c23823          	sd	x28,80(x4) # 2050 <check_excp_expected_cause>
    41015488:	00000e17          	auipc	x28,0x0
    4101548c:	048e0e13          	addi	x28,x28,72 # 410154d0 <fault_label_46>
    41015490:	03c23023          	sd	x28,32(x4) # 20 <SECURE_ACCESS_PROBABILITY+0x2>
    41015494:	00000e13          	li	x28,0
    41015498:	05c23023          	sd	x28,64(x4) # 40 <XLEN>
    4101549c:	00000e13          	li	x28,0
    410154a0:	05c23423          	sd	x28,72(x4) # 48 <XLEN+0x8>
    410154a4:	00000e17          	auipc	x28,0x0
    410154a8:	044e0e13          	addi	x28,x28,68 # 410154e8 <excp_return_label_46>
    410154ac:	03c23823          	sd	x28,48(x4) # 30 <SECURE_ACCESS_PROBABILITY+0x12>
    410154b0:	00000e13          	li	x28,0
    410154b4:	03c23c23          	sd	x28,56(x4) # 38 <SECURE_ACCESS_PROBABILITY+0x1a>
    410154b8:	00000e13          	li	x28,0
    410154bc:	07c23023          	sd	x28,96(x4) # 60 <XLEN+0x20>
    410154c0:	00000e13          	li	x28,0
    410154c4:	07c23423          	sd	x28,104(x4) # 68 <XLEN+0x28>
    410154c8:	00000e13          	li	x28,0
    410154cc:	07c23823          	sd	x28,112(x4) # 70 <XLEN+0x30>

00000000410154d0 <fault_label_46>:
    410154d0:	e12023f3          	csrr	x7,hgeip
    410154d4:	00038f93          	mv	x31,x7
    410154d8:	5940afb7          	lui	x31,0x5940a
    410154dc:	008f8f9b          	addiw	x31,x31,8 # 5940a008 <failed_addr>
    410154e0:	000fbd03          	ld	x26,0(x31)
    410154e4:	000d0067          	jr	x26

00000000410154e8 <excp_return_label_46>:
    410154e8:	01ec5137          	lui	x2,0x1ec5
    410154ec:	6431011b          	addiw	x2,x2,1603 # 1ec5643 <SID_HEXCEP_19_misaligned_sc_delegated_stack+0x1bd0643>
    410154f0:	00d11113          	slli	x2,x2,0xd
    410154f4:	00013383          	ld	x7,0(x2)
    410154f8:	5940afb7          	lui	x31,0x5940a
    410154fc:	0b0f8f9b          	addiw	x31,x31,176 # 5940a0b0 <machine_csr_jump_table_flags>
    41015500:	00400f13          	li	x30,4
    41015504:	01efb023          	sd	x30,0(x31)
    41015508:	000f0fb7          	lui	x31,0xf0
    4101550c:	001f8f9b          	addiw	x31,x31,1 # f0001 <mem7+0x54001>
    41015510:	00cf9f93          	slli	x31,x31,0xc
    41015514:	005f8f93          	addi	x31,x31,5
    41015518:	00000073          	ecall

000000004101551c <SID_HEXCEP_05_passed>:
    4101551c:	00f00f9b          	addiw	x31,x0,15
    41015520:	01cf9f93          	slli	x31,x31,0x1c
    41015524:	001f8f93          	addi	x31,x31,1
    41015528:	00000073          	ecall

000000004101552c <SID_HEXCEP_07_vs_mode>:
    4101552c:	01ec5137          	lui	x2,0x1ec5
    41015530:	6431011b          	addiw	x2,x2,1603 # 1ec5643 <SID_HEXCEP_19_misaligned_sc_delegated_stack+0x1bd0643>
    41015534:	00d11113          	slli	x2,x2,0xd
    41015538:	5940afb7          	lui	x31,0x5940a
    4101553c:	0b8f8f9b          	addiw	x31,x31,184 # 5940a0b8 <super_csr_jump_table_flags>
    41015540:	00500f13          	li	x30,5
    41015544:	01efb023          	sd	x30,0(x31)
    41015548:	000f0fb7          	lui	x31,0xf0
    4101554c:	001f8f9b          	addiw	x31,x31,1 # f0001 <mem7+0x54001>
    41015550:	00cf9f93          	slli	x31,x31,0xc
    41015554:	006f8f93          	addi	x31,x31,6
    41015558:	00000073          	ecall
    4101555c:	00713023          	sd	x7,0(x2)
    41015560:	5940afb7          	lui	x31,0x5940a
    41015564:	0b0f8f9b          	addiw	x31,x31,176 # 5940a0b0 <machine_csr_jump_table_flags>
    41015568:	00600f13          	li	x30,6
    4101556c:	01efb023          	sd	x30,0(x31)
    41015570:	000f0fb7          	lui	x31,0xf0
    41015574:	001f8f9b          	addiw	x31,x31,1 # f0001 <mem7+0x54001>
    41015578:	00cf9f93          	slli	x31,x31,0xc
    4101557c:	005f8f93          	addi	x31,x31,5
    41015580:	00000073          	ecall
    41015584:	00713423          	sd	x7,8(x2)
    41015588:	007bd137          	lui	x2,0x7bd
    4101558c:	12b1011b          	addiw	x2,x2,299 # 7bd12b <SID_HEXCEP_19_misaligned_sc_delegated_stack+0x4c812b>
    41015590:	00c11113          	slli	x2,x2,0xc
    41015594:	000012b7          	lui	x5,0x1
    41015598:	00510133          	add	x2,x2,x5
    4101559c:	ff017113          	andi	x2,x2,-16
    410155a0:	0010039b          	addiw	x7,x0,1
    410155a4:	02039393          	slli	x7,x7,0x20
    410155a8:	fff38393          	addi	x7,x7,-1
    410155ac:	5940afb7          	lui	x31,0x5940a
    410155b0:	0b0f8f9b          	addiw	x31,x31,176 # 5940a0b0 <machine_csr_jump_table_flags>
    410155b4:	00700f13          	li	x30,7
    410155b8:	01efb023          	sd	x30,0(x31)
    410155bc:	000f0fb7          	lui	x31,0xf0
    410155c0:	001f8f9b          	addiw	x31,x31,1 # f0001 <mem7+0x54001>
    410155c4:	00cf9f93          	slli	x31,x31,0xc
    410155c8:	005f8f93          	addi	x31,x31,5
    410155cc:	00000073          	ecall
    410155d0:	0010039b          	addiw	x7,x0,1
    410155d4:	02039393          	slli	x7,x7,0x20
    410155d8:	fff38393          	addi	x7,x7,-1
    410155dc:	5940afb7          	lui	x31,0x5940a
    410155e0:	0b8f8f9b          	addiw	x31,x31,184 # 5940a0b8 <super_csr_jump_table_flags>
    410155e4:	00800f13          	li	x30,8
    410155e8:	01efb023          	sd	x30,0(x31)
    410155ec:	000f0fb7          	lui	x31,0xf0
    410155f0:	001f8f9b          	addiw	x31,x31,1 # f0001 <mem7+0x54001>
    410155f4:	00cf9f93          	slli	x31,x31,0xc
    410155f8:	006f8f93          	addi	x31,x31,6
    410155fc:	00000073          	ecall
    41015600:	00002237          	lui	x4,0x2
    41015604:	01600e13          	li	x28,22
    41015608:	05c23823          	sd	x28,80(x4) # 2050 <check_excp_expected_cause>
    4101560c:	00000e17          	auipc	x28,0x0
    41015610:	048e0e13          	addi	x28,x28,72 # 41015654 <fault_label_47>
    41015614:	03c23023          	sd	x28,32(x4) # 20 <SECURE_ACCESS_PROBABILITY+0x2>
    41015618:	00000e13          	li	x28,0
    4101561c:	05c23023          	sd	x28,64(x4) # 40 <XLEN>
    41015620:	00000e13          	li	x28,0
    41015624:	05c23423          	sd	x28,72(x4) # 48 <XLEN+0x8>
    41015628:	00000e17          	auipc	x28,0x0
    4101562c:	040e0e13          	addi	x28,x28,64 # 41015668 <excp_return_label_47>
    41015630:	03c23823          	sd	x28,48(x4) # 30 <SECURE_ACCESS_PROBABILITY+0x12>
    41015634:	00000e13          	li	x28,0
    41015638:	03c23c23          	sd	x28,56(x4) # 38 <SECURE_ACCESS_PROBABILITY+0x1a>
    4101563c:	00000e13          	li	x28,0
    41015640:	07c23023          	sd	x28,96(x4) # 60 <XLEN+0x20>
    41015644:	00000e13          	li	x28,0
    41015648:	07c23423          	sd	x28,104(x4) # 68 <XLEN+0x28>
    4101564c:	00000e13          	li	x28,0
    41015650:	07c23823          	sd	x28,112(x4) # 70 <XLEN+0x30>

0000000041015654 <fault_label_47>:
    41015654:	c00028f3          	rdcycle	x17
    41015658:	5940ab37          	lui	x22,0x5940a
    4101565c:	008b0b1b          	addiw	x22,x22,8 # 5940a008 <failed_addr>
    41015660:	000b3e03          	ld	x28,0(x22)
    41015664:	000e0067          	jr	x28

0000000041015668 <excp_return_label_47>:
    41015668:	00002237          	lui	x4,0x2
    4101566c:	01600e13          	li	x28,22
    41015670:	05c23823          	sd	x28,80(x4) # 2050 <check_excp_expected_cause>
    41015674:	00000e17          	auipc	x28,0x0
    41015678:	048e0e13          	addi	x28,x28,72 # 410156bc <fault_label_48>
    4101567c:	03c23023          	sd	x28,32(x4) # 20 <SECURE_ACCESS_PROBABILITY+0x2>
    41015680:	00000e13          	li	x28,0
    41015684:	05c23023          	sd	x28,64(x4) # 40 <XLEN>
    41015688:	00000e13          	li	x28,0
    4101568c:	05c23423          	sd	x28,72(x4) # 48 <XLEN+0x8>
    41015690:	00000e17          	auipc	x28,0x0
    41015694:	040e0e13          	addi	x28,x28,64 # 410156d0 <excp_return_label_48>
    41015698:	03c23823          	sd	x28,48(x4) # 30 <SECURE_ACCESS_PROBABILITY+0x12>
    4101569c:	00000e13          	li	x28,0
    410156a0:	03c23c23          	sd	x28,56(x4) # 38 <SECURE_ACCESS_PROBABILITY+0x1a>
    410156a4:	00000e13          	li	x28,0
    410156a8:	07c23023          	sd	x28,96(x4) # 60 <XLEN+0x20>
    410156ac:	00000e13          	li	x28,0
    410156b0:	07c23423          	sd	x28,104(x4) # 68 <XLEN+0x28>
    410156b4:	00000e13          	li	x28,0
    410156b8:	07c23823          	sd	x28,112(x4) # 70 <XLEN+0x30>

00000000410156bc <fault_label_48>:
    410156bc:	c0102373          	rdtime	x6
    410156c0:	5940a337          	lui	x6,0x5940a
    410156c4:	0083031b          	addiw	x6,x6,8 # 5940a008 <failed_addr>
    410156c8:	00033783          	ld	x15,0(x6)
    410156cc:	00078067          	jr	x15

00000000410156d0 <excp_return_label_48>:
    410156d0:	00002237          	lui	x4,0x2
    410156d4:	01600e13          	li	x28,22
    410156d8:	05c23823          	sd	x28,80(x4) # 2050 <check_excp_expected_cause>
    410156dc:	00000e17          	auipc	x28,0x0
    410156e0:	048e0e13          	addi	x28,x28,72 # 41015724 <fault_label_49>
    410156e4:	03c23023          	sd	x28,32(x4) # 20 <SECURE_ACCESS_PROBABILITY+0x2>
    410156e8:	00000e13          	li	x28,0
    410156ec:	05c23023          	sd	x28,64(x4) # 40 <XLEN>
    410156f0:	00000e13          	li	x28,0
    410156f4:	05c23423          	sd	x28,72(x4) # 48 <XLEN+0x8>
    410156f8:	00000e17          	auipc	x28,0x0
    410156fc:	040e0e13          	addi	x28,x28,64 # 41015738 <excp_return_label_49>
    41015700:	03c23823          	sd	x28,48(x4) # 30 <SECURE_ACCESS_PROBABILITY+0x12>
    41015704:	00000e13          	li	x28,0
    41015708:	03c23c23          	sd	x28,56(x4) # 38 <SECURE_ACCESS_PROBABILITY+0x1a>
    4101570c:	00000e13          	li	x28,0
    41015710:	07c23023          	sd	x28,96(x4) # 60 <XLEN+0x20>
    41015714:	00000e13          	li	x28,0
    41015718:	07c23423          	sd	x28,104(x4) # 68 <XLEN+0x28>
    4101571c:	00000e13          	li	x28,0
    41015720:	07c23823          	sd	x28,112(x4) # 70 <XLEN+0x30>

0000000041015724 <fault_label_49>:
    41015724:	c02023f3          	rdinstret	x7
    41015728:	5940a6b7          	lui	x13,0x5940a
    4101572c:	0086869b          	addiw	x13,x13,8 # 5940a008 <failed_addr>
    41015730:	0006bf03          	ld	x30,0(x13)
    41015734:	000f0067          	jr	x30

0000000041015738 <excp_return_label_49>:
    41015738:	00002237          	lui	x4,0x2
    4101573c:	01600e13          	li	x28,22
    41015740:	05c23823          	sd	x28,80(x4) # 2050 <check_excp_expected_cause>
    41015744:	00000e17          	auipc	x28,0x0
    41015748:	048e0e13          	addi	x28,x28,72 # 4101578c <fault_label_50>
    4101574c:	03c23023          	sd	x28,32(x4) # 20 <SECURE_ACCESS_PROBABILITY+0x2>
    41015750:	00000e13          	li	x28,0
    41015754:	05c23023          	sd	x28,64(x4) # 40 <XLEN>
    41015758:	00000e13          	li	x28,0
    4101575c:	05c23423          	sd	x28,72(x4) # 48 <XLEN+0x8>
    41015760:	00000e17          	auipc	x28,0x0
    41015764:	044e0e13          	addi	x28,x28,68 # 410157a4 <excp_return_label_50>
    41015768:	03c23823          	sd	x28,48(x4) # 30 <SECURE_ACCESS_PROBABILITY+0x12>
    4101576c:	00000e13          	li	x28,0
    41015770:	03c23c23          	sd	x28,56(x4) # 38 <SECURE_ACCESS_PROBABILITY+0x1a>
    41015774:	00000e13          	li	x28,0
    41015778:	07c23023          	sd	x28,96(x4) # 60 <XLEN+0x20>
    4101577c:	00000e13          	li	x28,0
    41015780:	07c23423          	sd	x28,104(x4) # 68 <XLEN+0x28>
    41015784:	00000e13          	li	x28,0
    41015788:	07c23823          	sd	x28,112(x4) # 70 <XLEN+0x30>

000000004101578c <fault_label_50>:
    4101578c:	c03023f3          	csrr	x7,hpmcounter3
    41015790:	00038893          	mv	x17,x7
    41015794:	5940a737          	lui	x14,0x5940a
    41015798:	0087071b          	addiw	x14,x14,8 # 5940a008 <failed_addr>
    4101579c:	00073503          	ld	x10,0(x14)
    410157a0:	00050067          	jr	x10

00000000410157a4 <excp_return_label_50>:
    410157a4:	00002237          	lui	x4,0x2
    410157a8:	01600e13          	li	x28,22
    410157ac:	05c23823          	sd	x28,80(x4) # 2050 <check_excp_expected_cause>
    410157b0:	00000e17          	auipc	x28,0x0
    410157b4:	048e0e13          	addi	x28,x28,72 # 410157f8 <fault_label_51>
    410157b8:	03c23023          	sd	x28,32(x4) # 20 <SECURE_ACCESS_PROBABILITY+0x2>
    410157bc:	00000e13          	li	x28,0
    410157c0:	05c23023          	sd	x28,64(x4) # 40 <XLEN>
    410157c4:	00000e13          	li	x28,0
    410157c8:	05c23423          	sd	x28,72(x4) # 48 <XLEN+0x8>
    410157cc:	00000e17          	auipc	x28,0x0
    410157d0:	044e0e13          	addi	x28,x28,68 # 41015810 <excp_return_label_51>
    410157d4:	03c23823          	sd	x28,48(x4) # 30 <SECURE_ACCESS_PROBABILITY+0x12>
    410157d8:	00000e13          	li	x28,0
    410157dc:	03c23c23          	sd	x28,56(x4) # 38 <SECURE_ACCESS_PROBABILITY+0x1a>
    410157e0:	00000e13          	li	x28,0
    410157e4:	07c23023          	sd	x28,96(x4) # 60 <XLEN+0x20>
    410157e8:	00000e13          	li	x28,0
    410157ec:	07c23423          	sd	x28,104(x4) # 68 <XLEN+0x28>
    410157f0:	00000e13          	li	x28,0
    410157f4:	07c23823          	sd	x28,112(x4) # 70 <XLEN+0x30>

00000000410157f8 <fault_label_51>:
    410157f8:	c04023f3          	csrr	x7,hpmcounter4
    410157fc:	00038393          	mv	x7,x7
    41015800:	5940ae37          	lui	x28,0x5940a
    41015804:	008e0e1b          	addiw	x28,x28,8 # 5940a008 <failed_addr>
    41015808:	000e3e03          	ld	x28,0(x28)
    4101580c:	000e0067          	jr	x28

0000000041015810 <excp_return_label_51>:
    41015810:	00002237          	lui	x4,0x2
    41015814:	01600e13          	li	x28,22
    41015818:	05c23823          	sd	x28,80(x4) # 2050 <check_excp_expected_cause>
    4101581c:	00000e17          	auipc	x28,0x0
    41015820:	048e0e13          	addi	x28,x28,72 # 41015864 <fault_label_52>
    41015824:	03c23023          	sd	x28,32(x4) # 20 <SECURE_ACCESS_PROBABILITY+0x2>
    41015828:	00000e13          	li	x28,0
    4101582c:	05c23023          	sd	x28,64(x4) # 40 <XLEN>
    41015830:	00000e13          	li	x28,0
    41015834:	05c23423          	sd	x28,72(x4) # 48 <XLEN+0x8>
    41015838:	00000e17          	auipc	x28,0x0
    4101583c:	044e0e13          	addi	x28,x28,68 # 4101587c <excp_return_label_52>
    41015840:	03c23823          	sd	x28,48(x4) # 30 <SECURE_ACCESS_PROBABILITY+0x12>
    41015844:	00000e13          	li	x28,0
    41015848:	03c23c23          	sd	x28,56(x4) # 38 <SECURE_ACCESS_PROBABILITY+0x1a>
    4101584c:	00000e13          	li	x28,0
    41015850:	07c23023          	sd	x28,96(x4) # 60 <XLEN+0x20>
    41015854:	00000e13          	li	x28,0
    41015858:	07c23423          	sd	x28,104(x4) # 68 <XLEN+0x28>
    4101585c:	00000e13          	li	x28,0
    41015860:	07c23823          	sd	x28,112(x4) # 70 <XLEN+0x30>

0000000041015864 <fault_label_52>:
    41015864:	c05023f3          	csrr	x7,hpmcounter5
    41015868:	00038a93          	mv	x21,x7
    4101586c:	5940a4b7          	lui	x9,0x5940a
    41015870:	0084849b          	addiw	x9,x9,8 # 5940a008 <failed_addr>
    41015874:	0004b503          	ld	x10,0(x9)
    41015878:	00050067          	jr	x10

000000004101587c <excp_return_label_52>:
    4101587c:	00002237          	lui	x4,0x2
    41015880:	01600e13          	li	x28,22
    41015884:	05c23823          	sd	x28,80(x4) # 2050 <check_excp_expected_cause>
    41015888:	00000e17          	auipc	x28,0x0
    4101588c:	048e0e13          	addi	x28,x28,72 # 410158d0 <fault_label_53>
    41015890:	03c23023          	sd	x28,32(x4) # 20 <SECURE_ACCESS_PROBABILITY+0x2>
    41015894:	00000e13          	li	x28,0
    41015898:	05c23023          	sd	x28,64(x4) # 40 <XLEN>
    4101589c:	00000e13          	li	x28,0
    410158a0:	05c23423          	sd	x28,72(x4) # 48 <XLEN+0x8>
    410158a4:	00000e17          	auipc	x28,0x0
    410158a8:	044e0e13          	addi	x28,x28,68 # 410158e8 <excp_return_label_53>
    410158ac:	03c23823          	sd	x28,48(x4) # 30 <SECURE_ACCESS_PROBABILITY+0x12>
    410158b0:	00000e13          	li	x28,0
    410158b4:	03c23c23          	sd	x28,56(x4) # 38 <SECURE_ACCESS_PROBABILITY+0x1a>
    410158b8:	00000e13          	li	x28,0
    410158bc:	07c23023          	sd	x28,96(x4) # 60 <XLEN+0x20>
    410158c0:	00000e13          	li	x28,0
    410158c4:	07c23423          	sd	x28,104(x4) # 68 <XLEN+0x28>
    410158c8:	00000e13          	li	x28,0
    410158cc:	07c23823          	sd	x28,112(x4) # 70 <XLEN+0x30>

00000000410158d0 <fault_label_53>:
    410158d0:	c06023f3          	csrr	x7,hpmcounter6
    410158d4:	00038613          	mv	x12,x7
    410158d8:	5940a837          	lui	x16,0x5940a
    410158dc:	0088081b          	addiw	x16,x16,8 # 5940a008 <failed_addr>
    410158e0:	00083403          	ld	x8,0(x16)
    410158e4:	00040067          	jr	x8

00000000410158e8 <excp_return_label_53>:
    410158e8:	00002237          	lui	x4,0x2
    410158ec:	01600e13          	li	x28,22
    410158f0:	05c23823          	sd	x28,80(x4) # 2050 <check_excp_expected_cause>
    410158f4:	00000e17          	auipc	x28,0x0
    410158f8:	048e0e13          	addi	x28,x28,72 # 4101593c <fault_label_54>
    410158fc:	03c23023          	sd	x28,32(x4) # 20 <SECURE_ACCESS_PROBABILITY+0x2>
    41015900:	00000e13          	li	x28,0
    41015904:	05c23023          	sd	x28,64(x4) # 40 <XLEN>
    41015908:	00000e13          	li	x28,0
    4101590c:	05c23423          	sd	x28,72(x4) # 48 <XLEN+0x8>
    41015910:	00000e17          	auipc	x28,0x0
    41015914:	044e0e13          	addi	x28,x28,68 # 41015954 <excp_return_label_54>
    41015918:	03c23823          	sd	x28,48(x4) # 30 <SECURE_ACCESS_PROBABILITY+0x12>
    4101591c:	00000e13          	li	x28,0
    41015920:	03c23c23          	sd	x28,56(x4) # 38 <SECURE_ACCESS_PROBABILITY+0x1a>
    41015924:	00000e13          	li	x28,0
    41015928:	07c23023          	sd	x28,96(x4) # 60 <XLEN+0x20>
    4101592c:	00000e13          	li	x28,0
    41015930:	07c23423          	sd	x28,104(x4) # 68 <XLEN+0x28>
    41015934:	00000e13          	li	x28,0
    41015938:	07c23823          	sd	x28,112(x4) # 70 <XLEN+0x30>

000000004101593c <fault_label_54>:
    4101593c:	c07023f3          	csrr	x7,hpmcounter7
    41015940:	00038693          	mv	x13,x7
    41015944:	5940a5b7          	lui	x11,0x5940a
    41015948:	0085859b          	addiw	x11,x11,8 # 5940a008 <failed_addr>
    4101594c:	0005b683          	ld	x13,0(x11)
    41015950:	00068067          	jr	x13

0000000041015954 <excp_return_label_54>:
    41015954:	00002237          	lui	x4,0x2
    41015958:	01600e13          	li	x28,22
    4101595c:	05c23823          	sd	x28,80(x4) # 2050 <check_excp_expected_cause>
    41015960:	00000e17          	auipc	x28,0x0
    41015964:	048e0e13          	addi	x28,x28,72 # 410159a8 <fault_label_55>
    41015968:	03c23023          	sd	x28,32(x4) # 20 <SECURE_ACCESS_PROBABILITY+0x2>
    4101596c:	00000e13          	li	x28,0
    41015970:	05c23023          	sd	x28,64(x4) # 40 <XLEN>
    41015974:	00000e13          	li	x28,0
    41015978:	05c23423          	sd	x28,72(x4) # 48 <XLEN+0x8>
    4101597c:	00000e17          	auipc	x28,0x0
    41015980:	044e0e13          	addi	x28,x28,68 # 410159c0 <excp_return_label_55>
    41015984:	03c23823          	sd	x28,48(x4) # 30 <SECURE_ACCESS_PROBABILITY+0x12>
    41015988:	00000e13          	li	x28,0
    4101598c:	03c23c23          	sd	x28,56(x4) # 38 <SECURE_ACCESS_PROBABILITY+0x1a>
    41015990:	00000e13          	li	x28,0
    41015994:	07c23023          	sd	x28,96(x4) # 60 <XLEN+0x20>
    41015998:	00000e13          	li	x28,0
    4101599c:	07c23423          	sd	x28,104(x4) # 68 <XLEN+0x28>
    410159a0:	00000e13          	li	x28,0
    410159a4:	07c23823          	sd	x28,112(x4) # 70 <XLEN+0x30>

00000000410159a8 <fault_label_55>:
    410159a8:	c08023f3          	csrr	x7,hpmcounter8
    410159ac:	00038693          	mv	x13,x7
    410159b0:	5940aeb7          	lui	x29,0x5940a
    410159b4:	008e8e9b          	addiw	x29,x29,8 # 5940a008 <failed_addr>
    410159b8:	000ebd83          	ld	x27,0(x29)
    410159bc:	000d8067          	jr	x27

00000000410159c0 <excp_return_label_55>:
    410159c0:	00002237          	lui	x4,0x2
    410159c4:	01600e13          	li	x28,22
    410159c8:	05c23823          	sd	x28,80(x4) # 2050 <check_excp_expected_cause>
    410159cc:	00000e17          	auipc	x28,0x0
    410159d0:	048e0e13          	addi	x28,x28,72 # 41015a14 <fault_label_56>
    410159d4:	03c23023          	sd	x28,32(x4) # 20 <SECURE_ACCESS_PROBABILITY+0x2>
    410159d8:	00000e13          	li	x28,0
    410159dc:	05c23023          	sd	x28,64(x4) # 40 <XLEN>
    410159e0:	00000e13          	li	x28,0
    410159e4:	05c23423          	sd	x28,72(x4) # 48 <XLEN+0x8>
    410159e8:	00000e17          	auipc	x28,0x0
    410159ec:	044e0e13          	addi	x28,x28,68 # 41015a2c <excp_return_label_56>
    410159f0:	03c23823          	sd	x28,48(x4) # 30 <SECURE_ACCESS_PROBABILITY+0x12>
    410159f4:	00000e13          	li	x28,0
    410159f8:	03c23c23          	sd	x28,56(x4) # 38 <SECURE_ACCESS_PROBABILITY+0x1a>
    410159fc:	00000e13          	li	x28,0
    41015a00:	07c23023          	sd	x28,96(x4) # 60 <XLEN+0x20>
    41015a04:	00000e13          	li	x28,0
    41015a08:	07c23423          	sd	x28,104(x4) # 68 <XLEN+0x28>
    41015a0c:	00000e13          	li	x28,0
    41015a10:	07c23823          	sd	x28,112(x4) # 70 <XLEN+0x30>

0000000041015a14 <fault_label_56>:
    41015a14:	c09023f3          	csrr	x7,hpmcounter9
    41015a18:	00038b13          	mv	x22,x7
    41015a1c:	5940abb7          	lui	x23,0x5940a
    41015a20:	008b8b9b          	addiw	x23,x23,8 # 5940a008 <failed_addr>
    41015a24:	000bbb83          	ld	x23,0(x23)
    41015a28:	000b8067          	jr	x23

0000000041015a2c <excp_return_label_56>:
    41015a2c:	00002237          	lui	x4,0x2
    41015a30:	01600e13          	li	x28,22
    41015a34:	05c23823          	sd	x28,80(x4) # 2050 <check_excp_expected_cause>
    41015a38:	00000e17          	auipc	x28,0x0
    41015a3c:	048e0e13          	addi	x28,x28,72 # 41015a80 <fault_label_57>
    41015a40:	03c23023          	sd	x28,32(x4) # 20 <SECURE_ACCESS_PROBABILITY+0x2>
    41015a44:	00000e13          	li	x28,0
    41015a48:	05c23023          	sd	x28,64(x4) # 40 <XLEN>
    41015a4c:	00000e13          	li	x28,0
    41015a50:	05c23423          	sd	x28,72(x4) # 48 <XLEN+0x8>
    41015a54:	00000e17          	auipc	x28,0x0
    41015a58:	044e0e13          	addi	x28,x28,68 # 41015a98 <excp_return_label_57>
    41015a5c:	03c23823          	sd	x28,48(x4) # 30 <SECURE_ACCESS_PROBABILITY+0x12>
    41015a60:	00000e13          	li	x28,0
    41015a64:	03c23c23          	sd	x28,56(x4) # 38 <SECURE_ACCESS_PROBABILITY+0x1a>
    41015a68:	00000e13          	li	x28,0
    41015a6c:	07c23023          	sd	x28,96(x4) # 60 <XLEN+0x20>
    41015a70:	00000e13          	li	x28,0
    41015a74:	07c23423          	sd	x28,104(x4) # 68 <XLEN+0x28>
    41015a78:	00000e13          	li	x28,0
    41015a7c:	07c23823          	sd	x28,112(x4) # 70 <XLEN+0x30>

0000000041015a80 <fault_label_57>:
    41015a80:	c0a023f3          	csrr	x7,hpmcounter10
    41015a84:	00038593          	mv	x11,x7
    41015a88:	5940ad37          	lui	x26,0x5940a
    41015a8c:	008d0d1b          	addiw	x26,x26,8 # 5940a008 <failed_addr>
    41015a90:	000d3e03          	ld	x28,0(x26)
    41015a94:	000e0067          	jr	x28

0000000041015a98 <excp_return_label_57>:
    41015a98:	00002237          	lui	x4,0x2
    41015a9c:	01600e13          	li	x28,22
    41015aa0:	05c23823          	sd	x28,80(x4) # 2050 <check_excp_expected_cause>
    41015aa4:	00000e17          	auipc	x28,0x0
    41015aa8:	048e0e13          	addi	x28,x28,72 # 41015aec <fault_label_58>
    41015aac:	03c23023          	sd	x28,32(x4) # 20 <SECURE_ACCESS_PROBABILITY+0x2>
    41015ab0:	00000e13          	li	x28,0
    41015ab4:	05c23023          	sd	x28,64(x4) # 40 <XLEN>
    41015ab8:	00000e13          	li	x28,0
    41015abc:	05c23423          	sd	x28,72(x4) # 48 <XLEN+0x8>
    41015ac0:	00000e17          	auipc	x28,0x0
    41015ac4:	044e0e13          	addi	x28,x28,68 # 41015b04 <excp_return_label_58>
    41015ac8:	03c23823          	sd	x28,48(x4) # 30 <SECURE_ACCESS_PROBABILITY+0x12>
    41015acc:	00000e13          	li	x28,0
    41015ad0:	03c23c23          	sd	x28,56(x4) # 38 <SECURE_ACCESS_PROBABILITY+0x1a>
    41015ad4:	00000e13          	li	x28,0
    41015ad8:	07c23023          	sd	x28,96(x4) # 60 <XLEN+0x20>
    41015adc:	00000e13          	li	x28,0
    41015ae0:	07c23423          	sd	x28,104(x4) # 68 <XLEN+0x28>
    41015ae4:	00000e13          	li	x28,0
    41015ae8:	07c23823          	sd	x28,112(x4) # 70 <XLEN+0x30>

0000000041015aec <fault_label_58>:
    41015aec:	c0b023f3          	csrr	x7,hpmcounter11
    41015af0:	00038893          	mv	x17,x7
    41015af4:	5940aa37          	lui	x20,0x5940a
    41015af8:	008a0a1b          	addiw	x20,x20,8 # 5940a008 <failed_addr>
    41015afc:	000a3303          	ld	x6,0(x20)
    41015b00:	00030067          	jr	x6

0000000041015b04 <excp_return_label_58>:
    41015b04:	00002237          	lui	x4,0x2
    41015b08:	01600e13          	li	x28,22
    41015b0c:	05c23823          	sd	x28,80(x4) # 2050 <check_excp_expected_cause>
    41015b10:	00000e17          	auipc	x28,0x0
    41015b14:	048e0e13          	addi	x28,x28,72 # 41015b58 <fault_label_59>
    41015b18:	03c23023          	sd	x28,32(x4) # 20 <SECURE_ACCESS_PROBABILITY+0x2>
    41015b1c:	00000e13          	li	x28,0
    41015b20:	05c23023          	sd	x28,64(x4) # 40 <XLEN>
    41015b24:	00000e13          	li	x28,0
    41015b28:	05c23423          	sd	x28,72(x4) # 48 <XLEN+0x8>
    41015b2c:	00000e17          	auipc	x28,0x0
    41015b30:	044e0e13          	addi	x28,x28,68 # 41015b70 <excp_return_label_59>
    41015b34:	03c23823          	sd	x28,48(x4) # 30 <SECURE_ACCESS_PROBABILITY+0x12>
    41015b38:	00000e13          	li	x28,0
    41015b3c:	03c23c23          	sd	x28,56(x4) # 38 <SECURE_ACCESS_PROBABILITY+0x1a>
    41015b40:	00000e13          	li	x28,0
    41015b44:	07c23023          	sd	x28,96(x4) # 60 <XLEN+0x20>
    41015b48:	00000e13          	li	x28,0
    41015b4c:	07c23423          	sd	x28,104(x4) # 68 <XLEN+0x28>
    41015b50:	00000e13          	li	x28,0
    41015b54:	07c23823          	sd	x28,112(x4) # 70 <XLEN+0x30>

0000000041015b58 <fault_label_59>:
    41015b58:	c0c023f3          	csrr	x7,hpmcounter12
    41015b5c:	00038793          	mv	x15,x7
    41015b60:	5940a4b7          	lui	x9,0x5940a
    41015b64:	0084849b          	addiw	x9,x9,8 # 5940a008 <failed_addr>
    41015b68:	0004bb83          	ld	x23,0(x9)
    41015b6c:	000b8067          	jr	x23

0000000041015b70 <excp_return_label_59>:
    41015b70:	00002237          	lui	x4,0x2
    41015b74:	01600e13          	li	x28,22
    41015b78:	05c23823          	sd	x28,80(x4) # 2050 <check_excp_expected_cause>
    41015b7c:	00000e17          	auipc	x28,0x0
    41015b80:	048e0e13          	addi	x28,x28,72 # 41015bc4 <fault_label_60>
    41015b84:	03c23023          	sd	x28,32(x4) # 20 <SECURE_ACCESS_PROBABILITY+0x2>
    41015b88:	00000e13          	li	x28,0
    41015b8c:	05c23023          	sd	x28,64(x4) # 40 <XLEN>
    41015b90:	00000e13          	li	x28,0
    41015b94:	05c23423          	sd	x28,72(x4) # 48 <XLEN+0x8>
    41015b98:	00000e17          	auipc	x28,0x0
    41015b9c:	044e0e13          	addi	x28,x28,68 # 41015bdc <excp_return_label_60>
    41015ba0:	03c23823          	sd	x28,48(x4) # 30 <SECURE_ACCESS_PROBABILITY+0x12>
    41015ba4:	00000e13          	li	x28,0
    41015ba8:	03c23c23          	sd	x28,56(x4) # 38 <SECURE_ACCESS_PROBABILITY+0x1a>
    41015bac:	00000e13          	li	x28,0
    41015bb0:	07c23023          	sd	x28,96(x4) # 60 <XLEN+0x20>
    41015bb4:	00000e13          	li	x28,0
    41015bb8:	07c23423          	sd	x28,104(x4) # 68 <XLEN+0x28>
    41015bbc:	00000e13          	li	x28,0
    41015bc0:	07c23823          	sd	x28,112(x4) # 70 <XLEN+0x30>

0000000041015bc4 <fault_label_60>:
    41015bc4:	c0d023f3          	csrr	x7,hpmcounter13
    41015bc8:	00038f13          	mv	x30,x7
    41015bcc:	5940a7b7          	lui	x15,0x5940a
    41015bd0:	0087879b          	addiw	x15,x15,8 # 5940a008 <failed_addr>
    41015bd4:	0007b603          	ld	x12,0(x15)
    41015bd8:	00060067          	jr	x12

0000000041015bdc <excp_return_label_60>:
    41015bdc:	00002237          	lui	x4,0x2
    41015be0:	01600e13          	li	x28,22
    41015be4:	05c23823          	sd	x28,80(x4) # 2050 <check_excp_expected_cause>
    41015be8:	00000e17          	auipc	x28,0x0
    41015bec:	048e0e13          	addi	x28,x28,72 # 41015c30 <fault_label_61>
    41015bf0:	03c23023          	sd	x28,32(x4) # 20 <SECURE_ACCESS_PROBABILITY+0x2>
    41015bf4:	00000e13          	li	x28,0
    41015bf8:	05c23023          	sd	x28,64(x4) # 40 <XLEN>
    41015bfc:	00000e13          	li	x28,0
    41015c00:	05c23423          	sd	x28,72(x4) # 48 <XLEN+0x8>
    41015c04:	00000e17          	auipc	x28,0x0
    41015c08:	044e0e13          	addi	x28,x28,68 # 41015c48 <excp_return_label_61>
    41015c0c:	03c23823          	sd	x28,48(x4) # 30 <SECURE_ACCESS_PROBABILITY+0x12>
    41015c10:	00000e13          	li	x28,0
    41015c14:	03c23c23          	sd	x28,56(x4) # 38 <SECURE_ACCESS_PROBABILITY+0x1a>
    41015c18:	00000e13          	li	x28,0
    41015c1c:	07c23023          	sd	x28,96(x4) # 60 <XLEN+0x20>
    41015c20:	00000e13          	li	x28,0
    41015c24:	07c23423          	sd	x28,104(x4) # 68 <XLEN+0x28>
    41015c28:	00000e13          	li	x28,0
    41015c2c:	07c23823          	sd	x28,112(x4) # 70 <XLEN+0x30>

0000000041015c30 <fault_label_61>:
    41015c30:	c0e023f3          	csrr	x7,hpmcounter14
    41015c34:	00038493          	mv	x9,x7
    41015c38:	5940a7b7          	lui	x15,0x5940a
    41015c3c:	0087879b          	addiw	x15,x15,8 # 5940a008 <failed_addr>
    41015c40:	0007b403          	ld	x8,0(x15)
    41015c44:	00040067          	jr	x8

0000000041015c48 <excp_return_label_61>:
    41015c48:	00002237          	lui	x4,0x2
    41015c4c:	01600e13          	li	x28,22
    41015c50:	05c23823          	sd	x28,80(x4) # 2050 <check_excp_expected_cause>
    41015c54:	00000e17          	auipc	x28,0x0
    41015c58:	048e0e13          	addi	x28,x28,72 # 41015c9c <fault_label_62>
    41015c5c:	03c23023          	sd	x28,32(x4) # 20 <SECURE_ACCESS_PROBABILITY+0x2>
    41015c60:	00000e13          	li	x28,0
    41015c64:	05c23023          	sd	x28,64(x4) # 40 <XLEN>
    41015c68:	00000e13          	li	x28,0
    41015c6c:	05c23423          	sd	x28,72(x4) # 48 <XLEN+0x8>
    41015c70:	00000e17          	auipc	x28,0x0
    41015c74:	044e0e13          	addi	x28,x28,68 # 41015cb4 <excp_return_label_62>
    41015c78:	03c23823          	sd	x28,48(x4) # 30 <SECURE_ACCESS_PROBABILITY+0x12>
    41015c7c:	00000e13          	li	x28,0
    41015c80:	03c23c23          	sd	x28,56(x4) # 38 <SECURE_ACCESS_PROBABILITY+0x1a>
    41015c84:	00000e13          	li	x28,0
    41015c88:	07c23023          	sd	x28,96(x4) # 60 <XLEN+0x20>
    41015c8c:	00000e13          	li	x28,0
    41015c90:	07c23423          	sd	x28,104(x4) # 68 <XLEN+0x28>
    41015c94:	00000e13          	li	x28,0
    41015c98:	07c23823          	sd	x28,112(x4) # 70 <XLEN+0x30>

0000000041015c9c <fault_label_62>:
    41015c9c:	c0f023f3          	csrr	x7,hpmcounter15
    41015ca0:	00038d13          	mv	x26,x7
    41015ca4:	5940a7b7          	lui	x15,0x5940a
    41015ca8:	0087879b          	addiw	x15,x15,8 # 5940a008 <failed_addr>
    41015cac:	0007be83          	ld	x29,0(x15)
    41015cb0:	000e8067          	jr	x29

0000000041015cb4 <excp_return_label_62>:
    41015cb4:	00002237          	lui	x4,0x2
    41015cb8:	01600e13          	li	x28,22
    41015cbc:	05c23823          	sd	x28,80(x4) # 2050 <check_excp_expected_cause>
    41015cc0:	00000e17          	auipc	x28,0x0
    41015cc4:	048e0e13          	addi	x28,x28,72 # 41015d08 <fault_label_63>
    41015cc8:	03c23023          	sd	x28,32(x4) # 20 <SECURE_ACCESS_PROBABILITY+0x2>
    41015ccc:	00000e13          	li	x28,0
    41015cd0:	05c23023          	sd	x28,64(x4) # 40 <XLEN>
    41015cd4:	00000e13          	li	x28,0
    41015cd8:	05c23423          	sd	x28,72(x4) # 48 <XLEN+0x8>
    41015cdc:	00000e17          	auipc	x28,0x0
    41015ce0:	044e0e13          	addi	x28,x28,68 # 41015d20 <excp_return_label_63>
    41015ce4:	03c23823          	sd	x28,48(x4) # 30 <SECURE_ACCESS_PROBABILITY+0x12>
    41015ce8:	00000e13          	li	x28,0
    41015cec:	03c23c23          	sd	x28,56(x4) # 38 <SECURE_ACCESS_PROBABILITY+0x1a>
    41015cf0:	00000e13          	li	x28,0
    41015cf4:	07c23023          	sd	x28,96(x4) # 60 <XLEN+0x20>
    41015cf8:	00000e13          	li	x28,0
    41015cfc:	07c23423          	sd	x28,104(x4) # 68 <XLEN+0x28>
    41015d00:	00000e13          	li	x28,0
    41015d04:	07c23823          	sd	x28,112(x4) # 70 <XLEN+0x30>

0000000041015d08 <fault_label_63>:
    41015d08:	c10023f3          	csrr	x7,hpmcounter16
    41015d0c:	00038a13          	mv	x20,x7
    41015d10:	5940a337          	lui	x6,0x5940a
    41015d14:	0083031b          	addiw	x6,x6,8 # 5940a008 <failed_addr>
    41015d18:	00033c83          	ld	x25,0(x6)
    41015d1c:	000c8067          	jr	x25

0000000041015d20 <excp_return_label_63>:
    41015d20:	00002237          	lui	x4,0x2
    41015d24:	01600e13          	li	x28,22
    41015d28:	05c23823          	sd	x28,80(x4) # 2050 <check_excp_expected_cause>
    41015d2c:	00000e17          	auipc	x28,0x0
    41015d30:	048e0e13          	addi	x28,x28,72 # 41015d74 <fault_label_64>
    41015d34:	03c23023          	sd	x28,32(x4) # 20 <SECURE_ACCESS_PROBABILITY+0x2>
    41015d38:	00000e13          	li	x28,0
    41015d3c:	05c23023          	sd	x28,64(x4) # 40 <XLEN>
    41015d40:	00000e13          	li	x28,0
    41015d44:	05c23423          	sd	x28,72(x4) # 48 <XLEN+0x8>
    41015d48:	00000e17          	auipc	x28,0x0
    41015d4c:	044e0e13          	addi	x28,x28,68 # 41015d8c <excp_return_label_64>
    41015d50:	03c23823          	sd	x28,48(x4) # 30 <SECURE_ACCESS_PROBABILITY+0x12>
    41015d54:	00000e13          	li	x28,0
    41015d58:	03c23c23          	sd	x28,56(x4) # 38 <SECURE_ACCESS_PROBABILITY+0x1a>
    41015d5c:	00000e13          	li	x28,0
    41015d60:	07c23023          	sd	x28,96(x4) # 60 <XLEN+0x20>
    41015d64:	00000e13          	li	x28,0
    41015d68:	07c23423          	sd	x28,104(x4) # 68 <XLEN+0x28>
    41015d6c:	00000e13          	li	x28,0
    41015d70:	07c23823          	sd	x28,112(x4) # 70 <XLEN+0x30>

0000000041015d74 <fault_label_64>:
    41015d74:	c11023f3          	csrr	x7,hpmcounter17
    41015d78:	00038913          	mv	x18,x7
    41015d7c:	5940ab37          	lui	x22,0x5940a
    41015d80:	008b0b1b          	addiw	x22,x22,8 # 5940a008 <failed_addr>
    41015d84:	000b3b83          	ld	x23,0(x22)
    41015d88:	000b8067          	jr	x23

0000000041015d8c <excp_return_label_64>:
    41015d8c:	00002237          	lui	x4,0x2
    41015d90:	01600e13          	li	x28,22
    41015d94:	05c23823          	sd	x28,80(x4) # 2050 <check_excp_expected_cause>
    41015d98:	00000e17          	auipc	x28,0x0
    41015d9c:	048e0e13          	addi	x28,x28,72 # 41015de0 <fault_label_65>
    41015da0:	03c23023          	sd	x28,32(x4) # 20 <SECURE_ACCESS_PROBABILITY+0x2>
    41015da4:	00000e13          	li	x28,0
    41015da8:	05c23023          	sd	x28,64(x4) # 40 <XLEN>
    41015dac:	00000e13          	li	x28,0
    41015db0:	05c23423          	sd	x28,72(x4) # 48 <XLEN+0x8>
    41015db4:	00000e17          	auipc	x28,0x0
    41015db8:	044e0e13          	addi	x28,x28,68 # 41015df8 <excp_return_label_65>
    41015dbc:	03c23823          	sd	x28,48(x4) # 30 <SECURE_ACCESS_PROBABILITY+0x12>
    41015dc0:	00000e13          	li	x28,0
    41015dc4:	03c23c23          	sd	x28,56(x4) # 38 <SECURE_ACCESS_PROBABILITY+0x1a>
    41015dc8:	00000e13          	li	x28,0
    41015dcc:	07c23023          	sd	x28,96(x4) # 60 <XLEN+0x20>
    41015dd0:	00000e13          	li	x28,0
    41015dd4:	07c23423          	sd	x28,104(x4) # 68 <XLEN+0x28>
    41015dd8:	00000e13          	li	x28,0
    41015ddc:	07c23823          	sd	x28,112(x4) # 70 <XLEN+0x30>

0000000041015de0 <fault_label_65>:
    41015de0:	c12023f3          	csrr	x7,hpmcounter18
    41015de4:	00038e13          	mv	x28,x7
    41015de8:	5940a4b7          	lui	x9,0x5940a
    41015dec:	0084849b          	addiw	x9,x9,8 # 5940a008 <failed_addr>
    41015df0:	0004b483          	ld	x9,0(x9)
    41015df4:	00048067          	jr	x9

0000000041015df8 <excp_return_label_65>:
    41015df8:	00002237          	lui	x4,0x2
    41015dfc:	01600e13          	li	x28,22
    41015e00:	05c23823          	sd	x28,80(x4) # 2050 <check_excp_expected_cause>
    41015e04:	00000e17          	auipc	x28,0x0
    41015e08:	048e0e13          	addi	x28,x28,72 # 41015e4c <fault_label_66>
    41015e0c:	03c23023          	sd	x28,32(x4) # 20 <SECURE_ACCESS_PROBABILITY+0x2>
    41015e10:	00000e13          	li	x28,0
    41015e14:	05c23023          	sd	x28,64(x4) # 40 <XLEN>
    41015e18:	00000e13          	li	x28,0
    41015e1c:	05c23423          	sd	x28,72(x4) # 48 <XLEN+0x8>
    41015e20:	00000e17          	auipc	x28,0x0
    41015e24:	044e0e13          	addi	x28,x28,68 # 41015e64 <excp_return_label_66>
    41015e28:	03c23823          	sd	x28,48(x4) # 30 <SECURE_ACCESS_PROBABILITY+0x12>
    41015e2c:	00000e13          	li	x28,0
    41015e30:	03c23c23          	sd	x28,56(x4) # 38 <SECURE_ACCESS_PROBABILITY+0x1a>
    41015e34:	00000e13          	li	x28,0
    41015e38:	07c23023          	sd	x28,96(x4) # 60 <XLEN+0x20>
    41015e3c:	00000e13          	li	x28,0
    41015e40:	07c23423          	sd	x28,104(x4) # 68 <XLEN+0x28>
    41015e44:	00000e13          	li	x28,0
    41015e48:	07c23823          	sd	x28,112(x4) # 70 <XLEN+0x30>

0000000041015e4c <fault_label_66>:
    41015e4c:	c13023f3          	csrr	x7,hpmcounter19
    41015e50:	00038813          	mv	x16,x7
    41015e54:	5940a5b7          	lui	x11,0x5940a
    41015e58:	0085859b          	addiw	x11,x11,8 # 5940a008 <failed_addr>
    41015e5c:	0005b703          	ld	x14,0(x11)
    41015e60:	00070067          	jr	x14

0000000041015e64 <excp_return_label_66>:
    41015e64:	00002237          	lui	x4,0x2
    41015e68:	01600e13          	li	x28,22
    41015e6c:	05c23823          	sd	x28,80(x4) # 2050 <check_excp_expected_cause>
    41015e70:	00000e17          	auipc	x28,0x0
    41015e74:	048e0e13          	addi	x28,x28,72 # 41015eb8 <fault_label_67>
    41015e78:	03c23023          	sd	x28,32(x4) # 20 <SECURE_ACCESS_PROBABILITY+0x2>
    41015e7c:	00000e13          	li	x28,0
    41015e80:	05c23023          	sd	x28,64(x4) # 40 <XLEN>
    41015e84:	00000e13          	li	x28,0
    41015e88:	05c23423          	sd	x28,72(x4) # 48 <XLEN+0x8>
    41015e8c:	00000e17          	auipc	x28,0x0
    41015e90:	044e0e13          	addi	x28,x28,68 # 41015ed0 <excp_return_label_67>
    41015e94:	03c23823          	sd	x28,48(x4) # 30 <SECURE_ACCESS_PROBABILITY+0x12>
    41015e98:	00000e13          	li	x28,0
    41015e9c:	03c23c23          	sd	x28,56(x4) # 38 <SECURE_ACCESS_PROBABILITY+0x1a>
    41015ea0:	00000e13          	li	x28,0
    41015ea4:	07c23023          	sd	x28,96(x4) # 60 <XLEN+0x20>
    41015ea8:	00000e13          	li	x28,0
    41015eac:	07c23423          	sd	x28,104(x4) # 68 <XLEN+0x28>
    41015eb0:	00000e13          	li	x28,0
    41015eb4:	07c23823          	sd	x28,112(x4) # 70 <XLEN+0x30>

0000000041015eb8 <fault_label_67>:
    41015eb8:	c14023f3          	csrr	x7,hpmcounter20
    41015ebc:	00038f13          	mv	x30,x7
    41015ec0:	5940a737          	lui	x14,0x5940a
    41015ec4:	0087071b          	addiw	x14,x14,8 # 5940a008 <failed_addr>
    41015ec8:	00073903          	ld	x18,0(x14)
    41015ecc:	00090067          	jr	x18

0000000041015ed0 <excp_return_label_67>:
    41015ed0:	00002237          	lui	x4,0x2
    41015ed4:	01600e13          	li	x28,22
    41015ed8:	05c23823          	sd	x28,80(x4) # 2050 <check_excp_expected_cause>
    41015edc:	00000e17          	auipc	x28,0x0
    41015ee0:	048e0e13          	addi	x28,x28,72 # 41015f24 <fault_label_68>
    41015ee4:	03c23023          	sd	x28,32(x4) # 20 <SECURE_ACCESS_PROBABILITY+0x2>
    41015ee8:	00000e13          	li	x28,0
    41015eec:	05c23023          	sd	x28,64(x4) # 40 <XLEN>
    41015ef0:	00000e13          	li	x28,0
    41015ef4:	05c23423          	sd	x28,72(x4) # 48 <XLEN+0x8>
    41015ef8:	00000e17          	auipc	x28,0x0
    41015efc:	044e0e13          	addi	x28,x28,68 # 41015f3c <excp_return_label_68>
    41015f00:	03c23823          	sd	x28,48(x4) # 30 <SECURE_ACCESS_PROBABILITY+0x12>
    41015f04:	00000e13          	li	x28,0
    41015f08:	03c23c23          	sd	x28,56(x4) # 38 <SECURE_ACCESS_PROBABILITY+0x1a>
    41015f0c:	00000e13          	li	x28,0
    41015f10:	07c23023          	sd	x28,96(x4) # 60 <XLEN+0x20>
    41015f14:	00000e13          	li	x28,0
    41015f18:	07c23423          	sd	x28,104(x4) # 68 <XLEN+0x28>
    41015f1c:	00000e13          	li	x28,0
    41015f20:	07c23823          	sd	x28,112(x4) # 70 <XLEN+0x30>

0000000041015f24 <fault_label_68>:
    41015f24:	c15023f3          	csrr	x7,hpmcounter21
    41015f28:	00038d93          	mv	x27,x7
    41015f2c:	5940a837          	lui	x16,0x5940a
    41015f30:	0088081b          	addiw	x16,x16,8 # 5940a008 <failed_addr>
    41015f34:	00083303          	ld	x6,0(x16)
    41015f38:	00030067          	jr	x6

0000000041015f3c <excp_return_label_68>:
    41015f3c:	00002237          	lui	x4,0x2
    41015f40:	01600e13          	li	x28,22
    41015f44:	05c23823          	sd	x28,80(x4) # 2050 <check_excp_expected_cause>
    41015f48:	00000e17          	auipc	x28,0x0
    41015f4c:	048e0e13          	addi	x28,x28,72 # 41015f90 <fault_label_69>
    41015f50:	03c23023          	sd	x28,32(x4) # 20 <SECURE_ACCESS_PROBABILITY+0x2>
    41015f54:	00000e13          	li	x28,0
    41015f58:	05c23023          	sd	x28,64(x4) # 40 <XLEN>
    41015f5c:	00000e13          	li	x28,0
    41015f60:	05c23423          	sd	x28,72(x4) # 48 <XLEN+0x8>
    41015f64:	00000e17          	auipc	x28,0x0
    41015f68:	044e0e13          	addi	x28,x28,68 # 41015fa8 <excp_return_label_69>
    41015f6c:	03c23823          	sd	x28,48(x4) # 30 <SECURE_ACCESS_PROBABILITY+0x12>
    41015f70:	00000e13          	li	x28,0
    41015f74:	03c23c23          	sd	x28,56(x4) # 38 <SECURE_ACCESS_PROBABILITY+0x1a>
    41015f78:	00000e13          	li	x28,0
    41015f7c:	07c23023          	sd	x28,96(x4) # 60 <XLEN+0x20>
    41015f80:	00000e13          	li	x28,0
    41015f84:	07c23423          	sd	x28,104(x4) # 68 <XLEN+0x28>
    41015f88:	00000e13          	li	x28,0
    41015f8c:	07c23823          	sd	x28,112(x4) # 70 <XLEN+0x30>

0000000041015f90 <fault_label_69>:
    41015f90:	c16023f3          	csrr	x7,hpmcounter22
    41015f94:	00038993          	mv	x19,x7
    41015f98:	5940a437          	lui	x8,0x5940a
    41015f9c:	0084041b          	addiw	x8,x8,8 # 5940a008 <failed_addr>
    41015fa0:	00043c03          	ld	x24,0(x8)
    41015fa4:	000c0067          	jr	x24

0000000041015fa8 <excp_return_label_69>:
    41015fa8:	00002237          	lui	x4,0x2
    41015fac:	01600e13          	li	x28,22
    41015fb0:	05c23823          	sd	x28,80(x4) # 2050 <check_excp_expected_cause>
    41015fb4:	00000e17          	auipc	x28,0x0
    41015fb8:	048e0e13          	addi	x28,x28,72 # 41015ffc <fault_label_70>
    41015fbc:	03c23023          	sd	x28,32(x4) # 20 <SECURE_ACCESS_PROBABILITY+0x2>
    41015fc0:	00000e13          	li	x28,0
    41015fc4:	05c23023          	sd	x28,64(x4) # 40 <XLEN>
    41015fc8:	00000e13          	li	x28,0
    41015fcc:	05c23423          	sd	x28,72(x4) # 48 <XLEN+0x8>
    41015fd0:	00000e17          	auipc	x28,0x0
    41015fd4:	044e0e13          	addi	x28,x28,68 # 41016014 <excp_return_label_70>
    41015fd8:	03c23823          	sd	x28,48(x4) # 30 <SECURE_ACCESS_PROBABILITY+0x12>
    41015fdc:	00000e13          	li	x28,0
    41015fe0:	03c23c23          	sd	x28,56(x4) # 38 <SECURE_ACCESS_PROBABILITY+0x1a>
    41015fe4:	00000e13          	li	x28,0
    41015fe8:	07c23023          	sd	x28,96(x4) # 60 <XLEN+0x20>
    41015fec:	00000e13          	li	x28,0
    41015ff0:	07c23423          	sd	x28,104(x4) # 68 <XLEN+0x28>
    41015ff4:	00000e13          	li	x28,0
    41015ff8:	07c23823          	sd	x28,112(x4) # 70 <XLEN+0x30>

0000000041015ffc <fault_label_70>:
    41015ffc:	c17023f3          	csrr	x7,hpmcounter23
    41016000:	00038b93          	mv	x23,x7
    41016004:	5940a8b7          	lui	x17,0x5940a
    41016008:	0088889b          	addiw	x17,x17,8 # 5940a008 <failed_addr>
    4101600c:	0008ba83          	ld	x21,0(x17)
    41016010:	000a8067          	jr	x21

0000000041016014 <excp_return_label_70>:
    41016014:	00002237          	lui	x4,0x2
    41016018:	01600e13          	li	x28,22
    4101601c:	05c23823          	sd	x28,80(x4) # 2050 <check_excp_expected_cause>
    41016020:	00000e17          	auipc	x28,0x0
    41016024:	048e0e13          	addi	x28,x28,72 # 41016068 <fault_label_71>
    41016028:	03c23023          	sd	x28,32(x4) # 20 <SECURE_ACCESS_PROBABILITY+0x2>
    4101602c:	00000e13          	li	x28,0
    41016030:	05c23023          	sd	x28,64(x4) # 40 <XLEN>
    41016034:	00000e13          	li	x28,0
    41016038:	05c23423          	sd	x28,72(x4) # 48 <XLEN+0x8>
    4101603c:	00000e17          	auipc	x28,0x0
    41016040:	044e0e13          	addi	x28,x28,68 # 41016080 <excp_return_label_71>
    41016044:	03c23823          	sd	x28,48(x4) # 30 <SECURE_ACCESS_PROBABILITY+0x12>
    41016048:	00000e13          	li	x28,0
    4101604c:	03c23c23          	sd	x28,56(x4) # 38 <SECURE_ACCESS_PROBABILITY+0x1a>
    41016050:	00000e13          	li	x28,0
    41016054:	07c23023          	sd	x28,96(x4) # 60 <XLEN+0x20>
    41016058:	00000e13          	li	x28,0
    4101605c:	07c23423          	sd	x28,104(x4) # 68 <XLEN+0x28>
    41016060:	00000e13          	li	x28,0
    41016064:	07c23823          	sd	x28,112(x4) # 70 <XLEN+0x30>

0000000041016068 <fault_label_71>:
    41016068:	c18023f3          	csrr	x7,hpmcounter24
    4101606c:	00038893          	mv	x17,x7
    41016070:	5940a7b7          	lui	x15,0x5940a
    41016074:	0087879b          	addiw	x15,x15,8 # 5940a008 <failed_addr>
    41016078:	0007b903          	ld	x18,0(x15)
    4101607c:	00090067          	jr	x18

0000000041016080 <excp_return_label_71>:
    41016080:	00002237          	lui	x4,0x2
    41016084:	01600e13          	li	x28,22
    41016088:	05c23823          	sd	x28,80(x4) # 2050 <check_excp_expected_cause>
    4101608c:	00000e17          	auipc	x28,0x0
    41016090:	048e0e13          	addi	x28,x28,72 # 410160d4 <fault_label_72>
    41016094:	03c23023          	sd	x28,32(x4) # 20 <SECURE_ACCESS_PROBABILITY+0x2>
    41016098:	00000e13          	li	x28,0
    4101609c:	05c23023          	sd	x28,64(x4) # 40 <XLEN>
    410160a0:	00000e13          	li	x28,0
    410160a4:	05c23423          	sd	x28,72(x4) # 48 <XLEN+0x8>
    410160a8:	00000e17          	auipc	x28,0x0
    410160ac:	044e0e13          	addi	x28,x28,68 # 410160ec <excp_return_label_72>
    410160b0:	03c23823          	sd	x28,48(x4) # 30 <SECURE_ACCESS_PROBABILITY+0x12>
    410160b4:	00000e13          	li	x28,0
    410160b8:	03c23c23          	sd	x28,56(x4) # 38 <SECURE_ACCESS_PROBABILITY+0x1a>
    410160bc:	00000e13          	li	x28,0
    410160c0:	07c23023          	sd	x28,96(x4) # 60 <XLEN+0x20>
    410160c4:	00000e13          	li	x28,0
    410160c8:	07c23423          	sd	x28,104(x4) # 68 <XLEN+0x28>
    410160cc:	00000e13          	li	x28,0
    410160d0:	07c23823          	sd	x28,112(x4) # 70 <XLEN+0x30>

00000000410160d4 <fault_label_72>:
    410160d4:	c19023f3          	csrr	x7,hpmcounter25
    410160d8:	00038893          	mv	x17,x7
    410160dc:	5940a337          	lui	x6,0x5940a
    410160e0:	0083031b          	addiw	x6,x6,8 # 5940a008 <failed_addr>
    410160e4:	00033783          	ld	x15,0(x6)
    410160e8:	00078067          	jr	x15

00000000410160ec <excp_return_label_72>:
    410160ec:	00002237          	lui	x4,0x2
    410160f0:	01600e13          	li	x28,22
    410160f4:	05c23823          	sd	x28,80(x4) # 2050 <check_excp_expected_cause>
    410160f8:	00000e17          	auipc	x28,0x0
    410160fc:	048e0e13          	addi	x28,x28,72 # 41016140 <fault_label_73>
    41016100:	03c23023          	sd	x28,32(x4) # 20 <SECURE_ACCESS_PROBABILITY+0x2>
    41016104:	00000e13          	li	x28,0
    41016108:	05c23023          	sd	x28,64(x4) # 40 <XLEN>
    4101610c:	00000e13          	li	x28,0
    41016110:	05c23423          	sd	x28,72(x4) # 48 <XLEN+0x8>
    41016114:	00000e17          	auipc	x28,0x0
    41016118:	044e0e13          	addi	x28,x28,68 # 41016158 <excp_return_label_73>
    4101611c:	03c23823          	sd	x28,48(x4) # 30 <SECURE_ACCESS_PROBABILITY+0x12>
    41016120:	00000e13          	li	x28,0
    41016124:	03c23c23          	sd	x28,56(x4) # 38 <SECURE_ACCESS_PROBABILITY+0x1a>
    41016128:	00000e13          	li	x28,0
    4101612c:	07c23023          	sd	x28,96(x4) # 60 <XLEN+0x20>
    41016130:	00000e13          	li	x28,0
    41016134:	07c23423          	sd	x28,104(x4) # 68 <XLEN+0x28>
    41016138:	00000e13          	li	x28,0
    4101613c:	07c23823          	sd	x28,112(x4) # 70 <XLEN+0x30>

0000000041016140 <fault_label_73>:
    41016140:	c1a023f3          	csrr	x7,hpmcounter26
    41016144:	00038713          	mv	x14,x7
    41016148:	5940ac37          	lui	x24,0x5940a
    4101614c:	008c0c1b          	addiw	x24,x24,8 # 5940a008 <failed_addr>
    41016150:	000c3c83          	ld	x25,0(x24)
    41016154:	000c8067          	jr	x25

0000000041016158 <excp_return_label_73>:
    41016158:	00002237          	lui	x4,0x2
    4101615c:	01600e13          	li	x28,22
    41016160:	05c23823          	sd	x28,80(x4) # 2050 <check_excp_expected_cause>
    41016164:	00000e17          	auipc	x28,0x0
    41016168:	048e0e13          	addi	x28,x28,72 # 410161ac <fault_label_74>
    4101616c:	03c23023          	sd	x28,32(x4) # 20 <SECURE_ACCESS_PROBABILITY+0x2>
    41016170:	00000e13          	li	x28,0
    41016174:	05c23023          	sd	x28,64(x4) # 40 <XLEN>
    41016178:	00000e13          	li	x28,0
    4101617c:	05c23423          	sd	x28,72(x4) # 48 <XLEN+0x8>
    41016180:	00000e17          	auipc	x28,0x0
    41016184:	044e0e13          	addi	x28,x28,68 # 410161c4 <excp_return_label_74>
    41016188:	03c23823          	sd	x28,48(x4) # 30 <SECURE_ACCESS_PROBABILITY+0x12>
    4101618c:	00000e13          	li	x28,0
    41016190:	03c23c23          	sd	x28,56(x4) # 38 <SECURE_ACCESS_PROBABILITY+0x1a>
    41016194:	00000e13          	li	x28,0
    41016198:	07c23023          	sd	x28,96(x4) # 60 <XLEN+0x20>
    4101619c:	00000e13          	li	x28,0
    410161a0:	07c23423          	sd	x28,104(x4) # 68 <XLEN+0x28>
    410161a4:	00000e13          	li	x28,0
    410161a8:	07c23823          	sd	x28,112(x4) # 70 <XLEN+0x30>

00000000410161ac <fault_label_74>:
    410161ac:	c1b023f3          	csrr	x7,hpmcounter27
    410161b0:	00038313          	mv	x6,x7
    410161b4:	5940a337          	lui	x6,0x5940a
    410161b8:	0083031b          	addiw	x6,x6,8 # 5940a008 <failed_addr>
    410161bc:	00033c03          	ld	x24,0(x6)
    410161c0:	000c0067          	jr	x24

00000000410161c4 <excp_return_label_74>:
    410161c4:	00002237          	lui	x4,0x2
    410161c8:	01600e13          	li	x28,22
    410161cc:	05c23823          	sd	x28,80(x4) # 2050 <check_excp_expected_cause>
    410161d0:	00000e17          	auipc	x28,0x0
    410161d4:	048e0e13          	addi	x28,x28,72 # 41016218 <fault_label_75>
    410161d8:	03c23023          	sd	x28,32(x4) # 20 <SECURE_ACCESS_PROBABILITY+0x2>
    410161dc:	00000e13          	li	x28,0
    410161e0:	05c23023          	sd	x28,64(x4) # 40 <XLEN>
    410161e4:	00000e13          	li	x28,0
    410161e8:	05c23423          	sd	x28,72(x4) # 48 <XLEN+0x8>
    410161ec:	00000e17          	auipc	x28,0x0
    410161f0:	044e0e13          	addi	x28,x28,68 # 41016230 <excp_return_label_75>
    410161f4:	03c23823          	sd	x28,48(x4) # 30 <SECURE_ACCESS_PROBABILITY+0x12>
    410161f8:	00000e13          	li	x28,0
    410161fc:	03c23c23          	sd	x28,56(x4) # 38 <SECURE_ACCESS_PROBABILITY+0x1a>
    41016200:	00000e13          	li	x28,0
    41016204:	07c23023          	sd	x28,96(x4) # 60 <XLEN+0x20>
    41016208:	00000e13          	li	x28,0
    4101620c:	07c23423          	sd	x28,104(x4) # 68 <XLEN+0x28>
    41016210:	00000e13          	li	x28,0
    41016214:	07c23823          	sd	x28,112(x4) # 70 <XLEN+0x30>

0000000041016218 <fault_label_75>:
    41016218:	c1c023f3          	csrr	x7,hpmcounter28
    4101621c:	00038b93          	mv	x23,x7
    41016220:	5940a9b7          	lui	x19,0x5940a
    41016224:	0089899b          	addiw	x19,x19,8 # 5940a008 <failed_addr>
    41016228:	0009bb03          	ld	x22,0(x19)
    4101622c:	000b0067          	jr	x22

0000000041016230 <excp_return_label_75>:
    41016230:	00002237          	lui	x4,0x2
    41016234:	01600e13          	li	x28,22
    41016238:	05c23823          	sd	x28,80(x4) # 2050 <check_excp_expected_cause>
    4101623c:	00000e17          	auipc	x28,0x0
    41016240:	048e0e13          	addi	x28,x28,72 # 41016284 <fault_label_76>
    41016244:	03c23023          	sd	x28,32(x4) # 20 <SECURE_ACCESS_PROBABILITY+0x2>
    41016248:	00000e13          	li	x28,0
    4101624c:	05c23023          	sd	x28,64(x4) # 40 <XLEN>
    41016250:	00000e13          	li	x28,0
    41016254:	05c23423          	sd	x28,72(x4) # 48 <XLEN+0x8>
    41016258:	00000e17          	auipc	x28,0x0
    4101625c:	044e0e13          	addi	x28,x28,68 # 4101629c <excp_return_label_76>
    41016260:	03c23823          	sd	x28,48(x4) # 30 <SECURE_ACCESS_PROBABILITY+0x12>
    41016264:	00000e13          	li	x28,0
    41016268:	03c23c23          	sd	x28,56(x4) # 38 <SECURE_ACCESS_PROBABILITY+0x1a>
    4101626c:	00000e13          	li	x28,0
    41016270:	07c23023          	sd	x28,96(x4) # 60 <XLEN+0x20>
    41016274:	00000e13          	li	x28,0
    41016278:	07c23423          	sd	x28,104(x4) # 68 <XLEN+0x28>
    4101627c:	00000e13          	li	x28,0
    41016280:	07c23823          	sd	x28,112(x4) # 70 <XLEN+0x30>

0000000041016284 <fault_label_76>:
    41016284:	c1d023f3          	csrr	x7,hpmcounter29
    41016288:	00038893          	mv	x17,x7
    4101628c:	5940ac37          	lui	x24,0x5940a
    41016290:	008c0c1b          	addiw	x24,x24,8 # 5940a008 <failed_addr>
    41016294:	000c3f83          	ld	x31,0(x24)
    41016298:	000f8067          	jr	x31

000000004101629c <excp_return_label_76>:
    4101629c:	00002237          	lui	x4,0x2
    410162a0:	01600e13          	li	x28,22
    410162a4:	05c23823          	sd	x28,80(x4) # 2050 <check_excp_expected_cause>
    410162a8:	00000e17          	auipc	x28,0x0
    410162ac:	048e0e13          	addi	x28,x28,72 # 410162f0 <fault_label_77>
    410162b0:	03c23023          	sd	x28,32(x4) # 20 <SECURE_ACCESS_PROBABILITY+0x2>
    410162b4:	00000e13          	li	x28,0
    410162b8:	05c23023          	sd	x28,64(x4) # 40 <XLEN>
    410162bc:	00000e13          	li	x28,0
    410162c0:	05c23423          	sd	x28,72(x4) # 48 <XLEN+0x8>
    410162c4:	00000e17          	auipc	x28,0x0
    410162c8:	044e0e13          	addi	x28,x28,68 # 41016308 <excp_return_label_77>
    410162cc:	03c23823          	sd	x28,48(x4) # 30 <SECURE_ACCESS_PROBABILITY+0x12>
    410162d0:	00000e13          	li	x28,0
    410162d4:	03c23c23          	sd	x28,56(x4) # 38 <SECURE_ACCESS_PROBABILITY+0x1a>
    410162d8:	00000e13          	li	x28,0
    410162dc:	07c23023          	sd	x28,96(x4) # 60 <XLEN+0x20>
    410162e0:	00000e13          	li	x28,0
    410162e4:	07c23423          	sd	x28,104(x4) # 68 <XLEN+0x28>
    410162e8:	00000e13          	li	x28,0
    410162ec:	07c23823          	sd	x28,112(x4) # 70 <XLEN+0x30>

00000000410162f0 <fault_label_77>:
    410162f0:	c1e023f3          	csrr	x7,hpmcounter30
    410162f4:	00038413          	mv	x8,x7
    410162f8:	5940a8b7          	lui	x17,0x5940a
    410162fc:	0088889b          	addiw	x17,x17,8 # 5940a008 <failed_addr>
    41016300:	0008bb83          	ld	x23,0(x17)
    41016304:	000b8067          	jr	x23

0000000041016308 <excp_return_label_77>:
    41016308:	00002237          	lui	x4,0x2
    4101630c:	01600e13          	li	x28,22
    41016310:	05c23823          	sd	x28,80(x4) # 2050 <check_excp_expected_cause>
    41016314:	00000e17          	auipc	x28,0x0
    41016318:	048e0e13          	addi	x28,x28,72 # 4101635c <fault_label_78>
    4101631c:	03c23023          	sd	x28,32(x4) # 20 <SECURE_ACCESS_PROBABILITY+0x2>
    41016320:	00000e13          	li	x28,0
    41016324:	05c23023          	sd	x28,64(x4) # 40 <XLEN>
    41016328:	00000e13          	li	x28,0
    4101632c:	05c23423          	sd	x28,72(x4) # 48 <XLEN+0x8>
    41016330:	00000e17          	auipc	x28,0x0
    41016334:	044e0e13          	addi	x28,x28,68 # 41016374 <excp_return_label_78>
    41016338:	03c23823          	sd	x28,48(x4) # 30 <SECURE_ACCESS_PROBABILITY+0x12>
    4101633c:	00000e13          	li	x28,0
    41016340:	03c23c23          	sd	x28,56(x4) # 38 <SECURE_ACCESS_PROBABILITY+0x1a>
    41016344:	00000e13          	li	x28,0
    41016348:	07c23023          	sd	x28,96(x4) # 60 <XLEN+0x20>
    4101634c:	00000e13          	li	x28,0
    41016350:	07c23423          	sd	x28,104(x4) # 68 <XLEN+0x28>
    41016354:	00000e13          	li	x28,0
    41016358:	07c23823          	sd	x28,112(x4) # 70 <XLEN+0x30>

000000004101635c <fault_label_78>:
    4101635c:	c1f023f3          	csrr	x7,hpmcounter31
    41016360:	00038393          	mv	x7,x7
    41016364:	5940adb7          	lui	x27,0x5940a
    41016368:	008d8d9b          	addiw	x27,x27,8 # 5940a008 <failed_addr>
    4101636c:	000db403          	ld	x8,0(x27)
    41016370:	00040067          	jr	x8

0000000041016374 <excp_return_label_78>:
    41016374:	01ec5137          	lui	x2,0x1ec5
    41016378:	6431011b          	addiw	x2,x2,1603 # 1ec5643 <SID_HEXCEP_19_misaligned_sc_delegated_stack+0x1bd0643>
    4101637c:	00d11113          	slli	x2,x2,0xd
    41016380:	00013383          	ld	x7,0(x2)
    41016384:	5940afb7          	lui	x31,0x5940a
    41016388:	0b8f8f9b          	addiw	x31,x31,184 # 5940a0b8 <super_csr_jump_table_flags>
    4101638c:	02600f13          	li	x30,38
    41016390:	01efb023          	sd	x30,0(x31)
    41016394:	000f0fb7          	lui	x31,0xf0
    41016398:	001f8f9b          	addiw	x31,x31,1 # f0001 <mem7+0x54001>
    4101639c:	00cf9f93          	slli	x31,x31,0xc
    410163a0:	006f8f93          	addi	x31,x31,6
    410163a4:	00000073          	ecall
    410163a8:	00813383          	ld	x7,8(x2)
    410163ac:	5940afb7          	lui	x31,0x5940a
    410163b0:	0b0f8f9b          	addiw	x31,x31,176 # 5940a0b0 <machine_csr_jump_table_flags>
    410163b4:	02700f13          	li	x30,39
    410163b8:	01efb023          	sd	x30,0(x31)
    410163bc:	000f0fb7          	lui	x31,0xf0
    410163c0:	001f8f9b          	addiw	x31,x31,1 # f0001 <mem7+0x54001>
    410163c4:	00cf9f93          	slli	x31,x31,0xc
    410163c8:	005f8f93          	addi	x31,x31,5
    410163cc:	00000073          	ecall

00000000410163d0 <SID_HEXCEP_07_vs_mode_passed>:
    410163d0:	00f00f9b          	addiw	x31,x0,15
    410163d4:	01cf9f93          	slli	x31,x31,0x1c
    410163d8:	001f8f93          	addi	x31,x31,1
    410163dc:	00000073          	ecall

00000000410163e0 <SID_HEXCEP_08>:
    410163e0:	00130137          	lui	x2,0x130
    410163e4:	1bb1011b          	addiw	x2,x2,443 # 1301bb <mem7+0x941bb>
    410163e8:	00c11113          	slli	x2,x2,0xc
    410163ec:	98510113          	addi	x2,x2,-1659
    410163f0:	00c11113          	slli	x2,x2,0xc
    410163f4:	000012b7          	lui	x5,0x1
    410163f8:	00510133          	add	x2,x2,x5
    410163fc:	ff017113          	andi	x2,x2,-16
    41016400:	00002237          	lui	x4,0x2
    41016404:	01600e13          	li	x28,22
    41016408:	05c23823          	sd	x28,80(x4) # 2050 <check_excp_expected_cause>
    4101640c:	00000e17          	auipc	x28,0x0
    41016410:	054e0e13          	addi	x28,x28,84 # 41016460 <fault_label_79>
    41016414:	03c23023          	sd	x28,32(x4) # 20 <SECURE_ACCESS_PROBABILITY+0x2>
    41016418:	00000e13          	li	x28,0
    4101641c:	05c23023          	sd	x28,64(x4) # 40 <XLEN>
    41016420:	00000e13          	li	x28,0
    41016424:	05c23423          	sd	x28,72(x4) # 48 <XLEN+0x8>
    41016428:	00000e17          	auipc	x28,0x0
    4101642c:	04ce0e13          	addi	x28,x28,76 # 41016474 <excp_return_label_79>
    41016430:	03c23823          	sd	x28,48(x4) # 30 <SECURE_ACCESS_PROBABILITY+0x12>
    41016434:	00000e13          	li	x28,0
    41016438:	03c23c23          	sd	x28,56(x4) # 38 <SECURE_ACCESS_PROBABILITY+0x1a>
    4101643c:	00000e13          	li	x28,0
    41016440:	07c23023          	sd	x28,96(x4) # 60 <XLEN+0x20>
    41016444:	00000e13          	li	x28,0
    41016448:	07c23423          	sd	x28,104(x4) # 68 <XLEN+0x28>
    4101644c:	00000e13          	li	x28,0
    41016450:	07c23823          	sd	x28,112(x4) # 70 <XLEN+0x30>
    41016454:	001f4eb7          	lui	x29,0x1f4
    41016458:	4d5e8e9b          	addiw	x29,x29,1237 # 1f44d5 <SID_HEXCEP_09_sret_vtsr1_vs_stack+0x4d5>
    4101645c:	00ce9e93          	slli	x29,x29,0xc

0000000041016460 <fault_label_79>:
    41016460:	680ec7f3          	hlv.w	x15,(x29)
    41016464:	5940a537          	lui	x10,0x5940a
    41016468:	0085051b          	addiw	x10,x10,8 # 5940a008 <failed_addr>
    4101646c:	00053683          	ld	x13,0(x10)
    41016470:	00068067          	jr	x13

0000000041016474 <excp_return_label_79>:
    41016474:	00002237          	lui	x4,0x2
    41016478:	01600e13          	li	x28,22
    4101647c:	05c23823          	sd	x28,80(x4) # 2050 <check_excp_expected_cause>
    41016480:	00000e17          	auipc	x28,0x0
    41016484:	054e0e13          	addi	x28,x28,84 # 410164d4 <fault_label_80>
    41016488:	03c23023          	sd	x28,32(x4) # 20 <SECURE_ACCESS_PROBABILITY+0x2>
    4101648c:	00000e13          	li	x28,0
    41016490:	05c23023          	sd	x28,64(x4) # 40 <XLEN>
    41016494:	00000e13          	li	x28,0
    41016498:	05c23423          	sd	x28,72(x4) # 48 <XLEN+0x8>
    4101649c:	00000e17          	auipc	x28,0x0
    410164a0:	04ce0e13          	addi	x28,x28,76 # 410164e8 <excp_return_label_80>
    410164a4:	03c23823          	sd	x28,48(x4) # 30 <SECURE_ACCESS_PROBABILITY+0x12>
    410164a8:	00000e13          	li	x28,0
    410164ac:	03c23c23          	sd	x28,56(x4) # 38 <SECURE_ACCESS_PROBABILITY+0x1a>
    410164b0:	00000e13          	li	x28,0
    410164b4:	07c23023          	sd	x28,96(x4) # 60 <XLEN+0x20>
    410164b8:	00000e13          	li	x28,0
    410164bc:	07c23423          	sd	x28,104(x4) # 68 <XLEN+0x28>
    410164c0:	00000e13          	li	x28,0
    410164c4:	07c23823          	sd	x28,112(x4) # 70 <XLEN+0x30>
    410164c8:	001f43b7          	lui	x7,0x1f4
    410164cc:	4d53839b          	addiw	x7,x7,1237 # 1f44d5 <SID_HEXCEP_09_sret_vtsr1_vs_stack+0x4d5>
    410164d0:	00c39393          	slli	x7,x7,0xc

00000000410164d4 <fault_label_80>:
    410164d4:	6833c9f3          	hlvx.wu	x19,(x7)
    410164d8:	5940a4b7          	lui	x9,0x5940a
    410164dc:	0084849b          	addiw	x9,x9,8 # 5940a008 <failed_addr>
    410164e0:	0004b583          	ld	x11,0(x9)
    410164e4:	00058067          	jr	x11

00000000410164e8 <excp_return_label_80>:
    410164e8:	0ab00b93          	li	x23,171
    410164ec:	00002237          	lui	x4,0x2
    410164f0:	01600e13          	li	x28,22
    410164f4:	05c23823          	sd	x28,80(x4) # 2050 <check_excp_expected_cause>
    410164f8:	00000e17          	auipc	x28,0x0
    410164fc:	054e0e13          	addi	x28,x28,84 # 4101654c <fault_label_81>
    41016500:	03c23023          	sd	x28,32(x4) # 20 <SECURE_ACCESS_PROBABILITY+0x2>
    41016504:	00000e13          	li	x28,0
    41016508:	05c23023          	sd	x28,64(x4) # 40 <XLEN>
    4101650c:	00000e13          	li	x28,0
    41016510:	05c23423          	sd	x28,72(x4) # 48 <XLEN+0x8>
    41016514:	00000e17          	auipc	x28,0x0
    41016518:	04ce0e13          	addi	x28,x28,76 # 41016560 <excp_return_label_81>
    4101651c:	03c23823          	sd	x28,48(x4) # 30 <SECURE_ACCESS_PROBABILITY+0x12>
    41016520:	00000e13          	li	x28,0
    41016524:	03c23c23          	sd	x28,56(x4) # 38 <SECURE_ACCESS_PROBABILITY+0x1a>
    41016528:	00000e13          	li	x28,0
    4101652c:	07c23023          	sd	x28,96(x4) # 60 <XLEN+0x20>
    41016530:	00000e13          	li	x28,0
    41016534:	07c23423          	sd	x28,104(x4) # 68 <XLEN+0x28>
    41016538:	00000e13          	li	x28,0
    4101653c:	07c23823          	sd	x28,112(x4) # 70 <XLEN+0x30>
    41016540:	001f4b37          	lui	x22,0x1f4
    41016544:	4d5b0b1b          	addiw	x22,x22,1237 # 1f44d5 <SID_HEXCEP_09_sret_vtsr1_vs_stack+0x4d5>
    41016548:	00cb1b13          	slli	x22,x22,0xc

000000004101654c <fault_label_81>:
    4101654c:	637b4073          	hsv.b	x23,(x22)
    41016550:	5940a5b7          	lui	x11,0x5940a
    41016554:	0085859b          	addiw	x11,x11,8 # 5940a008 <failed_addr>
    41016558:	0005b883          	ld	x17,0(x11)
    4101655c:	00088067          	jr	x17

0000000041016560 <excp_return_label_81>:
    41016560:	00002237          	lui	x4,0x2
    41016564:	01600e13          	li	x28,22
    41016568:	05c23823          	sd	x28,80(x4) # 2050 <check_excp_expected_cause>
    4101656c:	00000e17          	auipc	x28,0x0
    41016570:	05ce0e13          	addi	x28,x28,92 # 410165c8 <fault_label_82>
    41016574:	03c23023          	sd	x28,32(x4) # 20 <SECURE_ACCESS_PROBABILITY+0x2>
    41016578:	00000e13          	li	x28,0
    4101657c:	05c23023          	sd	x28,64(x4) # 40 <XLEN>
    41016580:	00000e13          	li	x28,0
    41016584:	05c23423          	sd	x28,72(x4) # 48 <XLEN+0x8>
    41016588:	00000e17          	auipc	x28,0x0
    4101658c:	054e0e13          	addi	x28,x28,84 # 410165dc <excp_return_label_82>
    41016590:	03c23823          	sd	x28,48(x4) # 30 <SECURE_ACCESS_PROBABILITY+0x12>
    41016594:	00000e13          	li	x28,0
    41016598:	03c23c23          	sd	x28,56(x4) # 38 <SECURE_ACCESS_PROBABILITY+0x1a>
    4101659c:	00000e13          	li	x28,0
    410165a0:	07c23023          	sd	x28,96(x4) # 60 <XLEN+0x20>
    410165a4:	00000e13          	li	x28,0
    410165a8:	07c23423          	sd	x28,104(x4) # 68 <XLEN+0x28>
    410165ac:	00000e13          	li	x28,0
    410165b0:	07c23823          	sd	x28,112(x4) # 70 <XLEN+0x30>
    410165b4:	001f4f37          	lui	x30,0x1f4
    410165b8:	4d5f0f1b          	addiw	x30,x30,1237 # 1f44d5 <SID_HEXCEP_09_sret_vtsr1_vs_stack+0x4d5>
    410165bc:	00cf1f13          	slli	x30,x30,0xc
    410165c0:	00000393          	li	x7,0
    410165c4:	007f0c33          	add	x24,x30,x7

00000000410165c8 <fault_label_82>:
    410165c8:	220c0073          	hfence.vvma	x24
    410165cc:	5940a837          	lui	x16,0x5940a
    410165d0:	0088081b          	addiw	x16,x16,8 # 5940a008 <failed_addr>
    410165d4:	00083303          	ld	x6,0(x16)
    410165d8:	00030067          	jr	x6

00000000410165dc <excp_return_label_82>:
    410165dc:	00002237          	lui	x4,0x2
    410165e0:	01600e13          	li	x28,22
    410165e4:	05c23823          	sd	x28,80(x4) # 2050 <check_excp_expected_cause>
    410165e8:	00000e17          	auipc	x28,0x0
    410165ec:	05ce0e13          	addi	x28,x28,92 # 41016644 <fault_label_83>
    410165f0:	03c23023          	sd	x28,32(x4) # 20 <SECURE_ACCESS_PROBABILITY+0x2>
    410165f4:	00000e13          	li	x28,0
    410165f8:	05c23023          	sd	x28,64(x4) # 40 <XLEN>
    410165fc:	00000e13          	li	x28,0
    41016600:	05c23423          	sd	x28,72(x4) # 48 <XLEN+0x8>
    41016604:	00000e17          	auipc	x28,0x0
    41016608:	054e0e13          	addi	x28,x28,84 # 41016658 <SID_HEXCEP_08_passed>
    4101660c:	03c23823          	sd	x28,48(x4) # 30 <SECURE_ACCESS_PROBABILITY+0x12>
    41016610:	00000e13          	li	x28,0
    41016614:	03c23c23          	sd	x28,56(x4) # 38 <SECURE_ACCESS_PROBABILITY+0x1a>
    41016618:	00000e13          	li	x28,0
    4101661c:	07c23023          	sd	x28,96(x4) # 60 <XLEN+0x20>
    41016620:	00000e13          	li	x28,0
    41016624:	07c23423          	sd	x28,104(x4) # 68 <XLEN+0x28>
    41016628:	00000e13          	li	x28,0
    4101662c:	07c23823          	sd	x28,112(x4) # 70 <XLEN+0x30>
    41016630:	001f4bb7          	lui	x23,0x1f4
    41016634:	4d5b8b9b          	addiw	x23,x23,1237 # 1f44d5 <SID_HEXCEP_09_sret_vtsr1_vs_stack+0x4d5>
    41016638:	00cb9b93          	slli	x23,x23,0xc
    4101663c:	00000613          	li	x12,0
    41016640:	00cb88b3          	add	x17,x23,x12

0000000041016644 <fault_label_83>:
    41016644:	62088073          	hfence.gvma	x17
    41016648:	5940ad37          	lui	x26,0x5940a
    4101664c:	008d0d1b          	addiw	x26,x26,8 # 5940a008 <failed_addr>
    41016650:	000d3383          	ld	x7,0(x26)
    41016654:	00038067          	jr	x7

0000000041016658 <SID_HEXCEP_08_passed>:
    41016658:	00f00f9b          	addiw	x31,x0,15
    4101665c:	01cf9f93          	slli	x31,x31,0x1c
    41016660:	001f8f93          	addi	x31,x31,1
    41016664:	00000073          	ecall

0000000041016668 <SID_HEXCEP_09_mret_in_vs_vu>:
    41016668:	03b6a137          	lui	x2,0x3b6a
    4101666c:	4431011b          	addiw	x2,x2,1091 # 3b6a443 <SID_HEXCEP_19_misaligned_amo_stack+0x1c9d443>
    41016670:	00e11113          	slli	x2,x2,0xe
    41016674:	000012b7          	lui	x5,0x1
    41016678:	00510133          	add	x2,x2,x5
    4101667c:	ff017113          	andi	x2,x2,-16
    41016680:	00002237          	lui	x4,0x2
    41016684:	00200e13          	li	x28,2
    41016688:	05c23823          	sd	x28,80(x4) # 2050 <check_excp_expected_cause>
    4101668c:	00000e17          	auipc	x28,0x0
    41016690:	048e0e13          	addi	x28,x28,72 # 410166d4 <fault_label_84>
    41016694:	03c23023          	sd	x28,32(x4) # 20 <SECURE_ACCESS_PROBABILITY+0x2>
    41016698:	00000e13          	li	x28,0
    4101669c:	05c23023          	sd	x28,64(x4) # 40 <XLEN>
    410166a0:	00000e13          	li	x28,0
    410166a4:	05c23423          	sd	x28,72(x4) # 48 <XLEN+0x8>
    410166a8:	00000e17          	auipc	x28,0x0
    410166ac:	040e0e13          	addi	x28,x28,64 # 410166e8 <SID_HEXCEP_09_mret_in_vs_vu_passed>
    410166b0:	03c23823          	sd	x28,48(x4) # 30 <SECURE_ACCESS_PROBABILITY+0x12>
    410166b4:	00000e13          	li	x28,0
    410166b8:	03c23c23          	sd	x28,56(x4) # 38 <SECURE_ACCESS_PROBABILITY+0x1a>
    410166bc:	00000e13          	li	x28,0
    410166c0:	07c23023          	sd	x28,96(x4) # 60 <XLEN+0x20>
    410166c4:	00000e13          	li	x28,0
    410166c8:	07c23423          	sd	x28,104(x4) # 68 <XLEN+0x28>
    410166cc:	00000e13          	li	x28,0
    410166d0:	07c23823          	sd	x28,112(x4) # 70 <XLEN+0x30>

00000000410166d4 <fault_label_84>:
    410166d4:	30200073          	mret
    410166d8:	5940aa37          	lui	x20,0x5940a
    410166dc:	008a0a1b          	addiw	x20,x20,8 # 5940a008 <failed_addr>
    410166e0:	000a3583          	ld	x11,0(x20)
    410166e4:	00058067          	jr	x11

00000000410166e8 <SID_HEXCEP_09_mret_in_vs_vu_passed>:
    410166e8:	00f00f9b          	addiw	x31,x0,15
    410166ec:	01cf9f93          	slli	x31,x31,0x1c
    410166f0:	001f8f93          	addi	x31,x31,1
    410166f4:	00000073          	ecall

00000000410166f8 <SID_HEXCEP_09_sret_vtsr1_vs>:
    410166f8:	01ec5137          	lui	x2,0x1ec5
    410166fc:	6431011b          	addiw	x2,x2,1603 # 1ec5643 <SID_HEXCEP_19_misaligned_sc_delegated_stack+0x1bd0643>
    41016700:	00d11113          	slli	x2,x2,0xd
    41016704:	5940afb7          	lui	x31,0x5940a
    41016708:	0b8f8f9b          	addiw	x31,x31,184 # 5940a0b8 <super_csr_jump_table_flags>
    4101670c:	02800f13          	li	x30,40
    41016710:	01efb023          	sd	x30,0(x31)
    41016714:	000f0fb7          	lui	x31,0xf0
    41016718:	001f8f9b          	addiw	x31,x31,1 # f0001 <mem7+0x54001>
    4101671c:	00cf9f93          	slli	x31,x31,0xc
    41016720:	006f8f93          	addi	x31,x31,6
    41016724:	00000073          	ecall
    41016728:	00713023          	sd	x7,0(x2)
    4101672c:	001f4137          	lui	x2,0x1f4
    41016730:	000012b7          	lui	x5,0x1
    41016734:	00510133          	add	x2,x2,x5
    41016738:	ff017113          	andi	x2,x2,-16
    4101673c:	004003b7          	lui	x7,0x400
    41016740:	5940afb7          	lui	x31,0x5940a
    41016744:	0b8f8f9b          	addiw	x31,x31,184 # 5940a0b8 <super_csr_jump_table_flags>
    41016748:	02900f13          	li	x30,41
    4101674c:	01efb023          	sd	x30,0(x31)
    41016750:	000f0fb7          	lui	x31,0xf0
    41016754:	001f8f9b          	addiw	x31,x31,1 # f0001 <mem7+0x54001>
    41016758:	00cf9f93          	slli	x31,x31,0xc
    4101675c:	006f8f93          	addi	x31,x31,6
    41016760:	00000073          	ecall
    41016764:	00002237          	lui	x4,0x2
    41016768:	01600e13          	li	x28,22
    4101676c:	05c23823          	sd	x28,80(x4) # 2050 <check_excp_expected_cause>
    41016770:	00000e17          	auipc	x28,0x0
    41016774:	048e0e13          	addi	x28,x28,72 # 410167b8 <fault_label_85>
    41016778:	03c23023          	sd	x28,32(x4) # 20 <SECURE_ACCESS_PROBABILITY+0x2>
    4101677c:	00000e13          	li	x28,0
    41016780:	05c23023          	sd	x28,64(x4) # 40 <XLEN>
    41016784:	00000e13          	li	x28,0
    41016788:	05c23423          	sd	x28,72(x4) # 48 <XLEN+0x8>
    4101678c:	00000e17          	auipc	x28,0x0
    41016790:	040e0e13          	addi	x28,x28,64 # 410167cc <excp_return_label_85>
    41016794:	03c23823          	sd	x28,48(x4) # 30 <SECURE_ACCESS_PROBABILITY+0x12>
    41016798:	00000e13          	li	x28,0
    4101679c:	03c23c23          	sd	x28,56(x4) # 38 <SECURE_ACCESS_PROBABILITY+0x1a>
    410167a0:	00000e13          	li	x28,0
    410167a4:	07c23023          	sd	x28,96(x4) # 60 <XLEN+0x20>
    410167a8:	00000e13          	li	x28,0
    410167ac:	07c23423          	sd	x28,104(x4) # 68 <XLEN+0x28>
    410167b0:	00000e13          	li	x28,0
    410167b4:	07c23823          	sd	x28,112(x4) # 70 <XLEN+0x30>

00000000410167b8 <fault_label_85>:
