
/home/abdullah/RiescueC/riescue/10x_R/zicbom_zicboz_zicbop_zic64b/testsuite/zicbom_zicboz_zicbop_zic64b/user_sv48/tp_zicbom_zicboz_zicbop_zic64b_1:     file format elf64-littleriscv


Disassembly of section .runtime:

0000000041000000 <_start>:
    41000000:	00000093          	li	x1,0
    41000004:	00000113          	li	x2,0
    41000008:	00000193          	li	x3,0
    4100000c:	00000213          	li	x4,0
    41000010:	00000293          	li	x5,0
    41000014:	00000313          	li	x6,0
    41000018:	00000393          	li	x7,0
    4100001c:	00000413          	li	x8,0
    41000020:	00000493          	li	x9,0
    41000024:	00000513          	li	x10,0
    41000028:	00000593          	li	x11,0
    4100002c:	00000613          	li	x12,0
    41000030:	00000693          	li	x13,0
    41000034:	00000713          	li	x14,0
    41000038:	00000793          	li	x15,0
    4100003c:	00000813          	li	x16,0
    41000040:	00000893          	li	x17,0
    41000044:	00000913          	li	x18,0
    41000048:	00000993          	li	x19,0
    4100004c:	00000a13          	li	x20,0
    41000050:	00000a93          	li	x21,0
    41000054:	00000b13          	li	x22,0
    41000058:	00000b93          	li	x23,0
    4100005c:	00000c13          	li	x24,0
    41000060:	00000c93          	li	x25,0
    41000064:	00000d13          	li	x26,0
    41000068:	00000d93          	li	x27,0
    4100006c:	00000e13          	li	x28,0
    41000070:	00000e93          	li	x29,0
    41000074:	00000f13          	li	x30,0
    41000078:	00000f93          	li	x31,0

000000004100007c <loader__load_panic_address>:
    4100007c:	00001297          	auipc	x5,0x1
    41000080:	9e828293          	addi	x5,x5,-1560 # 41000a64 <eot__failed>
    41000084:	30529073          	csrw	mtvec,x5

0000000041000088 <loader__initialize_runtime>:
    41000088:	00000293          	li	x5,0
    4100008c:	3012a2f3          	csrrs	x5,misa,x5

0000000041000090 <loader__set_mstatus>:
    41000090:	000402b7          	lui	x5,0x40
    41000094:	00a2829b          	addiw	x5,x5,10 # 4000a <pma_region_0_size+0xa>
    41000098:	3002a2f3          	csrrs	x5,mstatus,x5
    4100009c:	41fff237          	lui	x4,0x41fff
    410000a0:	34021073          	csrw	mscratch,x4

00000000410000a4 <loader__setup_menvcfg>:
    410000a4:	00000297          	auipc	x5,0x0
    410000a8:	4a828293          	addi	x5,x5,1192 # 4100054c <trap_handler_m__trap_entry>
    410000ac:	30529073          	csrw	mtvec,x5

00000000410000b0 <loader__enable_paging>:
    410000b0:	fff900b7          	lui	x1,0xfff90
    410000b4:	0790809b          	addiw	x1,x1,121 # fffffffffff90079 <mem13+0x8e51f3c079>
    410000b8:	01e09093          	slli	x1,x1,0x1e
    410000bc:	01108093          	addi	x1,x1,17
    410000c0:	00e09093          	slli	x1,x1,0xe
    410000c4:	ae408093          	addi	x1,x1,-1308
    410000c8:	18009073          	csrw	satp,x1

00000000410000cc <loader__done>:
    410000cc:	1c10006f          	j	41000a8c <scheduler__init>

00000000410000d0 <loader__panic>:
    410000d0:	1950006f          	j	41000a64 <eot__failed>

00000000410000d4 <syscalls__syscall_check_schedule_next_test>:
    410000d4:	00f0029b          	addiw	x5,x0,15
    410000d8:	01c29293          	slli	x5,x5,0x1c
    410000dc:	00128293          	addi	x5,x5,1
    410000e0:	01f29a63          	bne	x5,x31,410000f4 <syscalls__syscall_check_fail_test>
    410000e4:	00000317          	auipc	x6,0x0
    410000e8:	46830313          	addi	x6,x6,1128 # 4100054c <trap_handler_m__trap_entry>
    410000ec:	30531073          	csrw	mtvec,x6
    410000f0:	6a00006f          	j	41000790 <enter_scheduler>

00000000410000f4 <syscalls__syscall_check_fail_test>:
    410000f4:	00f0029b          	addiw	x5,x0,15
    410000f8:	01c29293          	slli	x5,x5,0x1c
    410000fc:	00228293          	addi	x5,x5,2
    41000100:	01f29a63          	bne	x5,x31,41000114 <syscalls__syscall_check_end_test_without_failure>
    41000104:	00000317          	auipc	x6,0x0
    41000108:	44830313          	addi	x6,x6,1096 # 4100054c <trap_handler_m__trap_entry>
    4100010c:	30531073          	csrw	mtvec,x6
    41000110:	6b00006f          	j	410007c0 <test_failed>

0000000041000114 <syscalls__syscall_check_end_test_without_failure>:
    41000114:	00f0029b          	addiw	x5,x0,15
    41000118:	01c29293          	slli	x5,x5,0x1c
    4100011c:	00328293          	addi	x5,x5,3
    41000120:	01f29a63          	bne	x5,x31,41000134 <syscalls__syscall_check_switch_machine_mode>
    41000124:	00000317          	auipc	x6,0x0
    41000128:	42830313          	addi	x6,x6,1064 # 4100054c <trap_handler_m__trap_entry>
    4100012c:	30531073          	csrw	mtvec,x6
    41000130:	69c0006f          	j	410007cc <os_end_test>

0000000041000134 <syscalls__syscall_check_switch_machine_mode>:
    41000134:	000f02b7          	lui	x5,0xf0
    41000138:	0012829b          	addiw	x5,x5,1 # f0001 <mem3+0x93001>
    4100013c:	00c29293          	slli	x5,x5,0xc
    41000140:	00128293          	addi	x5,x5,1
    41000144:	0a5f8463          	beq	x31,x5,410001ec <syscalls__os_fn_f0001001>

0000000041000148 <syscalls__syscall_check_switch_super_mode>:
    41000148:	000f02b7          	lui	x5,0xf0
    4100014c:	0012829b          	addiw	x5,x5,1 # f0001 <mem3+0x93001>
    41000150:	00c29293          	slli	x5,x5,0xc
    41000154:	00228293          	addi	x5,x5,2
    41000158:	0c5f8063          	beq	x31,x5,41000218 <syscalls__os_fn_f0001002>

000000004100015c <syscalls__syscall_check_switch_user_mode>:
    4100015c:	000f02b7          	lui	x5,0xf0
    41000160:	0012829b          	addiw	x5,x5,1 # f0001 <mem3+0x93001>
    41000164:	00c29293          	slli	x5,x5,0xc
    41000168:	00328293          	addi	x5,x5,3
    4100016c:	0c5f8e63          	beq	x31,x5,41000248 <syscalls__os_fn_f0001003>

0000000041000170 <syscalls__syscall_check_switch_test_mode>:
    41000170:	000f02b7          	lui	x5,0xf0
    41000174:	0012829b          	addiw	x5,x5,1 # f0001 <mem3+0x93001>
    41000178:	00c29293          	slli	x5,x5,0xc
    4100017c:	00428293          	addi	x5,x5,4
    41000180:	0c5f8863          	beq	x31,x5,41000250 <syscalls__os_fn_f0001004>

0000000041000184 <syscalls__syscall_machine_csr_rw>:
    41000184:	000f02b7          	lui	x5,0xf0
    41000188:	0012829b          	addiw	x5,x5,1 # f0001 <mem3+0x93001>
    4100018c:	00c29293          	slli	x5,x5,0xc
    41000190:	00528293          	addi	x5,x5,5
    41000194:	0e5f8263          	beq	x31,x5,41000278 <syscalls__os_fn_f0001005>

0000000041000198 <syscalls__syscall_supervisor_csr_rw>:
    41000198:	000f02b7          	lui	x5,0xf0
    4100019c:	0012829b          	addiw	x5,x5,1 # f0001 <mem3+0x93001>
    410001a0:	00c29293          	slli	x5,x5,0xc
    410001a4:	00628293          	addi	x5,x5,6
    410001a8:	0e5f8e63          	beq	x31,x5,410002a4 <syscalls__os_fn_f0001006>

00000000410001ac <syscalls__syscall_machine_pte_read>:
    410001ac:	000f02b7          	lui	x5,0xf0
    410001b0:	0012829b          	addiw	x5,x5,1 # f0001 <mem3+0x93001>
    410001b4:	00c29293          	slli	x5,x5,0xc
    410001b8:	00728293          	addi	x5,x5,7
    410001bc:	105f8c63          	beq	x31,x5,410002d4 <syscalls__os_fn_f0001007>

00000000410001c0 <syscalls__syscall_machine_pte_write>:
    410001c0:	000f02b7          	lui	x5,0xf0
    410001c4:	0012829b          	addiw	x5,x5,1 # f0001 <mem3+0x93001>
    410001c8:	00c29293          	slli	x5,x5,0xc
    410001cc:	00828293          	addi	x5,x5,8
    410001d0:	1e5f8863          	beq	x31,x5,410003c0 <syscalls__os_fn_f0001008>

00000000410001d4 <syscalls__syscall_check_get_hart_context>:
    410001d4:	000782b7          	lui	x5,0x78
    410001d8:	0012829b          	addiw	x5,x5,1 # 78001 <mem3+0x1b001>
    410001dc:	00d29293          	slli	x5,x5,0xd
    410001e0:	00128293          	addi	x5,x5,1
    410001e4:	2c5f8463          	beq	x31,x5,410004ac <syscalls__os_get_hart_context>
    410001e8:	4c00006f          	j	410006a8 <trap_handler_m__check_exception_label>

00000000410001ec <syscalls__os_fn_f0001001>:
    410001ec:	000022b7          	lui	x5,0x2
    410001f0:	8002829b          	addiw	x5,x5,-2048 # 1800 <pma_region_1_size+0x800>
    410001f4:	3002b073          	csrc	mstatus,x5
    410001f8:	000022b7          	lui	x5,0x2
    410001fc:	8002829b          	addiw	x5,x5,-2048 # 1800 <pma_region_1_size+0x800>
    41000200:	3002a073          	csrs	mstatus,x5
    41000204:	0010029b          	addiw	x5,x0,1
    41000208:	02729293          	slli	x5,x5,0x27
    4100020c:	3002b073          	csrc	mstatus,x5
    41000210:	411952b7          	lui	x5,0x41195
    41000214:	2a80006f          	j	410004bc <syscalls__ret_from_os_fn>

0000000041000218 <syscalls__os_fn_f0001002>:
    41000218:	000022b7          	lui	x5,0x2
    4100021c:	8002829b          	addiw	x5,x5,-2048 # 1800 <pma_region_1_size+0x800>
    41000220:	3002b073          	csrc	mstatus,x5
    41000224:	000012b7          	lui	x5,0x1
    41000228:	8002829b          	addiw	x5,x5,-2048 # 800 <XLEN+0x7c0>
    4100022c:	3002a073          	csrs	mstatus,x5
    41000230:	0010029b          	addiw	x5,x0,1
    41000234:	02729293          	slli	x5,x5,0x27
    41000238:	3002b073          	csrc	mstatus,x5
    4100023c:	12000073          	sfence.vma
    41000240:	410952b7          	lui	x5,0x41095
    41000244:	2780006f          	j	410004bc <syscalls__ret_from_os_fn>

0000000041000248 <syscalls__os_fn_f0001003>:
    41000248:	411152b7          	lui	x5,0x41115
    4100024c:	2700006f          	j	410004bc <syscalls__ret_from_os_fn>

0000000041000250 <syscalls__os_fn_f0001004>:
    41000250:	000022b7          	lui	x5,0x2
    41000254:	8002829b          	addiw	x5,x5,-2048 # 1800 <pma_region_1_size+0x800>
    41000258:	3002b073          	csrc	mstatus,x5
    4100025c:	00000293          	li	x5,0
    41000260:	3002a073          	csrs	mstatus,x5
    41000264:	0010029b          	addiw	x5,x0,1
    41000268:	02729293          	slli	x5,x5,0x27
    4100026c:	3002b073          	csrc	mstatus,x5
    41000270:	17823283          	ld	x5,376(x4) # 41fff178 <__section_hart_context+0x178>
    41000274:	2480006f          	j	410004bc <syscalls__ret_from_os_fn>

0000000041000278 <syscalls__os_fn_f0001005>:
    41000278:	000022b7          	lui	x5,0x2
    4100027c:	8002829b          	addiw	x5,x5,-2048 # 1800 <pma_region_1_size+0x800>
    41000280:	3002b073          	csrc	mstatus,x5
    41000284:	000022b7          	lui	x5,0x2
    41000288:	8002829b          	addiw	x5,x5,-2048 # 1800 <pma_region_1_size+0x800>
    4100028c:	3002a073          	csrs	mstatus,x5
    41000290:	0010029b          	addiw	x5,x0,1
    41000294:	02729293          	slli	x5,x5,0x27
    41000298:	3002b073          	csrc	mstatus,x5
    4100029c:	412152b7          	lui	x5,0x41215
    410002a0:	21c0006f          	j	410004bc <syscalls__ret_from_os_fn>

00000000410002a4 <syscalls__os_fn_f0001006>:
    410002a4:	000022b7          	lui	x5,0x2
    410002a8:	8002829b          	addiw	x5,x5,-2048 # 1800 <pma_region_1_size+0x800>
    410002ac:	3002b073          	csrc	mstatus,x5
    410002b0:	000012b7          	lui	x5,0x1
    410002b4:	8002829b          	addiw	x5,x5,-2048 # 800 <XLEN+0x7c0>
    410002b8:	3002a073          	csrs	mstatus,x5
    410002bc:	0010029b          	addiw	x5,x0,1
    410002c0:	02729293          	slli	x5,x5,0x27
    410002c4:	3002b073          	csrc	mstatus,x5
    410002c8:	12000073          	sfence.vma
    410002cc:	412162b7          	lui	x5,0x41216
    410002d0:	1ec0006f          	j	410004bc <syscalls__ret_from_os_fn>

00000000410002d4 <syscalls__os_fn_f0001007>:
    410002d4:	44812fb7          	lui	x31,0x44812
    410002d8:	0c8f8f9b          	addiw	x31,x31,200 # 448120c8 <pte_access_flags_pa>
    410002dc:	000fbf83          	ld	x31,0(x31)
    410002e0:	448122b7          	lui	x5,0x44812
    410002e4:	0d02829b          	addiw	x5,x5,208 # 448120d0 <pte_access_flags_pa+0x8>
    410002e8:	0002b283          	ld	x5,0(x5)
    410002ec:	44812e37          	lui	x28,0x44812
    410002f0:	0d8e0e1b          	addiw	x28,x28,216 # 448120d8 <pte_access_flags_pa+0x10>
    410002f4:	000e3e03          	ld	x28,0(x28)

00000000410002f8 <syscalls__pte_walk_check_glevel_without_gstage_read>:
    410002f8:	fff00f93          	li	x31,-1
    410002fc:	0dfe1063          	bne	x28,x31,410003bc <syscalls__pte_walk_fail_read>
    41000300:	18002373          	csrr	x6,satp
    41000304:	03c35e93          	srli	x29,x6,0x3c
    41000308:	01431313          	slli	x6,x6,0x14
    4100030c:	01435313          	srli	x6,x6,0x14
    41000310:	00c31313          	slli	x6,x6,0xc
    41000314:	ff8e8e93          	addi	x29,x29,-8
    41000318:	003e9f13          	slli	x30,x29,0x3
    4100031c:	01df0eb3          	add	x29,x30,x29
    41000320:	01ee8e93          	addi	x29,x29,30
    41000324:	00000f13          	li	x30,0

0000000041000328 <syscalls__pte_walk_loop_read>:
    41000328:	44812fb7          	lui	x31,0x44812
    4100032c:	0c8f8f9b          	addiw	x31,x31,200 # 448120c8 <pte_access_flags_pa>
    41000330:	000fbf83          	ld	x31,0(x31)
    41000334:	01dfdfb3          	srl	x31,x31,x29
    41000338:	1fffff93          	andi	x31,x31,511
    4100033c:	003f9f93          	slli	x31,x31,0x3
    41000340:	01f30333          	add	x6,x6,x31
    41000344:	005f0e63          	beq	x30,x5,41000360 <syscalls__pte_walk_done_read>
    41000348:	00033f83          	ld	x31,0(x6)
    4100034c:	00afdf93          	srli	x31,x31,0xa
    41000350:	00cf9313          	slli	x6,x31,0xc
    41000354:	001f0f13          	addi	x30,x30,1
    41000358:	ff7e8e93          	addi	x29,x29,-9
    4100035c:	fcdff06f          	j	41000328 <syscalls__pte_walk_loop_read>

0000000041000360 <syscalls__pte_walk_done_read>:
    41000360:	fff00f93          	li	x31,-1
    41000364:	05fe0263          	beq	x28,x31,410003a8 <syscalls__pte_walk_final_read>

0000000041000368 <syscalls__pte_walk_gstage_read>:
    41000368:	44812fb7          	lui	x31,0x44812
    4100036c:	0c8f8f9b          	addiw	x31,x31,200 # 448120c8 <pte_access_flags_pa>
    41000370:	006fb023          	sd	x6,0(x31)
    41000374:	000e0293          	mv	x5,x28
    41000378:	fff00e13          	li	x28,-1
    4100037c:	68002373          	csrr	x6,hgatp
    41000380:	03c35e93          	srli	x29,x6,0x3c
    41000384:	01431313          	slli	x6,x6,0x14
    41000388:	01435313          	srli	x6,x6,0x14
    4100038c:	00c31313          	slli	x6,x6,0xc
    41000390:	ff8e8e93          	addi	x29,x29,-8
    41000394:	003e9f13          	slli	x30,x29,0x3
    41000398:	01df0eb3          	add	x29,x30,x29
    4100039c:	01ee8e93          	addi	x29,x29,30
    410003a0:	00000f13          	li	x30,0
    410003a4:	f85ff06f          	j	41000328 <syscalls__pte_walk_loop_read>

00000000410003a8 <syscalls__pte_walk_final_read>:
    410003a8:	00033383          	ld	x7,0(x6)
    410003ac:	341022f3          	csrr	x5,mepc
    410003b0:	00428293          	addi	x5,x5,4
    410003b4:	16523c23          	sd	x5,376(x4) # 178 <XLEN+0x138>
    410003b8:	e99ff06f          	j	41000250 <syscalls__os_fn_f0001004>

00000000410003bc <syscalls__pte_walk_fail_read>:
    410003bc:	4040006f          	j	410007c0 <test_failed>

00000000410003c0 <syscalls__os_fn_f0001008>:
    410003c0:	44812fb7          	lui	x31,0x44812
    410003c4:	0c8f8f9b          	addiw	x31,x31,200 # 448120c8 <pte_access_flags_pa>
    410003c8:	000fbf83          	ld	x31,0(x31)
    410003cc:	448122b7          	lui	x5,0x44812
    410003d0:	0d02829b          	addiw	x5,x5,208 # 448120d0 <pte_access_flags_pa+0x8>
    410003d4:	0002b283          	ld	x5,0(x5)
    410003d8:	44812e37          	lui	x28,0x44812
    410003dc:	0d8e0e1b          	addiw	x28,x28,216 # 448120d8 <pte_access_flags_pa+0x10>
    410003e0:	000e3e03          	ld	x28,0(x28)

00000000410003e4 <syscalls__pte_walk_check_glevel_without_gstage_write>:
    410003e4:	fff00f93          	li	x31,-1
    410003e8:	0dfe1063          	bne	x28,x31,410004a8 <syscalls__pte_walk_fail_write>
    410003ec:	18002373          	csrr	x6,satp
    410003f0:	03c35e93          	srli	x29,x6,0x3c
    410003f4:	01431313          	slli	x6,x6,0x14
    410003f8:	01435313          	srli	x6,x6,0x14
    410003fc:	00c31313          	slli	x6,x6,0xc
    41000400:	ff8e8e93          	addi	x29,x29,-8
    41000404:	003e9f13          	slli	x30,x29,0x3
    41000408:	01df0eb3          	add	x29,x30,x29
    4100040c:	01ee8e93          	addi	x29,x29,30
    41000410:	00000f13          	li	x30,0

0000000041000414 <syscalls__pte_walk_loop_write>:
    41000414:	44812fb7          	lui	x31,0x44812
    41000418:	0c8f8f9b          	addiw	x31,x31,200 # 448120c8 <pte_access_flags_pa>
    4100041c:	000fbf83          	ld	x31,0(x31)
    41000420:	01dfdfb3          	srl	x31,x31,x29
    41000424:	1fffff93          	andi	x31,x31,511
    41000428:	003f9f93          	slli	x31,x31,0x3
    4100042c:	01f30333          	add	x6,x6,x31
    41000430:	005f0e63          	beq	x30,x5,4100044c <syscalls__pte_walk_done_write>
    41000434:	00033f83          	ld	x31,0(x6)
    41000438:	00afdf93          	srli	x31,x31,0xa
    4100043c:	00cf9313          	slli	x6,x31,0xc
    41000440:	001f0f13          	addi	x30,x30,1
    41000444:	ff7e8e93          	addi	x29,x29,-9
    41000448:	fcdff06f          	j	41000414 <syscalls__pte_walk_loop_write>

000000004100044c <syscalls__pte_walk_done_write>:
    4100044c:	fff00f93          	li	x31,-1
    41000450:	05fe0263          	beq	x28,x31,41000494 <syscalls__pte_walk_final_write>

0000000041000454 <syscalls__pte_walk_gstage_write>:
    41000454:	44812fb7          	lui	x31,0x44812
    41000458:	0c8f8f9b          	addiw	x31,x31,200 # 448120c8 <pte_access_flags_pa>
    4100045c:	006fb023          	sd	x6,0(x31)
    41000460:	000e0293          	mv	x5,x28
    41000464:	fff00e13          	li	x28,-1
    41000468:	68002373          	csrr	x6,hgatp
    4100046c:	03c35e93          	srli	x29,x6,0x3c
    41000470:	01431313          	slli	x6,x6,0x14
    41000474:	01435313          	srli	x6,x6,0x14
    41000478:	00c31313          	slli	x6,x6,0xc
    4100047c:	ff8e8e93          	addi	x29,x29,-8
    41000480:	003e9f13          	slli	x30,x29,0x3
    41000484:	01df0eb3          	add	x29,x30,x29
    41000488:	01ee8e93          	addi	x29,x29,30
    4100048c:	00000f13          	li	x30,0
    41000490:	f85ff06f          	j	41000414 <syscalls__pte_walk_loop_write>

0000000041000494 <syscalls__pte_walk_final_write>:
    41000494:	00733023          	sd	x7,0(x6)
    41000498:	341022f3          	csrr	x5,mepc
    4100049c:	00428293          	addi	x5,x5,4
    410004a0:	16523c23          	sd	x5,376(x4) # 178 <XLEN+0x138>
    410004a4:	dadff06f          	j	41000250 <syscalls__os_fn_f0001004>

00000000410004a8 <syscalls__pte_walk_fail_write>:
    410004a8:	3180006f          	j	410007c0 <test_failed>

00000000410004ac <syscalls__os_get_hart_context>:
    410004ac:	14002573          	csrr	x10,sscratch
    410004b0:	341022f3          	csrr	x5,mepc
    410004b4:	00428293          	addi	x5,x5,4
    410004b8:	0040006f          	j	410004bc <syscalls__ret_from_os_fn>

00000000410004bc <syscalls__ret_from_os_fn>:
    410004bc:	34102373          	csrr	x6,mepc
    410004c0:	00430313          	addi	x6,x6,4
    410004c4:	16623c23          	sd	x6,376(x4) # 178 <XLEN+0x138>
    410004c8:	34129073          	csrw	mepc,x5
    410004cc:	fff00f93          	li	x31,-1
    410004d0:	2a40006f          	j	41000774 <trap_handler_m__skip_xepc_write>

00000000410004d4 <trap_handler_m__invalid_interrupt>:
    410004d4:	2ec0006f          	j	410007c0 <test_failed>

00000000410004d8 <trap_handler_m__clear_all_interrupts>:
    410004d8:	34401073          	csrw	mip,x0
    410004dc:	30200073          	mret

00000000410004e0 <trap_handler_m___CLEAR_SSI>:
    410004e0:	00200293          	li	x5,2
    410004e4:	3442b073          	csrc	mip,x5
    410004e8:	30200073          	mret

00000000410004ec <trap_handler_m___CLEAR_MSI>:
    410004ec:	00800293          	li	x5,8
    410004f0:	3442b073          	csrc	mip,x5
    410004f4:	30200073          	mret

00000000410004f8 <trap_handler_m___CLEAR_STI>:
    410004f8:	02000293          	li	x5,32
    410004fc:	3442b073          	csrc	mip,x5
    41000500:	30200073          	mret

0000000041000504 <trap_handler_m___CLEAR_MTI>:
    41000504:	08000293          	li	x5,128
    41000508:	3442b073          	csrc	mip,x5
    4100050c:	30200073          	mret

0000000041000510 <trap_handler_m___CLEAR_SEI>:
    41000510:	20000293          	li	x5,512
    41000514:	3442b073          	csrc	mip,x5
    41000518:	30200073          	mret

000000004100051c <trap_handler_m___CLEAR_MEI>:
    4100051c:	000012b7          	lui	x5,0x1
    41000520:	8002829b          	addiw	x5,x5,-2048 # 800 <XLEN+0x7c0>
    41000524:	3442b073          	csrc	mip,x5
    41000528:	30200073          	mret

000000004100052c <trap_handler_m___CLEAR_COI>:
    4100052c:	000022b7          	lui	x5,0x2
    41000530:	3442b073          	csrc	mip,x5
    41000534:	30200073          	mret

0000000041000538 <trap_handler_m__clear_highest_priority_interrupt>:
    41000538:	344022f3          	csrr	x5,mip
    4100053c:	40500333          	neg	x6,x5
    41000540:	0062f2b3          	and	x5,x5,x6
    41000544:	3442b073          	csrc	mip,x5
    41000548:	30200073          	mret

000000004100054c <trap_handler_m__trap_entry>:
    4100054c:	0fc0006f          	j	41000648 <trap_handler_m__trap_handler>

0000000041000550 <trap_handler_m__interrupt_vector_table>:
    41000550:	f91ff06f          	j	410004e0 <trap_handler_m___CLEAR_SSI>
    41000554:	f81ff06f          	j	410004d4 <trap_handler_m__invalid_interrupt>
    41000558:	f95ff06f          	j	410004ec <trap_handler_m___CLEAR_MSI>
    4100055c:	f79ff06f          	j	410004d4 <trap_handler_m__invalid_interrupt>
    41000560:	f99ff06f          	j	410004f8 <trap_handler_m___CLEAR_STI>
    41000564:	f71ff06f          	j	410004d4 <trap_handler_m__invalid_interrupt>
    41000568:	f9dff06f          	j	41000504 <trap_handler_m___CLEAR_MTI>
    4100056c:	f69ff06f          	j	410004d4 <trap_handler_m__invalid_interrupt>
    41000570:	fa1ff06f          	j	41000510 <trap_handler_m___CLEAR_SEI>
    41000574:	f61ff06f          	j	410004d4 <trap_handler_m__invalid_interrupt>
    41000578:	fa5ff06f          	j	4100051c <trap_handler_m___CLEAR_MEI>
    4100057c:	f59ff06f          	j	410004d4 <trap_handler_m__invalid_interrupt>
    41000580:	fadff06f          	j	4100052c <trap_handler_m___CLEAR_COI>
    41000584:	f51ff06f          	j	410004d4 <trap_handler_m__invalid_interrupt>
    41000588:	f4dff06f          	j	410004d4 <trap_handler_m__invalid_interrupt>
    4100058c:	fadff06f          	j	41000538 <trap_handler_m__clear_highest_priority_interrupt>
    41000590:	fa9ff06f          	j	41000538 <trap_handler_m__clear_highest_priority_interrupt>
    41000594:	fa5ff06f          	j	41000538 <trap_handler_m__clear_highest_priority_interrupt>
    41000598:	fa1ff06f          	j	41000538 <trap_handler_m__clear_highest_priority_interrupt>
    4100059c:	f9dff06f          	j	41000538 <trap_handler_m__clear_highest_priority_interrupt>
    410005a0:	f99ff06f          	j	41000538 <trap_handler_m__clear_highest_priority_interrupt>
    410005a4:	f95ff06f          	j	41000538 <trap_handler_m__clear_highest_priority_interrupt>
    410005a8:	f91ff06f          	j	41000538 <trap_handler_m__clear_highest_priority_interrupt>
    410005ac:	f8dff06f          	j	41000538 <trap_handler_m__clear_highest_priority_interrupt>
    410005b0:	f89ff06f          	j	41000538 <trap_handler_m__clear_highest_priority_interrupt>
    410005b4:	f85ff06f          	j	41000538 <trap_handler_m__clear_highest_priority_interrupt>
    410005b8:	f81ff06f          	j	41000538 <trap_handler_m__clear_highest_priority_interrupt>
    410005bc:	f7dff06f          	j	41000538 <trap_handler_m__clear_highest_priority_interrupt>
    410005c0:	f79ff06f          	j	41000538 <trap_handler_m__clear_highest_priority_interrupt>
    410005c4:	f75ff06f          	j	41000538 <trap_handler_m__clear_highest_priority_interrupt>
    410005c8:	f71ff06f          	j	41000538 <trap_handler_m__clear_highest_priority_interrupt>
    410005cc:	f6dff06f          	j	41000538 <trap_handler_m__clear_highest_priority_interrupt>
    410005d0:	f69ff06f          	j	41000538 <trap_handler_m__clear_highest_priority_interrupt>
    410005d4:	f65ff06f          	j	41000538 <trap_handler_m__clear_highest_priority_interrupt>
    410005d8:	f61ff06f          	j	41000538 <trap_handler_m__clear_highest_priority_interrupt>
    410005dc:	f5dff06f          	j	41000538 <trap_handler_m__clear_highest_priority_interrupt>
    410005e0:	f59ff06f          	j	41000538 <trap_handler_m__clear_highest_priority_interrupt>
    410005e4:	f55ff06f          	j	41000538 <trap_handler_m__clear_highest_priority_interrupt>
    410005e8:	f51ff06f          	j	41000538 <trap_handler_m__clear_highest_priority_interrupt>
    410005ec:	f4dff06f          	j	41000538 <trap_handler_m__clear_highest_priority_interrupt>
    410005f0:	f49ff06f          	j	41000538 <trap_handler_m__clear_highest_priority_interrupt>
    410005f4:	f45ff06f          	j	41000538 <trap_handler_m__clear_highest_priority_interrupt>
    410005f8:	f41ff06f          	j	41000538 <trap_handler_m__clear_highest_priority_interrupt>
    410005fc:	f3dff06f          	j	41000538 <trap_handler_m__clear_highest_priority_interrupt>
    41000600:	f39ff06f          	j	41000538 <trap_handler_m__clear_highest_priority_interrupt>
    41000604:	f35ff06f          	j	41000538 <trap_handler_m__clear_highest_priority_interrupt>
    41000608:	f31ff06f          	j	41000538 <trap_handler_m__clear_highest_priority_interrupt>
    4100060c:	f2dff06f          	j	41000538 <trap_handler_m__clear_highest_priority_interrupt>
    41000610:	f29ff06f          	j	41000538 <trap_handler_m__clear_highest_priority_interrupt>
    41000614:	f25ff06f          	j	41000538 <trap_handler_m__clear_highest_priority_interrupt>
    41000618:	f21ff06f          	j	41000538 <trap_handler_m__clear_highest_priority_interrupt>
    4100061c:	f1dff06f          	j	41000538 <trap_handler_m__clear_highest_priority_interrupt>
    41000620:	f19ff06f          	j	41000538 <trap_handler_m__clear_highest_priority_interrupt>
    41000624:	f15ff06f          	j	41000538 <trap_handler_m__clear_highest_priority_interrupt>
    41000628:	f11ff06f          	j	41000538 <trap_handler_m__clear_highest_priority_interrupt>
    4100062c:	f0dff06f          	j	41000538 <trap_handler_m__clear_highest_priority_interrupt>
    41000630:	f09ff06f          	j	41000538 <trap_handler_m__clear_highest_priority_interrupt>
    41000634:	f05ff06f          	j	41000538 <trap_handler_m__clear_highest_priority_interrupt>
    41000638:	f01ff06f          	j	41000538 <trap_handler_m__clear_highest_priority_interrupt>
    4100063c:	efdff06f          	j	41000538 <trap_handler_m__clear_highest_priority_interrupt>
    41000640:	ef9ff06f          	j	41000538 <trap_handler_m__clear_highest_priority_interrupt>
    41000644:	ef5ff06f          	j	41000538 <trap_handler_m__clear_highest_priority_interrupt>

0000000041000648 <trap_handler_m__trap_handler>:
    41000648:	342022f3          	csrr	x5,mcause
    4100064c:	fff0031b          	addiw	x6,x0,-1
    41000650:	03f31313          	slli	x6,x6,0x3f
    41000654:	00537333          	and	x6,x6,x5
    41000658:	02030263          	beqz	x6,4100067c <trap_handler_m__exception_path>

000000004100065c <trap_handler_m__interrupt_handler>:
    4100065c:	fff0031b          	addiw	x6,x0,-1
    41000660:	03f31313          	slli	x6,x6,0x3f
    41000664:	0062c2b3          	xor	x5,x5,x6
    41000668:	00000317          	auipc	x6,0x0
    4100066c:	ee430313          	addi	x6,x6,-284 # 4100054c <trap_handler_m__trap_entry>
    41000670:	00229293          	slli	x5,x5,0x2
    41000674:	005302b3          	add	x5,x6,x5
    41000678:	00028067          	jr	x5 # 2000 <pma_region_1_size+0x1000>

000000004100067c <trap_handler_m__exception_path>:
    4100067c:	34021273          	csrrw	x4,mscratch,x4
    41000680:	00000297          	auipc	x5,0x0
    41000684:	10828293          	addi	x5,x5,264 # 41000788 <trap_handler_m__trap_panic>
    41000688:	30529073          	csrw	mtvec,x5
    4100068c:	0040006f          	j	41000690 <trap_handler_m__excp_entry>

0000000041000690 <trap_handler_m__excp_entry>:
    41000690:	34202373          	csrr	x6,mcause
    41000694:	00800293          	li	x5,8
    41000698:	00534863          	blt	x6,x5,410006a8 <trap_handler_m__check_exception_label>
    4100069c:	00b00293          	li	x5,11
    410006a0:	0062c463          	blt	x5,x6,410006a8 <trap_handler_m__check_exception_label>
    410006a4:	a31ff06f          	j	410000d4 <syscalls__syscall_check_schedule_next_test>

00000000410006a8 <trap_handler_m__check_exception_label>:
    410006a8:	04623c23          	sd	x6,88(x4) # 58 <XLEN+0x18>
    410006ac:	341022f3          	csrr	x5,mepc
    410006b0:	02523423          	sd	x5,40(x4) # 28 <SECURE_ACCESS_PROBABILITY+0xa>
    410006b4:	01820283          	lb	x5,24(x4) # 18 <STORE_GUEST_PAGE_FAULT+0x1>
    410006b8:	00029863          	bnez	x5,410006c8 <trap_handler_m__check_excp>
    410006bc:	00128293          	addi	x5,x5,1
    410006c0:	00520c23          	sb	x5,24(x4) # 18 <STORE_GUEST_PAGE_FAULT+0x1>
    410006c4:	0980006f          	j	4100075c <trap_handler_m__ecall_from_machine>

00000000410006c8 <trap_handler_m__check_excp>:
    410006c8:	06823283          	ld	x5,104(x4) # 68 <XLEN+0x28>
    410006cc:	06023423          	sd	x0,104(x4) # 68 <XLEN+0x28>
    410006d0:	00028663          	beqz	x5,410006dc <trap_handler_m__skip_mode_check>
    410006d4:	00100393          	li	x7,1
    410006d8:	0e729463          	bne	x5,x7,410007c0 <test_failed>

00000000410006dc <trap_handler_m__skip_mode_check>:
    410006dc:	05023283          	ld	x5,80(x4) # 50 <XLEN+0x10>
    410006e0:	04023823          	sd	x0,80(x4) # 50 <XLEN+0x10>
    410006e4:	0c531e63          	bne	x6,x5,410007c0 <test_failed>
    410006e8:	03823283          	ld	x5,56(x4) # 38 <SECURE_ACCESS_PROBABILITY+0x1a>
    410006ec:	02023c23          	sd	x0,56(x4) # 38 <SECURE_ACCESS_PROBABILITY+0x1a>
    410006f0:	06029463          	bnez	x5,41000758 <trap_handler_m__skip_gva_check>
    410006f4:	02023303          	ld	x6,32(x4) # 20 <SECURE_ACCESS_PROBABILITY+0x2>
    410006f8:	02023023          	sd	x0,32(x4) # 20 <SECURE_ACCESS_PROBABILITY+0x2>
    410006fc:	02823283          	ld	x5,40(x4) # 28 <SECURE_ACCESS_PROBABILITY+0xa>
    41000700:	02023423          	sd	x0,40(x4) # 28 <SECURE_ACCESS_PROBABILITY+0xa>
    41000704:	0a531e63          	bne	x6,x5,410007c0 <test_failed>
    41000708:	04023283          	ld	x5,64(x4) # 40 <XLEN>
    4100070c:	04023023          	sd	x0,64(x4) # 40 <XLEN>
    41000710:	00028663          	beqz	x5,4100071c <trap_handler_m__skip_nonzero_tval_check>

0000000041000714 <trap_handler_m__nonzero_tval_check>:
    41000714:	34302373          	csrr	x6,mtval
    41000718:	0a531463          	bne	x6,x5,410007c0 <test_failed>

000000004100071c <trap_handler_m__skip_nonzero_tval_check>:
    4100071c:	04823283          	ld	x5,72(x4) # 48 <XLEN+0x8>
    41000720:	04023423          	sd	x0,72(x4) # 48 <XLEN+0x8>
    41000724:	00028663          	beqz	x5,41000730 <trap_handler_m__skip_nonzero_htval_check>

0000000041000728 <trap_handler_m__nonzero_htval_check>:
    41000728:	34b02373          	csrr	x6,0x34b
    4100072c:	08531a63          	bne	x6,x5,410007c0 <test_failed>

0000000041000730 <trap_handler_m__skip_nonzero_htval_check>:
    41000730:	06023283          	ld	x5,96(x4) # 60 <XLEN+0x20>
    41000734:	06023023          	sd	x0,96(x4) # 60 <XLEN+0x20>
    41000738:	02028063          	beqz	x5,41000758 <trap_handler_m__skip_gva_check>

000000004100073c <trap_handler_m__gva_check>:
    4100073c:	30002373          	csrr	x6,mstatus
    41000740:	02635313          	srli	x6,x6,0x26
    41000744:	00137313          	andi	x6,x6,1
    41000748:	06030c63          	beqz	x6,410007c0 <test_failed>
    4100074c:	0010031b          	addiw	x6,x0,1
    41000750:	02631313          	slli	x6,x6,0x26
    41000754:	30033073          	csrc	mstatus,x6

0000000041000758 <trap_handler_m__skip_gva_check>:
    41000758:	0040006f          	j	4100075c <trap_handler_m__ecall_from_machine>

000000004100075c <trap_handler_m__ecall_from_machine>:
    4100075c:	03023283          	ld	x5,48(x4) # 30 <SECURE_ACCESS_PROBABILITY+0x12>
    41000760:	02023823          	sd	x0,48(x4) # 30 <SECURE_ACCESS_PROBABILITY+0x12>
    41000764:	07023303          	ld	x6,112(x4) # 70 <XLEN+0x30>
    41000768:	06023823          	sd	x0,112(x4) # 70 <XLEN+0x30>
    4100076c:	00031463          	bnez	x6,41000774 <trap_handler_m__skip_xepc_write>
    41000770:	34129073          	csrw	mepc,x5

0000000041000774 <trap_handler_m__skip_xepc_write>:
    41000774:	00000317          	auipc	x6,0x0
    41000778:	dd830313          	addi	x6,x6,-552 # 4100054c <trap_handler_m__trap_entry>
    4100077c:	30531073          	csrw	mtvec,x6
    41000780:	34021273          	csrrw	x4,mscratch,x4
    41000784:	30200073          	mret

0000000041000788 <trap_handler_m__trap_panic>:
    41000788:	00000193          	li	x3,0
    4100078c:	2b40006f          	j	41000a40 <eot__end_test>

0000000041000790 <enter_scheduler>:
    41000790:	0002f337          	lui	x6,0x2f
    41000794:	ab73031b          	addiw	x6,x6,-1353 # 2eab7 <__section_data_1+0x13ab7>
    41000798:	00e31313          	slli	x6,x6,0xe
    4100079c:	0de30313          	addi	x6,x6,222
    410007a0:	02628063          	beq	x5,x6,410007c0 <test_failed>
    410007a4:	00000513          	li	x10,0
    410007a8:	030000ef          	jal	410007d8 <rvcp_print_test_result>
    410007ac:	3180006f          	j	41000ac4 <scheduler__dispatch>

00000000410007b0 <test_passed>:
    410007b0:	34021273          	csrrw	x4,mscratch,x4
    410007b4:	00000513          	li	x10,0
    410007b8:	020000ef          	jal	410007d8 <rvcp_print_test_result>
    410007bc:	3080006f          	j	41000ac4 <scheduler__dispatch>

00000000410007c0 <test_failed>:
    410007c0:	34021273          	csrrw	x4,mscratch,x4
    410007c4:	00300193          	li	x3,3
    410007c8:	2780006f          	j	41000a40 <eot__end_test>

00000000410007cc <os_end_test>:
    410007cc:	34021273          	csrrw	x4,mscratch,x4
    410007d0:	00100193          	li	x3,1
    410007d4:	26c0006f          	j	41000a40 <eot__end_test>

00000000410007d8 <rvcp_print_test_result>:
    410007d8:	00050e13          	mv	x28,x10
    410007dc:	18823283          	ld	x5,392(x4) # 188 <XLEN+0x148>
    410007e0:	0010031b          	addiw	x6,x0,1
    410007e4:	02031313          	slli	x6,x6,0x20
    410007e8:	ffe30313          	addi	x6,x6,-2
    410007ec:	1c628063          	beq	x5,x6,410009ac <rvcp_print_test_result+0x1d4>
    410007f0:	0010031b          	addiw	x6,x0,1
    410007f4:	02031313          	slli	x6,x6,0x20
    410007f8:	fff30313          	addi	x6,x6,-1
    410007fc:	1a628863          	beq	x5,x6,410009ac <rvcp_print_test_result+0x1d4>
    41000800:	1a02c663          	bltz	x5,410009ac <rvcp_print_test_result+0x1d4>
    41000804:	00000317          	auipc	x6,0x0
    41000808:	4f030313          	addi	x6,x6,1264 # 41000cf4 <dtest_descriptor_table>
    4100080c:	00329393          	slli	x7,x5,0x3
    41000810:	00730333          	add	x6,x6,x7
    41000814:	00033e83          	ld	x29,0(x6)
    41000818:	44812f37          	lui	x30,0x44812
    4100081c:	030f0f1b          	addiw	x30,x30,48 # 44812030 <rvcp_prefix_str_pa>
    41000820:	000f4283          	lbu	x5,0(x30)
    41000824:	02028663          	beqz	x5,41000850 <rvcp_print_test_result+0x78>
    41000828:	1010031b          	addiw	x6,x0,257
    4100082c:	03031313          	slli	x6,x6,0x30
    41000830:	005362b3          	or	x5,x6,x5
    41000834:	0003f317          	auipc	x6,0x3f
    41000838:	7cc30313          	addi	x6,x6,1996 # 41040000 <tohost>
    4100083c:	00033383          	ld	x7,0(x6)
    41000840:	fe039ee3          	bnez	x7,4100083c <rvcp_print_test_result+0x64>
    41000844:	00533023          	sd	x5,0(x6)
    41000848:	001f0f13          	addi	x30,x30,1
    4100084c:	fd5ff06f          	j	41000820 <rvcp_print_test_result+0x48>
    41000850:	44812f37          	lui	x30,0x44812
    41000854:	041f0f1b          	addiw	x30,x30,65 # 44812041 <rvcp_testname_str_pa>
    41000858:	000f4283          	lbu	x5,0(x30)
    4100085c:	02028663          	beqz	x5,41000888 <rvcp_print_test_result+0xb0>
    41000860:	1010031b          	addiw	x6,x0,257
    41000864:	03031313          	slli	x6,x6,0x30
    41000868:	005362b3          	or	x5,x6,x5
    4100086c:	0003f317          	auipc	x6,0x3f
    41000870:	79430313          	addi	x6,x6,1940 # 41040000 <tohost>
    41000874:	00033383          	ld	x7,0(x6)
    41000878:	fe039ee3          	bnez	x7,41000874 <rvcp_print_test_result+0x9c>
    4100087c:	00533023          	sd	x5,0(x6)
    41000880:	001f0f13          	addi	x30,x30,1
    41000884:	fd5ff06f          	j	41000858 <rvcp_print_test_result+0x80>
    41000888:	44812f37          	lui	x30,0x44812
    4100088c:	070f0f1b          	addiw	x30,x30,112 # 44812070 <rvcp_space_str_pa>
    41000890:	000f4283          	lbu	x5,0(x30)
    41000894:	02028663          	beqz	x5,410008c0 <rvcp_print_test_result+0xe8>
    41000898:	1010031b          	addiw	x6,x0,257
    4100089c:	03031313          	slli	x6,x6,0x30
    410008a0:	005362b3          	or	x5,x6,x5
    410008a4:	0003f317          	auipc	x6,0x3f
    410008a8:	75c30313          	addi	x6,x6,1884 # 41040000 <tohost>
    410008ac:	00033383          	ld	x7,0(x6)
    410008b0:	fe039ee3          	bnez	x7,410008ac <rvcp_print_test_result+0xd4>
    410008b4:	00533023          	sd	x5,0(x6)
    410008b8:	001f0f13          	addi	x30,x30,1
    410008bc:	fd5ff06f          	j	41000890 <rvcp_print_test_result+0xb8>
    410008c0:	000e8f13          	mv	x30,x29
    410008c4:	000f4283          	lbu	x5,0(x30)
    410008c8:	02028663          	beqz	x5,410008f4 <rvcp_print_test_result+0x11c>
    410008cc:	1010031b          	addiw	x6,x0,257
    410008d0:	03031313          	slli	x6,x6,0x30
    410008d4:	005362b3          	or	x5,x6,x5
    410008d8:	0003f317          	auipc	x6,0x3f
    410008dc:	72830313          	addi	x6,x6,1832 # 41040000 <tohost>
    410008e0:	00033383          	ld	x7,0(x6)
    410008e4:	fe039ee3          	bnez	x7,410008e0 <rvcp_print_test_result+0x108>
    410008e8:	00533023          	sd	x5,0(x6)
    410008ec:	001f0f13          	addi	x30,x30,1
    410008f0:	fd5ff06f          	j	410008c4 <rvcp_print_test_result+0xec>
    410008f4:	44812f37          	lui	x30,0x44812
    410008f8:	070f0f1b          	addiw	x30,x30,112 # 44812070 <rvcp_space_str_pa>
    410008fc:	000f4283          	lbu	x5,0(x30)
    41000900:	02028663          	beqz	x5,4100092c <rvcp_print_test_result+0x154>
    41000904:	1010031b          	addiw	x6,x0,257
    41000908:	03031313          	slli	x6,x6,0x30
    4100090c:	005362b3          	or	x5,x6,x5
    41000910:	0003f317          	auipc	x6,0x3f
    41000914:	6f030313          	addi	x6,x6,1776 # 41040000 <tohost>
    41000918:	00033383          	ld	x7,0(x6)
    4100091c:	fe039ee3          	bnez	x7,41000918 <rvcp_print_test_result+0x140>
    41000920:	00533023          	sd	x5,0(x6)
    41000924:	001f0f13          	addi	x30,x30,1
    41000928:	fd5ff06f          	j	410008fc <rvcp_print_test_result+0x124>
    4100092c:	000e1863          	bnez	x28,4100093c <rvcp_print_test_result+0x164>
    41000930:	44812f37          	lui	x30,0x44812
    41000934:	062f0f1b          	addiw	x30,x30,98 # 44812062 <rvcp_passed_str_pa>
    41000938:	00c0006f          	j	41000944 <rvcp_print_test_result+0x16c>
    4100093c:	44812f37          	lui	x30,0x44812
    41000940:	069f0f1b          	addiw	x30,x30,105 # 44812069 <rvcp_failed_str_pa>
    41000944:	000f4283          	lbu	x5,0(x30)
    41000948:	02028663          	beqz	x5,41000974 <rvcp_print_test_result+0x19c>
    4100094c:	1010031b          	addiw	x6,x0,257
    41000950:	03031313          	slli	x6,x6,0x30
    41000954:	005362b3          	or	x5,x6,x5
    41000958:	0003f317          	auipc	x6,0x3f
    4100095c:	6a830313          	addi	x6,x6,1704 # 41040000 <tohost>
    41000960:	00033383          	ld	x7,0(x6)
    41000964:	fe039ee3          	bnez	x7,41000960 <rvcp_print_test_result+0x188>
    41000968:	00533023          	sd	x5,0(x6)
    4100096c:	001f0f13          	addi	x30,x30,1
    41000970:	fd5ff06f          	j	41000944 <rvcp_print_test_result+0x16c>
    41000974:	44812f37          	lui	x30,0x44812
    41000978:	072f0f1b          	addiw	x30,x30,114 # 44812072 <rvcp_newline_str_pa>
    4100097c:	000f4283          	lbu	x5,0(x30)
    41000980:	02028663          	beqz	x5,410009ac <rvcp_print_test_result+0x1d4>
    41000984:	1010031b          	addiw	x6,x0,257
    41000988:	03031313          	slli	x6,x6,0x30
    4100098c:	005362b3          	or	x5,x6,x5
    41000990:	0003f317          	auipc	x6,0x3f
    41000994:	67030313          	addi	x6,x6,1648 # 41040000 <tohost>
    41000998:	00033383          	ld	x7,0(x6)
    4100099c:	fe039ee3          	bnez	x7,41000998 <rvcp_print_test_result+0x1c0>
    410009a0:	00533023          	sd	x5,0(x6)
    410009a4:	001f0f13          	addi	x30,x30,1
    410009a8:	fd5ff06f          	j	4100097c <rvcp_print_test_result+0x1a4>
    410009ac:	00008067          	ret

00000000410009b0 <os_rng_orig>:
    410009b0:	f14023f3          	csrr	x7,mhartid
    410009b4:	00068313          	mv	x6,x13
    410009b8:	026383b3          	mul	x7,x7,x6
    410009bc:	00058313          	mv	x6,x11
    410009c0:	00730333          	add	x6,x6,x7
    410009c4:	00033283          	ld	x5,0(x6)
    410009c8:	01529313          	slli	x6,x5,0x15
    410009cc:	0062c2b3          	xor	x5,x5,x6
    410009d0:	0232d313          	srli	x6,x5,0x23
    410009d4:	0062c2b3          	xor	x5,x5,x6
    410009d8:	00429313          	slli	x6,x5,0x4
    410009dc:	0062c2b3          	xor	x5,x5,x6
    410009e0:	00058313          	mv	x6,x11
    410009e4:	00730333          	add	x6,x6,x7
    410009e8:	00533023          	sd	x5,0(x6)
    410009ec:	00060313          	mv	x6,x12
    410009f0:	0262f2b3          	remu	x5,x5,x6
    410009f4:	00028513          	mv	x10,x5
    410009f8:	00008067          	ret
    410009fc:	02a00513          	li	x10,42
    41000a00:	001965b7          	lui	x11,0x196
    41000a04:	60d5859b          	addiw	x11,x11,1549 # 19660d <mem3+0x13960d>
    41000a08:	3c6ef637          	lui	x12,0x3c6ef
    41000a0c:	35f6061b          	addiw	x12,x12,863 # 3c6ef35f <mem9+0x24f0135f>
    41000a10:	02200693          	li	x13,34
    41000a14:	02b50533          	mul	x10,x10,x11
    41000a18:	00c50533          	add	x10,x10,x12
    41000a1c:	02d56533          	rem	x10,x10,x13
    41000a20:	00b00593          	li	x11,11
    41000a24:	02b56533          	rem	x10,x10,x11
    41000a28:	00008067          	ret
    41000a2c:	0000                	.insn	2, 0x0000
	...

0000000041000a30 <tohost_mutex>:
	...

0000000041000a38 <tohost_addr_mem>:
    41000a38:	0000                	.insn	2, 0x0000
    41000a3a:	4104                	.insn	2, 0x4104
    41000a3c:	0000                	.insn	2, 0x0000
	...

0000000041000a40 <eot__end_test>:
    41000a40:	00100293          	li	x5,1
    41000a44:	00328463          	beq	x5,x3,41000a4c <eot__passed>
    41000a48:	01c0006f          	j	41000a64 <eot__failed>

0000000041000a4c <eot__passed>:
    41000a4c:	0ff0000f          	fence
    41000a50:	00000297          	auipc	x5,0x0
    41000a54:	fe82b283          	ld	x5,-24(x5) # 41000a38 <tohost_addr_mem>
    41000a58:	00100313          	li	x6,1
    41000a5c:	0062a023          	sw	x6,0(x5)
    41000a60:	0240006f          	j	41000a84 <eot__halt>

0000000041000a64 <eot__failed>:
    41000a64:	00100513          	li	x10,1
    41000a68:	d71ff0ef          	jal	410007d8 <rvcp_print_test_result>
    41000a6c:	0ff0000f          	fence
    41000a70:	00000297          	auipc	x5,0x0
    41000a74:	fc82b283          	ld	x5,-56(x5) # 41000a38 <tohost_addr_mem>
    41000a78:	00300313          	li	x6,3
    41000a7c:	0062a023          	sw	x6,0(x5)
    41000a80:	0040006f          	j	41000a84 <eot__halt>

0000000041000a84 <eot__halt>:
    41000a84:	10500073          	wfi
    41000a88:	ffdff06f          	j	41000a84 <eot__halt>

0000000041000a8c <scheduler__init>:
    41000a8c:	00000297          	auipc	x5,0x0
    41000a90:	0d028293          	addi	x5,x5,208 # 41000b5c <scheduler__panic>
    41000a94:	305292f3          	csrrw	x5,mtvec,x5
    41000a98:	18523023          	sd	x5,384(x4) # 180 <XLEN+0x140>
    41000a9c:	03100293          	li	x5,49
    41000aa0:	18523823          	sd	x5,400(x4) # 190 <XLEN+0x150>
    41000aa4:	0010029b          	addiw	x5,x0,1
    41000aa8:	02029293          	slli	x5,x5,0x20
    41000aac:	ffe28293          	addi	x5,x5,-2
    41000ab0:	18523423          	sd	x5,392(x4) # 188 <XLEN+0x148>
    41000ab4:	00000317          	auipc	x6,0x0
    41000ab8:	47030313          	addi	x6,x6,1136 # 41000f24 <scheduler__test_setup_ptr>
    41000abc:	00033303          	ld	x6,0(x6)
    41000ac0:	0740006f          	j	41000b34 <scheduler__execute_test>

0000000041000ac4 <scheduler__dispatch>:
    41000ac4:	00000297          	auipc	x5,0x0
    41000ac8:	09828293          	addi	x5,x5,152 # 41000b5c <scheduler__panic>
    41000acc:	305292f3          	csrrw	x5,mtvec,x5
    41000ad0:	18523023          	sd	x5,384(x4) # 180 <XLEN+0x140>

0000000041000ad4 <scheduler__csr_read_randomization>:
    41000ad4:	141022f3          	csrr	x5,sepc
    41000ad8:	105022f3          	csrr	x5,stvec
    41000adc:	10a022f3          	csrr	x5,0x10a
    41000ae0:	f14022f3          	csrr	x5,mhartid
    41000ae4:	143022f3          	csrr	x5,stval
    41000ae8:	b02022f3          	csrr	x5,minstret
    41000aec:	141022f3          	csrr	x5,sepc
    41000af0:	f15022f3          	csrr	x5,0xf15
    41000af4:	303022f3          	csrr	x5,mideleg

0000000041000af8 <scheduler__load_num_runs>:
    41000af8:	19023303          	ld	x6,400(x4) # 190 <XLEN+0x150>
    41000afc:	04030c63          	beqz	x6,41000b54 <scheduler__finished>

0000000041000b00 <scheduler__decrement_num_runs>:
    41000b00:	fff30393          	addi	x7,x6,-1
    41000b04:	18723823          	sd	x7,400(x4) # 190 <XLEN+0x150>
    41000b08:	00000e17          	auipc	x28,0x0
    41000b0c:	358e0e13          	addi	x28,x28,856 # 41000e60 <dtest_index_map>
    41000b10:	00239e93          	slli	x29,x7,0x2
    41000b14:	01de0e33          	add	x28,x28,x29
    41000b18:	000e2e03          	lw	x28,0(x28)
    41000b1c:	19c23423          	sd	x28,392(x4) # 188 <XLEN+0x148>

0000000041000b20 <scheduler__calc_test_pointer>:
    41000b20:	00339293          	slli	x5,x7,0x3

0000000041000b24 <scheduler__load_test_addr>:
    41000b24:	00000317          	auipc	x6,0x0
    41000b28:	04830313          	addi	x6,x6,72 # 41000b6c <os_test_sequence>
    41000b2c:	006282b3          	add	x5,x5,x6
    41000b30:	0002b303          	ld	x6,0(x5)

0000000041000b34 <scheduler__execute_test>:
    41000b34:	18023283          	ld	x5,384(x4) # 180 <XLEN+0x140>
    41000b38:	30529073          	csrw	mtvec,x5
    41000b3c:	34021273          	csrrw	x4,mscratch,x4
    41000b40:	00000213          	li	x4,0
    41000b44:	14131073          	csrw	sepc,x6
    41000b48:	10000293          	li	x5,256
    41000b4c:	1002b073          	csrc	sstatus,x5
    41000b50:	10200073          	sret

0000000041000b54 <scheduler__finished>:
    41000b54:	00100193          	li	x3,1
    41000b58:	ee9ff06f          	j	41000a40 <eot__end_test>

0000000041000b5c <scheduler__panic>:
    41000b5c:	00000193          	li	x3,0
    41000b60:	ee1ff06f          	j	41000a40 <eot__end_test>

0000000041000b64 <num_runs>:
    41000b64:	0031                	.insn	2, 0x0031
    41000b66:	0000                	.insn	2, 0x0000
    41000b68:	0000                	.insn	2, 0x0000
	...

0000000041000b6c <os_test_sequence>:
    41000b6c:	6a08                	.insn	2, 0x6a08
    41000b6e:	4101                	.insn	2, 0x4101
    41000b70:	0000                	.insn	2, 0x0000
    41000b72:	0000                	.insn	2, 0x0000
    41000b74:	6444                	.insn	2, 0x6444
    41000b76:	4101                	.insn	2, 0x4101
    41000b78:	0000                	.insn	2, 0x0000
    41000b7a:	0000                	.insn	2, 0x0000
    41000b7c:	57b4                	.insn	2, 0x57b4
    41000b7e:	4101                	.insn	2, 0x4101
    41000b80:	0000                	.insn	2, 0x0000
    41000b82:	0000                	.insn	2, 0x0000
    41000b84:	6654                	.insn	2, 0x6654
    41000b86:	4101                	.insn	2, 0x4101
    41000b88:	0000                	.insn	2, 0x0000
    41000b8a:	0000                	.insn	2, 0x0000
    41000b8c:	54d0                	.insn	2, 0x54d0
    41000b8e:	4101                	.insn	2, 0x4101
    41000b90:	0000                	.insn	2, 0x0000
    41000b92:	0000                	.insn	2, 0x0000
    41000b94:	51ec                	.insn	2, 0x51ec
    41000b96:	4101                	.insn	2, 0x4101
    41000b98:	0000                	.insn	2, 0x0000
    41000b9a:	0000                	.insn	2, 0x0000
    41000b9c:	5ddc                	.insn	2, 0x5ddc
    41000b9e:	4101                	.insn	2, 0x4101
    41000ba0:	0000                	.insn	2, 0x0000
    41000ba2:	0000                	.insn	2, 0x0000
    41000ba4:	50c0                	.insn	2, 0x50c0
    41000ba6:	4101                	.insn	2, 0x4101
    41000ba8:	0000                	.insn	2, 0x0000
    41000baa:	0000                	.insn	2, 0x0000
    41000bac:	5680                	.insn	2, 0x5680
    41000bae:	4101                	.insn	2, 0x4101
    41000bb0:	0000                	.insn	2, 0x0000
    41000bb2:	0000                	.insn	2, 0x0000
    41000bb4:	58e8                	.insn	2, 0x58e8
    41000bb6:	4101                	.insn	2, 0x4101
    41000bb8:	0000                	.insn	2, 0x0000
    41000bba:	0000                	.insn	2, 0x0000
    41000bbc:	5ddc                	.insn	2, 0x5ddc
    41000bbe:	4101                	.insn	2, 0x4101
    41000bc0:	0000                	.insn	2, 0x0000
    41000bc2:	0000                	.insn	2, 0x0000
    41000bc4:	5ddc                	.insn	2, 0x5ddc
    41000bc6:	4101                	.insn	2, 0x4101
    41000bc8:	0000                	.insn	2, 0x0000
    41000bca:	0000                	.insn	2, 0x0000
    41000bcc:	6654                	.insn	2, 0x6654
    41000bce:	4101                	.insn	2, 0x4101
    41000bd0:	0000                	.insn	2, 0x0000
    41000bd2:	0000                	.insn	2, 0x0000
    41000bd4:	6224                	.insn	2, 0x6224
    41000bd6:	4101                	.insn	2, 0x4101
    41000bd8:	0000                	.insn	2, 0x0000
    41000bda:	0000                	.insn	2, 0x0000
    41000bdc:	59a8                	.insn	2, 0x59a8
    41000bde:	4101                	.insn	2, 0x4101
    41000be0:	0000                	.insn	2, 0x0000
    41000be2:	0000                	.insn	2, 0x0000
    41000be4:	54d0                	.insn	2, 0x54d0
    41000be6:	4101                	.insn	2, 0x4101
    41000be8:	0000                	.insn	2, 0x0000
    41000bea:	0000                	.insn	2, 0x0000
    41000bec:	6000                	.insn	2, 0x6000
    41000bee:	4101                	.insn	2, 0x4101
    41000bf0:	0000                	.insn	2, 0x0000
    41000bf2:	0000                	.insn	2, 0x0000
    41000bf4:	6000                	.insn	2, 0x6000
    41000bf6:	4101                	.insn	2, 0x4101
    41000bf8:	0000                	.insn	2, 0x0000
    41000bfa:	0000                	.insn	2, 0x0000
    41000bfc:	5680                	.insn	2, 0x5680
    41000bfe:	4101                	.insn	2, 0x4101
    41000c00:	0000                	.insn	2, 0x0000
    41000c02:	0000                	.insn	2, 0x0000
    41000c04:	5970                	.insn	2, 0x5970
    41000c06:	4101                	.insn	2, 0x4101
    41000c08:	0000                	.insn	2, 0x0000
    41000c0a:	0000                	.insn	2, 0x0000
    41000c0c:	57b4                	.insn	2, 0x57b4
    41000c0e:	4101                	.insn	2, 0x4101
    41000c10:	0000                	.insn	2, 0x0000
    41000c12:	0000                	.insn	2, 0x0000
    41000c14:	58e8                	.insn	2, 0x58e8
    41000c16:	4101                	.insn	2, 0x4101
    41000c18:	0000                	.insn	2, 0x0000
    41000c1a:	0000                	.insn	2, 0x0000
    41000c1c:	5970                	.insn	2, 0x5970
    41000c1e:	4101                	.insn	2, 0x4101
    41000c20:	0000                	.insn	2, 0x0000
    41000c22:	0000                	.insn	2, 0x0000
    41000c24:	5a30                	.insn	2, 0x5a30
    41000c26:	4101                	.insn	2, 0x4101
    41000c28:	0000                	.insn	2, 0x0000
    41000c2a:	0000                	.insn	2, 0x0000
    41000c2c:	5be0                	.insn	2, 0x5be0
    41000c2e:	4101                	.insn	2, 0x4101
    41000c30:	0000                	.insn	2, 0x0000
    41000c32:	0000                	.insn	2, 0x0000
    41000c34:	54d0                	.insn	2, 0x54d0
    41000c36:	4101                	.insn	2, 0x4101
    41000c38:	0000                	.insn	2, 0x0000
    41000c3a:	0000                	.insn	2, 0x0000
    41000c3c:	51ec                	.insn	2, 0x51ec
    41000c3e:	4101                	.insn	2, 0x4101
    41000c40:	0000                	.insn	2, 0x0000
    41000c42:	0000                	.insn	2, 0x0000
    41000c44:	58e8                	.insn	2, 0x58e8
    41000c46:	4101                	.insn	2, 0x4101
    41000c48:	0000                	.insn	2, 0x0000
    41000c4a:	0000                	.insn	2, 0x0000
    41000c4c:	6444                	.insn	2, 0x6444
    41000c4e:	4101                	.insn	2, 0x4101
    41000c50:	0000                	.insn	2, 0x0000
    41000c52:	0000                	.insn	2, 0x0000
    41000c54:	59a8                	.insn	2, 0x59a8
    41000c56:	4101                	.insn	2, 0x4101
    41000c58:	0000                	.insn	2, 0x0000
    41000c5a:	0000                	.insn	2, 0x0000
    41000c5c:	5970                	.insn	2, 0x5970
    41000c5e:	4101                	.insn	2, 0x4101
    41000c60:	0000                	.insn	2, 0x0000
    41000c62:	0000                	.insn	2, 0x0000
    41000c64:	6654                	.insn	2, 0x6654
    41000c66:	4101                	.insn	2, 0x4101
    41000c68:	0000                	.insn	2, 0x0000
    41000c6a:	0000                	.insn	2, 0x0000
    41000c6c:	6224                	.insn	2, 0x6224
    41000c6e:	4101                	.insn	2, 0x4101
    41000c70:	0000                	.insn	2, 0x0000
    41000c72:	0000                	.insn	2, 0x0000
    41000c74:	50c0                	.insn	2, 0x50c0
    41000c76:	4101                	.insn	2, 0x4101
    41000c78:	0000                	.insn	2, 0x0000
    41000c7a:	0000                	.insn	2, 0x0000
    41000c7c:	5a30                	.insn	2, 0x5a30
    41000c7e:	4101                	.insn	2, 0x4101
    41000c80:	0000                	.insn	2, 0x0000
    41000c82:	0000                	.insn	2, 0x0000
    41000c84:	6224                	.insn	2, 0x6224
    41000c86:	4101                	.insn	2, 0x4101
    41000c88:	0000                	.insn	2, 0x0000
    41000c8a:	0000                	.insn	2, 0x0000
    41000c8c:	50c0                	.insn	2, 0x50c0
    41000c8e:	4101                	.insn	2, 0x4101
    41000c90:	0000                	.insn	2, 0x0000
    41000c92:	0000                	.insn	2, 0x0000
    41000c94:	6444                	.insn	2, 0x6444
    41000c96:	4101                	.insn	2, 0x4101
    41000c98:	0000                	.insn	2, 0x0000
    41000c9a:	0000                	.insn	2, 0x0000
    41000c9c:	5320                	.insn	2, 0x5320
    41000c9e:	4101                	.insn	2, 0x4101
    41000ca0:	0000                	.insn	2, 0x0000
    41000ca2:	0000                	.insn	2, 0x0000
    41000ca4:	5680                	.insn	2, 0x5680
    41000ca6:	4101                	.insn	2, 0x4101
    41000ca8:	0000                	.insn	2, 0x0000
    41000caa:	0000                	.insn	2, 0x0000
    41000cac:	59a8                	.insn	2, 0x59a8
    41000cae:	4101                	.insn	2, 0x4101
    41000cb0:	0000                	.insn	2, 0x0000
    41000cb2:	0000                	.insn	2, 0x0000
    41000cb4:	5be0                	.insn	2, 0x5be0
    41000cb6:	4101                	.insn	2, 0x4101
    41000cb8:	0000                	.insn	2, 0x0000
    41000cba:	0000                	.insn	2, 0x0000
    41000cbc:	5a30                	.insn	2, 0x5a30
    41000cbe:	4101                	.insn	2, 0x4101
    41000cc0:	0000                	.insn	2, 0x0000
    41000cc2:	0000                	.insn	2, 0x0000
    41000cc4:	5be0                	.insn	2, 0x5be0
    41000cc6:	4101                	.insn	2, 0x4101
    41000cc8:	0000                	.insn	2, 0x0000
    41000cca:	0000                	.insn	2, 0x0000
    41000ccc:	5320                	.insn	2, 0x5320
    41000cce:	4101                	.insn	2, 0x4101
    41000cd0:	0000                	.insn	2, 0x0000
    41000cd2:	0000                	.insn	2, 0x0000
    41000cd4:	57b4                	.insn	2, 0x57b4
    41000cd6:	4101                	.insn	2, 0x4101
    41000cd8:	0000                	.insn	2, 0x0000
    41000cda:	0000                	.insn	2, 0x0000
    41000cdc:	51ec                	.insn	2, 0x51ec
    41000cde:	4101                	.insn	2, 0x4101
    41000ce0:	0000                	.insn	2, 0x0000
    41000ce2:	0000                	.insn	2, 0x0000
    41000ce4:	6000                	.insn	2, 0x6000
    41000ce6:	4101                	.insn	2, 0x4101
    41000ce8:	0000                	.insn	2, 0x0000
    41000cea:	0000                	.insn	2, 0x0000
    41000cec:	5320                	.insn	2, 0x5320
    41000cee:	4101                	.insn	2, 0x4101
    41000cf0:	0000                	.insn	2, 0x0000
	...

0000000041000cf4 <dtest_descriptor_table>:
    41000cf4:	0d74                	.insn	2, 0x0d74
    41000cf6:	4100                	.insn	2, 0x4100
    41000cf8:	0000                	.insn	2, 0x0000
    41000cfa:	0000                	.insn	2, 0x0000
    41000cfc:	0d82                	.insn	2, 0x0d82
    41000cfe:	4100                	.insn	2, 0x4100
    41000d00:	0000                	.insn	2, 0x0000
    41000d02:	0000                	.insn	2, 0x0000
    41000d04:	0d90                	.insn	2, 0x0d90
    41000d06:	4100                	.insn	2, 0x4100
    41000d08:	0000                	.insn	2, 0x0000
    41000d0a:	0000                	.insn	2, 0x0000
    41000d0c:	0d9e                	.insn	2, 0x0d9e
    41000d0e:	4100                	.insn	2, 0x4100
    41000d10:	0000                	.insn	2, 0x0000
    41000d12:	0000                	.insn	2, 0x0000
    41000d14:	0dac                	.insn	2, 0x0dac
    41000d16:	4100                	.insn	2, 0x4100
    41000d18:	0000                	.insn	2, 0x0000
    41000d1a:	0000                	.insn	2, 0x0000
    41000d1c:	0dba                	.insn	2, 0x0dba
    41000d1e:	4100                	.insn	2, 0x4100
    41000d20:	0000                	.insn	2, 0x0000
    41000d22:	0000                	.insn	2, 0x0000
    41000d24:	0dc8                	.insn	2, 0x0dc8
    41000d26:	4100                	.insn	2, 0x4100
    41000d28:	0000                	.insn	2, 0x0000
    41000d2a:	0000                	.insn	2, 0x0000
    41000d2c:	0dd6                	.insn	2, 0x0dd6
    41000d2e:	4100                	.insn	2, 0x4100
    41000d30:	0000                	.insn	2, 0x0000
    41000d32:	0000                	.insn	2, 0x0000
    41000d34:	0de4                	.insn	2, 0x0de4
    41000d36:	4100                	.insn	2, 0x4100
    41000d38:	0000                	.insn	2, 0x0000
    41000d3a:	0000                	.insn	2, 0x0000
    41000d3c:	0df2                	.insn	2, 0x0df2
    41000d3e:	4100                	.insn	2, 0x4100
    41000d40:	0000                	.insn	2, 0x0000
    41000d42:	0000                	.insn	2, 0x0000
    41000d44:	0e00                	.insn	2, 0x0e00
    41000d46:	4100                	.insn	2, 0x4100
    41000d48:	0000                	.insn	2, 0x0000
    41000d4a:	0000                	.insn	2, 0x0000
    41000d4c:	0e0e                	.insn	2, 0x0e0e
    41000d4e:	4100                	.insn	2, 0x4100
    41000d50:	0000                	.insn	2, 0x0000
    41000d52:	0000                	.insn	2, 0x0000
    41000d54:	0e1c                	.insn	2, 0x0e1c
    41000d56:	4100                	.insn	2, 0x4100
    41000d58:	0000                	.insn	2, 0x0000
    41000d5a:	0000                	.insn	2, 0x0000
    41000d5c:	0e2a                	.insn	2, 0x0e2a
    41000d5e:	4100                	.insn	2, 0x4100
    41000d60:	0000                	.insn	2, 0x0000
    41000d62:	0000                	.insn	2, 0x0000
    41000d64:	0e38                	.insn	2, 0x0e38
    41000d66:	4100                	.insn	2, 0x4100
    41000d68:	0000                	.insn	2, 0x0000
    41000d6a:	0000                	.insn	2, 0x0000
    41000d6c:	0e46                	.insn	2, 0x0e46
    41000d6e:	4100                	.insn	2, 0x4100
    41000d70:	0000                	.insn	2, 0x0000
	...

0000000041000d74 <dtest_name_0>:
    41000d74:	5f444953          	.insn	4, 0x5f444953
    41000d78:	495a                	.insn	2, 0x495a
    41000d7a:	5f4f4243          	.insn	4, 0x5f4f4243
    41000d7e:	3030                	.insn	2, 0x3030
    41000d80:	0031                	.insn	2, 0x0031

0000000041000d82 <dtest_name_1>:
    41000d82:	5f444953          	.insn	4, 0x5f444953
    41000d86:	495a                	.insn	2, 0x495a
    41000d88:	5f4f4243          	.insn	4, 0x5f4f4243
    41000d8c:	3030                	.insn	2, 0x3030
    41000d8e:	0032                	.insn	2, 0x0032

0000000041000d90 <dtest_name_2>:
    41000d90:	5f444953          	.insn	4, 0x5f444953
    41000d94:	495a                	.insn	2, 0x495a
    41000d96:	5f4f4243          	.insn	4, 0x5f4f4243
    41000d9a:	3030                	.insn	2, 0x3030
    41000d9c:	          	.insn	4, 0x49530033

0000000041000d9e <dtest_name_3>:
    41000d9e:	5f444953          	.insn	4, 0x5f444953
    41000da2:	495a                	.insn	2, 0x495a
    41000da4:	5f4f4243          	.insn	4, 0x5f4f4243
    41000da8:	3030                	.insn	2, 0x3030
    41000daa:	0034                	.insn	2, 0x0034

0000000041000dac <dtest_name_4>:
    41000dac:	5f444953          	.insn	4, 0x5f444953
    41000db0:	495a                	.insn	2, 0x495a
    41000db2:	5f4f4243          	.insn	4, 0x5f4f4243
    41000db6:	3030                	.insn	2, 0x3030
    41000db8:	0035                	.insn	2, 0x0035

0000000041000dba <dtest_name_5>:
    41000dba:	5f444953          	.insn	4, 0x5f444953
    41000dbe:	495a                	.insn	2, 0x495a
    41000dc0:	5f4f4243          	.insn	4, 0x5f4f4243
    41000dc4:	3030                	.insn	2, 0x3030
    41000dc6:	0036                	.insn	2, 0x0036

0000000041000dc8 <dtest_name_6>:
    41000dc8:	5f444953          	.insn	4, 0x5f444953
    41000dcc:	495a                	.insn	2, 0x495a
    41000dce:	5f4f4243          	.insn	4, 0x5f4f4243
    41000dd2:	3130                	.insn	2, 0x3130
    41000dd4:	          	.insn	4, 0x49530033

0000000041000dd6 <dtest_name_7>:
    41000dd6:	5f444953          	.insn	4, 0x5f444953
    41000dda:	495a                	.insn	2, 0x495a
    41000ddc:	5f4f4243          	.insn	4, 0x5f4f4243
    41000de0:	3130                	.insn	2, 0x3130
    41000de2:	0035                	.insn	2, 0x0035

0000000041000de4 <dtest_name_8>:
    41000de4:	5f444953          	.insn	4, 0x5f444953
    41000de8:	495a                	.insn	2, 0x495a
    41000dea:	5f4f4243          	.insn	4, 0x5f4f4243
    41000dee:	3130                	.insn	2, 0x3130
    41000df0:	0036                	.insn	2, 0x0036

0000000041000df2 <dtest_name_9>:
    41000df2:	5f444953          	.insn	4, 0x5f444953
    41000df6:	495a                	.insn	2, 0x495a
    41000df8:	5f4f4243          	.insn	4, 0x5f4f4243
    41000dfc:	3130                	.insn	2, 0x3130
    41000dfe:	          	lui	x0,0x49530

0000000041000e00 <dtest_name_10>:
    41000e00:	5f444953          	.insn	4, 0x5f444953
    41000e04:	495a                	.insn	2, 0x495a
    41000e06:	5f4f4243          	.insn	4, 0x5f4f4243
    41000e0a:	3130                	.insn	2, 0x3130
    41000e0c:	0038                	.insn	2, 0x0038

0000000041000e0e <dtest_name_11>:
    41000e0e:	5f444953          	.insn	4, 0x5f444953
    41000e12:	495a                	.insn	2, 0x495a
    41000e14:	5f4f4243          	.insn	4, 0x5f4f4243
    41000e18:	3130                	.insn	2, 0x3130
    41000e1a:	0039                	.insn	2, 0x0039

0000000041000e1c <dtest_name_12>:
    41000e1c:	5f444953          	.insn	4, 0x5f444953
    41000e20:	495a                	.insn	2, 0x495a
    41000e22:	5f4f4243          	.insn	4, 0x5f4f4243
    41000e26:	3230                	.insn	2, 0x3230
    41000e28:	0030                	.insn	2, 0x0030

0000000041000e2a <dtest_name_13>:
    41000e2a:	5f444953          	.insn	4, 0x5f444953
    41000e2e:	495a                	.insn	2, 0x495a
    41000e30:	5f4f4243          	.insn	4, 0x5f4f4243
    41000e34:	3430                	.insn	2, 0x3430
    41000e36:	          	lui	x0,0x49530

0000000041000e38 <dtest_name_14>:
    41000e38:	5f444953          	.insn	4, 0x5f444953
    41000e3c:	495a                	.insn	2, 0x495a
    41000e3e:	5f4f4243          	.insn	4, 0x5f4f4243
    41000e42:	3430                	.insn	2, 0x3430
    41000e44:	0039                	.insn	2, 0x0039

0000000041000e46 <dtest_name_15>:
    41000e46:	5f444953          	.insn	4, 0x5f444953
    41000e4a:	495a                	.insn	2, 0x495a
    41000e4c:	5f4f4243          	.insn	4, 0x5f4f4243
    41000e50:	3035                	.insn	2, 0x3035
    41000e52:	5a5f 4349 3436      	.insn	6, 0x343643495a5f
    41000e58:	5f42                	.insn	2, 0x5f42
    41000e5a:	3130                	.insn	2, 0x3130
    41000e5c:	0000                	.insn	2, 0x0000
	...

0000000041000e60 <dtest_index_map>:
    41000e60:	ffff                	.insn	2, 0xffff
    41000e62:	ffff                	.insn	2, 0xffff
    41000e64:	000e                	.insn	2, 0x000e
    41000e66:	0000                	.insn	2, 0x0000
    41000e68:	0005                	.insn	2, 0x0005
    41000e6a:	0000                	.insn	2, 0x0000
    41000e6c:	0000000f          	fence	unknown,unknown
    41000e70:	00000003          	lb	x0,0(x0) # 0 <ALL_4KB_PAGES>
    41000e74:	0001                	.insn	2, 0x0001
    41000e76:	0000                	.insn	2, 0x0000
    41000e78:	0000000b          	.insn	4, 0x000b
    41000e7c:	0000                	.insn	2, 0x0000
    41000e7e:	0000                	.insn	2, 0x0000
    41000e80:	0004                	.insn	2, 0x0004
    41000e82:	0000                	.insn	2, 0x0000
    41000e84:	0006                	.insn	2, 0x0006
    41000e86:	0000                	.insn	2, 0x0000
    41000e88:	0000000b          	.insn	4, 0x000b
    41000e8c:	0000000b          	.insn	4, 0x000b
    41000e90:	0000000f          	fence	unknown,unknown
    41000e94:	000d                	.insn	2, 0x000d
    41000e96:	0000                	.insn	2, 0x0000
    41000e98:	0008                	.insn	2, 0x0008
    41000e9a:	0000                	.insn	2, 0x0000
    41000e9c:	00000003          	lb	x0,0(x0) # 0 <ALL_4KB_PAGES>
    41000ea0:	000c                	.insn	2, 0x000c
    41000ea2:	0000                	.insn	2, 0x0000
    41000ea4:	000c                	.insn	2, 0x000c
    41000ea6:	0000                	.insn	2, 0x0000
    41000ea8:	0004                	.insn	2, 0x0004
    41000eaa:	0000                	.insn	2, 0x0000
    41000eac:	00000007          	vle8.v	v0,(x0),v0.t
    41000eb0:	0005                	.insn	2, 0x0005
    41000eb2:	0000                	.insn	2, 0x0000
    41000eb4:	0006                	.insn	2, 0x0006
    41000eb6:	0000                	.insn	2, 0x0000
    41000eb8:	00000007          	vle8.v	v0,(x0),v0.t
    41000ebc:	0009                	.insn	2, 0x0009
    41000ebe:	0000                	.insn	2, 0x0000
    41000ec0:	000a                	.insn	2, 0x000a
    41000ec2:	0000                	.insn	2, 0x0000
    41000ec4:	00000003          	lb	x0,0(x0) # 0 <ALL_4KB_PAGES>
    41000ec8:	0001                	.insn	2, 0x0001
    41000eca:	0000                	.insn	2, 0x0000
    41000ecc:	0006                	.insn	2, 0x0006
    41000ece:	0000                	.insn	2, 0x0000
    41000ed0:	000e                	.insn	2, 0x000e
    41000ed2:	0000                	.insn	2, 0x0000
    41000ed4:	0008                	.insn	2, 0x0008
    41000ed6:	0000                	.insn	2, 0x0000
    41000ed8:	00000007          	vle8.v	v0,(x0),v0.t
    41000edc:	0000000f          	fence	unknown,unknown
    41000ee0:	000d                	.insn	2, 0x000d
    41000ee2:	0000                	.insn	2, 0x0000
    41000ee4:	0000                	.insn	2, 0x0000
    41000ee6:	0000                	.insn	2, 0x0000
    41000ee8:	0009                	.insn	2, 0x0009
    41000eea:	0000                	.insn	2, 0x0000
    41000eec:	000d                	.insn	2, 0x000d
    41000eee:	0000                	.insn	2, 0x0000
    41000ef0:	0000                	.insn	2, 0x0000
    41000ef2:	0000                	.insn	2, 0x0000
    41000ef4:	000e                	.insn	2, 0x000e
    41000ef6:	0000                	.insn	2, 0x0000
    41000ef8:	0002                	.insn	2, 0x0002
    41000efa:	0000                	.insn	2, 0x0000
    41000efc:	0004                	.insn	2, 0x0004
    41000efe:	0000                	.insn	2, 0x0000
    41000f00:	0008                	.insn	2, 0x0008
    41000f02:	0000                	.insn	2, 0x0000
    41000f04:	000a                	.insn	2, 0x000a
    41000f06:	0000                	.insn	2, 0x0000
    41000f08:	0009                	.insn	2, 0x0009
    41000f0a:	0000                	.insn	2, 0x0000
    41000f0c:	000a                	.insn	2, 0x000a
    41000f0e:	0000                	.insn	2, 0x0000
    41000f10:	0002                	.insn	2, 0x0002
    41000f12:	0000                	.insn	2, 0x0000
    41000f14:	0005                	.insn	2, 0x0005
    41000f16:	0000                	.insn	2, 0x0000
    41000f18:	0001                	.insn	2, 0x0001
    41000f1a:	0000                	.insn	2, 0x0000
    41000f1c:	000c                	.insn	2, 0x000c
    41000f1e:	0000                	.insn	2, 0x0000
    41000f20:	0002                	.insn	2, 0x0002
	...

0000000041000f24 <scheduler__test_setup_ptr>:
    41000f24:	50b0                	.insn	2, 0x50b0
    41000f26:	4101                	.insn	2, 0x4101
    41000f28:	0000                	.insn	2, 0x0000
	...

0000000041000f2c <scheduler__test_cleanup_ptr>:
    41000f2c:	6a08                	.insn	2, 0x6a08
    41000f2e:	4101                	.insn	2, 0x4101
    41000f30:	0000                	.insn	2, 0x0000
	...

Disassembly of section .runtime_s:

0000000041011000 <trap_handler_s__invalid_interrupt>:
    41011000:	1740006f          	j	41011174 <trap_handler_s__test_failed>

0000000041011004 <trap_handler_s__clear_all_interrupts>:
    41011004:	14401073          	csrw	sip,x0
    41011008:	10200073          	sret

000000004101100c <trap_handler_s___CLEAR_SSI>:
    4101100c:	00200293          	li	x5,2
    41011010:	1442b073          	csrc	sip,x5
    41011014:	10200073          	sret

0000000041011018 <trap_handler_s___CLEAR_MSI>:
    41011018:	00800293          	li	x5,8
    4101101c:	1442b073          	csrc	sip,x5
    41011020:	10200073          	sret

0000000041011024 <trap_handler_s___CLEAR_STI>:
    41011024:	02000293          	li	x5,32
    41011028:	1442b073          	csrc	sip,x5
    4101102c:	10200073          	sret

0000000041011030 <trap_handler_s___CLEAR_MTI>:
    41011030:	08000293          	li	x5,128
    41011034:	1442b073          	csrc	sip,x5
    41011038:	10200073          	sret

000000004101103c <trap_handler_s___CLEAR_SEI>:
    4101103c:	20000293          	li	x5,512
    41011040:	1442b073          	csrc	sip,x5
    41011044:	10200073          	sret

0000000041011048 <trap_handler_s___CLEAR_MEI>:
    41011048:	000012b7          	lui	x5,0x1
    4101104c:	8002829b          	addiw	x5,x5,-2048 # 800 <XLEN+0x7c0>
    41011050:	1442b073          	csrc	sip,x5
    41011054:	10200073          	sret

0000000041011058 <trap_handler_s___CLEAR_COI>:
    41011058:	000022b7          	lui	x5,0x2
    4101105c:	1442b073          	csrc	sip,x5
    41011060:	10200073          	sret

0000000041011064 <trap_handler_s__clear_highest_priority_interrupt>:
    41011064:	144022f3          	csrr	x5,sip
    41011068:	40500333          	neg	x6,x5
    4101106c:	0062f2b3          	and	x5,x5,x6
    41011070:	1442b073          	csrc	sip,x5
    41011074:	10200073          	sret

0000000041011078 <trap_handler_s__trap_entry>:
    41011078:	10c0006f          	j	41011184 <trap_handler_s__trap_handler>

000000004101107c <trap_handler_s__interrupt_vector_table>:
    4101107c:	f91ff06f          	j	4101100c <trap_handler_s___CLEAR_SSI>
    41011080:	f81ff06f          	j	41011000 <trap_handler_s__invalid_interrupt>
    41011084:	f95ff06f          	j	41011018 <trap_handler_s___CLEAR_MSI>
    41011088:	f79ff06f          	j	41011000 <trap_handler_s__invalid_interrupt>
    4101108c:	f99ff06f          	j	41011024 <trap_handler_s___CLEAR_STI>
    41011090:	f71ff06f          	j	41011000 <trap_handler_s__invalid_interrupt>
    41011094:	f9dff06f          	j	41011030 <trap_handler_s___CLEAR_MTI>
    41011098:	f69ff06f          	j	41011000 <trap_handler_s__invalid_interrupt>
    4101109c:	fa1ff06f          	j	4101103c <trap_handler_s___CLEAR_SEI>
    410110a0:	f61ff06f          	j	41011000 <trap_handler_s__invalid_interrupt>
    410110a4:	fa5ff06f          	j	41011048 <trap_handler_s___CLEAR_MEI>
    410110a8:	f59ff06f          	j	41011000 <trap_handler_s__invalid_interrupt>
    410110ac:	fadff06f          	j	41011058 <trap_handler_s___CLEAR_COI>
    410110b0:	f51ff06f          	j	41011000 <trap_handler_s__invalid_interrupt>
    410110b4:	f4dff06f          	j	41011000 <trap_handler_s__invalid_interrupt>
    410110b8:	fadff06f          	j	41011064 <trap_handler_s__clear_highest_priority_interrupt>
    410110bc:	fa9ff06f          	j	41011064 <trap_handler_s__clear_highest_priority_interrupt>
    410110c0:	fa5ff06f          	j	41011064 <trap_handler_s__clear_highest_priority_interrupt>
    410110c4:	fa1ff06f          	j	41011064 <trap_handler_s__clear_highest_priority_interrupt>
    410110c8:	f9dff06f          	j	41011064 <trap_handler_s__clear_highest_priority_interrupt>
    410110cc:	f99ff06f          	j	41011064 <trap_handler_s__clear_highest_priority_interrupt>
    410110d0:	f95ff06f          	j	41011064 <trap_handler_s__clear_highest_priority_interrupt>
    410110d4:	f91ff06f          	j	41011064 <trap_handler_s__clear_highest_priority_interrupt>
    410110d8:	f8dff06f          	j	41011064 <trap_handler_s__clear_highest_priority_interrupt>
    410110dc:	f89ff06f          	j	41011064 <trap_handler_s__clear_highest_priority_interrupt>
    410110e0:	f85ff06f          	j	41011064 <trap_handler_s__clear_highest_priority_interrupt>
    410110e4:	f81ff06f          	j	41011064 <trap_handler_s__clear_highest_priority_interrupt>
    410110e8:	f7dff06f          	j	41011064 <trap_handler_s__clear_highest_priority_interrupt>
    410110ec:	f79ff06f          	j	41011064 <trap_handler_s__clear_highest_priority_interrupt>
    410110f0:	f75ff06f          	j	41011064 <trap_handler_s__clear_highest_priority_interrupt>
    410110f4:	f71ff06f          	j	41011064 <trap_handler_s__clear_highest_priority_interrupt>
    410110f8:	f6dff06f          	j	41011064 <trap_handler_s__clear_highest_priority_interrupt>
    410110fc:	f69ff06f          	j	41011064 <trap_handler_s__clear_highest_priority_interrupt>
    41011100:	f65ff06f          	j	41011064 <trap_handler_s__clear_highest_priority_interrupt>
    41011104:	f61ff06f          	j	41011064 <trap_handler_s__clear_highest_priority_interrupt>
    41011108:	f5dff06f          	j	41011064 <trap_handler_s__clear_highest_priority_interrupt>
    4101110c:	f59ff06f          	j	41011064 <trap_handler_s__clear_highest_priority_interrupt>
    41011110:	f55ff06f          	j	41011064 <trap_handler_s__clear_highest_priority_interrupt>
    41011114:	f51ff06f          	j	41011064 <trap_handler_s__clear_highest_priority_interrupt>
    41011118:	f4dff06f          	j	41011064 <trap_handler_s__clear_highest_priority_interrupt>
    4101111c:	f49ff06f          	j	41011064 <trap_handler_s__clear_highest_priority_interrupt>
    41011120:	f45ff06f          	j	41011064 <trap_handler_s__clear_highest_priority_interrupt>
    41011124:	f41ff06f          	j	41011064 <trap_handler_s__clear_highest_priority_interrupt>
    41011128:	f3dff06f          	j	41011064 <trap_handler_s__clear_highest_priority_interrupt>
    4101112c:	f39ff06f          	j	41011064 <trap_handler_s__clear_highest_priority_interrupt>
    41011130:	f35ff06f          	j	41011064 <trap_handler_s__clear_highest_priority_interrupt>
    41011134:	f31ff06f          	j	41011064 <trap_handler_s__clear_highest_priority_interrupt>
    41011138:	f2dff06f          	j	41011064 <trap_handler_s__clear_highest_priority_interrupt>
    4101113c:	f29ff06f          	j	41011064 <trap_handler_s__clear_highest_priority_interrupt>
    41011140:	f25ff06f          	j	41011064 <trap_handler_s__clear_highest_priority_interrupt>
    41011144:	f21ff06f          	j	41011064 <trap_handler_s__clear_highest_priority_interrupt>
    41011148:	f1dff06f          	j	41011064 <trap_handler_s__clear_highest_priority_interrupt>
    4101114c:	f19ff06f          	j	41011064 <trap_handler_s__clear_highest_priority_interrupt>
    41011150:	f15ff06f          	j	41011064 <trap_handler_s__clear_highest_priority_interrupt>
    41011154:	f11ff06f          	j	41011064 <trap_handler_s__clear_highest_priority_interrupt>
    41011158:	f0dff06f          	j	41011064 <trap_handler_s__clear_highest_priority_interrupt>
    4101115c:	f09ff06f          	j	41011064 <trap_handler_s__clear_highest_priority_interrupt>
    41011160:	f05ff06f          	j	41011064 <trap_handler_s__clear_highest_priority_interrupt>
    41011164:	f01ff06f          	j	41011064 <trap_handler_s__clear_highest_priority_interrupt>
    41011168:	efdff06f          	j	41011064 <trap_handler_s__clear_highest_priority_interrupt>
    4101116c:	ef9ff06f          	j	41011064 <trap_handler_s__clear_highest_priority_interrupt>
    41011170:	ef5ff06f          	j	41011064 <trap_handler_s__clear_highest_priority_interrupt>

0000000041011174 <trap_handler_s__test_failed>:
    41011174:	00f00f9b          	addiw	x31,x0,15
    41011178:	01cf9f93          	slli	x31,x31,0x1c
    4101117c:	002f8f93          	addi	x31,x31,2
    41011180:	00000073          	ecall

0000000041011184 <trap_handler_s__trap_handler>:
    41011184:	142022f3          	csrr	x5,scause
    41011188:	fff0031b          	addiw	x6,x0,-1
    4101118c:	03f31313          	slli	x6,x6,0x3f
    41011190:	00537333          	and	x6,x6,x5
    41011194:	02030263          	beqz	x6,410111b8 <trap_handler_s__exception_path>

0000000041011198 <trap_handler_s__interrupt_handler>:
    41011198:	fff0031b          	addiw	x6,x0,-1
    4101119c:	03f31313          	slli	x6,x6,0x3f
    410111a0:	0062c2b3          	xor	x5,x5,x6
    410111a4:	00000317          	auipc	x6,0x0
    410111a8:	ed430313          	addi	x6,x6,-300 # 41011078 <trap_handler_s__trap_entry>
    410111ac:	00229293          	slli	x5,x5,0x2
    410111b0:	005302b3          	add	x5,x6,x5
    410111b4:	00028067          	jr	x5 # 2000 <pma_region_1_size+0x1000>

00000000410111b8 <trap_handler_s__exception_path>:
    410111b8:	14021273          	csrrw	x4,sscratch,x4
    410111bc:	00000297          	auipc	x5,0x0
    410111c0:	0cc28293          	addi	x5,x5,204 # 41011288 <trap_handler_s__trap_panic>
    410111c4:	10529073          	csrw	stvec,x5
    410111c8:	0040006f          	j	410111cc <trap_handler_s__excp_entry>

00000000410111cc <trap_handler_s__excp_entry>:
    410111cc:	14202373          	csrr	x6,scause
    410111d0:	00800293          	li	x5,8
    410111d4:	00534863          	blt	x6,x5,410111e4 <trap_handler_s__check_exception_label>
    410111d8:	00b00293          	li	x5,11
    410111dc:	0062c463          	blt	x5,x6,410111e4 <trap_handler_s__check_exception_label>
    410111e0:	0a80006f          	j	41011288 <trap_handler_s__trap_panic>

00000000410111e4 <trap_handler_s__check_exception_label>:
    410111e4:	04623c23          	sd	x6,88(x4) # 58 <XLEN+0x18>
    410111e8:	141022f3          	csrr	x5,sepc
    410111ec:	02523423          	sd	x5,40(x4) # 28 <SECURE_ACCESS_PROBABILITY+0xa>
    410111f0:	01820283          	lb	x5,24(x4) # 18 <STORE_GUEST_PAGE_FAULT+0x1>
    410111f4:	00029863          	bnez	x5,41011204 <trap_handler_s__check_excp>
    410111f8:	00128293          	addi	x5,x5,1
    410111fc:	00520c23          	sb	x5,24(x4) # 18 <STORE_GUEST_PAGE_FAULT+0x1>
    41011200:	05c0006f          	j	4101125c <trap_handler_s__ecall_from_machine>

0000000041011204 <trap_handler_s__check_excp>:
    41011204:	06823283          	ld	x5,104(x4) # 68 <XLEN+0x28>
    41011208:	06023423          	sd	x0,104(x4) # 68 <XLEN+0x28>
    4101120c:	00028663          	beqz	x5,41011218 <trap_handler_s__skip_mode_check>
    41011210:	00300393          	li	x7,3
    41011214:	f67290e3          	bne	x5,x7,41011174 <trap_handler_s__test_failed>

0000000041011218 <trap_handler_s__skip_mode_check>:
    41011218:	05023283          	ld	x5,80(x4) # 50 <XLEN+0x10>
    4101121c:	04023823          	sd	x0,80(x4) # 50 <XLEN+0x10>
    41011220:	f4531ae3          	bne	x6,x5,41011174 <trap_handler_s__test_failed>
    41011224:	03823283          	ld	x5,56(x4) # 38 <SECURE_ACCESS_PROBABILITY+0x1a>
    41011228:	02023c23          	sd	x0,56(x4) # 38 <SECURE_ACCESS_PROBABILITY+0x1a>
    4101122c:	02029663          	bnez	x5,41011258 <trap_handler_s__skip_nonzero_tval_check>
    41011230:	02023303          	ld	x6,32(x4) # 20 <SECURE_ACCESS_PROBABILITY+0x2>
    41011234:	02023023          	sd	x0,32(x4) # 20 <SECURE_ACCESS_PROBABILITY+0x2>
    41011238:	02823283          	ld	x5,40(x4) # 28 <SECURE_ACCESS_PROBABILITY+0xa>
    4101123c:	02023423          	sd	x0,40(x4) # 28 <SECURE_ACCESS_PROBABILITY+0xa>
    41011240:	f2531ae3          	bne	x6,x5,41011174 <trap_handler_s__test_failed>
    41011244:	04023283          	ld	x5,64(x4) # 40 <XLEN>
    41011248:	04023023          	sd	x0,64(x4) # 40 <XLEN>
    4101124c:	00028663          	beqz	x5,41011258 <trap_handler_s__skip_nonzero_tval_check>

0000000041011250 <trap_handler_s__nonzero_tval_check>:
    41011250:	14302373          	csrr	x6,stval
    41011254:	f25310e3          	bne	x6,x5,41011174 <trap_handler_s__test_failed>

0000000041011258 <trap_handler_s__skip_nonzero_tval_check>:
    41011258:	0040006f          	j	4101125c <trap_handler_s__ecall_from_machine>

000000004101125c <trap_handler_s__ecall_from_machine>:
    4101125c:	03023283          	ld	x5,48(x4) # 30 <SECURE_ACCESS_PROBABILITY+0x12>
    41011260:	02023823          	sd	x0,48(x4) # 30 <SECURE_ACCESS_PROBABILITY+0x12>
    41011264:	07023303          	ld	x6,112(x4) # 70 <XLEN+0x30>
    41011268:	06023823          	sd	x0,112(x4) # 70 <XLEN+0x30>
    4101126c:	00031463          	bnez	x6,41011274 <trap_handler_s__skip_xepc_write>
    41011270:	14129073          	csrw	sepc,x5

0000000041011274 <trap_handler_s__skip_xepc_write>:
    41011274:	00000317          	auipc	x6,0x0
    41011278:	e0430313          	addi	x6,x6,-508 # 41011078 <trap_handler_s__trap_entry>
    4101127c:	10531073          	csrw	stvec,x6
    41011280:	14021273          	csrrw	x4,sscratch,x4
    41011284:	10200073          	sret

0000000041011288 <trap_handler_s__trap_panic>:
    41011288:	00000193          	li	x3,0
    4101128c:	00f00f9b          	addiw	x31,x0,15
    41011290:	01cf9f93          	slli	x31,x31,0x1c
    41011294:	002f8f93          	addi	x31,x31,2
    41011298:	00000073          	ecall

Disassembly of section .code:

0000000041015080 <passed>:
    41015080:	00f00f9b          	addiw	x31,x0,15
    41015084:	01cf9f93          	slli	x31,x31,0x1c
    41015088:	001f8f93          	addi	x31,x31,1
    4101508c:	00000073          	ecall

0000000041015090 <failed>:
    41015090:	00f00f9b          	addiw	x31,x0,15
    41015094:	01cf9f93          	slli	x31,x31,0x1c
    41015098:	002f8f93          	addi	x31,x31,2
    4101509c:	00000073          	ecall

00000000410150a0 <end_test>:
    410150a0:	00f00f9b          	addiw	x31,x0,15
    410150a4:	01cf9f93          	slli	x31,x31,0x1c
    410150a8:	003f8f93          	addi	x31,x31,3
    410150ac:	00000073          	ecall

00000000410150b0 <test_setup>:
    410150b0:	00f00f9b          	addiw	x31,x0,15
    410150b4:	01cf9f93          	slli	x31,x31,0x1c
    410150b8:	001f8f93          	addi	x31,x31,1
    410150bc:	00000073          	ecall

00000000410150c0 <SID_ZICBO_001>:
    410150c0:	c4397137          	lui	x2,0xc4397
    410150c4:	9751011b          	addiw	x2,x2,-1675 # ffffffffc4396975 <mem13+0x8e16342975>
    410150c8:	00c11113          	slli	x2,x2,0xc
    410150cc:	03f3efb7          	lui	x31,0x3f3e
    410150d0:	0b8f8f9b          	addiw	x31,x31,184 # 3f3e0b8 <machine_csr_jump_table_flags>
    410150d4:	00100f13          	li	x30,1
    410150d8:	01efb023          	sd	x30,0(x31)
    410150dc:	000f0fb7          	lui	x31,0xf0
    410150e0:	001f8f9b          	addiw	x31,x31,1 # f0001 <mem3+0x93001>
    410150e4:	00cf9f93          	slli	x31,x31,0xc
    410150e8:	005f8f93          	addi	x31,x31,5
    410150ec:	00000073          	ecall
    410150f0:	00713023          	sd	x7,0(x2)
    410150f4:	00f65137          	lui	x2,0xf65
    410150f8:	000012b7          	lui	x5,0x1
    410150fc:	00510133          	add	x2,x2,x5
    41015100:	ff017113          	andi	x2,x2,-16
    41015104:	03000393          	li	x7,48
    41015108:	03f3efb7          	lui	x31,0x3f3e
    4101510c:	0b8f8f9b          	addiw	x31,x31,184 # 3f3e0b8 <machine_csr_jump_table_flags>
    41015110:	00200f13          	li	x30,2
    41015114:	01efb023          	sd	x30,0(x31)
    41015118:	000f0fb7          	lui	x31,0xf0
    4101511c:	001f8f9b          	addiw	x31,x31,1 # f0001 <mem3+0x93001>
    41015120:	00cf9f93          	slli	x31,x31,0xc
    41015124:	005f8f93          	addi	x31,x31,5
    41015128:	00000073          	ecall
    4101512c:	02a09237          	lui	x4,0x2a09
    41015130:	6c12021b          	addiw	x4,x4,1729 # 2a096c1 <SID_ZICBO_005_stack+0x1a6a6c1>
    41015134:	00d21213          	slli	x4,x4,0xd
    41015138:	00200e13          	li	x28,2
    4101513c:	05c23823          	sd	x28,80(x4) # 50 <XLEN+0x10>
    41015140:	00000e17          	auipc	x28,0x0
    41015144:	054e0e13          	addi	x28,x28,84 # 41015194 <fault_label_0>
    41015148:	03c23023          	sd	x28,32(x4) # 20 <SECURE_ACCESS_PROBABILITY+0x2>
    4101514c:	00000e13          	li	x28,0
    41015150:	05c23023          	sd	x28,64(x4) # 40 <XLEN>
    41015154:	00000e13          	li	x28,0
    41015158:	05c23423          	sd	x28,72(x4) # 48 <XLEN+0x8>
    4101515c:	00000e17          	auipc	x28,0x0
    41015160:	04ce0e13          	addi	x28,x28,76 # 410151a8 <excp_return_label_0>
    41015164:	03c23823          	sd	x28,48(x4) # 30 <SECURE_ACCESS_PROBABILITY+0x12>
    41015168:	00000e13          	li	x28,0
    4101516c:	03c23c23          	sd	x28,56(x4) # 38 <SECURE_ACCESS_PROBABILITY+0x1a>
    41015170:	00000e13          	li	x28,0
    41015174:	07c23023          	sd	x28,96(x4) # 60 <XLEN+0x20>
    41015178:	00000e13          	li	x28,0
    4101517c:	07c23423          	sd	x28,104(x4) # 68 <XLEN+0x28>
    41015180:	00000e13          	li	x28,0
    41015184:	07c23823          	sd	x28,112(x4) # 70 <XLEN+0x30>
    41015188:	03fbf3b7          	lui	x7,0x3fbf
    4101518c:	00000f93          	li	x31,0
    41015190:	01f384b3          	add	x9,x7,x31

0000000041015194 <fault_label_0>:
    41015194:	0004a00f          	cbo.inval	(x9)
    41015198:	03f3e837          	lui	x16,0x3f3e
    4101519c:	0088081b          	addiw	x16,x16,8 # 3f3e008 <failed_addr>
    410151a0:	00083583          	ld	x11,0(x16)
    410151a4:	00058067          	jr	x11

00000000410151a8 <excp_return_label_0>:
    410151a8:	c4397137          	lui	x2,0xc4397
    410151ac:	9751011b          	addiw	x2,x2,-1675 # ffffffffc4396975 <mem13+0x8e16342975>
    410151b0:	00c11113          	slli	x2,x2,0xc
    410151b4:	00013383          	ld	x7,0(x2)
    410151b8:	03f3efb7          	lui	x31,0x3f3e
    410151bc:	0b8f8f9b          	addiw	x31,x31,184 # 3f3e0b8 <machine_csr_jump_table_flags>
    410151c0:	00300f13          	li	x30,3
    410151c4:	01efb023          	sd	x30,0(x31)
    410151c8:	000f0fb7          	lui	x31,0xf0
    410151cc:	001f8f9b          	addiw	x31,x31,1 # f0001 <mem3+0x93001>
    410151d0:	00cf9f93          	slli	x31,x31,0xc
    410151d4:	005f8f93          	addi	x31,x31,5
    410151d8:	00000073          	ecall

00000000410151dc <SID_ZICBO_001_passed>:
    410151dc:	00f00f9b          	addiw	x31,x0,15
    410151e0:	01cf9f93          	slli	x31,x31,0x1c
    410151e4:	001f8f93          	addi	x31,x31,1
    410151e8:	00000073          	ecall

00000000410151ec <SID_ZICBO_002>:
    410151ec:	c4397137          	lui	x2,0xc4397
    410151f0:	9751011b          	addiw	x2,x2,-1675 # ffffffffc4396975 <mem13+0x8e16342975>
    410151f4:	00c11113          	slli	x2,x2,0xc
    410151f8:	03f3efb7          	lui	x31,0x3f3e
    410151fc:	0b8f8f9b          	addiw	x31,x31,184 # 3f3e0b8 <machine_csr_jump_table_flags>
    41015200:	00400f13          	li	x30,4
    41015204:	01efb023          	sd	x30,0(x31)
    41015208:	000f0fb7          	lui	x31,0xf0
    4101520c:	001f8f9b          	addiw	x31,x31,1 # f0001 <mem3+0x93001>
    41015210:	00cf9f93          	slli	x31,x31,0xc
    41015214:	005f8f93          	addi	x31,x31,5
    41015218:	00000073          	ecall
    4101521c:	00713023          	sd	x7,0(x2)
    41015220:	00035137          	lui	x2,0x35
    41015224:	000012b7          	lui	x5,0x1
    41015228:	00510133          	add	x2,x2,x5
    4101522c:	ff017113          	andi	x2,x2,-16
    41015230:	03000393          	li	x7,48
    41015234:	03f3efb7          	lui	x31,0x3f3e
    41015238:	0c0f8f9b          	addiw	x31,x31,192 # 3f3e0c0 <super_csr_jump_table_flags>
    4101523c:	00500f13          	li	x30,5
    41015240:	01efb023          	sd	x30,0(x31)
    41015244:	000f0fb7          	lui	x31,0xf0
    41015248:	001f8f9b          	addiw	x31,x31,1 # f0001 <mem3+0x93001>
    4101524c:	00cf9f93          	slli	x31,x31,0xc
    41015250:	006f8f93          	addi	x31,x31,6
    41015254:	00000073          	ecall
    41015258:	02a09237          	lui	x4,0x2a09
    4101525c:	6c12021b          	addiw	x4,x4,1729 # 2a096c1 <SID_ZICBO_005_stack+0x1a6a6c1>
    41015260:	00d21213          	slli	x4,x4,0xd
    41015264:	00200e13          	li	x28,2
    41015268:	05c23823          	sd	x28,80(x4) # 50 <XLEN+0x10>
    4101526c:	00000e17          	auipc	x28,0x0
    41015270:	05ce0e13          	addi	x28,x28,92 # 410152c8 <fault_label_1>
    41015274:	03c23023          	sd	x28,32(x4) # 20 <SECURE_ACCESS_PROBABILITY+0x2>
    41015278:	00000e13          	li	x28,0
    4101527c:	05c23023          	sd	x28,64(x4) # 40 <XLEN>
    41015280:	00000e13          	li	x28,0
    41015284:	05c23423          	sd	x28,72(x4) # 48 <XLEN+0x8>
    41015288:	00000e17          	auipc	x28,0x0
    4101528c:	054e0e13          	addi	x28,x28,84 # 410152dc <excp_return_label_1>
    41015290:	03c23823          	sd	x28,48(x4) # 30 <SECURE_ACCESS_PROBABILITY+0x12>
    41015294:	00000e13          	li	x28,0
    41015298:	03c23c23          	sd	x28,56(x4) # 38 <SECURE_ACCESS_PROBABILITY+0x1a>
    4101529c:	00000e13          	li	x28,0
    410152a0:	07c23023          	sd	x28,96(x4) # 60 <XLEN+0x20>
    410152a4:	00000e13          	li	x28,0
    410152a8:	07c23423          	sd	x28,104(x4) # 68 <XLEN+0x28>
    410152ac:	00000e13          	li	x28,0
    410152b0:	07c23823          	sd	x28,112(x4) # 70 <XLEN+0x30>
    410152b4:	00fbbb37          	lui	x22,0xfbb
    410152b8:	6bfb0b1b          	addiw	x22,x22,1727 # fbb6bf <SID_ZICBO_005_stack+0x1c6bf>
    410152bc:	00cb1b13          	slli	x22,x22,0xc
    410152c0:	00000393          	li	x7,0
    410152c4:	007b0ab3          	add	x21,x22,x7

00000000410152c8 <fault_label_1>:
    410152c8:	000aa00f          	cbo.inval	(x21)
    410152cc:	03f3ec37          	lui	x24,0x3f3e
    410152d0:	008c0c1b          	addiw	x24,x24,8 # 3f3e008 <failed_addr>
    410152d4:	000c3f03          	ld	x30,0(x24)
    410152d8:	000f0067          	jr	x30

00000000410152dc <excp_return_label_1>:
    410152dc:	c4397137          	lui	x2,0xc4397
    410152e0:	9751011b          	addiw	x2,x2,-1675 # ffffffffc4396975 <mem13+0x8e16342975>
    410152e4:	00c11113          	slli	x2,x2,0xc
    410152e8:	00013383          	ld	x7,0(x2)
    410152ec:	03f3efb7          	lui	x31,0x3f3e
    410152f0:	0b8f8f9b          	addiw	x31,x31,184 # 3f3e0b8 <machine_csr_jump_table_flags>
    410152f4:	00600f13          	li	x30,6
    410152f8:	01efb023          	sd	x30,0(x31)
    410152fc:	000f0fb7          	lui	x31,0xf0
    41015300:	001f8f9b          	addiw	x31,x31,1 # f0001 <mem3+0x93001>
    41015304:	00cf9f93          	slli	x31,x31,0xc
    41015308:	005f8f93          	addi	x31,x31,5
    4101530c:	00000073          	ecall

0000000041015310 <SID_ZICBO_002_passed>:
    41015310:	00f00f9b          	addiw	x31,x0,15
    41015314:	01cf9f93          	slli	x31,x31,0x1c
    41015318:	001f8f93          	addi	x31,x31,1
    4101531c:	00000073          	ecall

0000000041015320 <SID_ZICBO_003>:
    41015320:	c4397137          	lui	x2,0xc4397
    41015324:	9751011b          	addiw	x2,x2,-1675 # ffffffffc4396975 <mem13+0x8e16342975>
    41015328:	00c11113          	slli	x2,x2,0xc
    4101532c:	03f3efb7          	lui	x31,0x3f3e
    41015330:	0b8f8f9b          	addiw	x31,x31,184 # 3f3e0b8 <machine_csr_jump_table_flags>
    41015334:	00100f13          	li	x30,1
    41015338:	01efb023          	sd	x30,0(x31)
    4101533c:	000f0fb7          	lui	x31,0xf0
    41015340:	001f8f9b          	addiw	x31,x31,1 # f0001 <mem3+0x93001>
    41015344:	00cf9f93          	slli	x31,x31,0xc
    41015348:	005f8f93          	addi	x31,x31,5
    4101534c:	00000073          	ecall
    41015350:	00713023          	sd	x7,0(x2)
    41015354:	00444137          	lui	x2,0x444
    41015358:	000012b7          	lui	x5,0x1
    4101535c:	00510133          	add	x2,x2,x5
    41015360:	ff017113          	andi	x2,x2,-16
    41015364:	04000393          	li	x7,64
    41015368:	03f3efb7          	lui	x31,0x3f3e
    4101536c:	0b8f8f9b          	addiw	x31,x31,184 # 3f3e0b8 <machine_csr_jump_table_flags>
    41015370:	00200f13          	li	x30,2
    41015374:	01efb023          	sd	x30,0(x31)
    41015378:	000f0fb7          	lui	x31,0xf0
    4101537c:	001f8f9b          	addiw	x31,x31,1 # f0001 <mem3+0x93001>
    41015380:	00cf9f93          	slli	x31,x31,0xc
    41015384:	005f8f93          	addi	x31,x31,5
    41015388:	00000073          	ecall
    4101538c:	02a09237          	lui	x4,0x2a09
    41015390:	6c12021b          	addiw	x4,x4,1729 # 2a096c1 <SID_ZICBO_005_stack+0x1a6a6c1>
    41015394:	00d21213          	slli	x4,x4,0xd
    41015398:	00200e13          	li	x28,2
    4101539c:	05c23823          	sd	x28,80(x4) # 50 <XLEN+0x10>
    410153a0:	00000e17          	auipc	x28,0x0
    410153a4:	058e0e13          	addi	x28,x28,88 # 410153f8 <fault_label_2>
    410153a8:	03c23023          	sd	x28,32(x4) # 20 <SECURE_ACCESS_PROBABILITY+0x2>
    410153ac:	00000e13          	li	x28,0
    410153b0:	05c23023          	sd	x28,64(x4) # 40 <XLEN>
    410153b4:	00000e13          	li	x28,0
    410153b8:	05c23423          	sd	x28,72(x4) # 48 <XLEN+0x8>
    410153bc:	00000e17          	auipc	x28,0x0
    410153c0:	050e0e13          	addi	x28,x28,80 # 4101540c <excp_return_label_2>
    410153c4:	03c23823          	sd	x28,48(x4) # 30 <SECURE_ACCESS_PROBABILITY+0x12>
    410153c8:	00000e13          	li	x28,0
    410153cc:	03c23c23          	sd	x28,56(x4) # 38 <SECURE_ACCESS_PROBABILITY+0x1a>
    410153d0:	00000e13          	li	x28,0
    410153d4:	07c23023          	sd	x28,96(x4) # 60 <XLEN+0x20>
    410153d8:	00000e13          	li	x28,0
    410153dc:	07c23423          	sd	x28,104(x4) # 68 <XLEN+0x28>
    410153e0:	00000e13          	li	x28,0
    410153e4:	07c23823          	sd	x28,112(x4) # 70 <XLEN+0x30>
    410153e8:	6490099b          	addiw	x19,x0,1609
    410153ec:	01599993          	slli	x19,x19,0x15
    410153f0:	00000693          	li	x13,0
    410153f4:	00d98533          	add	x10,x19,x13

00000000410153f8 <fault_label_2>:
    410153f8:	0015200f          	cbo.clean	(x10)
    410153fc:	03f3ecb7          	lui	x25,0x3f3e
    41015400:	008c8c9b          	addiw	x25,x25,8 # 3f3e008 <failed_addr>
    41015404:	000cb303          	ld	x6,0(x25)
    41015408:	00030067          	jr	x6

000000004101540c <excp_return_label_2>:
    4101540c:	02a09237          	lui	x4,0x2a09
    41015410:	6c12021b          	addiw	x4,x4,1729 # 2a096c1 <SID_ZICBO_005_stack+0x1a6a6c1>
    41015414:	00d21213          	slli	x4,x4,0xd
    41015418:	00200e13          	li	x28,2
    4101541c:	05c23823          	sd	x28,80(x4) # 50 <XLEN+0x10>
    41015420:	00000e17          	auipc	x28,0x0
    41015424:	058e0e13          	addi	x28,x28,88 # 41015478 <fault_label_3>
    41015428:	03c23023          	sd	x28,32(x4) # 20 <SECURE_ACCESS_PROBABILITY+0x2>
    4101542c:	00000e13          	li	x28,0
    41015430:	05c23023          	sd	x28,64(x4) # 40 <XLEN>
    41015434:	00000e13          	li	x28,0
    41015438:	05c23423          	sd	x28,72(x4) # 48 <XLEN+0x8>
    4101543c:	00000e17          	auipc	x28,0x0
    41015440:	050e0e13          	addi	x28,x28,80 # 4101548c <excp_return_label_3>
    41015444:	03c23823          	sd	x28,48(x4) # 30 <SECURE_ACCESS_PROBABILITY+0x12>
    41015448:	00000e13          	li	x28,0
    4101544c:	03c23c23          	sd	x28,56(x4) # 38 <SECURE_ACCESS_PROBABILITY+0x1a>
    41015450:	00000e13          	li	x28,0
    41015454:	07c23023          	sd	x28,96(x4) # 60 <XLEN+0x20>
    41015458:	00000e13          	li	x28,0
    4101545c:	07c23423          	sd	x28,104(x4) # 68 <XLEN+0x28>
    41015460:	00000e13          	li	x28,0
    41015464:	07c23823          	sd	x28,112(x4) # 70 <XLEN+0x30>
    41015468:	64900b9b          	addiw	x23,x0,1609
    4101546c:	015b9b93          	slli	x23,x23,0x15
    41015470:	00000d13          	li	x26,0
    41015474:	01ab89b3          	add	x19,x23,x26

0000000041015478 <fault_label_3>:
    41015478:	0029a00f          	cbo.flush	(x19)
    4101547c:	03f3ed37          	lui	x26,0x3f3e
    41015480:	008d0d1b          	addiw	x26,x26,8 # 3f3e008 <failed_addr>
    41015484:	000d3983          	ld	x19,0(x26)
    41015488:	00098067          	jr	x19

000000004101548c <excp_return_label_3>:
    4101548c:	c4397137          	lui	x2,0xc4397
    41015490:	9751011b          	addiw	x2,x2,-1675 # ffffffffc4396975 <mem13+0x8e16342975>
    41015494:	00c11113          	slli	x2,x2,0xc
    41015498:	00013383          	ld	x7,0(x2)
    4101549c:	03f3efb7          	lui	x31,0x3f3e
    410154a0:	0b8f8f9b          	addiw	x31,x31,184 # 3f3e0b8 <machine_csr_jump_table_flags>
    410154a4:	00300f13          	li	x30,3
    410154a8:	01efb023          	sd	x30,0(x31)
    410154ac:	000f0fb7          	lui	x31,0xf0
    410154b0:	001f8f9b          	addiw	x31,x31,1 # f0001 <mem3+0x93001>
    410154b4:	00cf9f93          	slli	x31,x31,0xc
    410154b8:	005f8f93          	addi	x31,x31,5
    410154bc:	00000073          	ecall

00000000410154c0 <SID_ZICBO_003_passed>:
    410154c0:	00f00f9b          	addiw	x31,x0,15
    410154c4:	01cf9f93          	slli	x31,x31,0x1c
    410154c8:	001f8f93          	addi	x31,x31,1
    410154cc:	00000073          	ecall

00000000410154d0 <SID_ZICBO_004>:
    410154d0:	c4397137          	lui	x2,0xc4397
    410154d4:	9751011b          	addiw	x2,x2,-1675 # ffffffffc4396975 <mem13+0x8e16342975>
    410154d8:	00c11113          	slli	x2,x2,0xc
    410154dc:	03f3efb7          	lui	x31,0x3f3e
    410154e0:	0b8f8f9b          	addiw	x31,x31,184 # 3f3e0b8 <machine_csr_jump_table_flags>
    410154e4:	00400f13          	li	x30,4
    410154e8:	01efb023          	sd	x30,0(x31)
    410154ec:	000f0fb7          	lui	x31,0xf0
    410154f0:	001f8f9b          	addiw	x31,x31,1 # f0001 <mem3+0x93001>
    410154f4:	00cf9f93          	slli	x31,x31,0xc
    410154f8:	005f8f93          	addi	x31,x31,5
    410154fc:	00000073          	ecall
    41015500:	00713023          	sd	x7,0(x2)
    41015504:	03920137          	lui	x2,0x3920
    41015508:	f0f1011b          	addiw	x2,x2,-241 # 391ff0f <SID_ZICBO_005_stack+0x2980f0f>
    4101550c:	00c11113          	slli	x2,x2,0xc
    41015510:	000012b7          	lui	x5,0x1
    41015514:	00510133          	add	x2,x2,x5
    41015518:	ff017113          	andi	x2,x2,-16
    4101551c:	04000393          	li	x7,64
    41015520:	03f3efb7          	lui	x31,0x3f3e
    41015524:	0c0f8f9b          	addiw	x31,x31,192 # 3f3e0c0 <super_csr_jump_table_flags>
    41015528:	00500f13          	li	x30,5
    4101552c:	01efb023          	sd	x30,0(x31)
    41015530:	000f0fb7          	lui	x31,0xf0
    41015534:	001f8f9b          	addiw	x31,x31,1 # f0001 <mem3+0x93001>
    41015538:	00cf9f93          	slli	x31,x31,0xc
    4101553c:	006f8f93          	addi	x31,x31,6
    41015540:	00000073          	ecall
    41015544:	02a09237          	lui	x4,0x2a09
    41015548:	6c12021b          	addiw	x4,x4,1729 # 2a096c1 <SID_ZICBO_005_stack+0x1a6a6c1>
    4101554c:	00d21213          	slli	x4,x4,0xd
    41015550:	00200e13          	li	x28,2
    41015554:	05c23823          	sd	x28,80(x4) # 50 <XLEN+0x10>
    41015558:	00000e17          	auipc	x28,0x0
    4101555c:	054e0e13          	addi	x28,x28,84 # 410155ac <fault_label_4>
    41015560:	03c23023          	sd	x28,32(x4) # 20 <SECURE_ACCESS_PROBABILITY+0x2>
    41015564:	00000e13          	li	x28,0
    41015568:	05c23023          	sd	x28,64(x4) # 40 <XLEN>
    4101556c:	00000e13          	li	x28,0
    41015570:	05c23423          	sd	x28,72(x4) # 48 <XLEN+0x8>
    41015574:	00000e17          	auipc	x28,0x0
    41015578:	04ce0e13          	addi	x28,x28,76 # 410155c0 <excp_return_label_4>
    4101557c:	03c23823          	sd	x28,48(x4) # 30 <SECURE_ACCESS_PROBABILITY+0x12>
    41015580:	00000e13          	li	x28,0
    41015584:	03c23c23          	sd	x28,56(x4) # 38 <SECURE_ACCESS_PROBABILITY+0x1a>
    41015588:	00000e13          	li	x28,0
    4101558c:	07c23023          	sd	x28,96(x4) # 60 <XLEN+0x20>
    41015590:	00000e13          	li	x28,0
    41015594:	07c23423          	sd	x28,104(x4) # 68 <XLEN+0x28>
    41015598:	00000e13          	li	x28,0
    4101559c:	07c23823          	sd	x28,112(x4) # 70 <XLEN+0x30>
    410155a0:	0005d337          	lui	x6,0x5d
    410155a4:	00000f13          	li	x30,0
    410155a8:	01e30b33          	add	x22,x6,x30

00000000410155ac <fault_label_4>:
    410155ac:	001b200f          	cbo.clean	(x22)
    410155b0:	03f3e837          	lui	x16,0x3f3e
    410155b4:	0088081b          	addiw	x16,x16,8 # 3f3e008 <failed_addr>
    410155b8:	00083f03          	ld	x30,0(x16)
    410155bc:	000f0067          	jr	x30

00000000410155c0 <excp_return_label_4>:
    410155c0:	02a09237          	lui	x4,0x2a09
    410155c4:	6c12021b          	addiw	x4,x4,1729 # 2a096c1 <SID_ZICBO_005_stack+0x1a6a6c1>
    410155c8:	00d21213          	slli	x4,x4,0xd
    410155cc:	00200e13          	li	x28,2
    410155d0:	05c23823          	sd	x28,80(x4) # 50 <XLEN+0x10>
    410155d4:	00000e17          	auipc	x28,0x0
    410155d8:	054e0e13          	addi	x28,x28,84 # 41015628 <fault_label_5>
    410155dc:	03c23023          	sd	x28,32(x4) # 20 <SECURE_ACCESS_PROBABILITY+0x2>
    410155e0:	00000e13          	li	x28,0
    410155e4:	05c23023          	sd	x28,64(x4) # 40 <XLEN>
    410155e8:	00000e13          	li	x28,0
    410155ec:	05c23423          	sd	x28,72(x4) # 48 <XLEN+0x8>
    410155f0:	00000e17          	auipc	x28,0x0
    410155f4:	04ce0e13          	addi	x28,x28,76 # 4101563c <excp_return_label_5>
    410155f8:	03c23823          	sd	x28,48(x4) # 30 <SECURE_ACCESS_PROBABILITY+0x12>
    410155fc:	00000e13          	li	x28,0
    41015600:	03c23c23          	sd	x28,56(x4) # 38 <SECURE_ACCESS_PROBABILITY+0x1a>
    41015604:	00000e13          	li	x28,0
    41015608:	07c23023          	sd	x28,96(x4) # 60 <XLEN+0x20>
    4101560c:	00000e13          	li	x28,0
    41015610:	07c23423          	sd	x28,104(x4) # 68 <XLEN+0x28>
    41015614:	00000e13          	li	x28,0
    41015618:	07c23823          	sd	x28,112(x4) # 70 <XLEN+0x30>
    4101561c:	0005df37          	lui	x30,0x5d
    41015620:	00000793          	li	x15,0
    41015624:	00ff0eb3          	add	x29,x30,x15

0000000041015628 <fault_label_5>:
    41015628:	002ea00f          	cbo.flush	(x29)
    4101562c:	03f3e5b7          	lui	x11,0x3f3e
    41015630:	0085859b          	addiw	x11,x11,8 # 3f3e008 <failed_addr>
    41015634:	0005ba83          	ld	x21,0(x11)
    41015638:	000a8067          	jr	x21

000000004101563c <excp_return_label_5>:
    4101563c:	c4397137          	lui	x2,0xc4397
    41015640:	9751011b          	addiw	x2,x2,-1675 # ffffffffc4396975 <mem13+0x8e16342975>
    41015644:	00c11113          	slli	x2,x2,0xc
    41015648:	00013383          	ld	x7,0(x2)
    4101564c:	03f3efb7          	lui	x31,0x3f3e
    41015650:	0b8f8f9b          	addiw	x31,x31,184 # 3f3e0b8 <machine_csr_jump_table_flags>
    41015654:	00600f13          	li	x30,6
    41015658:	01efb023          	sd	x30,0(x31)
    4101565c:	000f0fb7          	lui	x31,0xf0
    41015660:	001f8f9b          	addiw	x31,x31,1 # f0001 <mem3+0x93001>
    41015664:	00cf9f93          	slli	x31,x31,0xc
    41015668:	005f8f93          	addi	x31,x31,5
    4101566c:	00000073          	ecall

0000000041015670 <SID_ZICBO_004_passed>:
    41015670:	00f00f9b          	addiw	x31,x0,15
    41015674:	01cf9f93          	slli	x31,x31,0x1c
    41015678:	001f8f93          	addi	x31,x31,1
    4101567c:	00000073          	ecall

0000000041015680 <SID_ZICBO_005>:
    41015680:	c4397137          	lui	x2,0xc4397
    41015684:	9751011b          	addiw	x2,x2,-1675 # ffffffffc4396975 <mem13+0x8e16342975>
    41015688:	00c11113          	slli	x2,x2,0xc
    4101568c:	03f3efb7          	lui	x31,0x3f3e
    41015690:	0b8f8f9b          	addiw	x31,x31,184 # 3f3e0b8 <machine_csr_jump_table_flags>
    41015694:	00100f13          	li	x30,1
    41015698:	01efb023          	sd	x30,0(x31)
    4101569c:	000f0fb7          	lui	x31,0xf0
    410156a0:	001f8f9b          	addiw	x31,x31,1 # f0001 <mem3+0x93001>
    410156a4:	00cf9f93          	slli	x31,x31,0xc
    410156a8:	005f8f93          	addi	x31,x31,5
    410156ac:	00000073          	ecall
    410156b0:	00713023          	sd	x7,0(x2)
    410156b4:	00f9f137          	lui	x2,0xf9f
    410156b8:	000012b7          	lui	x5,0x1
    410156bc:	00510133          	add	x2,x2,x5
    410156c0:	ff017113          	andi	x2,x2,-16
    410156c4:	08000393          	li	x7,128
    410156c8:	03f3efb7          	lui	x31,0x3f3e
    410156cc:	0b8f8f9b          	addiw	x31,x31,184 # 3f3e0b8 <machine_csr_jump_table_flags>
    410156d0:	00200f13          	li	x30,2
    410156d4:	01efb023          	sd	x30,0(x31)
    410156d8:	000f0fb7          	lui	x31,0xf0
    410156dc:	001f8f9b          	addiw	x31,x31,1 # f0001 <mem3+0x93001>
    410156e0:	00cf9f93          	slli	x31,x31,0xc
    410156e4:	005f8f93          	addi	x31,x31,5
    410156e8:	00000073          	ecall
    410156ec:	02a09237          	lui	x4,0x2a09
    410156f0:	6c12021b          	addiw	x4,x4,1729 # 2a096c1 <SID_ZICBO_005_stack+0x1a6a6c1>
    410156f4:	00d21213          	slli	x4,x4,0xd
    410156f8:	00200e13          	li	x28,2
    410156fc:	05c23823          	sd	x28,80(x4) # 50 <XLEN+0x10>
    41015700:	00000e17          	auipc	x28,0x0
    41015704:	05ce0e13          	addi	x28,x28,92 # 4101575c <fault_label_6>
    41015708:	03c23023          	sd	x28,32(x4) # 20 <SECURE_ACCESS_PROBABILITY+0x2>
    4101570c:	00000e13          	li	x28,0
    41015710:	05c23023          	sd	x28,64(x4) # 40 <XLEN>
    41015714:	00000e13          	li	x28,0
    41015718:	05c23423          	sd	x28,72(x4) # 48 <XLEN+0x8>
    4101571c:	00000e17          	auipc	x28,0x0
    41015720:	054e0e13          	addi	x28,x28,84 # 41015770 <excp_return_label_6>
    41015724:	03c23823          	sd	x28,48(x4) # 30 <SECURE_ACCESS_PROBABILITY+0x12>
    41015728:	00000e13          	li	x28,0
    4101572c:	03c23c23          	sd	x28,56(x4) # 38 <SECURE_ACCESS_PROBABILITY+0x1a>
    41015730:	00000e13          	li	x28,0
    41015734:	07c23023          	sd	x28,96(x4) # 60 <XLEN+0x20>
    41015738:	00000e13          	li	x28,0
    4101573c:	07c23423          	sd	x28,104(x4) # 68 <XLEN+0x28>
    41015740:	00000e13          	li	x28,0
    41015744:	07c23823          	sd	x28,112(x4) # 70 <XLEN+0x30>
    41015748:	00829337          	lui	x6,0x829
    4101574c:	10d3031b          	addiw	x6,x6,269 # 82910d <SID_ZICBO_003_stack+0x3e510d>
    41015750:	00d31313          	slli	x6,x6,0xd
    41015754:	00000413          	li	x8,0
    41015758:	008304b3          	add	x9,x6,x8

000000004101575c <fault_label_6>:
    4101575c:	0044a00f          	cbo.zero	(x9)
    41015760:	03f3ef37          	lui	x30,0x3f3e
    41015764:	008f0f1b          	addiw	x30,x30,8 # 3f3e008 <failed_addr>
    41015768:	000f3d83          	ld	x27,0(x30)
    4101576c:	000d8067          	jr	x27

0000000041015770 <excp_return_label_6>:
    41015770:	c4397137          	lui	x2,0xc4397
    41015774:	9751011b          	addiw	x2,x2,-1675 # ffffffffc4396975 <mem13+0x8e16342975>
    41015778:	00c11113          	slli	x2,x2,0xc
    4101577c:	00013383          	ld	x7,0(x2)
    41015780:	03f3efb7          	lui	x31,0x3f3e
    41015784:	0b8f8f9b          	addiw	x31,x31,184 # 3f3e0b8 <machine_csr_jump_table_flags>
    41015788:	00300f13          	li	x30,3
    4101578c:	01efb023          	sd	x30,0(x31)
    41015790:	000f0fb7          	lui	x31,0xf0
    41015794:	001f8f9b          	addiw	x31,x31,1 # f0001 <mem3+0x93001>
    41015798:	00cf9f93          	slli	x31,x31,0xc
    4101579c:	005f8f93          	addi	x31,x31,5
    410157a0:	00000073          	ecall

00000000410157a4 <SID_ZICBO_005_passed>:
    410157a4:	00f00f9b          	addiw	x31,x0,15
    410157a8:	01cf9f93          	slli	x31,x31,0x1c
    410157ac:	001f8f93          	addi	x31,x31,1
    410157b0:	00000073          	ecall

00000000410157b4 <SID_ZICBO_006>:
    410157b4:	c4397137          	lui	x2,0xc4397
    410157b8:	9751011b          	addiw	x2,x2,-1675 # ffffffffc4396975 <mem13+0x8e16342975>
    410157bc:	00c11113          	slli	x2,x2,0xc
    410157c0:	03f3efb7          	lui	x31,0x3f3e
    410157c4:	0b8f8f9b          	addiw	x31,x31,184 # 3f3e0b8 <machine_csr_jump_table_flags>
    410157c8:	00400f13          	li	x30,4
    410157cc:	01efb023          	sd	x30,0(x31)
    410157d0:	000f0fb7          	lui	x31,0xf0
    410157d4:	001f8f9b          	addiw	x31,x31,1 # f0001 <mem3+0x93001>
    410157d8:	00cf9f93          	slli	x31,x31,0xc
    410157dc:	005f8f93          	addi	x31,x31,5
    410157e0:	00000073          	ecall
    410157e4:	00713023          	sd	x7,0(x2)
    410157e8:	03522137          	lui	x2,0x3522
    410157ec:	7611011b          	addiw	x2,x2,1889 # 3522761 <SID_ZICBO_005_stack+0x2583761>
    410157f0:	00c11113          	slli	x2,x2,0xc
    410157f4:	000012b7          	lui	x5,0x1
    410157f8:	00510133          	add	x2,x2,x5
    410157fc:	ff017113          	andi	x2,x2,-16
    41015800:	08000393          	li	x7,128
    41015804:	03f3efb7          	lui	x31,0x3f3e
    41015808:	0c0f8f9b          	addiw	x31,x31,192 # 3f3e0c0 <super_csr_jump_table_flags>
    4101580c:	00500f13          	li	x30,5
    41015810:	01efb023          	sd	x30,0(x31)
    41015814:	000f0fb7          	lui	x31,0xf0
    41015818:	001f8f9b          	addiw	x31,x31,1 # f0001 <mem3+0x93001>
    4101581c:	00cf9f93          	slli	x31,x31,0xc
    41015820:	006f8f93          	addi	x31,x31,6
    41015824:	00000073          	ecall
    41015828:	02a09237          	lui	x4,0x2a09
    4101582c:	6c12021b          	addiw	x4,x4,1729 # 2a096c1 <SID_ZICBO_005_stack+0x1a6a6c1>
    41015830:	00d21213          	slli	x4,x4,0xd
    41015834:	00200e13          	li	x28,2
    41015838:	05c23823          	sd	x28,80(x4) # 50 <XLEN+0x10>
    4101583c:	00000e17          	auipc	x28,0x0
    41015840:	054e0e13          	addi	x28,x28,84 # 41015890 <fault_label_7>
    41015844:	03c23023          	sd	x28,32(x4) # 20 <SECURE_ACCESS_PROBABILITY+0x2>
    41015848:	00000e13          	li	x28,0
    4101584c:	05c23023          	sd	x28,64(x4) # 40 <XLEN>
    41015850:	00000e13          	li	x28,0
    41015854:	05c23423          	sd	x28,72(x4) # 48 <XLEN+0x8>
    41015858:	00000e17          	auipc	x28,0x0
    4101585c:	04ce0e13          	addi	x28,x28,76 # 410158a4 <excp_return_label_7>
    41015860:	03c23823          	sd	x28,48(x4) # 30 <SECURE_ACCESS_PROBABILITY+0x12>
    41015864:	00000e13          	li	x28,0
    41015868:	03c23c23          	sd	x28,56(x4) # 38 <SECURE_ACCESS_PROBABILITY+0x1a>
    4101586c:	00000e13          	li	x28,0
    41015870:	07c23023          	sd	x28,96(x4) # 60 <XLEN+0x20>
    41015874:	00000e13          	li	x28,0
    41015878:	07c23423          	sd	x28,104(x4) # 68 <XLEN+0x28>
    4101587c:	00000e13          	li	x28,0
    41015880:	07c23823          	sd	x28,112(x4) # 70 <XLEN+0x30>
    41015884:	03da1337          	lui	x6,0x3da1
    41015888:	00000a13          	li	x20,0
    4101588c:	01430f33          	add	x30,x6,x20

0000000041015890 <fault_label_7>:
    41015890:	004f200f          	cbo.zero	(x30)
    41015894:	03f3e737          	lui	x14,0x3f3e
    41015898:	0087071b          	addiw	x14,x14,8 # 3f3e008 <failed_addr>
    4101589c:	00073b83          	ld	x23,0(x14)
    410158a0:	000b8067          	jr	x23

00000000410158a4 <excp_return_label_7>:
    410158a4:	c4397137          	lui	x2,0xc4397
    410158a8:	9751011b          	addiw	x2,x2,-1675 # ffffffffc4396975 <mem13+0x8e16342975>
    410158ac:	00c11113          	slli	x2,x2,0xc
    410158b0:	00013383          	ld	x7,0(x2)
    410158b4:	03f3efb7          	lui	x31,0x3f3e
    410158b8:	0b8f8f9b          	addiw	x31,x31,184 # 3f3e0b8 <machine_csr_jump_table_flags>
    410158bc:	00600f13          	li	x30,6
    410158c0:	01efb023          	sd	x30,0(x31)
    410158c4:	000f0fb7          	lui	x31,0xf0
    410158c8:	001f8f9b          	addiw	x31,x31,1 # f0001 <mem3+0x93001>
    410158cc:	00cf9f93          	slli	x31,x31,0xc
    410158d0:	005f8f93          	addi	x31,x31,5
    410158d4:	00000073          	ecall

00000000410158d8 <SID_ZICBO_006_passed>:
    410158d8:	00f00f9b          	addiw	x31,x0,15
    410158dc:	01cf9f93          	slli	x31,x31,0x1c
    410158e0:	001f8f93          	addi	x31,x31,1
    410158e4:	00000073          	ecall

00000000410158e8 <SID_ZICBO_013>:
    410158e8:	000a7137          	lui	x2,0xa7
    410158ec:	7971011b          	addiw	x2,x2,1943 # a7797 <mem3+0x4a797>
    410158f0:	00c11113          	slli	x2,x2,0xc
    410158f4:	000012b7          	lui	x5,0x1
    410158f8:	00510133          	add	x2,x2,x5
    410158fc:	ff017113          	andi	x2,x2,-16
    41015900:	000fdeb7          	lui	x29,0xfd
    41015904:	1dde8e9b          	addiw	x29,x29,477 # fd1dd <mem3+0xa01dd>
    41015908:	00de9e93          	slli	x29,x29,0xd
    4101590c:	04fe8e93          	addi	x29,x29,79
    41015910:	00ce9e93          	slli	x29,x29,0xc
    41015914:	00000313          	li	x6,0
    41015918:	006e8bb3          	add	x23,x29,x6
    4101591c:	000be013          	prefetch.i	0(x23)
    41015920:	000fd737          	lui	x14,0xfd
    41015924:	1dd7071b          	addiw	x14,x14,477 # fd1dd <mem3+0xa01dd>
    41015928:	00d71713          	slli	x14,x14,0xd
    4101592c:	04f70713          	addi	x14,x14,79
    41015930:	00c71713          	slli	x14,x14,0xc
    41015934:	00000b93          	li	x23,0
    41015938:	01770b33          	add	x22,x14,x23
    4101593c:	001b6013          	prefetch.r	0(x22)
    41015940:	000fdcb7          	lui	x25,0xfd
    41015944:	1ddc8c9b          	addiw	x25,x25,477 # fd1dd <mem3+0xa01dd>
    41015948:	00dc9c93          	slli	x25,x25,0xd
    4101594c:	04fc8c93          	addi	x25,x25,79
    41015950:	00cc9c93          	slli	x25,x25,0xc
    41015954:	00000e13          	li	x28,0
    41015958:	01cc87b3          	add	x15,x25,x28
    4101595c:	0037e013          	prefetch.w	0(x15)

0000000041015960 <SID_ZICBO_013_passed>:
    41015960:	00f00f9b          	addiw	x31,x0,15
    41015964:	01cf9f93          	slli	x31,x31,0x1c
    41015968:	001f8f93          	addi	x31,x31,1
    4101596c:	00000073          	ecall

0000000041015970 <SID_ZICBO_015>:
    41015970:	06677137          	lui	x2,0x6677
    41015974:	000012b7          	lui	x5,0x1
    41015978:	00510133          	add	x2,x2,x5
    4101597c:	ff017113          	andi	x2,x2,-16
    41015980:	001fb8b7          	lui	x17,0x1fb
    41015984:	0c38889b          	addiw	x17,x17,195 # 1fb0c3 <mem3+0x19e0c3>
    41015988:	00f89893          	slli	x17,x17,0xf
    4101598c:	7e000693          	li	x13,2016
    41015990:	00d88eb3          	add	x29,x17,x13
    41015994:	000ee013          	prefetch.i	0(x29)

0000000041015998 <SID_ZICBO_015_passed>:
    41015998:	00f00f9b          	addiw	x31,x0,15
    4101599c:	01cf9f93          	slli	x31,x31,0x1c
    410159a0:	001f8f93          	addi	x31,x31,1
    410159a4:	00000073          	ecall

00000000410159a8 <SID_ZICBO_016>:
    410159a8:	03871137          	lui	x2,0x3871
    410159ac:	c731011b          	addiw	x2,x2,-909 # 3870c73 <SID_ZICBO_005_stack+0x28d1c73>
    410159b0:	00e11113          	slli	x2,x2,0xe
    410159b4:	000012b7          	lui	x5,0x1
    410159b8:	00510133          	add	x2,x2,x5
    410159bc:	ff017113          	andi	x2,x2,-16
    410159c0:	1b3576b7          	lui	x13,0x1b357
    410159c4:	7756869b          	addiw	x13,x13,1909 # 1b357775 <mem9+0x3b69775>
    410159c8:	00e69693          	slli	x13,x13,0xe
    410159cc:	00000f93          	li	x31,0
    410159d0:	01f68ab3          	add	x21,x13,x31
    410159d4:	001ae013          	prefetch.r	0(x21)
    410159d8:	1b357837          	lui	x16,0x1b357
    410159dc:	7758081b          	addiw	x16,x16,1909 # 1b357775 <mem9+0x3b69775>
    410159e0:	00e81813          	slli	x16,x16,0xe
    410159e4:	7e000313          	li	x6,2016
    410159e8:	00680bb3          	add	x23,x16,x6
    410159ec:	001be013          	prefetch.r	0(x23)
    410159f0:	1b357e37          	lui	x28,0x1b357
    410159f4:	775e0e1b          	addiw	x28,x28,1909 # 1b357775 <mem9+0x3b69775>
    410159f8:	00ee1e13          	slli	x28,x28,0xe
    410159fc:	00000f93          	li	x31,0
    41015a00:	01fe0533          	add	x10,x28,x31
    41015a04:	00356013          	prefetch.w	0(x10)
    41015a08:	1b357737          	lui	x14,0x1b357
    41015a0c:	7757071b          	addiw	x14,x14,1909 # 1b357775 <mem9+0x3b69775>
    41015a10:	00e71713          	slli	x14,x14,0xe
    41015a14:	7e000313          	li	x6,2016
    41015a18:	00670533          	add	x10,x14,x6
    41015a1c:	00356013          	prefetch.w	0(x10)

0000000041015a20 <SID_ZICBO_016_passed>:
    41015a20:	00f00f9b          	addiw	x31,x0,15
    41015a24:	01cf9f93          	slli	x31,x31,0x1c
    41015a28:	001f8f93          	addi	x31,x31,1
    41015a2c:	00000073          	ecall

0000000041015a30 <SID_ZICBO_017>:
    41015a30:	c4397137          	lui	x2,0xc4397
    41015a34:	9751011b          	addiw	x2,x2,-1675 # ffffffffc4396975 <mem13+0x8e16342975>
    41015a38:	00c11113          	slli	x2,x2,0xc
    41015a3c:	03f3efb7          	lui	x31,0x3f3e
    41015a40:	0b8f8f9b          	addiw	x31,x31,184 # 3f3e0b8 <machine_csr_jump_table_flags>
    41015a44:	01300f13          	li	x30,19
    41015a48:	01efb023          	sd	x30,0(x31)
    41015a4c:	000f0fb7          	lui	x31,0xf0
    41015a50:	001f8f9b          	addiw	x31,x31,1 # f0001 <mem3+0x93001>
    41015a54:	00cf9f93          	slli	x31,x31,0xc
    41015a58:	005f8f93          	addi	x31,x31,5
    41015a5c:	00000073          	ecall
    41015a60:	00713023          	sd	x7,0(x2)
    41015a64:	03f3efb7          	lui	x31,0x3f3e
    41015a68:	0b8f8f9b          	addiw	x31,x31,184 # 3f3e0b8 <machine_csr_jump_table_flags>
    41015a6c:	00100f13          	li	x30,1
    41015a70:	01efb023          	sd	x30,0(x31)
    41015a74:	000f0fb7          	lui	x31,0xf0
    41015a78:	001f8f9b          	addiw	x31,x31,1 # f0001 <mem3+0x93001>
    41015a7c:	00cf9f93          	slli	x31,x31,0xc
    41015a80:	005f8f93          	addi	x31,x31,5
    41015a84:	00000073          	ecall
    41015a88:	00713423          	sd	x7,8(x2)
    41015a8c:	03f3efb7          	lui	x31,0x3f3e
    41015a90:	0b8f8f9b          	addiw	x31,x31,184 # 3f3e0b8 <machine_csr_jump_table_flags>
    41015a94:	00400f13          	li	x30,4
    41015a98:	01efb023          	sd	x30,0(x31)
    41015a9c:	000f0fb7          	lui	x31,0xf0
    41015aa0:	001f8f9b          	addiw	x31,x31,1 # f0001 <mem3+0x93001>
    41015aa4:	00cf9f93          	slli	x31,x31,0xc
    41015aa8:	005f8f93          	addi	x31,x31,5
    41015aac:	00000073          	ecall
    41015ab0:	00713823          	sd	x7,16(x2)
    41015ab4:	00005137          	lui	x2,0x5
    41015ab8:	000012b7          	lui	x5,0x1
    41015abc:	00510133          	add	x2,x2,x5
    41015ac0:	ff017113          	andi	x2,x2,-16
    41015ac4:	08000393          	li	x7,128
    41015ac8:	03f3efb7          	lui	x31,0x3f3e
    41015acc:	0b8f8f9b          	addiw	x31,x31,184 # 3f3e0b8 <machine_csr_jump_table_flags>
    41015ad0:	01600f13          	li	x30,22
    41015ad4:	01efb023          	sd	x30,0(x31)
    41015ad8:	000f0fb7          	lui	x31,0xf0
    41015adc:	001f8f9b          	addiw	x31,x31,1 # f0001 <mem3+0x93001>
    41015ae0:	00cf9f93          	slli	x31,x31,0xc
    41015ae4:	005f8f93          	addi	x31,x31,5
    41015ae8:	00000073          	ecall
    41015aec:	08000393          	li	x7,128
    41015af0:	03f3efb7          	lui	x31,0x3f3e
    41015af4:	0c0f8f9b          	addiw	x31,x31,192 # 3f3e0c0 <super_csr_jump_table_flags>
    41015af8:	01700f13          	li	x30,23
    41015afc:	01efb023          	sd	x30,0(x31)
    41015b00:	000f0fb7          	lui	x31,0xf0
    41015b04:	001f8f9b          	addiw	x31,x31,1 # f0001 <mem3+0x93001>
    41015b08:	00cf9f93          	slli	x31,x31,0xc
    41015b0c:	006f8f93          	addi	x31,x31,6
    41015b10:	00000073          	ecall
    41015b14:	08000393          	li	x7,128
    41015b18:	03f3efb7          	lui	x31,0x3f3e
    41015b1c:	0c0f8f9b          	addiw	x31,x31,192 # 3f3e0c0 <super_csr_jump_table_flags>
    41015b20:	01800f13          	li	x30,24
    41015b24:	01efb023          	sd	x30,0(x31)
    41015b28:	000f0fb7          	lui	x31,0xf0
    41015b2c:	001f8f9b          	addiw	x31,x31,1 # f0001 <mem3+0x93001>
    41015b30:	00cf9f93          	slli	x31,x31,0xc
    41015b34:	006f8f93          	addi	x31,x31,6
    41015b38:	00000073          	ecall
    41015b3c:	177ee837          	lui	x16,0x177ee
    41015b40:	00000513          	li	x10,0
    41015b44:	00a803b3          	add	x7,x16,x10
    41015b48:	0043a00f          	cbo.zero	(x7)
    41015b4c:	c4397137          	lui	x2,0xc4397
    41015b50:	9751011b          	addiw	x2,x2,-1675 # ffffffffc4396975 <mem13+0x8e16342975>
    41015b54:	00c11113          	slli	x2,x2,0xc
    41015b58:	00013383          	ld	x7,0(x2)
    41015b5c:	03f3efb7          	lui	x31,0x3f3e
    41015b60:	0b8f8f9b          	addiw	x31,x31,184 # 3f3e0b8 <machine_csr_jump_table_flags>
    41015b64:	01900f13          	li	x30,25
    41015b68:	01efb023          	sd	x30,0(x31)
    41015b6c:	000f0fb7          	lui	x31,0xf0
    41015b70:	001f8f9b          	addiw	x31,x31,1 # f0001 <mem3+0x93001>
    41015b74:	00cf9f93          	slli	x31,x31,0xc
    41015b78:	005f8f93          	addi	x31,x31,5
    41015b7c:	00000073          	ecall
    41015b80:	00813383          	ld	x7,8(x2)
    41015b84:	03f3efb7          	lui	x31,0x3f3e
    41015b88:	0b8f8f9b          	addiw	x31,x31,184 # 3f3e0b8 <machine_csr_jump_table_flags>
    41015b8c:	00300f13          	li	x30,3
    41015b90:	01efb023          	sd	x30,0(x31)
    41015b94:	000f0fb7          	lui	x31,0xf0
    41015b98:	001f8f9b          	addiw	x31,x31,1 # f0001 <mem3+0x93001>
    41015b9c:	00cf9f93          	slli	x31,x31,0xc
    41015ba0:	005f8f93          	addi	x31,x31,5
    41015ba4:	00000073          	ecall
    41015ba8:	01013383          	ld	x7,16(x2)
    41015bac:	03f3efb7          	lui	x31,0x3f3e
    41015bb0:	0b8f8f9b          	addiw	x31,x31,184 # 3f3e0b8 <machine_csr_jump_table_flags>
    41015bb4:	00600f13          	li	x30,6
    41015bb8:	01efb023          	sd	x30,0(x31)
    41015bbc:	000f0fb7          	lui	x31,0xf0
    41015bc0:	001f8f9b          	addiw	x31,x31,1 # f0001 <mem3+0x93001>
    41015bc4:	00cf9f93          	slli	x31,x31,0xc
    41015bc8:	005f8f93          	addi	x31,x31,5
    41015bcc:	00000073          	ecall

0000000041015bd0 <SID_ZICBO_017_passed>:
    41015bd0:	00f00f9b          	addiw	x31,x0,15
    41015bd4:	01cf9f93          	slli	x31,x31,0x1c
    41015bd8:	001f8f93          	addi	x31,x31,1
    41015bdc:	00000073          	ecall

0000000041015be0 <SID_ZICBO_018>:
    41015be0:	c4397137          	lui	x2,0xc4397
    41015be4:	9751011b          	addiw	x2,x2,-1675 # ffffffffc4396975 <mem13+0x8e16342975>
    41015be8:	00c11113          	slli	x2,x2,0xc
    41015bec:	03f3efb7          	lui	x31,0x3f3e
    41015bf0:	0b8f8f9b          	addiw	x31,x31,184 # 3f3e0b8 <machine_csr_jump_table_flags>
    41015bf4:	01300f13          	li	x30,19
    41015bf8:	01efb023          	sd	x30,0(x31)
    41015bfc:	000f0fb7          	lui	x31,0xf0
    41015c00:	001f8f9b          	addiw	x31,x31,1 # f0001 <mem3+0x93001>
    41015c04:	00cf9f93          	slli	x31,x31,0xc
    41015c08:	005f8f93          	addi	x31,x31,5
    41015c0c:	00000073          	ecall
    41015c10:	00713023          	sd	x7,0(x2)
    41015c14:	03f3efb7          	lui	x31,0x3f3e
    41015c18:	0b8f8f9b          	addiw	x31,x31,184 # 3f3e0b8 <machine_csr_jump_table_flags>
    41015c1c:	00100f13          	li	x30,1
    41015c20:	01efb023          	sd	x30,0(x31)
    41015c24:	000f0fb7          	lui	x31,0xf0
    41015c28:	001f8f9b          	addiw	x31,x31,1 # f0001 <mem3+0x93001>
    41015c2c:	00cf9f93          	slli	x31,x31,0xc
    41015c30:	005f8f93          	addi	x31,x31,5
    41015c34:	00000073          	ecall
    41015c38:	00713423          	sd	x7,8(x2)
    41015c3c:	03f3efb7          	lui	x31,0x3f3e
    41015c40:	0b8f8f9b          	addiw	x31,x31,184 # 3f3e0b8 <machine_csr_jump_table_flags>
    41015c44:	00400f13          	li	x30,4
    41015c48:	01efb023          	sd	x30,0(x31)
    41015c4c:	000f0fb7          	lui	x31,0xf0
    41015c50:	001f8f9b          	addiw	x31,x31,1 # f0001 <mem3+0x93001>
    41015c54:	00cf9f93          	slli	x31,x31,0xc
    41015c58:	005f8f93          	addi	x31,x31,5
    41015c5c:	00000073          	ecall
    41015c60:	00713823          	sd	x7,16(x2)
    41015c64:	00039137          	lui	x2,0x39
    41015c68:	000012b7          	lui	x5,0x1
    41015c6c:	00510133          	add	x2,x2,x5
    41015c70:	ff017113          	andi	x2,x2,-16
    41015c74:	0f000393          	li	x7,240
    41015c78:	03f3efb7          	lui	x31,0x3f3e
    41015c7c:	0b8f8f9b          	addiw	x31,x31,184 # 3f3e0b8 <machine_csr_jump_table_flags>
    41015c80:	01600f13          	li	x30,22
    41015c84:	01efb023          	sd	x30,0(x31)
    41015c88:	000f0fb7          	lui	x31,0xf0
    41015c8c:	001f8f9b          	addiw	x31,x31,1 # f0001 <mem3+0x93001>
    41015c90:	00cf9f93          	slli	x31,x31,0xc
    41015c94:	005f8f93          	addi	x31,x31,5
    41015c98:	00000073          	ecall
    41015c9c:	0f000393          	li	x7,240
    41015ca0:	03f3efb7          	lui	x31,0x3f3e
    41015ca4:	0c0f8f9b          	addiw	x31,x31,192 # 3f3e0c0 <super_csr_jump_table_flags>
    41015ca8:	01700f13          	li	x30,23
    41015cac:	01efb023          	sd	x30,0(x31)
    41015cb0:	000f0fb7          	lui	x31,0xf0
    41015cb4:	001f8f9b          	addiw	x31,x31,1 # f0001 <mem3+0x93001>
    41015cb8:	00cf9f93          	slli	x31,x31,0xc
    41015cbc:	006f8f93          	addi	x31,x31,6
    41015cc0:	00000073          	ecall
    41015cc4:	0f000393          	li	x7,240
    41015cc8:	03f3efb7          	lui	x31,0x3f3e
    41015ccc:	0c0f8f9b          	addiw	x31,x31,192 # 3f3e0c0 <super_csr_jump_table_flags>
    41015cd0:	01800f13          	li	x30,24
    41015cd4:	01efb023          	sd	x30,0(x31)
    41015cd8:	000f0fb7          	lui	x31,0xf0
    41015cdc:	001f8f9b          	addiw	x31,x31,1 # f0001 <mem3+0x93001>
    41015ce0:	00cf9f93          	slli	x31,x31,0xc
    41015ce4:	006f8f93          	addi	x31,x31,6
    41015ce8:	00000073          	ecall
    41015cec:	03920f37          	lui	x30,0x3920
    41015cf0:	f11f0f1b          	addiw	x30,x30,-239 # 391ff11 <SID_ZICBO_005_stack+0x2980f11>
    41015cf4:	00cf1f13          	slli	x30,x30,0xc
    41015cf8:	000e5eb7          	lui	x29,0xe5
    41015cfc:	447e8e9b          	addiw	x29,x29,1095 # e5447 <mem3+0x88447>
    41015d00:	00ce9e93          	slli	x29,x29,0xc
    41015d04:	dd7e8e93          	addi	x29,x29,-553
    41015d08:	01df1023          	sh	x29,0(x30)
    41015d0c:	03920bb7          	lui	x23,0x3920
    41015d10:	f11b8b9b          	addiw	x23,x23,-239 # 391ff11 <SID_ZICBO_005_stack+0x2980f11>
    41015d14:	00cb9b93          	slli	x23,x23,0xc
    41015d18:	00000a13          	li	x20,0
    41015d1c:	014b8cb3          	add	x25,x23,x20
    41015d20:	004ca00f          	cbo.zero	(x25)
    41015d24:	03920f37          	lui	x30,0x3920
    41015d28:	f11f0f1b          	addiw	x30,x30,-239 # 391ff11 <SID_ZICBO_005_stack+0x2980f11>
    41015d2c:	00cf1f13          	slli	x30,x30,0xc
    41015d30:	000f2683          	lw	x13,0(x30)
    41015d34:	00d68a63          	beq	x13,x13,41015d48 <pass_label_0>
    41015d38:	03f3e8b7          	lui	x17,0x3f3e
    41015d3c:	0088889b          	addiw	x17,x17,8 # 3f3e008 <failed_addr>
    41015d40:	0008b903          	ld	x18,0(x17)
    41015d44:	00090067          	jr	x18

0000000041015d48 <pass_label_0>:
    41015d48:	c4397137          	lui	x2,0xc4397
    41015d4c:	9751011b          	addiw	x2,x2,-1675 # ffffffffc4396975 <mem13+0x8e16342975>
    41015d50:	00c11113          	slli	x2,x2,0xc
    41015d54:	00013383          	ld	x7,0(x2)
    41015d58:	03f3efb7          	lui	x31,0x3f3e
    41015d5c:	0b8f8f9b          	addiw	x31,x31,184 # 3f3e0b8 <machine_csr_jump_table_flags>
    41015d60:	01900f13          	li	x30,25
    41015d64:	01efb023          	sd	x30,0(x31)
    41015d68:	000f0fb7          	lui	x31,0xf0
    41015d6c:	001f8f9b          	addiw	x31,x31,1 # f0001 <mem3+0x93001>
    41015d70:	00cf9f93          	slli	x31,x31,0xc
    41015d74:	005f8f93          	addi	x31,x31,5
    41015d78:	00000073          	ecall
    41015d7c:	00813383          	ld	x7,8(x2)
    41015d80:	03f3efb7          	lui	x31,0x3f3e
    41015d84:	0b8f8f9b          	addiw	x31,x31,184 # 3f3e0b8 <machine_csr_jump_table_flags>
    41015d88:	00300f13          	li	x30,3
    41015d8c:	01efb023          	sd	x30,0(x31)
    41015d90:	000f0fb7          	lui	x31,0xf0
    41015d94:	001f8f9b          	addiw	x31,x31,1 # f0001 <mem3+0x93001>
    41015d98:	00cf9f93          	slli	x31,x31,0xc
    41015d9c:	005f8f93          	addi	x31,x31,5
    41015da0:	00000073          	ecall
    41015da4:	01013383          	ld	x7,16(x2)
    41015da8:	03f3efb7          	lui	x31,0x3f3e
    41015dac:	0b8f8f9b          	addiw	x31,x31,184 # 3f3e0b8 <machine_csr_jump_table_flags>
    41015db0:	00600f13          	li	x30,6
    41015db4:	01efb023          	sd	x30,0(x31)
    41015db8:	000f0fb7          	lui	x31,0xf0
    41015dbc:	001f8f9b          	addiw	x31,x31,1 # f0001 <mem3+0x93001>
    41015dc0:	00cf9f93          	slli	x31,x31,0xc
    41015dc4:	005f8f93          	addi	x31,x31,5
    41015dc8:	00000073          	ecall

0000000041015dcc <SID_ZICBO_018_passed>:
    41015dcc:	00f00f9b          	addiw	x31,x0,15
    41015dd0:	01cf9f93          	slli	x31,x31,0x1c
    41015dd4:	001f8f93          	addi	x31,x31,1
    41015dd8:	00000073          	ecall

0000000041015ddc <SID_ZICBO_019>:
    41015ddc:	c4397137          	lui	x2,0xc4397
    41015de0:	9751011b          	addiw	x2,x2,-1675 # ffffffffc4396975 <mem13+0x8e16342975>
    41015de4:	00c11113          	slli	x2,x2,0xc
    41015de8:	03f3efb7          	lui	x31,0x3f3e
    41015dec:	0b8f8f9b          	addiw	x31,x31,184 # 3f3e0b8 <machine_csr_jump_table_flags>
    41015df0:	01300f13          	li	x30,19
    41015df4:	01efb023          	sd	x30,0(x31)
    41015df8:	000f0fb7          	lui	x31,0xf0
    41015dfc:	001f8f9b          	addiw	x31,x31,1 # f0001 <mem3+0x93001>
    41015e00:	00cf9f93          	slli	x31,x31,0xc
    41015e04:	005f8f93          	addi	x31,x31,5
    41015e08:	00000073          	ecall
    41015e0c:	00713023          	sd	x7,0(x2)
    41015e10:	03f3efb7          	lui	x31,0x3f3e
    41015e14:	0b8f8f9b          	addiw	x31,x31,184 # 3f3e0b8 <machine_csr_jump_table_flags>
    41015e18:	00100f13          	li	x30,1
    41015e1c:	01efb023          	sd	x30,0(x31)
    41015e20:	000f0fb7          	lui	x31,0xf0
    41015e24:	001f8f9b          	addiw	x31,x31,1 # f0001 <mem3+0x93001>
    41015e28:	00cf9f93          	slli	x31,x31,0xc
    41015e2c:	005f8f93          	addi	x31,x31,5
    41015e30:	00000073          	ecall
    41015e34:	00713423          	sd	x7,8(x2)
    41015e38:	03f3efb7          	lui	x31,0x3f3e
    41015e3c:	0b8f8f9b          	addiw	x31,x31,184 # 3f3e0b8 <machine_csr_jump_table_flags>
    41015e40:	00400f13          	li	x30,4
    41015e44:	01efb023          	sd	x30,0(x31)
    41015e48:	000f0fb7          	lui	x31,0xf0
    41015e4c:	001f8f9b          	addiw	x31,x31,1 # f0001 <mem3+0x93001>
    41015e50:	00cf9f93          	slli	x31,x31,0xc
    41015e54:	005f8f93          	addi	x31,x31,5
    41015e58:	00000073          	ecall
    41015e5c:	00713823          	sd	x7,16(x2)
    41015e60:	00124137          	lui	x2,0x124
    41015e64:	1171011b          	addiw	x2,x2,279 # 124117 <mem3+0xc7117>
    41015e68:	00c11113          	slli	x2,x2,0xc
    41015e6c:	000012b7          	lui	x5,0x1
    41015e70:	00510133          	add	x2,x2,x5
    41015e74:	ff017113          	andi	x2,x2,-16
    41015e78:	0f000393          	li	x7,240
    41015e7c:	03f3efb7          	lui	x31,0x3f3e
    41015e80:	0b8f8f9b          	addiw	x31,x31,184 # 3f3e0b8 <machine_csr_jump_table_flags>
    41015e84:	01600f13          	li	x30,22
    41015e88:	01efb023          	sd	x30,0(x31)
    41015e8c:	000f0fb7          	lui	x31,0xf0
    41015e90:	001f8f9b          	addiw	x31,x31,1 # f0001 <mem3+0x93001>
    41015e94:	00cf9f93          	slli	x31,x31,0xc
    41015e98:	005f8f93          	addi	x31,x31,5
    41015e9c:	00000073          	ecall
    41015ea0:	0f000393          	li	x7,240
    41015ea4:	03f3efb7          	lui	x31,0x3f3e
    41015ea8:	0c0f8f9b          	addiw	x31,x31,192 # 3f3e0c0 <super_csr_jump_table_flags>
    41015eac:	01700f13          	li	x30,23
    41015eb0:	01efb023          	sd	x30,0(x31)
    41015eb4:	000f0fb7          	lui	x31,0xf0
    41015eb8:	001f8f9b          	addiw	x31,x31,1 # f0001 <mem3+0x93001>
    41015ebc:	00cf9f93          	slli	x31,x31,0xc
    41015ec0:	006f8f93          	addi	x31,x31,6
    41015ec4:	00000073          	ecall
    41015ec8:	0f000393          	li	x7,240
    41015ecc:	03f3efb7          	lui	x31,0x3f3e
    41015ed0:	0c0f8f9b          	addiw	x31,x31,192 # 3f3e0c0 <super_csr_jump_table_flags>
    41015ed4:	01800f13          	li	x30,24
    41015ed8:	01efb023          	sd	x30,0(x31)
    41015edc:	000f0fb7          	lui	x31,0xf0
    41015ee0:	001f8f9b          	addiw	x31,x31,1 # f0001 <mem3+0x93001>
    41015ee4:	00cf9f93          	slli	x31,x31,0xc
    41015ee8:	006f8f93          	addi	x31,x31,6
    41015eec:	00000073          	ecall
    41015ef0:	d8de1bb7          	lui	x23,0xd8de1
    41015ef4:	9abb8b9b          	addiw	x23,x23,-1621 # ffffffffd8de09ab <mem13+0x8e2ad8c9ab>
    41015ef8:	00db9b93          	slli	x23,x23,0xd
    41015efc:	0007d9b7          	lui	x19,0x7d
    41015f00:	9a19899b          	addiw	x19,x19,-1631 # 7c9a1 <mem3+0x1f9a1>
    41015f04:	00d99993          	slli	x19,x19,0xd
    41015f08:	c6b98993          	addi	x19,x19,-917
    41015f0c:	d019f9d3          	fcvt.s.wu	f19,x19
    41015f10:	013bb027          	fsd	f19,0(x23)
    41015f14:	d8de1437          	lui	x8,0xd8de1
    41015f18:	9ab4041b          	addiw	x8,x8,-1621 # ffffffffd8de09ab <mem13+0x8e2ad8c9ab>
    41015f1c:	00d41413          	slli	x8,x8,0xd
    41015f20:	00000c93          	li	x25,0
    41015f24:	019407b3          	add	x15,x8,x25
    41015f28:	0047a00f          	cbo.zero	(x15)
    41015f2c:	d8de1437          	lui	x8,0xd8de1
    41015f30:	9ab4041b          	addiw	x8,x8,-1621 # ffffffffd8de09ab <mem13+0x8e2ad8c9ab>
    41015f34:	00d41413          	slli	x8,x8,0xd
    41015f38:	00042403          	lw	x8,0(x8)
    41015f3c:	0b7e1b37          	lui	x22,0xb7e1
    41015f40:	000b2d03          	lw	x26,0(x22) # b7e1000 <mem12>
    41015f44:	00840a63          	beq	x8,x8,41015f58 <pass_label_1>
    41015f48:	03f3ecb7          	lui	x25,0x3f3e
    41015f4c:	008c8c9b          	addiw	x25,x25,8 # 3f3e008 <failed_addr>
    41015f50:	000cb683          	ld	x13,0(x25)
    41015f54:	00068067          	jr	x13

0000000041015f58 <pass_label_1>:
    41015f58:	01ad0a63          	beq	x26,x26,41015f6c <pass_label_2>
    41015f5c:	03f3ec37          	lui	x24,0x3f3e
    41015f60:	008c0c1b          	addiw	x24,x24,8 # 3f3e008 <failed_addr>
    41015f64:	000c3983          	ld	x19,0(x24)
    41015f68:	00098067          	jr	x19

0000000041015f6c <pass_label_2>:
    41015f6c:	c4397137          	lui	x2,0xc4397
    41015f70:	9751011b          	addiw	x2,x2,-1675 # ffffffffc4396975 <mem13+0x8e16342975>
    41015f74:	00c11113          	slli	x2,x2,0xc
    41015f78:	00013383          	ld	x7,0(x2)
    41015f7c:	03f3efb7          	lui	x31,0x3f3e
    41015f80:	0b8f8f9b          	addiw	x31,x31,184 # 3f3e0b8 <machine_csr_jump_table_flags>
    41015f84:	01900f13          	li	x30,25
    41015f88:	01efb023          	sd	x30,0(x31)
    41015f8c:	000f0fb7          	lui	x31,0xf0
    41015f90:	001f8f9b          	addiw	x31,x31,1 # f0001 <mem3+0x93001>
    41015f94:	00cf9f93          	slli	x31,x31,0xc
    41015f98:	005f8f93          	addi	x31,x31,5
    41015f9c:	00000073          	ecall
    41015fa0:	00813383          	ld	x7,8(x2)
    41015fa4:	03f3efb7          	lui	x31,0x3f3e
    41015fa8:	0b8f8f9b          	addiw	x31,x31,184 # 3f3e0b8 <machine_csr_jump_table_flags>
    41015fac:	00300f13          	li	x30,3
    41015fb0:	01efb023          	sd	x30,0(x31)
    41015fb4:	000f0fb7          	lui	x31,0xf0
    41015fb8:	001f8f9b          	addiw	x31,x31,1 # f0001 <mem3+0x93001>
    41015fbc:	00cf9f93          	slli	x31,x31,0xc
    41015fc0:	005f8f93          	addi	x31,x31,5
    41015fc4:	00000073          	ecall
    41015fc8:	01013383          	ld	x7,16(x2)
    41015fcc:	03f3efb7          	lui	x31,0x3f3e
    41015fd0:	0b8f8f9b          	addiw	x31,x31,184 # 3f3e0b8 <machine_csr_jump_table_flags>
    41015fd4:	00600f13          	li	x30,6
    41015fd8:	01efb023          	sd	x30,0(x31)
    41015fdc:	000f0fb7          	lui	x31,0xf0
    41015fe0:	001f8f9b          	addiw	x31,x31,1 # f0001 <mem3+0x93001>
    41015fe4:	00cf9f93          	slli	x31,x31,0xc
    41015fe8:	005f8f93          	addi	x31,x31,5
    41015fec:	00000073          	ecall

0000000041015ff0 <SID_ZICBO_019_passed>:
    41015ff0:	00f00f9b          	addiw	x31,x0,15
    41015ff4:	01cf9f93          	slli	x31,x31,0x1c
    41015ff8:	001f8f93          	addi	x31,x31,1
    41015ffc:	00000073          	ecall

0000000041016000 <SID_ZICBO_020>:
    41016000:	c4397137          	lui	x2,0xc4397
    41016004:	9751011b          	addiw	x2,x2,-1675 # ffffffffc4396975 <mem13+0x8e16342975>
    41016008:	00c11113          	slli	x2,x2,0xc
    4101600c:	03f3efb7          	lui	x31,0x3f3e
    41016010:	0b8f8f9b          	addiw	x31,x31,184 # 3f3e0b8 <machine_csr_jump_table_flags>
    41016014:	01300f13          	li	x30,19
    41016018:	01efb023          	sd	x30,0(x31)
    4101601c:	000f0fb7          	lui	x31,0xf0
    41016020:	001f8f9b          	addiw	x31,x31,1 # f0001 <mem3+0x93001>
    41016024:	00cf9f93          	slli	x31,x31,0xc
    41016028:	005f8f93          	addi	x31,x31,5
    4101602c:	00000073          	ecall
    41016030:	00713023          	sd	x7,0(x2)
    41016034:	03f3efb7          	lui	x31,0x3f3e
    41016038:	0b8f8f9b          	addiw	x31,x31,184 # 3f3e0b8 <machine_csr_jump_table_flags>
    4101603c:	00100f13          	li	x30,1
    41016040:	01efb023          	sd	x30,0(x31)
    41016044:	000f0fb7          	lui	x31,0xf0
    41016048:	001f8f9b          	addiw	x31,x31,1 # f0001 <mem3+0x93001>
    4101604c:	00cf9f93          	slli	x31,x31,0xc
    41016050:	005f8f93          	addi	x31,x31,5
    41016054:	00000073          	ecall
    41016058:	00713423          	sd	x7,8(x2)
    4101605c:	03f3efb7          	lui	x31,0x3f3e
    41016060:	0b8f8f9b          	addiw	x31,x31,184 # 3f3e0b8 <machine_csr_jump_table_flags>
    41016064:	00400f13          	li	x30,4
    41016068:	01efb023          	sd	x30,0(x31)
    4101606c:	000f0fb7          	lui	x31,0xf0
    41016070:	001f8f9b          	addiw	x31,x31,1 # f0001 <mem3+0x93001>
    41016074:	00cf9f93          	slli	x31,x31,0xc
    41016078:	005f8f93          	addi	x31,x31,5
    4101607c:	00000073          	ecall
    41016080:	00713823          	sd	x7,16(x2)
    41016084:	00010137          	lui	x2,0x10
    41016088:	000012b7          	lui	x5,0x1
    4101608c:	00510133          	add	x2,x2,x5
    41016090:	ff017113          	andi	x2,x2,-16
    41016094:	0f000393          	li	x7,240
    41016098:	03f3efb7          	lui	x31,0x3f3e
    4101609c:	0b8f8f9b          	addiw	x31,x31,184 # 3f3e0b8 <machine_csr_jump_table_flags>
    410160a0:	01600f13          	li	x30,22
    410160a4:	01efb023          	sd	x30,0(x31)
    410160a8:	000f0fb7          	lui	x31,0xf0
    410160ac:	001f8f9b          	addiw	x31,x31,1 # f0001 <mem3+0x93001>
    410160b0:	00cf9f93          	slli	x31,x31,0xc
    410160b4:	005f8f93          	addi	x31,x31,5
    410160b8:	00000073          	ecall
    410160bc:	0f000393          	li	x7,240
    410160c0:	03f3efb7          	lui	x31,0x3f3e
    410160c4:	0c0f8f9b          	addiw	x31,x31,192 # 3f3e0c0 <super_csr_jump_table_flags>
    410160c8:	01700f13          	li	x30,23
    410160cc:	01efb023          	sd	x30,0(x31)
    410160d0:	000f0fb7          	lui	x31,0xf0
    410160d4:	001f8f9b          	addiw	x31,x31,1 # f0001 <mem3+0x93001>
    410160d8:	00cf9f93          	slli	x31,x31,0xc
    410160dc:	006f8f93          	addi	x31,x31,6
    410160e0:	00000073          	ecall
    410160e4:	0f000393          	li	x7,240
    410160e8:	03f3efb7          	lui	x31,0x3f3e
    410160ec:	0c0f8f9b          	addiw	x31,x31,192 # 3f3e0c0 <super_csr_jump_table_flags>
    410160f0:	01800f13          	li	x30,24
    410160f4:	01efb023          	sd	x30,0(x31)
    410160f8:	000f0fb7          	lui	x31,0xf0
    410160fc:	001f8f9b          	addiw	x31,x31,1 # f0001 <mem3+0x93001>
    41016100:	00cf9f93          	slli	x31,x31,0xc
    41016104:	006f8f93          	addi	x31,x31,6
    41016108:	00000073          	ecall
    4101610c:	fdc6c4b7          	lui	x9,0xfdc6c
    41016110:	8154849b          	addiw	x9,x9,-2027 # fffffffffdc6b815 <mem13+0x8e4fc17815>
    41016114:	00e49493          	slli	x9,x9,0xe
    41016118:	000c7b37          	lui	x22,0xc7
    4101611c:	9d5b0b1b          	addiw	x22,x22,-1579 # c69d5 <mem3+0x699d5>
    41016120:	00cb1b13          	slli	x22,x22,0xc
    41016124:	bdbb0b13          	addi	x22,x22,-1061
    41016128:	d03b7b53          	fcvt.s.lu	f22,x22
    4101612c:	0164a0a7          	fsw	f22,1(x9)
    41016130:	fdc6ccb7          	lui	x25,0xfdc6c
    41016134:	815c8c9b          	addiw	x25,x25,-2027 # fffffffffdc6b815 <mem13+0x8e4fc17815>
    41016138:	00ec9c93          	slli	x25,x25,0xe
    4101613c:	00000593          	li	x11,0
    41016140:	00bc8cb3          	add	x25,x25,x11
    41016144:	004ca00f          	cbo.zero	(x25)
    41016148:	fdc6c737          	lui	x14,0xfdc6c
    4101614c:	8157071b          	addiw	x14,x14,-2027 # fffffffffdc6b815 <mem13+0x8e4fc17815>
    41016150:	00e71713          	slli	x14,x14,0xe
    41016154:	00072e03          	lw	x28,0(x14)
    41016158:	0da78bb7          	lui	x23,0xda78
    4101615c:	2b5b8b9b          	addiw	x23,x23,693 # da782b5 <mem12+0x22972b5>
    41016160:	00cb9b93          	slli	x23,x23,0xc
    41016164:	000baa83          	lw	x21,0(x23)
    41016168:	01ce0a63          	beq	x28,x28,4101617c <pass_label_3>
    4101616c:	03f3ef37          	lui	x30,0x3f3e
    41016170:	008f0f1b          	addiw	x30,x30,8 # 3f3e008 <failed_addr>
    41016174:	000f3e03          	ld	x28,0(x30)
    41016178:	000e0067          	jr	x28

000000004101617c <pass_label_3>:
    4101617c:	015a8a63          	beq	x21,x21,41016190 <pass_label_4>
    41016180:	03f3e337          	lui	x6,0x3f3e
    41016184:	0083031b          	addiw	x6,x6,8 # 3f3e008 <failed_addr>
    41016188:	00033383          	ld	x7,0(x6)
    4101618c:	00038067          	jr	x7 # 3fbf000 <mem0>

0000000041016190 <pass_label_4>:
    41016190:	c4397137          	lui	x2,0xc4397
    41016194:	9751011b          	addiw	x2,x2,-1675 # ffffffffc4396975 <mem13+0x8e16342975>
    41016198:	00c11113          	slli	x2,x2,0xc
    4101619c:	00013383          	ld	x7,0(x2)
    410161a0:	03f3efb7          	lui	x31,0x3f3e
    410161a4:	0b8f8f9b          	addiw	x31,x31,184 # 3f3e0b8 <machine_csr_jump_table_flags>
    410161a8:	01900f13          	li	x30,25
    410161ac:	01efb023          	sd	x30,0(x31)
    410161b0:	000f0fb7          	lui	x31,0xf0
    410161b4:	001f8f9b          	addiw	x31,x31,1 # f0001 <mem3+0x93001>
    410161b8:	00cf9f93          	slli	x31,x31,0xc
    410161bc:	005f8f93          	addi	x31,x31,5
    410161c0:	00000073          	ecall
    410161c4:	00813383          	ld	x7,8(x2)
    410161c8:	03f3efb7          	lui	x31,0x3f3e
    410161cc:	0b8f8f9b          	addiw	x31,x31,184 # 3f3e0b8 <machine_csr_jump_table_flags>
    410161d0:	00300f13          	li	x30,3
    410161d4:	01efb023          	sd	x30,0(x31)
    410161d8:	000f0fb7          	lui	x31,0xf0
    410161dc:	001f8f9b          	addiw	x31,x31,1 # f0001 <mem3+0x93001>
    410161e0:	00cf9f93          	slli	x31,x31,0xc
    410161e4:	005f8f93          	addi	x31,x31,5
    410161e8:	00000073          	ecall
    410161ec:	01013383          	ld	x7,16(x2)
    410161f0:	03f3efb7          	lui	x31,0x3f3e
    410161f4:	0b8f8f9b          	addiw	x31,x31,184 # 3f3e0b8 <machine_csr_jump_table_flags>
    410161f8:	00600f13          	li	x30,6
    410161fc:	01efb023          	sd	x30,0(x31)
    41016200:	000f0fb7          	lui	x31,0xf0
    41016204:	001f8f9b          	addiw	x31,x31,1 # f0001 <mem3+0x93001>
    41016208:	00cf9f93          	slli	x31,x31,0xc
    4101620c:	005f8f93          	addi	x31,x31,5
    41016210:	00000073          	ecall

0000000041016214 <SID_ZICBO_020_passed>:
    41016214:	00f00f9b          	addiw	x31,x0,15
    41016218:	01cf9f93          	slli	x31,x31,0x1c
    4101621c:	001f8f93          	addi	x31,x31,1
    41016220:	00000073          	ecall

0000000041016224 <SID_ZICBO_047>:
    41016224:	c4397137          	lui	x2,0xc4397
    41016228:	9751011b          	addiw	x2,x2,-1675 # ffffffffc4396975 <mem13+0x8e16342975>
    4101622c:	00c11113          	slli	x2,x2,0xc
    41016230:	03f3efb7          	lui	x31,0x3f3e
    41016234:	0b8f8f9b          	addiw	x31,x31,184 # 3f3e0b8 <machine_csr_jump_table_flags>
    41016238:	01300f13          	li	x30,19
    4101623c:	01efb023          	sd	x30,0(x31)
    41016240:	000f0fb7          	lui	x31,0xf0
    41016244:	001f8f9b          	addiw	x31,x31,1 # f0001 <mem3+0x93001>
    41016248:	00cf9f93          	slli	x31,x31,0xc
    4101624c:	005f8f93          	addi	x31,x31,5
    41016250:	00000073          	ecall
    41016254:	00713023          	sd	x7,0(x2)
    41016258:	03f3efb7          	lui	x31,0x3f3e
    4101625c:	0b8f8f9b          	addiw	x31,x31,184 # 3f3e0b8 <machine_csr_jump_table_flags>
    41016260:	00100f13          	li	x30,1
    41016264:	01efb023          	sd	x30,0(x31)
    41016268:	000f0fb7          	lui	x31,0xf0
    4101626c:	001f8f9b          	addiw	x31,x31,1 # f0001 <mem3+0x93001>
    41016270:	00cf9f93          	slli	x31,x31,0xc
    41016274:	005f8f93          	addi	x31,x31,5
    41016278:	00000073          	ecall
    4101627c:	00713423          	sd	x7,8(x2)
    41016280:	03f3efb7          	lui	x31,0x3f3e
    41016284:	0b8f8f9b          	addiw	x31,x31,184 # 3f3e0b8 <machine_csr_jump_table_flags>
    41016288:	00400f13          	li	x30,4
    4101628c:	01efb023          	sd	x30,0(x31)
    41016290:	000f0fb7          	lui	x31,0xf0
    41016294:	001f8f9b          	addiw	x31,x31,1 # f0001 <mem3+0x93001>
    41016298:	00cf9f93          	slli	x31,x31,0xc
    4101629c:	005f8f93          	addi	x31,x31,5
    410162a0:	00000073          	ecall
    410162a4:	00713823          	sd	x7,16(x2)
    410162a8:	001cd137          	lui	x2,0x1cd
    410162ac:	fed1011b          	addiw	x2,x2,-19 # 1ccfed <mem3+0x16ffed>
    410162b0:	00c11113          	slli	x2,x2,0xc
    410162b4:	81110113          	addi	x2,x2,-2031
    410162b8:	00d11113          	slli	x2,x2,0xd
    410162bc:	000012b7          	lui	x5,0x1
    410162c0:	00510133          	add	x2,x2,x5
    410162c4:	ff017113          	andi	x2,x2,-16
    410162c8:	0f000393          	li	x7,240
    410162cc:	03f3efb7          	lui	x31,0x3f3e
    410162d0:	0b8f8f9b          	addiw	x31,x31,184 # 3f3e0b8 <machine_csr_jump_table_flags>
    410162d4:	01600f13          	li	x30,22
    410162d8:	01efb023          	sd	x30,0(x31)
    410162dc:	000f0fb7          	lui	x31,0xf0
    410162e0:	001f8f9b          	addiw	x31,x31,1 # f0001 <mem3+0x93001>
    410162e4:	00cf9f93          	slli	x31,x31,0xc
    410162e8:	005f8f93          	addi	x31,x31,5
    410162ec:	00000073          	ecall
    410162f0:	0f000393          	li	x7,240
    410162f4:	03f3efb7          	lui	x31,0x3f3e
    410162f8:	0c0f8f9b          	addiw	x31,x31,192 # 3f3e0c0 <super_csr_jump_table_flags>
    410162fc:	01700f13          	li	x30,23
    41016300:	01efb023          	sd	x30,0(x31)
    41016304:	000f0fb7          	lui	x31,0xf0
    41016308:	001f8f9b          	addiw	x31,x31,1 # f0001 <mem3+0x93001>
    4101630c:	00cf9f93          	slli	x31,x31,0xc
    41016310:	006f8f93          	addi	x31,x31,6
    41016314:	00000073          	ecall
    41016318:	0f000393          	li	x7,240
    4101631c:	03f3efb7          	lui	x31,0x3f3e
    41016320:	0c0f8f9b          	addiw	x31,x31,192 # 3f3e0c0 <super_csr_jump_table_flags>
    41016324:	01800f13          	li	x30,24
    41016328:	01efb023          	sd	x30,0(x31)
    4101632c:	000f0fb7          	lui	x31,0xf0
    41016330:	001f8f9b          	addiw	x31,x31,1 # f0001 <mem3+0x93001>
    41016334:	00cf9f93          	slli	x31,x31,0xc
    41016338:	006f8f93          	addi	x31,x31,6
    4101633c:	00000073          	ecall
    41016340:	03e10cb7          	lui	x25,0x3e10
    41016344:	00000993          	li	x19,0
    41016348:	013c8eb3          	add	x29,x25,x19
    4101634c:	002ea00f          	cbo.flush	(x29)
    41016350:	03e10637          	lui	x12,0x3e10
    41016354:	00000693          	li	x13,0
    41016358:	00d60db3          	add	x27,x12,x13
    4101635c:	000dc803          	lbu	x16,0(x27)
    41016360:	03e10337          	lui	x6,0x3e10
    41016364:	00000813          	li	x16,0
    41016368:	010308b3          	add	x17,x6,x16
    4101636c:	0018a00f          	cbo.clean	(x17)
    41016370:	03e10cb7          	lui	x25,0x3e10
    41016374:	00000993          	li	x19,0
    41016378:	013c8a33          	add	x20,x25,x19
    4101637c:	0004ce37          	lui	x28,0x4c
    41016380:	ed7e0e1b          	addiw	x28,x28,-297 # 4bed7 <pma_region_0_size+0xbed7>
    41016384:	00de1e13          	slli	x28,x28,0xd
    41016388:	390e0e13          	addi	x28,x28,912
    4101638c:	01ca1023          	sh	x28,0(x20)
    41016390:	03e10637          	lui	x12,0x3e10
    41016394:	00000d13          	li	x26,0
    41016398:	01a60833          	add	x16,x12,x26
    4101639c:	0008200f          	cbo.inval	(x16)
    410163a0:	03e10f37          	lui	x30,0x3e10
    410163a4:	00000693          	li	x13,0
    410163a8:	00df0b33          	add	x22,x30,x13
    410163ac:	000b2b07          	flw	f22,0(x22)
    410163b0:	c4397137          	lui	x2,0xc4397
    410163b4:	9751011b          	addiw	x2,x2,-1675 # ffffffffc4396975 <mem13+0x8e16342975>
    410163b8:	00c11113          	slli	x2,x2,0xc
    410163bc:	00013383          	ld	x7,0(x2)
    410163c0:	03f3efb7          	lui	x31,0x3f3e
    410163c4:	0b8f8f9b          	addiw	x31,x31,184 # 3f3e0b8 <machine_csr_jump_table_flags>
    410163c8:	01900f13          	li	x30,25
    410163cc:	01efb023          	sd	x30,0(x31)
    410163d0:	000f0fb7          	lui	x31,0xf0
    410163d4:	001f8f9b          	addiw	x31,x31,1 # f0001 <mem3+0x93001>
    410163d8:	00cf9f93          	slli	x31,x31,0xc
    410163dc:	005f8f93          	addi	x31,x31,5
    410163e0:	00000073          	ecall
    410163e4:	00813383          	ld	x7,8(x2)
    410163e8:	03f3efb7          	lui	x31,0x3f3e
    410163ec:	0b8f8f9b          	addiw	x31,x31,184 # 3f3e0b8 <machine_csr_jump_table_flags>
    410163f0:	00300f13          	li	x30,3
    410163f4:	01efb023          	sd	x30,0(x31)
    410163f8:	000f0fb7          	lui	x31,0xf0
    410163fc:	001f8f9b          	addiw	x31,x31,1 # f0001 <mem3+0x93001>
    41016400:	00cf9f93          	slli	x31,x31,0xc
    41016404:	005f8f93          	addi	x31,x31,5
    41016408:	00000073          	ecall
    4101640c:	01013383          	ld	x7,16(x2)
    41016410:	03f3efb7          	lui	x31,0x3f3e
    41016414:	0b8f8f9b          	addiw	x31,x31,184 # 3f3e0b8 <machine_csr_jump_table_flags>
    41016418:	00600f13          	li	x30,6
    4101641c:	01efb023          	sd	x30,0(x31)
    41016420:	000f0fb7          	lui	x31,0xf0
    41016424:	001f8f9b          	addiw	x31,x31,1 # f0001 <mem3+0x93001>
    41016428:	00cf9f93          	slli	x31,x31,0xc
    4101642c:	005f8f93          	addi	x31,x31,5
    41016430:	00000073          	ecall

0000000041016434 <SID_ZICBO_047_passed>:
    41016434:	00f00f9b          	addiw	x31,x0,15
    41016438:	01cf9f93          	slli	x31,x31,0x1c
    4101643c:	001f8f93          	addi	x31,x31,1
    41016440:	00000073          	ecall

0000000041016444 <SID_ZICBO_049>:
    41016444:	c4397137          	lui	x2,0xc4397
    41016448:	9751011b          	addiw	x2,x2,-1675 # ffffffffc4396975 <mem13+0x8e16342975>
    4101644c:	00c11113          	slli	x2,x2,0xc
    41016450:	03f3efb7          	lui	x31,0x3f3e
    41016454:	0b8f8f9b          	addiw	x31,x31,184 # 3f3e0b8 <machine_csr_jump_table_flags>
    41016458:	01300f13          	li	x30,19
    4101645c:	01efb023          	sd	x30,0(x31)
    41016460:	000f0fb7          	lui	x31,0xf0
    41016464:	001f8f9b          	addiw	x31,x31,1 # f0001 <mem3+0x93001>
    41016468:	00cf9f93          	slli	x31,x31,0xc
    4101646c:	005f8f93          	addi	x31,x31,5
    41016470:	00000073          	ecall
    41016474:	00713023          	sd	x7,0(x2)
    41016478:	03f3efb7          	lui	x31,0x3f3e
    4101647c:	0b8f8f9b          	addiw	x31,x31,184 # 3f3e0b8 <machine_csr_jump_table_flags>
    41016480:	00100f13          	li	x30,1
    41016484:	01efb023          	sd	x30,0(x31)
    41016488:	000f0fb7          	lui	x31,0xf0
    4101648c:	001f8f9b          	addiw	x31,x31,1 # f0001 <mem3+0x93001>
    41016490:	00cf9f93          	slli	x31,x31,0xc
    41016494:	005f8f93          	addi	x31,x31,5
    41016498:	00000073          	ecall
    4101649c:	00713423          	sd	x7,8(x2)
    410164a0:	03f3efb7          	lui	x31,0x3f3e
    410164a4:	0b8f8f9b          	addiw	x31,x31,184 # 3f3e0b8 <machine_csr_jump_table_flags>
    410164a8:	00400f13          	li	x30,4
    410164ac:	01efb023          	sd	x30,0(x31)
    410164b0:	000f0fb7          	lui	x31,0xf0
    410164b4:	001f8f9b          	addiw	x31,x31,1 # f0001 <mem3+0x93001>
    410164b8:	00cf9f93          	slli	x31,x31,0xc
    410164bc:	005f8f93          	addi	x31,x31,5
    410164c0:	00000073          	ecall
    410164c4:	00713823          	sd	x7,16(x2)
    410164c8:	3e19e137          	lui	x2,0x3e19e
    410164cc:	43d1011b          	addiw	x2,x2,1085 # 3e19e43d <mem9+0x269b043d>
    410164d0:	00c11113          	slli	x2,x2,0xc
    410164d4:	000012b7          	lui	x5,0x1
    410164d8:	00510133          	add	x2,x2,x5
    410164dc:	ff017113          	andi	x2,x2,-16
    410164e0:	0f000393          	li	x7,240
    410164e4:	03f3efb7          	lui	x31,0x3f3e
    410164e8:	0b8f8f9b          	addiw	x31,x31,184 # 3f3e0b8 <machine_csr_jump_table_flags>
    410164ec:	01600f13          	li	x30,22
    410164f0:	01efb023          	sd	x30,0(x31)
    410164f4:	000f0fb7          	lui	x31,0xf0
    410164f8:	001f8f9b          	addiw	x31,x31,1 # f0001 <mem3+0x93001>
    410164fc:	00cf9f93          	slli	x31,x31,0xc
    41016500:	005f8f93          	addi	x31,x31,5
    41016504:	00000073          	ecall
    41016508:	0f000393          	li	x7,240
    4101650c:	03f3efb7          	lui	x31,0x3f3e
    41016510:	0c0f8f9b          	addiw	x31,x31,192 # 3f3e0c0 <super_csr_jump_table_flags>
    41016514:	01700f13          	li	x30,23
    41016518:	01efb023          	sd	x30,0(x31)
    4101651c:	000f0fb7          	lui	x31,0xf0
    41016520:	001f8f9b          	addiw	x31,x31,1 # f0001 <mem3+0x93001>
    41016524:	00cf9f93          	slli	x31,x31,0xc
    41016528:	006f8f93          	addi	x31,x31,6
    4101652c:	00000073          	ecall
    41016530:	0f000393          	li	x7,240
    41016534:	03f3efb7          	lui	x31,0x3f3e
    41016538:	0c0f8f9b          	addiw	x31,x31,192 # 3f3e0c0 <super_csr_jump_table_flags>
    4101653c:	01800f13          	li	x30,24
    41016540:	01efb023          	sd	x30,0(x31)
    41016544:	000f0fb7          	lui	x31,0xf0
    41016548:	001f8f9b          	addiw	x31,x31,1 # f0001 <mem3+0x93001>
    4101654c:	00cf9f93          	slli	x31,x31,0xc
    41016550:	006f8f93          	addi	x31,x31,6
    41016554:	00000073          	ecall
    41016558:	03254f37          	lui	x30,0x3254
    4101655c:	7e1f0f1b          	addiw	x30,x30,2017 # 32547e1 <SID_ZICBO_005_stack+0x22b57e1>
    41016560:	00df1f13          	slli	x30,x30,0xd
    41016564:	00000313          	li	x6,0
    41016568:	006f0a33          	add	x20,x30,x6
    4101656c:	100a2a2f          	lr.w	x20,(x20)
    41016570:	03254f37          	lui	x30,0x3254
    41016574:	7e1f0f1b          	addiw	x30,x30,2017 # 32547e1 <SID_ZICBO_005_stack+0x22b57e1>
    41016578:	00df1f13          	slli	x30,x30,0xd
    4101657c:	00000c93          	li	x25,0
    41016580:	019f0cb3          	add	x25,x30,x25
    41016584:	002ca00f          	cbo.flush	(x25)
    41016588:	03254637          	lui	x12,0x3254
    4101658c:	7e16061b          	addiw	x12,x12,2017 # 32547e1 <SID_ZICBO_005_stack+0x22b57e1>
    41016590:	00d61613          	slli	x12,x12,0xd
    41016594:	00000d93          	li	x27,0
    41016598:	01b60633          	add	x12,x12,x27
    4101659c:	0009ceb7          	lui	x29,0x9c
    410165a0:	e3de8e9b          	addiw	x29,x29,-451 # 9be3d <mem3+0x3ee3d>
    410165a4:	00ce9e93          	slli	x29,x29,0xc
    410165a8:	ecee8e93          	addi	x29,x29,-306
    410165ac:	19d627af          	sc.w	x15,x29,(x12)
    410165b0:	03254c37          	lui	x24,0x3254
    410165b4:	7e1c0c1b          	addiw	x24,x24,2017 # 32547e1 <SID_ZICBO_005_stack+0x22b57e1>
    410165b8:	00dc1c13          	slli	x24,x24,0xd
    410165bc:	000c2f87          	flw	f31,0(x24)
    410165c0:	c4397137          	lui	x2,0xc4397
    410165c4:	9751011b          	addiw	x2,x2,-1675 # ffffffffc4396975 <mem13+0x8e16342975>
    410165c8:	00c11113          	slli	x2,x2,0xc
    410165cc:	00013383          	ld	x7,0(x2)
    410165d0:	03f3efb7          	lui	x31,0x3f3e
    410165d4:	0b8f8f9b          	addiw	x31,x31,184 # 3f3e0b8 <machine_csr_jump_table_flags>
    410165d8:	01900f13          	li	x30,25
    410165dc:	01efb023          	sd	x30,0(x31)
    410165e0:	000f0fb7          	lui	x31,0xf0
    410165e4:	001f8f9b          	addiw	x31,x31,1 # f0001 <mem3+0x93001>
    410165e8:	00cf9f93          	slli	x31,x31,0xc
    410165ec:	005f8f93          	addi	x31,x31,5
    410165f0:	00000073          	ecall
    410165f4:	00813383          	ld	x7,8(x2)
    410165f8:	03f3efb7          	lui	x31,0x3f3e
    410165fc:	0b8f8f9b          	addiw	x31,x31,184 # 3f3e0b8 <machine_csr_jump_table_flags>
    41016600:	00300f13          	li	x30,3
    41016604:	01efb023          	sd	x30,0(x31)
    41016608:	000f0fb7          	lui	x31,0xf0
    4101660c:	001f8f9b          	addiw	x31,x31,1 # f0001 <mem3+0x93001>
    41016610:	00cf9f93          	slli	x31,x31,0xc
    41016614:	005f8f93          	addi	x31,x31,5
    41016618:	00000073          	ecall
    4101661c:	01013383          	ld	x7,16(x2)
    41016620:	03f3efb7          	lui	x31,0x3f3e
    41016624:	0b8f8f9b          	addiw	x31,x31,184 # 3f3e0b8 <machine_csr_jump_table_flags>
    41016628:	00600f13          	li	x30,6
    4101662c:	01efb023          	sd	x30,0(x31)
    41016630:	000f0fb7          	lui	x31,0xf0
    41016634:	001f8f9b          	addiw	x31,x31,1 # f0001 <mem3+0x93001>
    41016638:	00cf9f93          	slli	x31,x31,0xc
    4101663c:	005f8f93          	addi	x31,x31,5
    41016640:	00000073          	ecall

0000000041016644 <SID_ZICBO_049_passed>:
    41016644:	00f00f9b          	addiw	x31,x0,15
    41016648:	01cf9f93          	slli	x31,x31,0x1c
    4101664c:	001f8f93          	addi	x31,x31,1
    41016650:	00000073          	ecall

0000000041016654 <SID_ZICBO_50_ZIC64B_01>:
    41016654:	c4397137          	lui	x2,0xc4397
    41016658:	9751011b          	addiw	x2,x2,-1675 # ffffffffc4396975 <mem13+0x8e16342975>
    4101665c:	00c11113          	slli	x2,x2,0xc
    41016660:	03f3efb7          	lui	x31,0x3f3e
    41016664:	0b8f8f9b          	addiw	x31,x31,184 # 3f3e0b8 <machine_csr_jump_table_flags>
    41016668:	01300f13          	li	x30,19
    4101666c:	01efb023          	sd	x30,0(x31)
    41016670:	000f0fb7          	lui	x31,0xf0
    41016674:	001f8f9b          	addiw	x31,x31,1 # f0001 <mem3+0x93001>
    41016678:	00cf9f93          	slli	x31,x31,0xc
    4101667c:	005f8f93          	addi	x31,x31,5
    41016680:	00000073          	ecall
    41016684:	00713023          	sd	x7,0(x2)
    41016688:	03f3efb7          	lui	x31,0x3f3e
    4101668c:	0b8f8f9b          	addiw	x31,x31,184 # 3f3e0b8 <machine_csr_jump_table_flags>
    41016690:	00100f13          	li	x30,1
    41016694:	01efb023          	sd	x30,0(x31)
    41016698:	000f0fb7          	lui	x31,0xf0
    4101669c:	001f8f9b          	addiw	x31,x31,1 # f0001 <mem3+0x93001>
    410166a0:	00cf9f93          	slli	x31,x31,0xc
    410166a4:	005f8f93          	addi	x31,x31,5
    410166a8:	00000073          	ecall
    410166ac:	00713423          	sd	x7,8(x2)
    410166b0:	03f3efb7          	lui	x31,0x3f3e
    410166b4:	0b8f8f9b          	addiw	x31,x31,184 # 3f3e0b8 <machine_csr_jump_table_flags>
    410166b8:	00400f13          	li	x30,4
    410166bc:	01efb023          	sd	x30,0(x31)
    410166c0:	000f0fb7          	lui	x31,0xf0
    410166c4:	001f8f9b          	addiw	x31,x31,1 # f0001 <mem3+0x93001>
    410166c8:	00cf9f93          	slli	x31,x31,0xc
    410166cc:	005f8f93          	addi	x31,x31,5
    410166d0:	00000073          	ecall
    410166d4:	00713823          	sd	x7,16(x2)
    410166d8:	02c66137          	lui	x2,0x2c66
    410166dc:	8671011b          	addiw	x2,x2,-1945 # 2c65867 <SID_ZICBO_005_stack+0x1cc6867>
    410166e0:	00d11113          	slli	x2,x2,0xd
    410166e4:	000012b7          	lui	x5,0x1
    410166e8:	00510133          	add	x2,x2,x5
    410166ec:	ff017113          	andi	x2,x2,-16
    410166f0:	0f000393          	li	x7,240
    410166f4:	03f3efb7          	lui	x31,0x3f3e
    410166f8:	0b8f8f9b          	addiw	x31,x31,184 # 3f3e0b8 <machine_csr_jump_table_flags>
    410166fc:	01600f13          	li	x30,22
    41016700:	01efb023          	sd	x30,0(x31)
    41016704:	000f0fb7          	lui	x31,0xf0
    41016708:	001f8f9b          	addiw	x31,x31,1 # f0001 <mem3+0x93001>
    4101670c:	00cf9f93          	slli	x31,x31,0xc
    41016710:	005f8f93          	addi	x31,x31,5
    41016714:	00000073          	ecall
    41016718:	0f000393          	li	x7,240
    4101671c:	03f3efb7          	lui	x31,0x3f3e
    41016720:	0c0f8f9b          	addiw	x31,x31,192 # 3f3e0c0 <super_csr_jump_table_flags>
    41016724:	01700f13          	li	x30,23
    41016728:	01efb023          	sd	x30,0(x31)
    4101672c:	000f0fb7          	lui	x31,0xf0
    41016730:	001f8f9b          	addiw	x31,x31,1 # f0001 <mem3+0x93001>
    41016734:	00cf9f93          	slli	x31,x31,0xc
    41016738:	006f8f93          	addi	x31,x31,6
    4101673c:	00000073          	ecall
    41016740:	0f000393          	li	x7,240
    41016744:	03f3efb7          	lui	x31,0x3f3e
    41016748:	0c0f8f9b          	addiw	x31,x31,192 # 3f3e0c0 <super_csr_jump_table_flags>
    4101674c:	01800f13          	li	x30,24
    41016750:	01efb023          	sd	x30,0(x31)
    41016754:	000f0fb7          	lui	x31,0xf0
    41016758:	001f8f9b          	addiw	x31,x31,1 # f0001 <mem3+0x93001>
    4101675c:	00cf9f93          	slli	x31,x31,0xc
    41016760:	006f8f93          	addi	x31,x31,6
    41016764:	00000073          	ecall
    41016768:	00073337          	lui	x6,0x73
    4101676c:	3fb3031b          	addiw	x6,x6,1019 # 733fb <mem3+0x163fb>
    41016770:	00d31313          	slli	x6,x6,0xd
    41016774:	40930313          	addi	x6,x6,1033
    41016778:	00e31313          	slli	x6,x6,0xe
    4101677c:	0003ccb7          	lui	x25,0x3c
    41016780:	399c8c9b          	addiw	x25,x25,921 # 3c399 <SID_ZICBO_018_stack+0x3399>
    41016784:	00ec9c93          	slli	x25,x25,0xe
    41016788:	2f7c8c93          	addi	x25,x25,759
    4101678c:	01930023          	sb	x25,0(x6)
    41016790:	00073d37          	lui	x26,0x73
    41016794:	3fbd0d1b          	addiw	x26,x26,1019 # 733fb <mem3+0x163fb>
    41016798:	00dd1d13          	slli	x26,x26,0xd
    4101679c:	409d0d13          	addi	x26,x26,1033
    410167a0:	00ed1d13          	slli	x26,x26,0xe
    410167a4:	00041eb7          	lui	x29,0x41
    410167a8:	9abe8e9b          	addiw	x29,x29,-1621 # 409ab <pma_region_0_size+0x9ab>
    410167ac:	00de9e93          	slli	x29,x29,0xd
    410167b0:	c56e8e93          	addi	x29,x29,-938
    410167b4:	03dd2023          	sw	x29,32(x26)
    410167b8:	00073eb7          	lui	x29,0x73
    410167bc:	3fbe8e9b          	addiw	x29,x29,1019 # 733fb <mem3+0x163fb>
    410167c0:	00de9e93          	slli	x29,x29,0xd
    410167c4:	409e8e93          	addi	x29,x29,1033
    410167c8:	00ee9e93          	slli	x29,x29,0xe
    410167cc:	69d49f37          	lui	x30,0x69d49
    410167d0:	5e0f0f1b          	addiw	x30,x30,1504 # 69d495e0 <pma_region_2_end+0x24d085e0>
    410167d4:	03ee9c23          	sh	x30,56(x29)
    410167d8:	00073937          	lui	x18,0x73
    410167dc:	3fb9091b          	addiw	x18,x18,1019 # 733fb <mem3+0x163fb>
    410167e0:	00d91913          	slli	x18,x18,0xd
    410167e4:	40990913          	addi	x18,x18,1033
    410167e8:	00e91913          	slli	x18,x18,0xe
    410167ec:	7c241bb7          	lui	x23,0x7c241
    410167f0:	d4cb8b9b          	addiw	x23,x23,-692 # 7c240d4c <pma_region_2_end+0x371ffd4c>
    410167f4:	d00bfa53          	fcvt.s.w	f20,x23
    410167f8:	05493027          	fsd	f20,64(x18)
    410167fc:	00073437          	lui	x8,0x73
    41016800:	3fb4041b          	addiw	x8,x8,1019 # 733fb <mem3+0x163fb>
    41016804:	00d41413          	slli	x8,x8,0xd
    41016808:	40940413          	addi	x8,x8,1033
    4101680c:	00e41413          	slli	x8,x8,0xe
    41016810:	000d0837          	lui	x16,0xd0
    41016814:	37d8081b          	addiw	x16,x16,893 # d037d <mem3+0x7337d>
    41016818:	00c81813          	slli	x16,x16,0xc
    4101681c:	e0280813          	addi	x16,x16,-510
    41016820:	d0387b53          	fcvt.s.lu	f22,x16
    41016824:	07643027          	fsd	f22,96(x8)
    41016828:	00073737          	lui	x14,0x73
    4101682c:	3fb7071b          	addiw	x14,x14,1019 # 733fb <mem3+0x163fb>
    41016830:	00d71713          	slli	x14,x14,0xd
    41016834:	40970713          	addi	x14,x14,1033
    41016838:	00e71713          	slli	x14,x14,0xe
    4101683c:	5b569cb7          	lui	x25,0x5b569
    41016840:	646c8c9b          	addiw	x25,x25,1606 # 5b569646 <pma_region_2_end+0x16528646>
    41016844:	07973c23          	sd	x25,120(x14)
    41016848:	00073eb7          	lui	x29,0x73
    4101684c:	3fbe8e9b          	addiw	x29,x29,1019 # 733fb <mem3+0x163fb>
    41016850:	00de9e93          	slli	x29,x29,0xd
    41016854:	409e8e93          	addi	x29,x29,1033
    41016858:	00ee9e93          	slli	x29,x29,0xe
    4101685c:	00000793          	li	x15,0
    41016860:	00fe85b3          	add	x11,x29,x15
    41016864:	0045a00f          	cbo.zero	(x11)
    41016868:	00000593          	li	x11,0
    4101686c:	00073bb7          	lui	x23,0x73
    41016870:	3fbb8b9b          	addiw	x23,x23,1019 # 733fb <mem3+0x163fb>
    41016874:	00db9b93          	slli	x23,x23,0xd
    41016878:	409b8b93          	addi	x23,x23,1033
    4101687c:	00eb9b93          	slli	x23,x23,0xe
    41016880:	000bbb03          	ld	x22,0(x23)
    41016884:	00bb0a63          	beq	x22,x11,41016898 <pass_label_5>
    41016888:	03f3e537          	lui	x10,0x3f3e
    4101688c:	0085051b          	addiw	x10,x10,8 # 3f3e008 <failed_addr>
    41016890:	00053783          	ld	x15,0(x10)
    41016894:	00078067          	jr	x15

0000000041016898 <pass_label_5>:
    41016898:	000736b7          	lui	x13,0x73
    4101689c:	3fb6869b          	addiw	x13,x13,1019 # 733fb <mem3+0x163fb>
    410168a0:	00d69693          	slli	x13,x13,0xd
    410168a4:	40968693          	addi	x13,x13,1033
    410168a8:	00e69693          	slli	x13,x13,0xe
    410168ac:	0206b883          	ld	x17,32(x13)
    410168b0:	00b88a63          	beq	x17,x11,410168c4 <pass_label_6>
    410168b4:	03f3e4b7          	lui	x9,0x3f3e
    410168b8:	0084849b          	addiw	x9,x9,8 # 3f3e008 <failed_addr>
    410168bc:	0004b403          	ld	x8,0(x9)
    410168c0:	00040067          	jr	x8

00000000410168c4 <pass_label_6>:
    410168c4:	00073637          	lui	x12,0x73
    410168c8:	3fb6061b          	addiw	x12,x12,1019 # 733fb <mem3+0x163fb>
    410168cc:	00d61613          	slli	x12,x12,0xd
    410168d0:	40960613          	addi	x12,x12,1033
    410168d4:	00e61613          	slli	x12,x12,0xe
    410168d8:	03863603          	ld	x12,56(x12)
    410168dc:	00b60a63          	beq	x12,x11,410168f0 <pass_label_7>
    410168e0:	03f3e637          	lui	x12,0x3f3e
    410168e4:	0086061b          	addiw	x12,x12,8 # 3f3e008 <failed_addr>
    410168e8:	00063303          	ld	x6,0(x12)
    410168ec:	00030067          	jr	x6

00000000410168f0 <pass_label_7>:
    410168f0:	000733b7          	lui	x7,0x73
    410168f4:	3fb3839b          	addiw	x7,x7,1019 # 733fb <mem3+0x163fb>
    410168f8:	00d39393          	slli	x7,x7,0xd
    410168fc:	40938393          	addi	x7,x7,1033
    41016900:	00e39393          	slli	x7,x7,0xe
    41016904:	0403bf03          	ld	x30,64(x7)
    41016908:	00bf1a63          	bne	x30,x11,4101691c <pass_label_8>
    4101690c:	03f3ec37          	lui	x24,0x3f3e
    41016910:	008c0c1b          	addiw	x24,x24,8 # 3f3e008 <failed_addr>
    41016914:	000c3403          	ld	x8,0(x24)
    41016918:	00040067          	jr	x8

000000004101691c <pass_label_8>:
    4101691c:	00073fb7          	lui	x31,0x73
    41016920:	3fbf8f9b          	addiw	x31,x31,1019 # 733fb <mem3+0x163fb>
    41016924:	00df9f93          	slli	x31,x31,0xd
    41016928:	409f8f93          	addi	x31,x31,1033
    4101692c:	00ef9f93          	slli	x31,x31,0xe
    41016930:	060fbb83          	ld	x23,96(x31)
    41016934:	00bb9a63          	bne	x23,x11,41016948 <pass_label_9>
    41016938:	03f3ecb7          	lui	x25,0x3f3e
    4101693c:	008c8c9b          	addiw	x25,x25,8 # 3f3e008 <failed_addr>
    41016940:	000cba83          	ld	x21,0(x25)
    41016944:	000a8067          	jr	x21

0000000041016948 <pass_label_9>:
    41016948:	00073937          	lui	x18,0x73
    4101694c:	3fb9091b          	addiw	x18,x18,1019 # 733fb <mem3+0x163fb>
    41016950:	00d91913          	slli	x18,x18,0xd
    41016954:	40990913          	addi	x18,x18,1033
    41016958:	00e91913          	slli	x18,x18,0xe
    4101695c:	07893803          	ld	x16,120(x18)
    41016960:	00b81a63          	bne	x16,x11,41016974 <pass_label_10>
    41016964:	03f3e537          	lui	x10,0x3f3e
    41016968:	0085051b          	addiw	x10,x10,8 # 3f3e008 <failed_addr>
    4101696c:	00053c03          	ld	x24,0(x10)
    41016970:	000c0067          	jr	x24

0000000041016974 <pass_label_10>:
    41016974:	c4397137          	lui	x2,0xc4397
    41016978:	9751011b          	addiw	x2,x2,-1675 # ffffffffc4396975 <mem13+0x8e16342975>
    4101697c:	00c11113          	slli	x2,x2,0xc
    41016980:	00013383          	ld	x7,0(x2)
    41016984:	03f3efb7          	lui	x31,0x3f3e
    41016988:	0b8f8f9b          	addiw	x31,x31,184 # 3f3e0b8 <machine_csr_jump_table_flags>
    4101698c:	01900f13          	li	x30,25
    41016990:	01efb023          	sd	x30,0(x31)
    41016994:	000f0fb7          	lui	x31,0xf0
    41016998:	001f8f9b          	addiw	x31,x31,1 # f0001 <mem3+0x93001>
    4101699c:	00cf9f93          	slli	x31,x31,0xc
    410169a0:	005f8f93          	addi	x31,x31,5
    410169a4:	00000073          	ecall
    410169a8:	00813383          	ld	x7,8(x2)
    410169ac:	03f3efb7          	lui	x31,0x3f3e
    410169b0:	0b8f8f9b          	addiw	x31,x31,184 # 3f3e0b8 <machine_csr_jump_table_flags>
    410169b4:	00300f13          	li	x30,3
    410169b8:	01efb023          	sd	x30,0(x31)
    410169bc:	000f0fb7          	lui	x31,0xf0
    410169c0:	001f8f9b          	addiw	x31,x31,1 # f0001 <mem3+0x93001>
    410169c4:	00cf9f93          	slli	x31,x31,0xc
    410169c8:	005f8f93          	addi	x31,x31,5
    410169cc:	00000073          	ecall
    410169d0:	01013383          	ld	x7,16(x2)
    410169d4:	03f3efb7          	lui	x31,0x3f3e
    410169d8:	0b8f8f9b          	addiw	x31,x31,184 # 3f3e0b8 <machine_csr_jump_table_flags>
    410169dc:	00600f13          	li	x30,6
    410169e0:	01efb023          	sd	x30,0(x31)
    410169e4:	000f0fb7          	lui	x31,0xf0
    410169e8:	001f8f9b          	addiw	x31,x31,1 # f0001 <mem3+0x93001>
    410169ec:	00cf9f93          	slli	x31,x31,0xc
    410169f0:	005f8f93          	addi	x31,x31,5
    410169f4:	00000073          	ecall

00000000410169f8 <SID_ZICBO_50_ZIC64B_01_passed>:
    410169f8:	00f00f9b          	addiw	x31,x0,15
    410169fc:	01cf9f93          	slli	x31,x31,0x1c
    41016a00:	001f8f93          	addi	x31,x31,1
    41016a04:	00000073          	ecall

0000000041016a08 <test_cleanup>:
    41016a08:	00f00f9b          	addiw	x31,x0,15
    41016a0c:	01cf9f93          	slli	x31,x31,0x1c
    41016a10:	001f8f93          	addi	x31,x31,1
    41016a14:	00000073          	ecall

0000000041016a18 <local_test_failed>:
    41016a18:	00f00f9b          	addiw	x31,x0,15
    41016a1c:	01cf9f93          	slli	x31,x31,0x1c
    41016a20:	002f8f93          	addi	x31,x31,2
    41016a24:	00000073          	ecall

Disassembly of section .csr_machine_0:

0000000041215000 <csr_access_menvcfg_machine_key_3_write-0x70>:
    41215000:	44812fb7          	lui	x31,0x44812
    41215004:	0b8f8f9b          	addiw	x31,x31,184 # 448120b8 <machine_csr_jump_table_flags_pa>
    41215008:	000fbf83          	ld	x31,0(x31)
    4121500c:	00300293          	li	x5,3
    41215010:	065f8063          	beq	x31,x5,41215070 <csr_access_menvcfg_machine_key_3_write>
    41215014:	00100293          	li	x5,1
    41215018:	065f8063          	beq	x31,x5,41215078 <csr_access_menvcfg_machine_key_1_read>
    4121501c:	01600293          	li	x5,22
    41215020:	065f8063          	beq	x31,x5,41215080 <csr_access_menvcfg_machine_key_22_set>
    41215024:	00200293          	li	x5,2
    41215028:	065f8063          	beq	x31,x5,41215088 <csr_access_menvcfg_machine_key_2_clear>
    4121502c:	00600293          	li	x5,6
    41215030:	065f8063          	beq	x31,x5,41215090 <csr_access_senvcfg_supervisor_key_6_write>
    41215034:	00400293          	li	x5,4
    41215038:	065f8063          	beq	x31,x5,41215098 <csr_access_senvcfg_supervisor_key_4_read>
    4121503c:	01900293          	li	x5,25
    41215040:	065f8063          	beq	x31,x5,412150a0 <csr_access_henvcfg_supervisor_key_25_write>
    41215044:	01300293          	li	x5,19
    41215048:	065f8063          	beq	x31,x5,412150a8 <csr_access_henvcfg_supervisor_key_19_read>
    4121504c:	01c00293          	li	x5,28
    41215050:	065f8063          	beq	x31,x5,412150b0 <csr_access_mstatus_machine_key_28_set>
    41215054:	01a00293          	li	x5,26
    41215058:	065f8063          	beq	x31,x5,412150b8 <csr_access_mstatus_machine_key_26_clear>
    4121505c:	01f00293          	li	x5,31
    41215060:	065f8063          	beq	x31,x5,412150c0 <csr_access_mtvec_machine_key_31_set>
    41215064:	01e00293          	li	x5,30
    41215068:	065f8063          	beq	x31,x5,412150c8 <csr_access_mtvec_machine_key_30_clear>
    4121506c:	0640006f          	j	412150d0 <end_machine_label>

0000000041215070 <csr_access_menvcfg_machine_key_3_write>:
    41215070:	30a39073          	csrw	0x30a,x7
    41215074:	05c0006f          	j	412150d0 <end_machine_label>

0000000041215078 <csr_access_menvcfg_machine_key_1_read>:
    41215078:	30a023f3          	csrr	x7,0x30a
    4121507c:	0540006f          	j	412150d0 <end_machine_label>

0000000041215080 <csr_access_menvcfg_machine_key_22_set>:
    41215080:	30a3a073          	csrs	0x30a,x7
    41215084:	04c0006f          	j	412150d0 <end_machine_label>

0000000041215088 <csr_access_menvcfg_machine_key_2_clear>:
    41215088:	30a3b073          	csrc	0x30a,x7
    4121508c:	0440006f          	j	412150d0 <end_machine_label>

0000000041215090 <csr_access_senvcfg_supervisor_key_6_write>:
    41215090:	10a39073          	csrw	0x10a,x7
    41215094:	03c0006f          	j	412150d0 <end_machine_label>

0000000041215098 <csr_access_senvcfg_supervisor_key_4_read>:
    41215098:	10a023f3          	csrr	x7,0x10a
    4121509c:	0340006f          	j	412150d0 <end_machine_label>

00000000412150a0 <csr_access_henvcfg_supervisor_key_25_write>:
    412150a0:	60a39073          	csrw	henvcfg,x7
    412150a4:	02c0006f          	j	412150d0 <end_machine_label>

00000000412150a8 <csr_access_henvcfg_supervisor_key_19_read>:
    412150a8:	60a023f3          	csrr	x7,henvcfg
    412150ac:	0240006f          	j	412150d0 <end_machine_label>

00000000412150b0 <csr_access_mstatus_machine_key_28_set>:
    412150b0:	3003a073          	csrs	mstatus,x7
    412150b4:	01c0006f          	j	412150d0 <end_machine_label>

00000000412150b8 <csr_access_mstatus_machine_key_26_clear>:
    412150b8:	3003b073          	csrc	mstatus,x7
    412150bc:	0140006f          	j	412150d0 <end_machine_label>

00000000412150c0 <csr_access_mtvec_machine_key_31_set>:
    412150c0:	3053a073          	csrs	mtvec,x7
    412150c4:	00c0006f          	j	412150d0 <end_machine_label>

00000000412150c8 <csr_access_mtvec_machine_key_30_clear>:
    412150c8:	3053b073          	csrc	mtvec,x7
    412150cc:	0040006f          	j	412150d0 <end_machine_label>

00000000412150d0 <end_machine_label>:
    412150d0:	000f0fb7          	lui	x31,0xf0
    412150d4:	001f8f9b          	addiw	x31,x31,1 # f0001 <mem3+0x93001>
    412150d8:	00cf9f93          	slli	x31,x31,0xc
    412150dc:	004f8f93          	addi	x31,x31,4
    412150e0:	00000073          	ecall

Disassembly of section .csr_super_0:

0000000041216000 <csr_access_senvcfg_supervisor_key_23_set-0x48>:
    41216000:	03f3efb7          	lui	x31,0x3f3e
    41216004:	0c0f8f9b          	addiw	x31,x31,192 # 3f3e0c0 <super_csr_jump_table_flags>
    41216008:	000fbf83          	ld	x31,0(x31)
    4121600c:	01700293          	li	x5,23
    41216010:	025f8c63          	beq	x31,x5,41216048 <csr_access_senvcfg_supervisor_key_23_set>
    41216014:	00500293          	li	x5,5
    41216018:	025f8c63          	beq	x31,x5,41216050 <csr_access_senvcfg_supervisor_key_5_clear>
    4121601c:	01800293          	li	x5,24
    41216020:	025f8c63          	beq	x31,x5,41216058 <csr_access_henvcfg_supervisor_key_24_set>
    41216024:	01d00293          	li	x5,29
    41216028:	025f8c63          	beq	x31,x5,41216060 <csr_access_sstatus_supervisor_key_29_set>
    4121602c:	01b00293          	li	x5,27
    41216030:	025f8c63          	beq	x31,x5,41216068 <csr_access_sstatus_supervisor_key_27_clear>
    41216034:	02100293          	li	x5,33
    41216038:	025f8c63          	beq	x31,x5,41216070 <csr_access_stvec_supervisor_key_33_set>
    4121603c:	02000293          	li	x5,32
    41216040:	025f8c63          	beq	x31,x5,41216078 <csr_access_stvec_supervisor_key_32_clear>
    41216044:	03c0006f          	j	41216080 <end_super_label>

0000000041216048 <csr_access_senvcfg_supervisor_key_23_set>:
    41216048:	10a3a073          	csrs	0x10a,x7
    4121604c:	0340006f          	j	41216080 <end_super_label>

0000000041216050 <csr_access_senvcfg_supervisor_key_5_clear>:
    41216050:	10a3b073          	csrc	0x10a,x7
    41216054:	02c0006f          	j	41216080 <end_super_label>

0000000041216058 <csr_access_henvcfg_supervisor_key_24_set>:
    41216058:	60a3a073          	csrs	henvcfg,x7
    4121605c:	0240006f          	j	41216080 <end_super_label>

0000000041216060 <csr_access_sstatus_supervisor_key_29_set>:
    41216060:	1003a073          	csrs	sstatus,x7
    41216064:	01c0006f          	j	41216080 <end_super_label>

0000000041216068 <csr_access_sstatus_supervisor_key_27_clear>:
    41216068:	1003b073          	csrc	sstatus,x7
    4121606c:	0140006f          	j	41216080 <end_super_label>

0000000041216070 <csr_access_stvec_supervisor_key_33_set>:
    41216070:	1053a073          	csrs	stvec,x7
    41216074:	00c0006f          	j	41216080 <end_super_label>

0000000041216078 <csr_access_stvec_supervisor_key_32_clear>:
    41216078:	1053b073          	csrc	stvec,x7
    4121607c:	0040006f          	j	41216080 <end_super_label>

0000000041216080 <end_super_label>:
    41216080:	000f0fb7          	lui	x31,0xf0
    41216084:	001f8f9b          	addiw	x31,x31,1 # f0001 <mem3+0x93001>
    41216088:	00cf9f93          	slli	x31,x31,0xc
    4121608c:	004f8f93          	addi	x31,x31,4
    41216090:	00000073          	ecall

Disassembly of section .os_data:

0000000003f3e000 <passed_addr_ptr>:
 3f3e000:	5080                	.insn	2, 0x5080
 3f3e002:	4101                	.insn	2, 0x4101
 3f3e004:	0000                	.insn	2, 0x0000
	...

0000000003f3e008 <failed_addr_ptr>:
 3f3e008:	5090                	.insn	2, 0x5090
 3f3e00a:	4101                	.insn	2, 0x4101
 3f3e00c:	0000                	.insn	2, 0x0000
	...

0000000003f3e010 <end_test_addr_ptr>:
 3f3e010:	50a0                	.insn	2, 0x50a0
 3f3e012:	4101                	.insn	2, 0x4101
 3f3e014:	0000                	.insn	2, 0x0000
	...

0000000003f3e018 <os_passed_addr_ptr>:
 3f3e018:	07b0                	.insn	2, 0x07b0
 3f3e01a:	4100                	.insn	2, 0x4100
 3f3e01c:	0000                	.insn	2, 0x0000
	...

0000000003f3e020 <os_failed_addr_ptr>:
 3f3e020:	07c0                	.insn	2, 0x07c0
 3f3e022:	4100                	.insn	2, 0x4100
 3f3e024:	0000                	.insn	2, 0x0000
	...

0000000003f3e028 <os_end_test_addr_ptr>:
 3f3e028:	07cc                	.insn	2, 0x07cc
 3f3e02a:	4100                	.insn	2, 0x4100
 3f3e02c:	0000                	.insn	2, 0x0000
	...

0000000003f3e030 <rvcp_prefix_str_data>:
 3f3e030:	5652                	.insn	2, 0x5652
 3f3e032:	203a5043          	fmadd.s	f0,f20,f3,f4,unknown
 3f3e036:	6554                	.insn	2, 0x6554
 3f3e038:	46207473          	csrrci	x8,0x462,0
 3f3e03c:	6c69                	.insn	2, 0x6c69
 3f3e03e:	2065                	.insn	2, 0x2065
	...

0000000003f3e041 <rvcp_testname_str_data>:
 3f3e041:	7074                	.insn	2, 0x7074
 3f3e043:	7a5f 6369 6f62      	.insn	6, 0x6f6263697a5f
 3f3e049:	5f6d                	.insn	2, 0x5f6d
 3f3e04b:	697a                	.insn	2, 0x697a
 3f3e04d:	7a6f6263          	bltu	x30,x6,3f3e7f1 <num_hard_fails_mem+0x709>
 3f3e051:	7a5f 6369 6f62      	.insn	6, 0x6f6263697a5f
 3f3e057:	5f70                	.insn	2, 0x5f70
 3f3e059:	697a                	.insn	2, 0x697a
 3f3e05b:	62343663          	.insn	4, 0x62343663
 3f3e05f:	315f        	.insn	6, 0x53415000315f

0000000003f3e062 <rvcp_passed_str_data>:
 3f3e062:	4150                	.insn	2, 0x4150
 3f3e064:	44455353          	fround.h	f6,f10,unknown
	...

0000000003f3e069 <rvcp_failed_str_data>:
 3f3e069:	4146                	.insn	2, 0x4146
 3f3e06b:	4c49                	.insn	2, 0x4c49
 3f3e06d:	4445                	.insn	2, 0x4445
	...

0000000003f3e070 <rvcp_space_str_data>:
 3f3e070:	0020                	.insn	2, 0x0020

0000000003f3e072 <rvcp_newline_str_data>:
 3f3e072:	000a                	.insn	2, 0x000a
 3f3e074:	0000                	.insn	2, 0x0000
	...

0000000003f3e078 <excp_ignored_count_mem>:
	...

0000000003f3e080 <machine_flags_mem>:
	...

0000000003f3e088 <user_flags_mem>:
	...

0000000003f3e090 <super_flags_mem>:
	...

0000000003f3e098 <machine_area_mem>:
	...

0000000003f3e0a0 <user_area_mem>:
	...

0000000003f3e0a8 <super_area_mem>:
	...

0000000003f3e0b0 <zero_data_mem>:
	...

0000000003f3e0b8 <machine_csr_jump_table_flags_mem>:
	...

0000000003f3e0c0 <super_csr_jump_table_flags_mem>:
	...

0000000003f3e0c8 <pte_access_flags_mem>:
	...

0000000003f3e0e0 <num_harts_ended_mem>:
	...

0000000003f3e0e8 <num_hard_fails_mem>:
	...

Disassembly of section .hart_context:

0000005412d82000 <hart_context_0>:
  5412d82000:	c000                	.insn	2, 0xc000
  5412d82002:	1389                	.insn	2, 0x1389
	...
  5412d82018:	0001                	.insn	2, 0x0001
  5412d8201a:	0000                	.insn	2, 0x0000
  5412d8201c:	0000                	.insn	2, 0x0000
  5412d8201e:	0000                	.insn	2, 0x0000
  5412d82020:	ffff                	.insn	2, 0xffff
  5412d82022:	ffff                	.insn	2, 0xffff
  5412d82024:	ffff                	.insn	2, 0xffff
  5412d82026:	ffff                	.insn	2, 0xffff
  5412d82028:	ffff                	.insn	2, 0xffff
  5412d8202a:	ffff                	.insn	2, 0xffff
  5412d8202c:	ffff                	.insn	2, 0xffff
  5412d8202e:	ffff                	.insn	2, 0xffff
  5412d82030:	ffff                	.insn	2, 0xffff
  5412d82032:	ffff                	.insn	2, 0xffff
  5412d82034:	ffff                	.insn	2, 0xffff
  5412d82036:	ffff                	.insn	2, 0xffff
	...
  5412d82050:	00ff 0000 0000 0000 	.insn	10, 0x00ff00000000000000ff
  5412d82058:	00ff 
	...
  5412d82176:	0000                	.insn	2, 0x0000
  5412d82178:	ffff                	.insn	2, 0xffff
  5412d8217a:	ffff                	.insn	2, 0xffff
  5412d8217c:	ffff                	.insn	2, 0xffff
  5412d8217e:	ffff                	.insn	2, 0xffff
	...
  5412d82188:	ffff                	.insn	2, 0xffff
  5412d8218a:	ffff                	.insn	2, 0xffff
	...

Disassembly of section .hart_stack_0:

000000001389b000 <hart_stack_0>:
	...

Disassembly of section .io_htif:

0000000041040000 <tohost>:
	...

0000000041040040 <fromhost>:
	...

Disassembly of section .mem0:

0000000003fbf000 <.mem0>:
 3fbf000:	c0de                	.insn	2, 0xc0de
 3fbf002:	c001                	.insn	2, 0xc001
 3fbf004:	0000                	.insn	2, 0x0000
	...

Disassembly of section .mem1:

0000000fbb6bf000 <.mem1>:
   fbb6bf000:	c0de                	.insn	2, 0xc0de
   fbb6bf002:	c001                	.insn	2, 0xc001
   fbb6bf004:	0000                	.insn	2, 0x0000
	...

Disassembly of section .mem2:

00000000c9200000 <.mem2>:
    c9200000:	c0de                	.insn	2, 0xc0de
    c9200002:	c001                	.insn	2, 0xc001
    c9200004:	0000                	.insn	2, 0x0000
	...

Disassembly of section .mem3:

000000000005d000 <.mem3>:
   5d000:	c0de                	.insn	2, 0xc0de
   5d002:	c001                	.insn	2, 0xc001
   5d004:	0000                	.insn	2, 0x0000
	...

Disassembly of section .mem4:

000000105221a000 <.mem4>:
  105221a000:	c0de                	.insn	2, 0xc0de
  105221a002:	c001                	.insn	2, 0xc001
  105221a004:	0000                	.insn	2, 0x0000
	...

Disassembly of section .mem5:

0000000003da1000 <.mem5>:
 3da1000:	c0de                	.insn	2, 0xc0de
 3da1002:	c001                	.insn	2, 0xc001
 3da1004:	0000                	.insn	2, 0x0000
	...

Disassembly of section .mem6:

00001fa3ba04f000 <.mem6>:
    1fa3ba04f000:	c0de                	.insn	2, 0xc0de
    1fa3ba04f002:	c001                	.insn	2, 0xc001
    1fa3ba04f004:	0000                	.insn	2, 0x0000
	...

Disassembly of section .mem7:

0000000fd8618000 <.mem7>:
   fd8618000:	c0de                	.insn	2, 0xc0de
   fd8618002:	c001                	.insn	2, 0xc001
   fd8618004:	0000                	.insn	2, 0x0000
	...

Disassembly of section .mem8:

000006cd5ddd4000 <.mem8>:
 6cd5ddd4000:	c0de                	.insn	2, 0xc0de
 6cd5ddd4002:	c001                	.insn	2, 0xc001
 6cd5ddd4004:	0000                	.insn	2, 0x0000
	...

Disassembly of section .mem9:

00000000177ee000 <.mem9>:
    177ee000:	c0de                	.insn	2, 0xc0de
    177ee002:	c001                	.insn	2, 0xc001
    177ee004:	0000                	.insn	2, 0x0000
	...

Disassembly of section .mem10:

000000391ff11000 <.mem10>:
  391ff11000:	c0de                	.insn	2, 0xc0de
  391ff11002:	c001                	.insn	2, 0xc001
  391ff11004:	0000                	.insn	2, 0x0000
	...

Disassembly of section .mem11:

fffffb1bc1356000 <.mem11>:
fffffb1bc1356000:	c0de                	.insn	2, 0xc0de
fffffb1bc1356002:	c001                	.insn	2, 0xc001
fffffb1bc1356004:	0000                	.insn	2, 0x0000
	...

Disassembly of section .mem12:

000000000b7e1000 <.mem12>:
 b7e1000:	c0de                	.insn	2, 0xc0de
 b7e1002:	c001                	.insn	2, 0xc001
 b7e1004:	0000                	.insn	2, 0x0000
	...

Disassembly of section .mem13:

ffffff71ae054000 <.mem13>:
ffffff71ae054000:	c0de                	.insn	2, 0xc0de
ffffff71ae054002:	c001                	.insn	2, 0xc001
ffffff71ae054004:	0000                	.insn	2, 0x0000
	...

Disassembly of section .mem14:

000000da782b5000 <.mem14>:
  da782b5000:	c0de                	.insn	2, 0xc0de
  da782b5002:	c001                	.insn	2, 0xc001
  da782b5004:	0000                	.insn	2, 0x0000
	...

Disassembly of section .mem15:

0000000003e10000 <.mem15>:
 3e10000:	c0de                	.insn	2, 0xc0de
 3e10002:	c001                	.insn	2, 0xc001
 3e10004:	0000                	.insn	2, 0x0000
	...

Disassembly of section .mem16:

00000064a8fc2000 <.mem16>:
  64a8fc2000:	c0de                	.insn	2, 0xc0de
  64a8fc2002:	c001                	.insn	2, 0xc001
  64a8fc2004:	0000                	.insn	2, 0x0000
	...

Disassembly of section .mem17:

0000399fd9024000 <.mem17>:
    399fd9024000:	c0de                	.insn	2, 0xc0de
    399fd9024002:	c001                	.insn	2, 0xc001
    399fd9024004:	0000                	.insn	2, 0x0000
	...

Disassembly of section .tp_csr_storage:

fffffc4396975000 <.tp_csr_storage>:
fffffc4396975000:	c0de                	.insn	2, 0xc0de
fffffc4396975002:	c001                	.insn	2, 0xc001
fffffc4396975004:	0000                	.insn	2, 0x0000
	...

Disassembly of section .SID_ZICBO_001_stack:

0000000000f65000 <.SID_ZICBO_001_stack>:
  f65000:	c0de                	.insn	2, 0xc0de
  f65002:	c001                	.insn	2, 0xc001
  f65004:	0000                	.insn	2, 0x0000
	...

Disassembly of section .SID_ZICBO_002_stack:

0000000000035000 <.SID_ZICBO_002_stack>:
   35000:	c0de                	.insn	2, 0xc0de
   35002:	c001                	.insn	2, 0xc001
   35004:	0000                	.insn	2, 0x0000
	...

Disassembly of section .SID_ZICBO_003_stack:

0000000000444000 <.SID_ZICBO_003_stack>:
  444000:	c0de                	.insn	2, 0xc0de
  444002:	c001                	.insn	2, 0xc001
  444004:	0000                	.insn	2, 0x0000
	...

Disassembly of section .SID_ZICBO_004_stack:

000000391ff0f000 <.SID_ZICBO_004_stack>:
  391ff0f000:	c0de                	.insn	2, 0xc0de
  391ff0f002:	c001                	.insn	2, 0xc001
  391ff0f004:	0000                	.insn	2, 0x0000
	...

Disassembly of section .SID_ZICBO_005_stack:

0000000000f9f000 <.SID_ZICBO_005_stack>:
  f9f000:	c0de                	.insn	2, 0xc0de
  f9f002:	c001                	.insn	2, 0xc001
  f9f004:	0000                	.insn	2, 0x0000
	...

Disassembly of section .SID_ZICBO_006_stack:

0000003522761000 <.SID_ZICBO_006_stack>:
  3522761000:	c0de                	.insn	2, 0xc0de
  3522761002:	c001                	.insn	2, 0xc001
  3522761004:	0000                	.insn	2, 0x0000
	...

Disassembly of section .SID_ZICBO_013_stack:

00000000a7797000 <.SID_ZICBO_013_stack>:
    a7797000:	c0de                	.insn	2, 0xc0de
    a7797002:	c001                	.insn	2, 0xc001
    a7797004:	0000                	.insn	2, 0x0000
	...

Disassembly of section .SID_ZICBO_015_stack:

0000000006677000 <.SID_ZICBO_015_stack>:
 6677000:	c0de                	.insn	2, 0xc0de
 6677002:	c001                	.insn	2, 0xc001
 6677004:	0000                	.insn	2, 0x0000
	...

Disassembly of section .SID_ZICBO_016_stack:

000000e1c31cc000 <.SID_ZICBO_016_stack>:
  e1c31cc000:	c0de                	.insn	2, 0xc0de
  e1c31cc002:	c001                	.insn	2, 0xc001
  e1c31cc004:	0000                	.insn	2, 0x0000
	...

Disassembly of section .SID_ZICBO_017_stack:

0000000000005000 <.SID_ZICBO_017_stack>:
    5000:	c0de                	.insn	2, 0xc0de
    5002:	c001                	.insn	2, 0xc001
    5004:	0000                	.insn	2, 0x0000
	...

Disassembly of section .SID_ZICBO_018_stack:

0000000000039000 <.SID_ZICBO_018_stack>:
   39000:	c0de                	.insn	2, 0xc0de
   39002:	c001                	.insn	2, 0xc001
   39004:	0000                	.insn	2, 0x0000
	...

Disassembly of section .SID_ZICBO_019_stack:

0000000124117000 <.SID_ZICBO_019_stack>:
   124117000:	c0de                	.insn	2, 0xc0de
   124117002:	c001                	.insn	2, 0xc001
   124117004:	0000                	.insn	2, 0x0000
	...

Disassembly of section .SID_ZICBO_020_stack:

0000000000010000 <.SID_ZICBO_020_stack>:
   10000:	c0de                	.insn	2, 0xc0de
   10002:	c001                	.insn	2, 0xc001
   10004:	0000                	.insn	2, 0x0000
	...

Disassembly of section .SID_ZICBO_047_stack:

0000399fd9022000 <.SID_ZICBO_047_stack>:
    399fd9022000:	c0de                	.insn	2, 0xc0de
    399fd9022002:	c001                	.insn	2, 0xc001
    399fd9022004:	0000                	.insn	2, 0x0000
	...

Disassembly of section .SID_ZICBO_049_stack:

000003e19e43d000 <.SID_ZICBO_049_stack>:
 3e19e43d000:	c0de                	.insn	2, 0xc0de
 3e19e43d002:	c001                	.insn	2, 0xc001
 3e19e43d004:	0000                	.insn	2, 0x0000
	...

Disassembly of section .SID_ZICBO_50_ZIC64B_01_stack:

00000058cb0ce000 <.SID_ZICBO_50_ZIC64B_01_stack>:
  58cb0ce000:	c0de                	.insn	2, 0xc0de
  58cb0ce002:	c001                	.insn	2, 0xc001
  58cb0ce004:	0000                	.insn	2, 0x0000
	...

Disassembly of section .__pagetable_map_os_0x0000000043ae4000:

0000000043ae4000 <__pagetable_map_os_0x0000000043ae4000>:
    43ae4000:	9401                	.insn	2, 0x9401
    43ae4002:	10e8                	.insn	2, 0x10e8
    43ae4004:	0000                	.insn	2, 0x0000
    43ae4006:	0000                	.insn	2, 0x0000
    43ae4008:	9c01                	.insn	2, 0x9c01
    43ae400a:	112e                	.insn	2, 0x112e
	...
    43ae4038:	b401                	.insn	2, 0xb401
    43ae403a:	000010d3          	fadd.s	f1,f0,f0,rtz
	...
    43ae4066:	0000                	.insn	2, 0x0000
    43ae4068:	cc01                	.insn	2, 0xcc01
    43ae406a:	10e5                	.insn	2, 0x10e5
	...
    43ae41f8:	e801                	.insn	2, 0xe801
    43ae41fa:	10d0                	.insn	2, 0x10d0
	...
    43ae4398:	ec01                	.insn	2, 0xec01
    43ae439a:	10cc                	.insn	2, 0x10cc
	...
    43ae4fb0:	ac01                	.insn	2, 0xac01
    43ae4fb2:	10d5                	.insn	2, 0x10d5
	...
    43ae4fc0:	4c01                	.insn	2, 0x4c01
    43ae4fc2:	10cd                	.insn	2, 0x10cd
	...
    43ae4ff0:	4001                	.insn	2, 0x4001
    43ae4ff2:	1131                	.insn	2, 0x1131
    43ae4ff4:	0000                	.insn	2, 0x0000
	...

Disassembly of section .__pagetable_map_os_0x0000000043a25000:

0000000043a25000 <__pagetable_map_os_0x0000000043a25000>:
    43a25000:	ac01                	.insn	2, 0xac01
    43a25002:	10e5                	.insn	2, 0x10e5
    43a25004:	0000                	.insn	2, 0x0000
    43a25006:	0000                	.insn	2, 0x0000
    43a25008:	9401                	.insn	2, 0x9401
    43a2500a:	1136                	.insn	2, 0x1136
    43a2500c:	0000                	.insn	2, 0x0000
    43a2500e:	0000                	.insn	2, 0x0000
    43a25010:	d001                	.insn	2, 0xd001
    43a25012:	10e5                	.insn	2, 0x10e5
    43a25014:	0000                	.insn	2, 0x0000
    43a25016:	0000                	.insn	2, 0x0000
    43a25018:	0c01                	.insn	2, 0x0c01
    43a2501a:	10c2                	.insn	2, 0x10c2
    43a2501c:	0000                	.insn	2, 0x0000
    43a2501e:	0000                	.insn	2, 0x0000
    43a25020:	f001                	.insn	2, 0xf001
    43a25022:	1120                	.insn	2, 0x1120
	...
    43a251f0:	5c01                	.insn	2, 0x5c01
    43a251f2:	000010e7          	.insn	4, 0x10e7
    43a251f6:	0000                	.insn	2, 0x0000
    43a251f8:	f401                	.insn	2, 0xf401
    43a251fa:	1130                	.insn	2, 0x1130
	...
    43a25208:	a401                	.insn	2, 0xa401
    43a2520a:	1138                	.insn	2, 0x1138
	...
    43a256a0:	f401                	.insn	2, 0xf401
    43a256a2:	112d                	.insn	2, 0x112d
	...
    43a25720:	e001                	.insn	2, 0xe001
    43a25722:	10e5                	.insn	2, 0x10e5
	...
    43a25a80:	f401                	.insn	2, 0xf401
    43a25a82:	1121                	.insn	2, 0x1121
	...
    43a25b18:	b001                	.insn	2, 0xb001
    43a25b1a:	1138                	.insn	2, 0x1138
	...
    43a25c90:	bc01                	.insn	2, 0xbc01
    43a25c92:	1138                	.insn	2, 0x1138
    43a25c94:	0000                	.insn	2, 0x0000
	...

Disassembly of section .__pagetable_map_os_0x0000000044da5000:

0000000044da5000 <__pagetable_map_os_0x0000000044da5000>:
	...
    44da5040:	3001                	.insn	2, 0x3001
    44da5042:	1131                	.insn	2, 0x1131
    44da5044:	0000                	.insn	2, 0x0000
    44da5046:	0000                	.insn	2, 0x0000
    44da5048:	8801                	.insn	2, 0x8801
    44da504a:	000010d3          	fadd.s	f1,f0,f0,rtz
	...
    44da50e6:	0000                	.insn	2, 0x0000
    44da50e8:	a001                	.insn	2, 0xa001
    44da50ea:	000010eb          	.insn	4, 0x10eb
	...

Disassembly of section .__pagetable_map_os_0x0000000044c4c000:

0000000044c4c000 <__pagetable_map_os_0x0000000044c4c000>:
	...
    44c4c080:	40df 1040 0000      	.insn	6, 0x104040df
    44c4c086:	0000                	.insn	2, 0x0000
    44c4c088:	104044cf          	fnmadd.s	f9,f0,f4,f2,rmm
    44c4c08c:	0000                	.insn	2, 0x0000
    44c4c08e:	0000                	.insn	2, 0x0000
    44c4c090:	104048cf          	fnmadd.s	f17,f0,f4,f2,rmm
    44c4c094:	0000                	.insn	2, 0x0000
    44c4c096:	0000                	.insn	2, 0x0000
    44c4c098:	10404ccf          	fnmadd.s	f25,f0,f4,f2,rmm
    44c4c09c:	0000                	.insn	2, 0x0000
    44c4c09e:	0000                	.insn	2, 0x0000
    44c4c0a0:	104050cf          	fnmadd.s	f1,f0,f4,f2,unknown
    44c4c0a4:	0000                	.insn	2, 0x0000
    44c4c0a6:	0000                	.insn	2, 0x0000
    44c4c0a8:	00df 1080 0000      	.insn	6, 0x108000df
    44c4c0ae:	0000                	.insn	2, 0x0000
    44c4c0b0:	04df 1080 0000      	.insn	6, 0x108004df
    44c4c0b6:	0000                	.insn	2, 0x0000
    44c4c0b8:	08df 1080 0000      	.insn	6, 0x108008df
    44c4c0be:	0000                	.insn	2, 0x0000
    44c4c0c0:	0cdf 1080 0000      	.insn	6, 0x10800cdf
    44c4c0c6:	0000                	.insn	2, 0x0000
    44c4c0c8:	10df 1080 0000      	.insn	6, 0x108010df
    44c4c0ce:	0000                	.insn	2, 0x0000
    44c4c0d0:	14df 1080 0000      	.insn	6, 0x108014df
    44c4c0d6:	0000                	.insn	2, 0x0000
    44c4c0d8:	18df 1080 0000      	.insn	6, 0x108018df
    44c4c0de:	0000                	.insn	2, 0x0000
    44c4c0e0:	1cdf 1080 0000      	.insn	6, 0x10801cdf
    44c4c0e6:	0000                	.insn	2, 0x0000
    44c4c0e8:	20df 1080 0000      	.insn	6, 0x108020df
    44c4c0ee:	0000                	.insn	2, 0x0000
    44c4c0f0:	24df 1080 0000      	.insn	6, 0x108024df
    44c4c0f6:	0000                	.insn	2, 0x0000
    44c4c0f8:	28df 1080 0000      	.insn	6, 0x108028df
    44c4c0fe:	0000                	.insn	2, 0x0000
    44c4c100:	2cdf 1080 0000      	.insn	6, 0x10802cdf
    44c4c106:	0000                	.insn	2, 0x0000
    44c4c108:	30df 1080 0000      	.insn	6, 0x108030df
    44c4c10e:	0000                	.insn	2, 0x0000
    44c4c110:	34df 1080 0000      	.insn	6, 0x108034df
    44c4c116:	0000                	.insn	2, 0x0000
    44c4c118:	38df 1080 0000      	.insn	6, 0x108038df
    44c4c11e:	0000                	.insn	2, 0x0000
    44c4c120:	3cdf 1080 0000      	.insn	6, 0x10803cdf
    44c4c126:	0000                	.insn	2, 0x0000
    44c4c128:	40df 1080 0000      	.insn	6, 0x108040df
    44c4c12e:	0000                	.insn	2, 0x0000
    44c4c130:	44df 1080 0000      	.insn	6, 0x108044df
    44c4c136:	0000                	.insn	2, 0x0000
    44c4c138:	48df 1080 0000      	.insn	6, 0x108048df
    44c4c13e:	0000                	.insn	2, 0x0000
    44c4c140:	4cdf 1080 0000      	.insn	6, 0x10804cdf
    44c4c146:	0000                	.insn	2, 0x0000
    44c4c148:	50df 1080 0000      	.insn	6, 0x108050df
    44c4c14e:	0000                	.insn	2, 0x0000
    44c4c150:	54df 1080 0000      	.insn	6, 0x108054df
    44c4c156:	0000                	.insn	2, 0x0000
    44c4c158:	58df 1080 0000      	.insn	6, 0x108058df
    44c4c15e:	0000                	.insn	2, 0x0000
    44c4c160:	5cdf 1080 0000      	.insn	6, 0x10805cdf
    44c4c166:	0000                	.insn	2, 0x0000
    44c4c168:	60df 1080 0000      	.insn	6, 0x108060df
    44c4c16e:	0000                	.insn	2, 0x0000
    44c4c170:	64df 1080 0000      	.insn	6, 0x108064df
    44c4c176:	0000                	.insn	2, 0x0000
    44c4c178:	68df 1080 0000      	.insn	6, 0x108068df
    44c4c17e:	0000                	.insn	2, 0x0000
    44c4c180:	6cdf 1080 0000      	.insn	6, 0x10806cdf
    44c4c186:	0000                	.insn	2, 0x0000
    44c4c188:	70df 1080 0000      	.insn	6, 0x108070df
    44c4c18e:	0000                	.insn	2, 0x0000
    44c4c190:	74df 1080 0000      	.insn	6, 0x108074df
    44c4c196:	0000                	.insn	2, 0x0000
    44c4c198:	78df 1080 0000      	.insn	6, 0x108078df
    44c4c19e:	0000                	.insn	2, 0x0000
    44c4c1a0:	7cdf 1080 0000      	.insn	6, 0x10807cdf
    44c4c1a6:	0000                	.insn	2, 0x0000
    44c4c1a8:	80df 1080 0000      	.insn	6, 0x108080df
    44c4c1ae:	0000                	.insn	2, 0x0000
    44c4c1b0:	84df 1080 0000      	.insn	6, 0x108084df
    44c4c1b6:	0000                	.insn	2, 0x0000
    44c4c1b8:	88df 1080 0000      	.insn	6, 0x108088df
    44c4c1be:	0000                	.insn	2, 0x0000
    44c4c1c0:	8cdf 1080 0000      	.insn	6, 0x10808cdf
    44c4c1c6:	0000                	.insn	2, 0x0000
    44c4c1c8:	90df 1080 0000      	.insn	6, 0x108090df
    44c4c1ce:	0000                	.insn	2, 0x0000
    44c4c1d0:	94df 1080 0000      	.insn	6, 0x108094df
    44c4c1d6:	0000                	.insn	2, 0x0000
    44c4c1d8:	98df 1080 0000      	.insn	6, 0x108098df
    44c4c1de:	0000                	.insn	2, 0x0000
    44c4c1e0:	9cdf 1080 0000      	.insn	6, 0x10809cdf
    44c4c1e6:	0000                	.insn	2, 0x0000
    44c4c1e8:	a0df 1080 0000      	.insn	6, 0x1080a0df
    44c4c1ee:	0000                	.insn	2, 0x0000
    44c4c1f0:	a4df 1080 0000      	.insn	6, 0x1080a4df
    44c4c1f6:	0000                	.insn	2, 0x0000
    44c4c1f8:	a8df 1080 0000      	.insn	6, 0x1080a8df
    44c4c1fe:	0000                	.insn	2, 0x0000
    44c4c200:	00df 1041 0000      	.insn	6, 0x104100df
    44c4c206:	0000                	.insn	2, 0x0000
    44c4c208:	b0df 1080 0000      	.insn	6, 0x1080b0df
    44c4c20e:	0000                	.insn	2, 0x0000
    44c4c210:	b4df 1080 0000      	.insn	6, 0x1080b4df
    44c4c216:	0000                	.insn	2, 0x0000
    44c4c218:	b8df 1080 0000      	.insn	6, 0x1080b8df
    44c4c21e:	0000                	.insn	2, 0x0000
    44c4c220:	bcdf 1080 0000      	.insn	6, 0x1080bcdf
    44c4c226:	0000                	.insn	2, 0x0000
    44c4c228:	c0df 1080 0000      	.insn	6, 0x1080c0df
    44c4c22e:	0000                	.insn	2, 0x0000
    44c4c230:	c4df 1080 0000      	.insn	6, 0x1080c4df
    44c4c236:	0000                	.insn	2, 0x0000
    44c4c238:	c8df 1080 0000      	.insn	6, 0x1080c8df
    44c4c23e:	0000                	.insn	2, 0x0000
    44c4c240:	ccdf 1080 0000      	.insn	6, 0x1080ccdf
    44c4c246:	0000                	.insn	2, 0x0000
    44c4c248:	d0df 1080 0000      	.insn	6, 0x1080d0df
    44c4c24e:	0000                	.insn	2, 0x0000
    44c4c250:	d4df 1080 0000      	.insn	6, 0x1080d4df
    44c4c256:	0000                	.insn	2, 0x0000
    44c4c258:	d8df 1080 0000      	.insn	6, 0x1080d8df
    44c4c25e:	0000                	.insn	2, 0x0000
    44c4c260:	dcdf 1080 0000      	.insn	6, 0x1080dcdf
    44c4c266:	0000                	.insn	2, 0x0000
    44c4c268:	e0df 1080 0000      	.insn	6, 0x1080e0df
    44c4c26e:	0000                	.insn	2, 0x0000
    44c4c270:	e4df 1080 0000      	.insn	6, 0x1080e4df
    44c4c276:	0000                	.insn	2, 0x0000
    44c4c278:	e8df 1080 0000      	.insn	6, 0x1080e8df
    44c4c27e:	0000                	.insn	2, 0x0000
    44c4c280:	ecdf 1080 0000      	.insn	6, 0x1080ecdf
    44c4c286:	0000                	.insn	2, 0x0000
    44c4c288:	f0df 1080 0000      	.insn	6, 0x1080f0df
    44c4c28e:	0000                	.insn	2, 0x0000
    44c4c290:	f4df 1080 0000      	.insn	6, 0x1080f4df
    44c4c296:	0000                	.insn	2, 0x0000
    44c4c298:	f8df 1080 0000      	.insn	6, 0x1080f8df
    44c4c29e:	0000                	.insn	2, 0x0000
    44c4c2a0:	fcdf 1080 0000      	.insn	6, 0x1080fcdf
    44c4c2a6:	0000                	.insn	2, 0x0000
    44c4c2a8:	00df 1081 0000      	.insn	6, 0x108100df
    44c4c2ae:	0000                	.insn	2, 0x0000
    44c4c2b0:	04df 1081 0000      	.insn	6, 0x108104df
    44c4c2b6:	0000                	.insn	2, 0x0000
    44c4c2b8:	08df 1081 0000      	.insn	6, 0x108108df
    44c4c2be:	0000                	.insn	2, 0x0000
    44c4c2c0:	0cdf 1081 0000      	.insn	6, 0x10810cdf
    44c4c2c6:	0000                	.insn	2, 0x0000
    44c4c2c8:	10df 1081 0000      	.insn	6, 0x108110df
    44c4c2ce:	0000                	.insn	2, 0x0000
    44c4c2d0:	14df 1081 0000      	.insn	6, 0x108114df
    44c4c2d6:	0000                	.insn	2, 0x0000
    44c4c2d8:	18df 1081 0000      	.insn	6, 0x108118df
    44c4c2de:	0000                	.insn	2, 0x0000
    44c4c2e0:	1cdf 1081 0000      	.insn	6, 0x10811cdf
    44c4c2e6:	0000                	.insn	2, 0x0000
    44c4c2e8:	20df 1081 0000      	.insn	6, 0x108120df
    44c4c2ee:	0000                	.insn	2, 0x0000
    44c4c2f0:	24df 1081 0000      	.insn	6, 0x108124df
    44c4c2f6:	0000                	.insn	2, 0x0000
    44c4c2f8:	28df 1081 0000      	.insn	6, 0x108128df
    44c4c2fe:	0000                	.insn	2, 0x0000
    44c4c300:	2cdf 1081 0000      	.insn	6, 0x10812cdf
    44c4c306:	0000                	.insn	2, 0x0000
    44c4c308:	30df 1081 0000      	.insn	6, 0x108130df
    44c4c30e:	0000                	.insn	2, 0x0000
    44c4c310:	34df 1081 0000      	.insn	6, 0x108134df
    44c4c316:	0000                	.insn	2, 0x0000
    44c4c318:	38df 1081 0000      	.insn	6, 0x108138df
    44c4c31e:	0000                	.insn	2, 0x0000
    44c4c320:	3cdf 1081 0000      	.insn	6, 0x10813cdf
    44c4c326:	0000                	.insn	2, 0x0000
    44c4c328:	40df 1081 0000      	.insn	6, 0x108140df
    44c4c32e:	0000                	.insn	2, 0x0000
    44c4c330:	44df 1081 0000      	.insn	6, 0x108144df
    44c4c336:	0000                	.insn	2, 0x0000
    44c4c338:	48df 1081 0000      	.insn	6, 0x108148df
    44c4c33e:	0000                	.insn	2, 0x0000
    44c4c340:	4cdf 1081 0000      	.insn	6, 0x10814cdf
    44c4c346:	0000                	.insn	2, 0x0000
    44c4c348:	50df 1081 0000      	.insn	6, 0x108150df
    44c4c34e:	0000                	.insn	2, 0x0000
    44c4c350:	54df 1081 0000      	.insn	6, 0x108154df
    44c4c356:	0000                	.insn	2, 0x0000
    44c4c358:	58df 1081 0000      	.insn	6, 0x108158df
    44c4c35e:	0000                	.insn	2, 0x0000
    44c4c360:	5cdf 1081 0000      	.insn	6, 0x10815cdf
    44c4c366:	0000                	.insn	2, 0x0000
    44c4c368:	60df 1081 0000      	.insn	6, 0x108160df
    44c4c36e:	0000                	.insn	2, 0x0000
    44c4c370:	64df 1081 0000      	.insn	6, 0x108164df
    44c4c376:	0000                	.insn	2, 0x0000
    44c4c378:	68df 1081 0000      	.insn	6, 0x108168df
    44c4c37e:	0000                	.insn	2, 0x0000
    44c4c380:	6cdf 1081 0000      	.insn	6, 0x10816cdf
    44c4c386:	0000                	.insn	2, 0x0000
    44c4c388:	70df 1081 0000      	.insn	6, 0x108170df
    44c4c38e:	0000                	.insn	2, 0x0000
    44c4c390:	74df 1081 0000      	.insn	6, 0x108174df
    44c4c396:	0000                	.insn	2, 0x0000
    44c4c398:	78df 1081 0000      	.insn	6, 0x108178df
    44c4c39e:	0000                	.insn	2, 0x0000
    44c4c3a0:	7cdf 1081 0000      	.insn	6, 0x10817cdf
    44c4c3a6:	0000                	.insn	2, 0x0000
    44c4c3a8:	80df 1081 0000      	.insn	6, 0x108180df
    44c4c3ae:	0000                	.insn	2, 0x0000
    44c4c3b0:	84df 1081 0000      	.insn	6, 0x108184df
    44c4c3b6:	0000                	.insn	2, 0x0000
    44c4c3b8:	88df 1081 0000      	.insn	6, 0x108188df
    44c4c3be:	0000                	.insn	2, 0x0000
    44c4c3c0:	8cdf 1081 0000      	.insn	6, 0x10818cdf
    44c4c3c6:	0000                	.insn	2, 0x0000
    44c4c3c8:	90df 1081 0000      	.insn	6, 0x108190df
    44c4c3ce:	0000                	.insn	2, 0x0000
    44c4c3d0:	94df 1081 0000      	.insn	6, 0x108194df
    44c4c3d6:	0000                	.insn	2, 0x0000
    44c4c3d8:	98df 1081 0000      	.insn	6, 0x108198df
    44c4c3de:	0000                	.insn	2, 0x0000
    44c4c3e0:	9cdf 1081 0000      	.insn	6, 0x10819cdf
    44c4c3e6:	0000                	.insn	2, 0x0000
    44c4c3e8:	a0df 1081 0000      	.insn	6, 0x1081a0df
    44c4c3ee:	0000                	.insn	2, 0x0000
    44c4c3f0:	a4df 1081 0000      	.insn	6, 0x1081a4df
    44c4c3f6:	0000                	.insn	2, 0x0000
    44c4c3f8:	a8df 1081 0000      	.insn	6, 0x1081a8df
    44c4c3fe:	0000                	.insn	2, 0x0000
    44c4c400:	acdf 1081 0000      	.insn	6, 0x1081acdf
    44c4c406:	0000                	.insn	2, 0x0000
    44c4c408:	b0df 1081 0000      	.insn	6, 0x1081b0df
    44c4c40e:	0000                	.insn	2, 0x0000
    44c4c410:	b4df 1081 0000      	.insn	6, 0x1081b4df
    44c4c416:	0000                	.insn	2, 0x0000
    44c4c418:	b8df 1081 0000      	.insn	6, 0x1081b8df
    44c4c41e:	0000                	.insn	2, 0x0000
    44c4c420:	bcdf 1081 0000      	.insn	6, 0x1081bcdf
    44c4c426:	0000                	.insn	2, 0x0000
    44c4c428:	c0df 1081 0000      	.insn	6, 0x1081c0df
    44c4c42e:	0000                	.insn	2, 0x0000
    44c4c430:	c4df 1081 0000      	.insn	6, 0x1081c4df
    44c4c436:	0000                	.insn	2, 0x0000
    44c4c438:	c8df 1081 0000      	.insn	6, 0x1081c8df
    44c4c43e:	0000                	.insn	2, 0x0000
    44c4c440:	ccdf 1081 0000      	.insn	6, 0x1081ccdf
    44c4c446:	0000                	.insn	2, 0x0000
    44c4c448:	d0df 1081 0000      	.insn	6, 0x1081d0df
    44c4c44e:	0000                	.insn	2, 0x0000
    44c4c450:	d4df 1081 0000      	.insn	6, 0x1081d4df
    44c4c456:	0000                	.insn	2, 0x0000
    44c4c458:	d8df 1081 0000      	.insn	6, 0x1081d8df
    44c4c45e:	0000                	.insn	2, 0x0000
    44c4c460:	dcdf 1081 0000      	.insn	6, 0x1081dcdf
    44c4c466:	0000                	.insn	2, 0x0000
    44c4c468:	e0df 1081 0000      	.insn	6, 0x1081e0df
    44c4c46e:	0000                	.insn	2, 0x0000
    44c4c470:	e4df 1081 0000      	.insn	6, 0x1081e4df
    44c4c476:	0000                	.insn	2, 0x0000
    44c4c478:	e8df 1081 0000      	.insn	6, 0x1081e8df
    44c4c47e:	0000                	.insn	2, 0x0000
    44c4c480:	ecdf 1081 0000      	.insn	6, 0x1081ecdf
    44c4c486:	0000                	.insn	2, 0x0000
    44c4c488:	f0df 1081 0000      	.insn	6, 0x1081f0df
    44c4c48e:	0000                	.insn	2, 0x0000
    44c4c490:	f4df 1081 0000      	.insn	6, 0x1081f4df
    44c4c496:	0000                	.insn	2, 0x0000
    44c4c498:	f8df 1081 0000      	.insn	6, 0x1081f8df
    44c4c49e:	0000                	.insn	2, 0x0000
    44c4c4a0:	fcdf 1081 0000      	.insn	6, 0x1081fcdf
    44c4c4a6:	0000                	.insn	2, 0x0000
    44c4c4a8:	108200cf          	fnmadd.s	f1,f4,f8,f2,rne
    44c4c4ac:	0000                	.insn	2, 0x0000
    44c4c4ae:	0000                	.insn	2, 0x0000
    44c4c4b0:	108204cf          	fnmadd.s	f9,f4,f8,f2,rne
    44c4c4b4:	0000                	.insn	2, 0x0000
    44c4c4b6:	0000                	.insn	2, 0x0000
    44c4c4b8:	108208cf          	fnmadd.s	f17,f4,f8,f2,rne
    44c4c4bc:	0000                	.insn	2, 0x0000
    44c4c4be:	0000                	.insn	2, 0x0000
    44c4c4c0:	10820ccf          	fnmadd.s	f25,f4,f8,f2,rne
    44c4c4c4:	0000                	.insn	2, 0x0000
    44c4c4c6:	0000                	.insn	2, 0x0000
    44c4c4c8:	108210cf          	fnmadd.s	f1,f4,f8,f2,rtz
    44c4c4cc:	0000                	.insn	2, 0x0000
    44c4c4ce:	0000                	.insn	2, 0x0000
    44c4c4d0:	108214cf          	fnmadd.s	f9,f4,f8,f2,rtz
    44c4c4d4:	0000                	.insn	2, 0x0000
    44c4c4d6:	0000                	.insn	2, 0x0000
    44c4c4d8:	108218cf          	fnmadd.s	f17,f4,f8,f2,rtz
    44c4c4dc:	0000                	.insn	2, 0x0000
    44c4c4de:	0000                	.insn	2, 0x0000
    44c4c4e0:	10821ccf          	fnmadd.s	f25,f4,f8,f2,rtz
    44c4c4e4:	0000                	.insn	2, 0x0000
    44c4c4e6:	0000                	.insn	2, 0x0000
    44c4c4e8:	108220cf          	fnmadd.s	f1,f4,f8,f2,rdn
    44c4c4ec:	0000                	.insn	2, 0x0000
    44c4c4ee:	0000                	.insn	2, 0x0000
    44c4c4f0:	108224cf          	fnmadd.s	f9,f4,f8,f2,rdn
    44c4c4f4:	0000                	.insn	2, 0x0000
    44c4c4f6:	0000                	.insn	2, 0x0000
    44c4c4f8:	108228cf          	fnmadd.s	f17,f4,f8,f2,rdn
    44c4c4fc:	0000                	.insn	2, 0x0000
    44c4c4fe:	0000                	.insn	2, 0x0000
    44c4c500:	10822ccf          	fnmadd.s	f25,f4,f8,f2,rdn
    44c4c504:	0000                	.insn	2, 0x0000
    44c4c506:	0000                	.insn	2, 0x0000
    44c4c508:	108230cf          	fnmadd.s	f1,f4,f8,f2,rup
    44c4c50c:	0000                	.insn	2, 0x0000
    44c4c50e:	0000                	.insn	2, 0x0000
    44c4c510:	108234cf          	fnmadd.s	f9,f4,f8,f2,rup
    44c4c514:	0000                	.insn	2, 0x0000
    44c4c516:	0000                	.insn	2, 0x0000
    44c4c518:	108238cf          	fnmadd.s	f17,f4,f8,f2,rup
    44c4c51c:	0000                	.insn	2, 0x0000
    44c4c51e:	0000                	.insn	2, 0x0000
    44c4c520:	10823ccf          	fnmadd.s	f25,f4,f8,f2,rup
    44c4c524:	0000                	.insn	2, 0x0000
    44c4c526:	0000                	.insn	2, 0x0000
    44c4c528:	108240cf          	fnmadd.s	f1,f4,f8,f2,rmm
    44c4c52c:	0000                	.insn	2, 0x0000
    44c4c52e:	0000                	.insn	2, 0x0000
    44c4c530:	108244cf          	fnmadd.s	f9,f4,f8,f2,rmm
    44c4c534:	0000                	.insn	2, 0x0000
    44c4c536:	0000                	.insn	2, 0x0000
    44c4c538:	108248cf          	fnmadd.s	f17,f4,f8,f2,rmm
    44c4c53c:	0000                	.insn	2, 0x0000
    44c4c53e:	0000                	.insn	2, 0x0000
    44c4c540:	10824ccf          	fnmadd.s	f25,f4,f8,f2,rmm
    44c4c544:	0000                	.insn	2, 0x0000
    44c4c546:	0000                	.insn	2, 0x0000
    44c4c548:	108250cf          	fnmadd.s	f1,f4,f8,f2,unknown
    44c4c54c:	0000                	.insn	2, 0x0000
    44c4c54e:	0000                	.insn	2, 0x0000
    44c4c550:	108254cf          	fnmadd.s	f9,f4,f8,f2,unknown
    44c4c554:	0000                	.insn	2, 0x0000
    44c4c556:	0000                	.insn	2, 0x0000
    44c4c558:	108258cf          	fnmadd.s	f17,f4,f8,f2,unknown
    44c4c55c:	0000                	.insn	2, 0x0000
    44c4c55e:	0000                	.insn	2, 0x0000
    44c4c560:	10825ccf          	fnmadd.s	f25,f4,f8,f2,unknown
    44c4c564:	0000                	.insn	2, 0x0000
    44c4c566:	0000                	.insn	2, 0x0000
    44c4c568:	108260cf          	fnmadd.s	f1,f4,f8,f2,unknown
    44c4c56c:	0000                	.insn	2, 0x0000
    44c4c56e:	0000                	.insn	2, 0x0000
    44c4c570:	108264cf          	fnmadd.s	f9,f4,f8,f2,unknown
    44c4c574:	0000                	.insn	2, 0x0000
    44c4c576:	0000                	.insn	2, 0x0000
    44c4c578:	108268cf          	fnmadd.s	f17,f4,f8,f2,unknown
    44c4c57c:	0000                	.insn	2, 0x0000
    44c4c57e:	0000                	.insn	2, 0x0000
    44c4c580:	10826ccf          	fnmadd.s	f25,f4,f8,f2,unknown
    44c4c584:	0000                	.insn	2, 0x0000
    44c4c586:	0000                	.insn	2, 0x0000
    44c4c588:	108270cf          	fnmadd.s	f1,f4,f8,f2
    44c4c58c:	0000                	.insn	2, 0x0000
    44c4c58e:	0000                	.insn	2, 0x0000
    44c4c590:	108274cf          	fnmadd.s	f9,f4,f8,f2
    44c4c594:	0000                	.insn	2, 0x0000
    44c4c596:	0000                	.insn	2, 0x0000
    44c4c598:	108278cf          	fnmadd.s	f17,f4,f8,f2
    44c4c59c:	0000                	.insn	2, 0x0000
    44c4c59e:	0000                	.insn	2, 0x0000
    44c4c5a0:	10827ccf          	fnmadd.s	f25,f4,f8,f2
    44c4c5a4:	0000                	.insn	2, 0x0000
    44c4c5a6:	0000                	.insn	2, 0x0000
    44c4c5a8:	108280cf          	fnmadd.s	f1,f5,f8,f2,rne
    44c4c5ac:	0000                	.insn	2, 0x0000
    44c4c5ae:	0000                	.insn	2, 0x0000
    44c4c5b0:	108284cf          	fnmadd.s	f9,f5,f8,f2,rne
    44c4c5b4:	0000                	.insn	2, 0x0000
    44c4c5b6:	0000                	.insn	2, 0x0000
    44c4c5b8:	108288cf          	fnmadd.s	f17,f5,f8,f2,rne
    44c4c5bc:	0000                	.insn	2, 0x0000
    44c4c5be:	0000                	.insn	2, 0x0000
    44c4c5c0:	10828ccf          	fnmadd.s	f25,f5,f8,f2,rne
    44c4c5c4:	0000                	.insn	2, 0x0000
    44c4c5c6:	0000                	.insn	2, 0x0000
    44c4c5c8:	108290cf          	fnmadd.s	f1,f5,f8,f2,rtz
    44c4c5cc:	0000                	.insn	2, 0x0000
    44c4c5ce:	0000                	.insn	2, 0x0000
    44c4c5d0:	108294cf          	fnmadd.s	f9,f5,f8,f2,rtz
    44c4c5d4:	0000                	.insn	2, 0x0000
    44c4c5d6:	0000                	.insn	2, 0x0000
    44c4c5d8:	108298cf          	fnmadd.s	f17,f5,f8,f2,rtz
    44c4c5dc:	0000                	.insn	2, 0x0000
    44c4c5de:	0000                	.insn	2, 0x0000
    44c4c5e0:	10829ccf          	fnmadd.s	f25,f5,f8,f2,rtz
    44c4c5e4:	0000                	.insn	2, 0x0000
    44c4c5e6:	0000                	.insn	2, 0x0000
    44c4c5e8:	1082a0cf          	fnmadd.s	f1,f5,f8,f2,rdn
    44c4c5ec:	0000                	.insn	2, 0x0000
    44c4c5ee:	0000                	.insn	2, 0x0000
    44c4c5f0:	1082a4cf          	fnmadd.s	f9,f5,f8,f2,rdn
    44c4c5f4:	0000                	.insn	2, 0x0000
    44c4c5f6:	0000                	.insn	2, 0x0000
    44c4c5f8:	1082a8cf          	fnmadd.s	f17,f5,f8,f2,rdn
    44c4c5fc:	0000                	.insn	2, 0x0000
    44c4c5fe:	0000                	.insn	2, 0x0000
    44c4c600:	1082accf          	fnmadd.s	f25,f5,f8,f2,rdn
    44c4c604:	0000                	.insn	2, 0x0000
    44c4c606:	0000                	.insn	2, 0x0000
    44c4c608:	1082b0cf          	fnmadd.s	f1,f5,f8,f2,rup
    44c4c60c:	0000                	.insn	2, 0x0000
    44c4c60e:	0000                	.insn	2, 0x0000
    44c4c610:	1082b4cf          	fnmadd.s	f9,f5,f8,f2,rup
    44c4c614:	0000                	.insn	2, 0x0000
    44c4c616:	0000                	.insn	2, 0x0000
    44c4c618:	1082b8cf          	fnmadd.s	f17,f5,f8,f2,rup
    44c4c61c:	0000                	.insn	2, 0x0000
    44c4c61e:	0000                	.insn	2, 0x0000
    44c4c620:	1082bccf          	fnmadd.s	f25,f5,f8,f2,rup
    44c4c624:	0000                	.insn	2, 0x0000
    44c4c626:	0000                	.insn	2, 0x0000
    44c4c628:	1082c0cf          	fnmadd.s	f1,f5,f8,f2,rmm
    44c4c62c:	0000                	.insn	2, 0x0000
    44c4c62e:	0000                	.insn	2, 0x0000
    44c4c630:	1082c4cf          	fnmadd.s	f9,f5,f8,f2,rmm
    44c4c634:	0000                	.insn	2, 0x0000
    44c4c636:	0000                	.insn	2, 0x0000
    44c4c638:	1082c8cf          	fnmadd.s	f17,f5,f8,f2,rmm
    44c4c63c:	0000                	.insn	2, 0x0000
    44c4c63e:	0000                	.insn	2, 0x0000
    44c4c640:	1082cccf          	fnmadd.s	f25,f5,f8,f2,rmm
    44c4c644:	0000                	.insn	2, 0x0000
    44c4c646:	0000                	.insn	2, 0x0000
    44c4c648:	1082d0cf          	fnmadd.s	f1,f5,f8,f2,unknown
    44c4c64c:	0000                	.insn	2, 0x0000
    44c4c64e:	0000                	.insn	2, 0x0000
    44c4c650:	1082d4cf          	fnmadd.s	f9,f5,f8,f2,unknown
    44c4c654:	0000                	.insn	2, 0x0000
    44c4c656:	0000                	.insn	2, 0x0000
    44c4c658:	1082d8cf          	fnmadd.s	f17,f5,f8,f2,unknown
    44c4c65c:	0000                	.insn	2, 0x0000
    44c4c65e:	0000                	.insn	2, 0x0000
    44c4c660:	1082dccf          	fnmadd.s	f25,f5,f8,f2,unknown
    44c4c664:	0000                	.insn	2, 0x0000
    44c4c666:	0000                	.insn	2, 0x0000
    44c4c668:	1082e0cf          	fnmadd.s	f1,f5,f8,f2,unknown
    44c4c66c:	0000                	.insn	2, 0x0000
    44c4c66e:	0000                	.insn	2, 0x0000
    44c4c670:	1082e4cf          	fnmadd.s	f9,f5,f8,f2,unknown
    44c4c674:	0000                	.insn	2, 0x0000
    44c4c676:	0000                	.insn	2, 0x0000
    44c4c678:	1082e8cf          	fnmadd.s	f17,f5,f8,f2,unknown
    44c4c67c:	0000                	.insn	2, 0x0000
    44c4c67e:	0000                	.insn	2, 0x0000
    44c4c680:	1082eccf          	fnmadd.s	f25,f5,f8,f2,unknown
    44c4c684:	0000                	.insn	2, 0x0000
    44c4c686:	0000                	.insn	2, 0x0000
    44c4c688:	1082f0cf          	fnmadd.s	f1,f5,f8,f2
    44c4c68c:	0000                	.insn	2, 0x0000
    44c4c68e:	0000                	.insn	2, 0x0000
    44c4c690:	1082f4cf          	fnmadd.s	f9,f5,f8,f2
    44c4c694:	0000                	.insn	2, 0x0000
    44c4c696:	0000                	.insn	2, 0x0000
    44c4c698:	1082f8cf          	fnmadd.s	f17,f5,f8,f2
    44c4c69c:	0000                	.insn	2, 0x0000
    44c4c69e:	0000                	.insn	2, 0x0000
    44c4c6a0:	1082fccf          	fnmadd.s	f25,f5,f8,f2
    44c4c6a4:	0000                	.insn	2, 0x0000
    44c4c6a6:	0000                	.insn	2, 0x0000
    44c4c6a8:	108300cf          	fnmadd.s	f1,f6,f8,f2,rne
    44c4c6ac:	0000                	.insn	2, 0x0000
    44c4c6ae:	0000                	.insn	2, 0x0000
    44c4c6b0:	108304cf          	fnmadd.s	f9,f6,f8,f2,rne
    44c4c6b4:	0000                	.insn	2, 0x0000
    44c4c6b6:	0000                	.insn	2, 0x0000
    44c4c6b8:	108308cf          	fnmadd.s	f17,f6,f8,f2,rne
    44c4c6bc:	0000                	.insn	2, 0x0000
    44c4c6be:	0000                	.insn	2, 0x0000
    44c4c6c0:	10830ccf          	fnmadd.s	f25,f6,f8,f2,rne
    44c4c6c4:	0000                	.insn	2, 0x0000
    44c4c6c6:	0000                	.insn	2, 0x0000
    44c4c6c8:	108310cf          	fnmadd.s	f1,f6,f8,f2,rtz
    44c4c6cc:	0000                	.insn	2, 0x0000
    44c4c6ce:	0000                	.insn	2, 0x0000
    44c4c6d0:	108314cf          	fnmadd.s	f9,f6,f8,f2,rtz
    44c4c6d4:	0000                	.insn	2, 0x0000
    44c4c6d6:	0000                	.insn	2, 0x0000
    44c4c6d8:	108318cf          	fnmadd.s	f17,f6,f8,f2,rtz
    44c4c6dc:	0000                	.insn	2, 0x0000
    44c4c6de:	0000                	.insn	2, 0x0000
    44c4c6e0:	10831ccf          	fnmadd.s	f25,f6,f8,f2,rtz
    44c4c6e4:	0000                	.insn	2, 0x0000
    44c4c6e6:	0000                	.insn	2, 0x0000
    44c4c6e8:	108320cf          	fnmadd.s	f1,f6,f8,f2,rdn
    44c4c6ec:	0000                	.insn	2, 0x0000
    44c4c6ee:	0000                	.insn	2, 0x0000
    44c4c6f0:	108324cf          	fnmadd.s	f9,f6,f8,f2,rdn
    44c4c6f4:	0000                	.insn	2, 0x0000
    44c4c6f6:	0000                	.insn	2, 0x0000
    44c4c6f8:	108328cf          	fnmadd.s	f17,f6,f8,f2,rdn
    44c4c6fc:	0000                	.insn	2, 0x0000
    44c4c6fe:	0000                	.insn	2, 0x0000
    44c4c700:	10832ccf          	fnmadd.s	f25,f6,f8,f2,rdn
    44c4c704:	0000                	.insn	2, 0x0000
    44c4c706:	0000                	.insn	2, 0x0000
    44c4c708:	108330cf          	fnmadd.s	f1,f6,f8,f2,rup
    44c4c70c:	0000                	.insn	2, 0x0000
    44c4c70e:	0000                	.insn	2, 0x0000
    44c4c710:	108334cf          	fnmadd.s	f9,f6,f8,f2,rup
    44c4c714:	0000                	.insn	2, 0x0000
    44c4c716:	0000                	.insn	2, 0x0000
    44c4c718:	108338cf          	fnmadd.s	f17,f6,f8,f2,rup
    44c4c71c:	0000                	.insn	2, 0x0000
    44c4c71e:	0000                	.insn	2, 0x0000
    44c4c720:	10833ccf          	fnmadd.s	f25,f6,f8,f2,rup
    44c4c724:	0000                	.insn	2, 0x0000
    44c4c726:	0000                	.insn	2, 0x0000
    44c4c728:	108340cf          	fnmadd.s	f1,f6,f8,f2,rmm
    44c4c72c:	0000                	.insn	2, 0x0000
    44c4c72e:	0000                	.insn	2, 0x0000
    44c4c730:	108344cf          	fnmadd.s	f9,f6,f8,f2,rmm
    44c4c734:	0000                	.insn	2, 0x0000
    44c4c736:	0000                	.insn	2, 0x0000
    44c4c738:	108348cf          	fnmadd.s	f17,f6,f8,f2,rmm
    44c4c73c:	0000                	.insn	2, 0x0000
    44c4c73e:	0000                	.insn	2, 0x0000
    44c4c740:	10834ccf          	fnmadd.s	f25,f6,f8,f2,rmm
    44c4c744:	0000                	.insn	2, 0x0000
    44c4c746:	0000                	.insn	2, 0x0000
    44c4c748:	108350cf          	fnmadd.s	f1,f6,f8,f2,unknown
    44c4c74c:	0000                	.insn	2, 0x0000
    44c4c74e:	0000                	.insn	2, 0x0000
    44c4c750:	108354cf          	fnmadd.s	f9,f6,f8,f2,unknown
    44c4c754:	0000                	.insn	2, 0x0000
    44c4c756:	0000                	.insn	2, 0x0000
    44c4c758:	108358cf          	fnmadd.s	f17,f6,f8,f2,unknown
    44c4c75c:	0000                	.insn	2, 0x0000
    44c4c75e:	0000                	.insn	2, 0x0000
    44c4c760:	10835ccf          	fnmadd.s	f25,f6,f8,f2,unknown
    44c4c764:	0000                	.insn	2, 0x0000
    44c4c766:	0000                	.insn	2, 0x0000
    44c4c768:	108360cf          	fnmadd.s	f1,f6,f8,f2,unknown
    44c4c76c:	0000                	.insn	2, 0x0000
    44c4c76e:	0000                	.insn	2, 0x0000
    44c4c770:	108364cf          	fnmadd.s	f9,f6,f8,f2,unknown
    44c4c774:	0000                	.insn	2, 0x0000
    44c4c776:	0000                	.insn	2, 0x0000
    44c4c778:	108368cf          	fnmadd.s	f17,f6,f8,f2,unknown
    44c4c77c:	0000                	.insn	2, 0x0000
    44c4c77e:	0000                	.insn	2, 0x0000
    44c4c780:	10836ccf          	fnmadd.s	f25,f6,f8,f2,unknown
    44c4c784:	0000                	.insn	2, 0x0000
    44c4c786:	0000                	.insn	2, 0x0000
    44c4c788:	108370cf          	fnmadd.s	f1,f6,f8,f2
    44c4c78c:	0000                	.insn	2, 0x0000
    44c4c78e:	0000                	.insn	2, 0x0000
    44c4c790:	108374cf          	fnmadd.s	f9,f6,f8,f2
    44c4c794:	0000                	.insn	2, 0x0000
    44c4c796:	0000                	.insn	2, 0x0000
    44c4c798:	108378cf          	fnmadd.s	f17,f6,f8,f2
    44c4c79c:	0000                	.insn	2, 0x0000
    44c4c79e:	0000                	.insn	2, 0x0000
    44c4c7a0:	10837ccf          	fnmadd.s	f25,f6,f8,f2
    44c4c7a4:	0000                	.insn	2, 0x0000
    44c4c7a6:	0000                	.insn	2, 0x0000
    44c4c7a8:	108380cf          	fnmadd.s	f1,f7,f8,f2,rne
    44c4c7ac:	0000                	.insn	2, 0x0000
    44c4c7ae:	0000                	.insn	2, 0x0000
    44c4c7b0:	108384cf          	fnmadd.s	f9,f7,f8,f2,rne
    44c4c7b4:	0000                	.insn	2, 0x0000
    44c4c7b6:	0000                	.insn	2, 0x0000
    44c4c7b8:	108388cf          	fnmadd.s	f17,f7,f8,f2,rne
    44c4c7bc:	0000                	.insn	2, 0x0000
    44c4c7be:	0000                	.insn	2, 0x0000
    44c4c7c0:	10838ccf          	fnmadd.s	f25,f7,f8,f2,rne
    44c4c7c4:	0000                	.insn	2, 0x0000
    44c4c7c6:	0000                	.insn	2, 0x0000
    44c4c7c8:	108390cf          	fnmadd.s	f1,f7,f8,f2,rtz
    44c4c7cc:	0000                	.insn	2, 0x0000
    44c4c7ce:	0000                	.insn	2, 0x0000
    44c4c7d0:	108394cf          	fnmadd.s	f9,f7,f8,f2,rtz
    44c4c7d4:	0000                	.insn	2, 0x0000
    44c4c7d6:	0000                	.insn	2, 0x0000
    44c4c7d8:	108398cf          	fnmadd.s	f17,f7,f8,f2,rtz
    44c4c7dc:	0000                	.insn	2, 0x0000
    44c4c7de:	0000                	.insn	2, 0x0000
    44c4c7e0:	10839ccf          	fnmadd.s	f25,f7,f8,f2,rtz
    44c4c7e4:	0000                	.insn	2, 0x0000
    44c4c7e6:	0000                	.insn	2, 0x0000
    44c4c7e8:	1083a0cf          	fnmadd.s	f1,f7,f8,f2,rdn
    44c4c7ec:	0000                	.insn	2, 0x0000
    44c4c7ee:	0000                	.insn	2, 0x0000
    44c4c7f0:	1083a4cf          	fnmadd.s	f9,f7,f8,f2,rdn
    44c4c7f4:	0000                	.insn	2, 0x0000
    44c4c7f6:	0000                	.insn	2, 0x0000
    44c4c7f8:	1083a8cf          	fnmadd.s	f17,f7,f8,f2,rdn
    44c4c7fc:	0000                	.insn	2, 0x0000
    44c4c7fe:	0000                	.insn	2, 0x0000
    44c4c800:	1083accf          	fnmadd.s	f25,f7,f8,f2,rdn
    44c4c804:	0000                	.insn	2, 0x0000
    44c4c806:	0000                	.insn	2, 0x0000
    44c4c808:	1083b0cf          	fnmadd.s	f1,f7,f8,f2,rup
    44c4c80c:	0000                	.insn	2, 0x0000
    44c4c80e:	0000                	.insn	2, 0x0000
    44c4c810:	1083b4cf          	fnmadd.s	f9,f7,f8,f2,rup
    44c4c814:	0000                	.insn	2, 0x0000
    44c4c816:	0000                	.insn	2, 0x0000
    44c4c818:	1083b8cf          	fnmadd.s	f17,f7,f8,f2,rup
    44c4c81c:	0000                	.insn	2, 0x0000
    44c4c81e:	0000                	.insn	2, 0x0000
    44c4c820:	1083bccf          	fnmadd.s	f25,f7,f8,f2,rup
    44c4c824:	0000                	.insn	2, 0x0000
    44c4c826:	0000                	.insn	2, 0x0000
    44c4c828:	1083c0cf          	fnmadd.s	f1,f7,f8,f2,rmm
    44c4c82c:	0000                	.insn	2, 0x0000
    44c4c82e:	0000                	.insn	2, 0x0000
    44c4c830:	1083c4cf          	fnmadd.s	f9,f7,f8,f2,rmm
    44c4c834:	0000                	.insn	2, 0x0000
    44c4c836:	0000                	.insn	2, 0x0000
    44c4c838:	1083c8cf          	fnmadd.s	f17,f7,f8,f2,rmm
    44c4c83c:	0000                	.insn	2, 0x0000
    44c4c83e:	0000                	.insn	2, 0x0000
    44c4c840:	1083cccf          	fnmadd.s	f25,f7,f8,f2,rmm
    44c4c844:	0000                	.insn	2, 0x0000
    44c4c846:	0000                	.insn	2, 0x0000
    44c4c848:	1083d0cf          	fnmadd.s	f1,f7,f8,f2,unknown
    44c4c84c:	0000                	.insn	2, 0x0000
    44c4c84e:	0000                	.insn	2, 0x0000
    44c4c850:	1083d4cf          	fnmadd.s	f9,f7,f8,f2,unknown
    44c4c854:	0000                	.insn	2, 0x0000
    44c4c856:	0000                	.insn	2, 0x0000
    44c4c858:	1083d8cf          	fnmadd.s	f17,f7,f8,f2,unknown
    44c4c85c:	0000                	.insn	2, 0x0000
    44c4c85e:	0000                	.insn	2, 0x0000
    44c4c860:	1083dccf          	fnmadd.s	f25,f7,f8,f2,unknown
    44c4c864:	0000                	.insn	2, 0x0000
    44c4c866:	0000                	.insn	2, 0x0000
    44c4c868:	1083e0cf          	fnmadd.s	f1,f7,f8,f2,unknown
    44c4c86c:	0000                	.insn	2, 0x0000
    44c4c86e:	0000                	.insn	2, 0x0000
    44c4c870:	1083e4cf          	fnmadd.s	f9,f7,f8,f2,unknown
    44c4c874:	0000                	.insn	2, 0x0000
    44c4c876:	0000                	.insn	2, 0x0000
    44c4c878:	1083e8cf          	fnmadd.s	f17,f7,f8,f2,unknown
    44c4c87c:	0000                	.insn	2, 0x0000
    44c4c87e:	0000                	.insn	2, 0x0000
    44c4c880:	1083eccf          	fnmadd.s	f25,f7,f8,f2,unknown
    44c4c884:	0000                	.insn	2, 0x0000
    44c4c886:	0000                	.insn	2, 0x0000
    44c4c888:	1083f0cf          	fnmadd.s	f1,f7,f8,f2
    44c4c88c:	0000                	.insn	2, 0x0000
    44c4c88e:	0000                	.insn	2, 0x0000
    44c4c890:	1083f4cf          	fnmadd.s	f9,f7,f8,f2
    44c4c894:	0000                	.insn	2, 0x0000
    44c4c896:	0000                	.insn	2, 0x0000
    44c4c898:	1083f8cf          	fnmadd.s	f17,f7,f8,f2
    44c4c89c:	0000                	.insn	2, 0x0000
    44c4c89e:	0000                	.insn	2, 0x0000
    44c4c8a0:	1083fccf          	fnmadd.s	f25,f7,f8,f2
    44c4c8a4:	0000                	.insn	2, 0x0000
    44c4c8a6:	0000                	.insn	2, 0x0000
    44c4c8a8:	00df 1084 0000      	.insn	6, 0x108400df
    44c4c8ae:	0000                	.insn	2, 0x0000
    44c4c8b0:	04df 1084 0000      	.insn	6, 0x108404df
    44c4c8b6:	0000                	.insn	2, 0x0000
    44c4c8b8:	08df 1084 0000      	.insn	6, 0x108408df
    44c4c8be:	0000                	.insn	2, 0x0000
    44c4c8c0:	0cdf 1084 0000      	.insn	6, 0x10840cdf
    44c4c8c6:	0000                	.insn	2, 0x0000
    44c4c8c8:	10df 1084 0000      	.insn	6, 0x108410df
    44c4c8ce:	0000                	.insn	2, 0x0000
    44c4c8d0:	14df 1084 0000      	.insn	6, 0x108414df
    44c4c8d6:	0000                	.insn	2, 0x0000
    44c4c8d8:	18df 1084 0000      	.insn	6, 0x108418df
    44c4c8de:	0000                	.insn	2, 0x0000
    44c4c8e0:	1cdf 1084 0000      	.insn	6, 0x10841cdf
    44c4c8e6:	0000                	.insn	2, 0x0000
    44c4c8e8:	20df 1084 0000      	.insn	6, 0x108420df
    44c4c8ee:	0000                	.insn	2, 0x0000
    44c4c8f0:	24df 1084 0000      	.insn	6, 0x108424df
    44c4c8f6:	0000                	.insn	2, 0x0000
    44c4c8f8:	28df 1084 0000      	.insn	6, 0x108428df
    44c4c8fe:	0000                	.insn	2, 0x0000
    44c4c900:	2cdf 1084 0000      	.insn	6, 0x10842cdf
    44c4c906:	0000                	.insn	2, 0x0000
    44c4c908:	30df 1084 0000      	.insn	6, 0x108430df
    44c4c90e:	0000                	.insn	2, 0x0000
    44c4c910:	34df 1084 0000      	.insn	6, 0x108434df
    44c4c916:	0000                	.insn	2, 0x0000
    44c4c918:	38df 1084 0000      	.insn	6, 0x108438df
    44c4c91e:	0000                	.insn	2, 0x0000
    44c4c920:	3cdf 1084 0000      	.insn	6, 0x10843cdf
    44c4c926:	0000                	.insn	2, 0x0000
    44c4c928:	40df 1084 0000      	.insn	6, 0x108440df
    44c4c92e:	0000                	.insn	2, 0x0000
    44c4c930:	44df 1084 0000      	.insn	6, 0x108444df
    44c4c936:	0000                	.insn	2, 0x0000
    44c4c938:	48df 1084 0000      	.insn	6, 0x108448df
    44c4c93e:	0000                	.insn	2, 0x0000
    44c4c940:	4cdf 1084 0000      	.insn	6, 0x10844cdf
    44c4c946:	0000                	.insn	2, 0x0000
    44c4c948:	50df 1084 0000      	.insn	6, 0x108450df
    44c4c94e:	0000                	.insn	2, 0x0000
    44c4c950:	54df 1084 0000      	.insn	6, 0x108454df
    44c4c956:	0000                	.insn	2, 0x0000
    44c4c958:	58df 1084 0000      	.insn	6, 0x108458df
    44c4c95e:	0000                	.insn	2, 0x0000
    44c4c960:	5cdf 1084 0000      	.insn	6, 0x10845cdf
    44c4c966:	0000                	.insn	2, 0x0000
    44c4c968:	60df 1084 0000      	.insn	6, 0x108460df
    44c4c96e:	0000                	.insn	2, 0x0000
    44c4c970:	64df 1084 0000      	.insn	6, 0x108464df
    44c4c976:	0000                	.insn	2, 0x0000
    44c4c978:	68df 1084 0000      	.insn	6, 0x108468df
    44c4c97e:	0000                	.insn	2, 0x0000
    44c4c980:	6cdf 1084 0000      	.insn	6, 0x10846cdf
    44c4c986:	0000                	.insn	2, 0x0000
    44c4c988:	70df 1084 0000      	.insn	6, 0x108470df
    44c4c98e:	0000                	.insn	2, 0x0000
    44c4c990:	74df 1084 0000      	.insn	6, 0x108474df
    44c4c996:	0000                	.insn	2, 0x0000
    44c4c998:	78df 1084 0000      	.insn	6, 0x108478df
    44c4c99e:	0000                	.insn	2, 0x0000
    44c4c9a0:	7cdf 1084 0000      	.insn	6, 0x10847cdf
    44c4c9a6:	0000                	.insn	2, 0x0000
    44c4c9a8:	80df 1084 0000      	.insn	6, 0x108480df
    44c4c9ae:	0000                	.insn	2, 0x0000
    44c4c9b0:	84df 1084 0000      	.insn	6, 0x108484df
    44c4c9b6:	0000                	.insn	2, 0x0000
    44c4c9b8:	88df 1084 0000      	.insn	6, 0x108488df
    44c4c9be:	0000                	.insn	2, 0x0000
    44c4c9c0:	8cdf 1084 0000      	.insn	6, 0x10848cdf
    44c4c9c6:	0000                	.insn	2, 0x0000
    44c4c9c8:	90df 1084 0000      	.insn	6, 0x108490df
    44c4c9ce:	0000                	.insn	2, 0x0000
    44c4c9d0:	94df 1084 0000      	.insn	6, 0x108494df
    44c4c9d6:	0000                	.insn	2, 0x0000
    44c4c9d8:	98df 1084 0000      	.insn	6, 0x108498df
    44c4c9de:	0000                	.insn	2, 0x0000
    44c4c9e0:	9cdf 1084 0000      	.insn	6, 0x10849cdf
    44c4c9e6:	0000                	.insn	2, 0x0000
    44c4c9e8:	a0df 1084 0000      	.insn	6, 0x1084a0df
    44c4c9ee:	0000                	.insn	2, 0x0000
    44c4c9f0:	a4df 1084 0000      	.insn	6, 0x1084a4df
    44c4c9f6:	0000                	.insn	2, 0x0000
    44c4c9f8:	a8df 1084 0000      	.insn	6, 0x1084a8df
    44c4c9fe:	0000                	.insn	2, 0x0000
    44c4ca00:	acdf 1084 0000      	.insn	6, 0x1084acdf
    44c4ca06:	0000                	.insn	2, 0x0000
    44c4ca08:	b0df 1084 0000      	.insn	6, 0x1084b0df
    44c4ca0e:	0000                	.insn	2, 0x0000
    44c4ca10:	b4df 1084 0000      	.insn	6, 0x1084b4df
    44c4ca16:	0000                	.insn	2, 0x0000
    44c4ca18:	b8df 1084 0000      	.insn	6, 0x1084b8df
    44c4ca1e:	0000                	.insn	2, 0x0000
    44c4ca20:	bcdf 1084 0000      	.insn	6, 0x1084bcdf
    44c4ca26:	0000                	.insn	2, 0x0000
    44c4ca28:	c0df 1084 0000      	.insn	6, 0x1084c0df
    44c4ca2e:	0000                	.insn	2, 0x0000
    44c4ca30:	c4df 1084 0000      	.insn	6, 0x1084c4df
    44c4ca36:	0000                	.insn	2, 0x0000
    44c4ca38:	c8df 1084 0000      	.insn	6, 0x1084c8df
    44c4ca3e:	0000                	.insn	2, 0x0000
    44c4ca40:	ccdf 1084 0000      	.insn	6, 0x1084ccdf
    44c4ca46:	0000                	.insn	2, 0x0000
    44c4ca48:	d0df 1084 0000      	.insn	6, 0x1084d0df
    44c4ca4e:	0000                	.insn	2, 0x0000
    44c4ca50:	d4df 1084 0000      	.insn	6, 0x1084d4df
    44c4ca56:	0000                	.insn	2, 0x0000
    44c4ca58:	d8df 1084 0000      	.insn	6, 0x1084d8df
    44c4ca5e:	0000                	.insn	2, 0x0000
    44c4ca60:	dcdf 1084 0000      	.insn	6, 0x1084dcdf
    44c4ca66:	0000                	.insn	2, 0x0000
    44c4ca68:	e0df 1084 0000      	.insn	6, 0x1084e0df
    44c4ca6e:	0000                	.insn	2, 0x0000
    44c4ca70:	e4df 1084 0000      	.insn	6, 0x1084e4df
    44c4ca76:	0000                	.insn	2, 0x0000
    44c4ca78:	e8df 1084 0000      	.insn	6, 0x1084e8df
    44c4ca7e:	0000                	.insn	2, 0x0000
    44c4ca80:	ecdf 1084 0000      	.insn	6, 0x1084ecdf
    44c4ca86:	0000                	.insn	2, 0x0000
    44c4ca88:	f0df 1084 0000      	.insn	6, 0x1084f0df
    44c4ca8e:	0000                	.insn	2, 0x0000
    44c4ca90:	f4df 1084 0000      	.insn	6, 0x1084f4df
    44c4ca96:	0000                	.insn	2, 0x0000
    44c4ca98:	f8df 1084 0000      	.insn	6, 0x1084f8df
    44c4ca9e:	0000                	.insn	2, 0x0000
    44c4caa0:	fcdf 1084 0000      	.insn	6, 0x1084fcdf
    44c4caa6:	0000                	.insn	2, 0x0000
    44c4caa8:	00df 1085 0000      	.insn	6, 0x108500df
    44c4caae:	0000                	.insn	2, 0x0000
    44c4cab0:	04df 1085 0000      	.insn	6, 0x108504df
    44c4cab6:	0000                	.insn	2, 0x0000
    44c4cab8:	08df 1085 0000      	.insn	6, 0x108508df
    44c4cabe:	0000                	.insn	2, 0x0000
    44c4cac0:	0cdf 1085 0000      	.insn	6, 0x10850cdf
    44c4cac6:	0000                	.insn	2, 0x0000
    44c4cac8:	10df 1085 0000      	.insn	6, 0x108510df
    44c4cace:	0000                	.insn	2, 0x0000
    44c4cad0:	14df 1085 0000      	.insn	6, 0x108514df
    44c4cad6:	0000                	.insn	2, 0x0000
    44c4cad8:	18df 1085 0000      	.insn	6, 0x108518df
    44c4cade:	0000                	.insn	2, 0x0000
    44c4cae0:	1cdf 1085 0000      	.insn	6, 0x10851cdf
    44c4cae6:	0000                	.insn	2, 0x0000
    44c4cae8:	20df 1085 0000      	.insn	6, 0x108520df
    44c4caee:	0000                	.insn	2, 0x0000
    44c4caf0:	24df 1085 0000      	.insn	6, 0x108524df
    44c4caf6:	0000                	.insn	2, 0x0000
    44c4caf8:	28df 1085 0000      	.insn	6, 0x108528df
    44c4cafe:	0000                	.insn	2, 0x0000
    44c4cb00:	2cdf 1085 0000      	.insn	6, 0x10852cdf
    44c4cb06:	0000                	.insn	2, 0x0000
    44c4cb08:	30df 1085 0000      	.insn	6, 0x108530df
    44c4cb0e:	0000                	.insn	2, 0x0000
    44c4cb10:	34df 1085 0000      	.insn	6, 0x108534df
    44c4cb16:	0000                	.insn	2, 0x0000
    44c4cb18:	38df 1085 0000      	.insn	6, 0x108538df
    44c4cb1e:	0000                	.insn	2, 0x0000
    44c4cb20:	3cdf 1085 0000      	.insn	6, 0x10853cdf
    44c4cb26:	0000                	.insn	2, 0x0000
    44c4cb28:	40df 1085 0000      	.insn	6, 0x108540df
    44c4cb2e:	0000                	.insn	2, 0x0000
    44c4cb30:	44df 1085 0000      	.insn	6, 0x108544df
    44c4cb36:	0000                	.insn	2, 0x0000
    44c4cb38:	48df 1085 0000      	.insn	6, 0x108548df
    44c4cb3e:	0000                	.insn	2, 0x0000
    44c4cb40:	4cdf 1085 0000      	.insn	6, 0x10854cdf
    44c4cb46:	0000                	.insn	2, 0x0000
    44c4cb48:	50df 1085 0000      	.insn	6, 0x108550df
    44c4cb4e:	0000                	.insn	2, 0x0000
    44c4cb50:	54df 1085 0000      	.insn	6, 0x108554df
    44c4cb56:	0000                	.insn	2, 0x0000
    44c4cb58:	58df 1085 0000      	.insn	6, 0x108558df
    44c4cb5e:	0000                	.insn	2, 0x0000
    44c4cb60:	5cdf 1085 0000      	.insn	6, 0x10855cdf
    44c4cb66:	0000                	.insn	2, 0x0000
    44c4cb68:	60df 1085 0000      	.insn	6, 0x108560df
    44c4cb6e:	0000                	.insn	2, 0x0000
    44c4cb70:	64df 1085 0000      	.insn	6, 0x108564df
    44c4cb76:	0000                	.insn	2, 0x0000
    44c4cb78:	68df 1085 0000      	.insn	6, 0x108568df
    44c4cb7e:	0000                	.insn	2, 0x0000
    44c4cb80:	6cdf 1085 0000      	.insn	6, 0x10856cdf
    44c4cb86:	0000                	.insn	2, 0x0000
    44c4cb88:	70df 1085 0000      	.insn	6, 0x108570df
    44c4cb8e:	0000                	.insn	2, 0x0000
    44c4cb90:	74df 1085 0000      	.insn	6, 0x108574df
    44c4cb96:	0000                	.insn	2, 0x0000
    44c4cb98:	78df 1085 0000      	.insn	6, 0x108578df
    44c4cb9e:	0000                	.insn	2, 0x0000
    44c4cba0:	7cdf 1085 0000      	.insn	6, 0x10857cdf
    44c4cba6:	0000                	.insn	2, 0x0000
    44c4cba8:	80df 1085 0000      	.insn	6, 0x108580df
    44c4cbae:	0000                	.insn	2, 0x0000
    44c4cbb0:	84df 1085 0000      	.insn	6, 0x108584df
    44c4cbb6:	0000                	.insn	2, 0x0000
    44c4cbb8:	88df 1085 0000      	.insn	6, 0x108588df
    44c4cbbe:	0000                	.insn	2, 0x0000
    44c4cbc0:	8cdf 1085 0000      	.insn	6, 0x10858cdf
    44c4cbc6:	0000                	.insn	2, 0x0000
    44c4cbc8:	90df 1085 0000      	.insn	6, 0x108590df
    44c4cbce:	0000                	.insn	2, 0x0000
    44c4cbd0:	94df 1085 0000      	.insn	6, 0x108594df
    44c4cbd6:	0000                	.insn	2, 0x0000
    44c4cbd8:	98df 1085 0000      	.insn	6, 0x108598df
    44c4cbde:	0000                	.insn	2, 0x0000
    44c4cbe0:	9cdf 1085 0000      	.insn	6, 0x10859cdf
    44c4cbe6:	0000                	.insn	2, 0x0000
    44c4cbe8:	a0df 1085 0000      	.insn	6, 0x1085a0df
    44c4cbee:	0000                	.insn	2, 0x0000
    44c4cbf0:	a4df 1085 0000      	.insn	6, 0x1085a4df
    44c4cbf6:	0000                	.insn	2, 0x0000
    44c4cbf8:	a8df 1085 0000      	.insn	6, 0x1085a8df
    44c4cbfe:	0000                	.insn	2, 0x0000
    44c4cc00:	acdf 1085 0000      	.insn	6, 0x1085acdf
    44c4cc06:	0000                	.insn	2, 0x0000
    44c4cc08:	b0df 1085 0000      	.insn	6, 0x1085b0df
    44c4cc0e:	0000                	.insn	2, 0x0000
    44c4cc10:	b4df 1085 0000      	.insn	6, 0x1085b4df
    44c4cc16:	0000                	.insn	2, 0x0000
    44c4cc18:	b8df 1085 0000      	.insn	6, 0x1085b8df
    44c4cc1e:	0000                	.insn	2, 0x0000
    44c4cc20:	bcdf 1085 0000      	.insn	6, 0x1085bcdf
    44c4cc26:	0000                	.insn	2, 0x0000
    44c4cc28:	c0df 1085 0000      	.insn	6, 0x1085c0df
    44c4cc2e:	0000                	.insn	2, 0x0000
    44c4cc30:	c4df 1085 0000      	.insn	6, 0x1085c4df
    44c4cc36:	0000                	.insn	2, 0x0000
    44c4cc38:	c8df 1085 0000      	.insn	6, 0x1085c8df
    44c4cc3e:	0000                	.insn	2, 0x0000
    44c4cc40:	ccdf 1085 0000      	.insn	6, 0x1085ccdf
    44c4cc46:	0000                	.insn	2, 0x0000
    44c4cc48:	d0df 1085 0000      	.insn	6, 0x1085d0df
    44c4cc4e:	0000                	.insn	2, 0x0000
    44c4cc50:	d4df 1085 0000      	.insn	6, 0x1085d4df
    44c4cc56:	0000                	.insn	2, 0x0000
    44c4cc58:	d8df 1085 0000      	.insn	6, 0x1085d8df
    44c4cc5e:	0000                	.insn	2, 0x0000
    44c4cc60:	dcdf 1085 0000      	.insn	6, 0x1085dcdf
    44c4cc66:	0000                	.insn	2, 0x0000
    44c4cc68:	e0df 1085 0000      	.insn	6, 0x1085e0df
    44c4cc6e:	0000                	.insn	2, 0x0000
    44c4cc70:	e4df 1085 0000      	.insn	6, 0x1085e4df
    44c4cc76:	0000                	.insn	2, 0x0000
    44c4cc78:	e8df 1085 0000      	.insn	6, 0x1085e8df
    44c4cc7e:	0000                	.insn	2, 0x0000
    44c4cc80:	ecdf 1085 0000      	.insn	6, 0x1085ecdf
    44c4cc86:	0000                	.insn	2, 0x0000
    44c4cc88:	f0df 1085 0000      	.insn	6, 0x1085f0df
    44c4cc8e:	0000                	.insn	2, 0x0000
    44c4cc90:	f4df 1085 0000      	.insn	6, 0x1085f4df
    44c4cc96:	0000                	.insn	2, 0x0000
    44c4cc98:	f8df 1085 0000      	.insn	6, 0x1085f8df
    44c4cc9e:	0000                	.insn	2, 0x0000
    44c4cca0:	fcdf 1085 0000      	.insn	6, 0x1085fcdf
	...

Disassembly of section .__pagetable_map_os_0x00000000434e2000:

00000000434e2000 <__pagetable_map_os_0x00000000434e2000>:
	...
    434e20b0:	108804cf          	fnmadd.s	f9,f16,f8,f2,rne
    434e20b4:	0000                	.insn	2, 0x0000
	...

Disassembly of section .__pagetable_map_os_0x0000000043ae8000:

0000000043ae8000 <__pagetable_map_os_0x0000000043ae8000>:
	...
    43ae8720:	90df 10eb 0000      	.insn	6, 0x10eb90df
	...

Disassembly of section .__pagetable_map_os_0x000000004396b000:

000000004396b000 <__pagetable_map_os_0x000000004396b000>:
    4396b000:	7c01                	.insn	2, 0x7c01
    4396b002:	10d4                	.insn	2, 0x10d4
	...
    4396b010:	7c01                	.insn	2, 0x7c01
    4396b012:	1052                	.insn	2, 0x1052
	...
    4396b038:	d001                	.insn	2, 0xd001
    4396b03a:	00001107          	flh	f2,0(x0) # 0 <ALL_4KB_PAGES>
	...
    4396b0ee:	0000                	.insn	2, 0x0000
    4396b0f0:	4401                	.insn	2, 0x4401
    4396b0f2:	10e6                	.insn	2, 0x10e6
    4396b0f4:	0000                	.insn	2, 0x0000
    4396b0f6:	0000                	.insn	2, 0x0000
    4396b0f8:	1401                	.insn	2, 0x1401
    4396b0fa:	10d6                	.insn	2, 0x10d6
	...
    4396b198:	6401                	.insn	2, 0x6401
    4396b19a:	113a                	.insn	2, 0x113a
	...
    4396b2d8:	5001                	.insn	2, 0x5001
    4396b2da:	1071                	.insn	2, 0x1071
	...
    4396b4e0:	cc01                	.insn	2, 0xcc01
    4396b4e2:	1120                	.insn	2, 0x1120
	...
    4396b5d8:	bc01                	.insn	2, 0xbc01
    4396b5da:	10ea                	.insn	2, 0x10ea
    4396b5dc:	0000                	.insn	2, 0x0000
	...

Disassembly of section .__pagetable_map_os_0x000000004351f000:

000000004351f000 <__pagetable_map_os_0x000000004351f000>:
	...
    4351f028:	10e5a8d7          	vredminu.vs	v17,v14,v11,v0.t
	...
    4351f080:	10db4cd7          	vminu.vx	v25,v13,x22,v0.t
	...
    4351f0d0:	f0df 10dc 0000      	.insn	6, 0x10dcf0df
    4351f0d6:	0000                	.insn	2, 0x0000
    4351f0d8:	f4df 10dc 0000      	.insn	6, 0x10dcf4df
	...
    4351f1a6:	0000                	.insn	2, 0x0000
    4351f1a8:	106f10d7          	vfmin.vv	v1,v6,v30,v0.t
	...
    4351f1c8:	10e5fcd7          	vsetvli	x25,x11,270
	...
    4351f2e8:	b0df 10e5 0000      	.insn	6, 0x10e5b0df
	...

Disassembly of section .__pagetable_map_os_0x0000000043585000:

0000000043585000 <__pagetable_map_os_0x0000000043585000>:
	...
    43585080:	08df 10e9 0000      	.insn	6, 0x10e908df
	...
    435859ee:	0000                	.insn	2, 0x0000
    435859f0:	48df 1120 0000      	.insn	6, 0x112048df
    435859f6:	0000                	.insn	2, 0x0000
    435859f8:	4cdf 1120 0000      	.insn	6, 0x11204cdf
	...
    43585df6:	0000                	.insn	2, 0x0000
    43585df8:	d8df 112c 0000      	.insn	6, 0x112cd8df
	...

Disassembly of section .__pagetable_map_os_0x0000000044833000:

0000000044833000 <__pagetable_map_os_0x0000000044833000>:
	...
    448334d8:	90df 10c7 0000      	.insn	6, 0x10c790df
	...

Disassembly of section .__pagetable_map_os_0x0000000043991000:

0000000043991000 <__pagetable_map_os_0x0000000043991000>:
	...
    43991d08:	04df 1118 0000      	.insn	6, 0x111804df
	...

Disassembly of section .__pagetable_map_os_0x0000000043aaf000:

