
/home/abdullah/RiescueC/riescue/10x_R/za64rs/testsuite/za64rs/super_sv57/tp_za64rs_1:     file format elf64-littleriscv


Disassembly of section .runtime:

0000000041000000 <_start>:
    41000000:	00000093          	li	x1,0
    41000004:	00000113          	li	x2,0
    41000008:	00000193          	li	x3,0
    4100000c:	00000213          	li	x4,0
    41000010:	00000293          	li	x5,0
    41000014:	00000313          	li	x6,0
    41000018:	00000393          	li	x7,0
    4100001c:	00000413          	li	x8,0
    41000020:	00000493          	li	x9,0
    41000024:	00000513          	li	x10,0
    41000028:	00000593          	li	x11,0
    4100002c:	00000613          	li	x12,0
    41000030:	00000693          	li	x13,0
    41000034:	00000713          	li	x14,0
    41000038:	00000793          	li	x15,0
    4100003c:	00000813          	li	x16,0
    41000040:	00000893          	li	x17,0
    41000044:	00000913          	li	x18,0
    41000048:	00000993          	li	x19,0
    4100004c:	00000a13          	li	x20,0
    41000050:	00000a93          	li	x21,0
    41000054:	00000b13          	li	x22,0
    41000058:	00000b93          	li	x23,0
    4100005c:	00000c13          	li	x24,0
    41000060:	00000c93          	li	x25,0
    41000064:	00000d13          	li	x26,0
    41000068:	00000d93          	li	x27,0
    4100006c:	00000e13          	li	x28,0
    41000070:	00000e93          	li	x29,0
    41000074:	00000f13          	li	x30,0
    41000078:	00000f93          	li	x31,0

000000004100007c <loader__load_panic_address>:
    4100007c:	00001297          	auipc	x5,0x1
    41000080:	9b828293          	addi	x5,x5,-1608 # 41000a34 <eot__failed>
    41000084:	30529073          	csrw	mtvec,x5

0000000041000088 <loader__initialize_runtime>:
    41000088:	00000293          	li	x5,0
    4100008c:	3012a2f3          	csrrs	x5,misa,x5

0000000041000090 <loader__set_mstatus>:
    41000090:	000402b7          	lui	x5,0x40
    41000094:	00a2829b          	addiw	x5,x5,10 # 4000a <pma_region_0_size+0xa>
    41000098:	3002a2f3          	csrrs	x5,mstatus,x5
    4100009c:	44d01237          	lui	x4,0x44d01
    410000a0:	34021073          	csrw	mscratch,x4

00000000410000a4 <loader__setup_menvcfg>:
    410000a4:	00000297          	auipc	x5,0x0
    410000a8:	47c28293          	addi	x5,x5,1148 # 41000520 <trap_handler_m__trap_entry>
    410000ac:	30529073          	csrw	mtvec,x5

00000000410000b0 <loader__enable_paging>:
    410000b0:	fffd00b7          	lui	x1,0xfffd0
    410000b4:	0710809b          	addiw	x1,x1,113 # fffffffffffd0071 <SID_ZA64RS_03_w_stack+0xffb2f58de24d7071>
    410000b8:	02109093          	slli	x1,x1,0x21
    410000bc:	04508093          	addi	x1,x1,69
    410000c0:	00c09093          	slli	x1,x1,0xc
    410000c4:	d2808093          	addi	x1,x1,-728
    410000c8:	18009073          	csrw	satp,x1

00000000410000cc <loader__done>:
    410000cc:	1910006f          	j	41000a5c <scheduler__init>

00000000410000d0 <loader__panic>:
    410000d0:	1650006f          	j	41000a34 <eot__failed>

00000000410000d4 <syscalls__syscall_check_schedule_next_test>:
    410000d4:	00f0029b          	addiw	x5,x0,15
    410000d8:	01c29293          	slli	x5,x5,0x1c
    410000dc:	00128293          	addi	x5,x5,1
    410000e0:	01f29a63          	bne	x5,x31,410000f4 <syscalls__syscall_check_fail_test>
    410000e4:	00000317          	auipc	x6,0x0
    410000e8:	43c30313          	addi	x6,x6,1084 # 41000520 <trap_handler_m__trap_entry>
    410000ec:	30531073          	csrw	mtvec,x6
    410000f0:	6740006f          	j	41000764 <enter_scheduler>

00000000410000f4 <syscalls__syscall_check_fail_test>:
    410000f4:	00f0029b          	addiw	x5,x0,15
    410000f8:	01c29293          	slli	x5,x5,0x1c
    410000fc:	00228293          	addi	x5,x5,2
    41000100:	01f29a63          	bne	x5,x31,41000114 <syscalls__syscall_check_end_test_without_failure>
    41000104:	00000317          	auipc	x6,0x0
    41000108:	41c30313          	addi	x6,x6,1052 # 41000520 <trap_handler_m__trap_entry>
    4100010c:	30531073          	csrw	mtvec,x6
    41000110:	6840006f          	j	41000794 <test_failed>

0000000041000114 <syscalls__syscall_check_end_test_without_failure>:
    41000114:	00f0029b          	addiw	x5,x0,15
    41000118:	01c29293          	slli	x5,x5,0x1c
    4100011c:	00328293          	addi	x5,x5,3
    41000120:	01f29a63          	bne	x5,x31,41000134 <syscalls__syscall_check_switch_machine_mode>
    41000124:	00000317          	auipc	x6,0x0
    41000128:	3fc30313          	addi	x6,x6,1020 # 41000520 <trap_handler_m__trap_entry>
    4100012c:	30531073          	csrw	mtvec,x6
    41000130:	6700006f          	j	410007a0 <os_end_test>

0000000041000134 <syscalls__syscall_check_switch_machine_mode>:
    41000134:	000f02b7          	lui	x5,0xf0
    41000138:	0012829b          	addiw	x5,x5,1 # f0001 <mem4+0xa3001>
    4100013c:	00c29293          	slli	x5,x5,0xc
    41000140:	00128293          	addi	x5,x5,1
    41000144:	0a5f8463          	beq	x31,x5,410001ec <syscalls__os_fn_f0001001>

0000000041000148 <syscalls__syscall_check_switch_super_mode>:
    41000148:	000f02b7          	lui	x5,0xf0
    4100014c:	0012829b          	addiw	x5,x5,1 # f0001 <mem4+0xa3001>
    41000150:	00c29293          	slli	x5,x5,0xc
    41000154:	00228293          	addi	x5,x5,2
    41000158:	0c5f8063          	beq	x31,x5,41000218 <syscalls__os_fn_f0001002>

000000004100015c <syscalls__syscall_check_switch_user_mode>:
    4100015c:	000f02b7          	lui	x5,0xf0
    41000160:	0012829b          	addiw	x5,x5,1 # f0001 <mem4+0xa3001>
    41000164:	00c29293          	slli	x5,x5,0xc
    41000168:	00328293          	addi	x5,x5,3
    4100016c:	0a5f8a63          	beq	x31,x5,41000220 <syscalls__os_fn_f0001003>

0000000041000170 <syscalls__syscall_check_switch_test_mode>:
    41000170:	000f02b7          	lui	x5,0xf0
    41000174:	0012829b          	addiw	x5,x5,1 # f0001 <mem4+0xa3001>
    41000178:	00c29293          	slli	x5,x5,0xc
    4100017c:	00428293          	addi	x5,x5,4
    41000180:	0c5f8463          	beq	x31,x5,41000248 <syscalls__os_fn_f0001004>

0000000041000184 <syscalls__syscall_machine_csr_rw>:
    41000184:	000f02b7          	lui	x5,0xf0
    41000188:	0012829b          	addiw	x5,x5,1 # f0001 <mem4+0xa3001>
    4100018c:	00c29293          	slli	x5,x5,0xc
    41000190:	00528293          	addi	x5,x5,5
    41000194:	0e5f8063          	beq	x31,x5,41000274 <syscalls__os_fn_f0001005>

0000000041000198 <syscalls__syscall_supervisor_csr_rw>:
    41000198:	000f02b7          	lui	x5,0xf0
    4100019c:	0012829b          	addiw	x5,x5,1 # f0001 <mem4+0xa3001>
    410001a0:	00c29293          	slli	x5,x5,0xc
    410001a4:	00628293          	addi	x5,x5,6
    410001a8:	0e5f8c63          	beq	x31,x5,410002a0 <syscalls__os_fn_f0001006>

00000000410001ac <syscalls__syscall_machine_pte_read>:
    410001ac:	000f02b7          	lui	x5,0xf0
    410001b0:	0012829b          	addiw	x5,x5,1 # f0001 <mem4+0xa3001>
    410001b4:	00c29293          	slli	x5,x5,0xc
    410001b8:	00728293          	addi	x5,x5,7
    410001bc:	0e5f8663          	beq	x31,x5,410002a8 <syscalls__os_fn_f0001007>

00000000410001c0 <syscalls__syscall_machine_pte_write>:
    410001c0:	000f02b7          	lui	x5,0xf0
    410001c4:	0012829b          	addiw	x5,x5,1 # f0001 <mem4+0xa3001>
    410001c8:	00c29293          	slli	x5,x5,0xc
    410001cc:	00828293          	addi	x5,x5,8
    410001d0:	1c5f8263          	beq	x31,x5,41000394 <syscalls__os_fn_f0001008>

00000000410001d4 <syscalls__syscall_check_get_hart_context>:
    410001d4:	000782b7          	lui	x5,0x78
    410001d8:	0012829b          	addiw	x5,x5,1 # 78001 <mem4+0x2b001>
    410001dc:	00d29293          	slli	x5,x5,0xd
    410001e0:	00128293          	addi	x5,x5,1
    410001e4:	285f8e63          	beq	x31,x5,41000480 <syscalls__os_get_hart_context>
    410001e8:	4940006f          	j	4100067c <trap_handler_m__check_exception_label>

00000000410001ec <syscalls__os_fn_f0001001>:
    410001ec:	000022b7          	lui	x5,0x2
    410001f0:	8002829b          	addiw	x5,x5,-2048 # 1800 <pma_region_1_size+0x800>
    410001f4:	3002b073          	csrc	mstatus,x5
    410001f8:	000022b7          	lui	x5,0x2
    410001fc:	8002829b          	addiw	x5,x5,-2048 # 1800 <pma_region_1_size+0x800>
    41000200:	3002a073          	csrs	mstatus,x5
    41000204:	0010029b          	addiw	x5,x0,1
    41000208:	02729293          	slli	x5,x5,0x27
    4100020c:	3002b073          	csrc	mstatus,x5
    41000210:	411942b7          	lui	x5,0x41194
    41000214:	27c0006f          	j	41000490 <syscalls__ret_from_os_fn>

0000000041000218 <syscalls__os_fn_f0001002>:
    41000218:	410942b7          	lui	x5,0x41094
    4100021c:	2740006f          	j	41000490 <syscalls__ret_from_os_fn>

0000000041000220 <syscalls__os_fn_f0001003>:
    41000220:	000022b7          	lui	x5,0x2
    41000224:	8002829b          	addiw	x5,x5,-2048 # 1800 <pma_region_1_size+0x800>
    41000228:	3002b073          	csrc	mstatus,x5
    4100022c:	00000293          	li	x5,0
    41000230:	3002a073          	csrs	mstatus,x5
    41000234:	0010029b          	addiw	x5,x0,1
    41000238:	02729293          	slli	x5,x5,0x27
    4100023c:	3002b073          	csrc	mstatus,x5
    41000240:	411142b7          	lui	x5,0x41114
    41000244:	24c0006f          	j	41000490 <syscalls__ret_from_os_fn>

0000000041000248 <syscalls__os_fn_f0001004>:
    41000248:	000022b7          	lui	x5,0x2
    4100024c:	8002829b          	addiw	x5,x5,-2048 # 1800 <pma_region_1_size+0x800>
    41000250:	3002b073          	csrc	mstatus,x5
    41000254:	000012b7          	lui	x5,0x1
    41000258:	8002829b          	addiw	x5,x5,-2048 # 800 <XLEN+0x7c0>
    4100025c:	3002a073          	csrs	mstatus,x5
    41000260:	0010029b          	addiw	x5,x0,1
    41000264:	02729293          	slli	x5,x5,0x27
    41000268:	3002b073          	csrc	mstatus,x5
    4100026c:	17823283          	ld	x5,376(x4) # 44d01178 <__section_hart_context+0x178>
    41000270:	2200006f          	j	41000490 <syscalls__ret_from_os_fn>

0000000041000274 <syscalls__os_fn_f0001005>:
    41000274:	000022b7          	lui	x5,0x2
    41000278:	8002829b          	addiw	x5,x5,-2048 # 1800 <pma_region_1_size+0x800>
    4100027c:	3002b073          	csrc	mstatus,x5
    41000280:	000022b7          	lui	x5,0x2
    41000284:	8002829b          	addiw	x5,x5,-2048 # 1800 <pma_region_1_size+0x800>
    41000288:	3002a073          	csrs	mstatus,x5
    4100028c:	0010029b          	addiw	x5,x0,1
    41000290:	02729293          	slli	x5,x5,0x27
    41000294:	3002b073          	csrc	mstatus,x5
    41000298:	412142b7          	lui	x5,0x41214
    4100029c:	1f40006f          	j	41000490 <syscalls__ret_from_os_fn>

00000000410002a0 <syscalls__os_fn_f0001006>:
    410002a0:	412152b7          	lui	x5,0x41215
    410002a4:	1ec0006f          	j	41000490 <syscalls__ret_from_os_fn>

00000000410002a8 <syscalls__os_fn_f0001007>:
    410002a8:	44aa0fb7          	lui	x31,0x44aa0
    410002ac:	0b0f8f9b          	addiw	x31,x31,176 # 44aa00b0 <pte_access_flags_pa>
    410002b0:	000fbf83          	ld	x31,0(x31)
    410002b4:	44aa02b7          	lui	x5,0x44aa0
    410002b8:	0b82829b          	addiw	x5,x5,184 # 44aa00b8 <pte_access_flags_pa+0x8>
    410002bc:	0002b283          	ld	x5,0(x5)
    410002c0:	44aa0e37          	lui	x28,0x44aa0
    410002c4:	0c0e0e1b          	addiw	x28,x28,192 # 44aa00c0 <pte_access_flags_pa+0x10>
    410002c8:	000e3e03          	ld	x28,0(x28)

00000000410002cc <syscalls__pte_walk_check_glevel_without_gstage_read>:
    410002cc:	fff00f93          	li	x31,-1
    410002d0:	0dfe1063          	bne	x28,x31,41000390 <syscalls__pte_walk_fail_read>
    410002d4:	18002373          	csrr	x6,satp
    410002d8:	03c35e93          	srli	x29,x6,0x3c
    410002dc:	01431313          	slli	x6,x6,0x14
    410002e0:	01435313          	srli	x6,x6,0x14
    410002e4:	00c31313          	slli	x6,x6,0xc
    410002e8:	ff8e8e93          	addi	x29,x29,-8
    410002ec:	003e9f13          	slli	x30,x29,0x3
    410002f0:	01df0eb3          	add	x29,x30,x29
    410002f4:	01ee8e93          	addi	x29,x29,30
    410002f8:	00000f13          	li	x30,0

00000000410002fc <syscalls__pte_walk_loop_read>:
    410002fc:	44aa0fb7          	lui	x31,0x44aa0
    41000300:	0b0f8f9b          	addiw	x31,x31,176 # 44aa00b0 <pte_access_flags_pa>
    41000304:	000fbf83          	ld	x31,0(x31)
    41000308:	01dfdfb3          	srl	x31,x31,x29
    4100030c:	1fffff93          	andi	x31,x31,511
    41000310:	003f9f93          	slli	x31,x31,0x3
    41000314:	01f30333          	add	x6,x6,x31
    41000318:	005f0e63          	beq	x30,x5,41000334 <syscalls__pte_walk_done_read>
    4100031c:	00033f83          	ld	x31,0(x6)
    41000320:	00afdf93          	srli	x31,x31,0xa
    41000324:	00cf9313          	slli	x6,x31,0xc
    41000328:	001f0f13          	addi	x30,x30,1
    4100032c:	ff7e8e93          	addi	x29,x29,-9
    41000330:	fcdff06f          	j	410002fc <syscalls__pte_walk_loop_read>

0000000041000334 <syscalls__pte_walk_done_read>:
    41000334:	fff00f93          	li	x31,-1
    41000338:	05fe0263          	beq	x28,x31,4100037c <syscalls__pte_walk_final_read>

000000004100033c <syscalls__pte_walk_gstage_read>:
    4100033c:	44aa0fb7          	lui	x31,0x44aa0
    41000340:	0b0f8f9b          	addiw	x31,x31,176 # 44aa00b0 <pte_access_flags_pa>
    41000344:	006fb023          	sd	x6,0(x31)
    41000348:	000e0293          	mv	x5,x28
    4100034c:	fff00e13          	li	x28,-1
    41000350:	68002373          	csrr	x6,hgatp
    41000354:	03c35e93          	srli	x29,x6,0x3c
    41000358:	01431313          	slli	x6,x6,0x14
    4100035c:	01435313          	srli	x6,x6,0x14
    41000360:	00c31313          	slli	x6,x6,0xc
    41000364:	ff8e8e93          	addi	x29,x29,-8
    41000368:	003e9f13          	slli	x30,x29,0x3
    4100036c:	01df0eb3          	add	x29,x30,x29
    41000370:	01ee8e93          	addi	x29,x29,30
    41000374:	00000f13          	li	x30,0
    41000378:	f85ff06f          	j	410002fc <syscalls__pte_walk_loop_read>

000000004100037c <syscalls__pte_walk_final_read>:
    4100037c:	00033383          	ld	x7,0(x6)
    41000380:	341022f3          	csrr	x5,mepc
    41000384:	00428293          	addi	x5,x5,4
    41000388:	16523c23          	sd	x5,376(x4) # 178 <XLEN+0x138>
    4100038c:	ebdff06f          	j	41000248 <syscalls__os_fn_f0001004>

0000000041000390 <syscalls__pte_walk_fail_read>:
    41000390:	4040006f          	j	41000794 <test_failed>

0000000041000394 <syscalls__os_fn_f0001008>:
    41000394:	44aa0fb7          	lui	x31,0x44aa0
    41000398:	0b0f8f9b          	addiw	x31,x31,176 # 44aa00b0 <pte_access_flags_pa>
    4100039c:	000fbf83          	ld	x31,0(x31)
    410003a0:	44aa02b7          	lui	x5,0x44aa0
    410003a4:	0b82829b          	addiw	x5,x5,184 # 44aa00b8 <pte_access_flags_pa+0x8>
    410003a8:	0002b283          	ld	x5,0(x5)
    410003ac:	44aa0e37          	lui	x28,0x44aa0
    410003b0:	0c0e0e1b          	addiw	x28,x28,192 # 44aa00c0 <pte_access_flags_pa+0x10>
    410003b4:	000e3e03          	ld	x28,0(x28)

00000000410003b8 <syscalls__pte_walk_check_glevel_without_gstage_write>:
    410003b8:	fff00f93          	li	x31,-1
    410003bc:	0dfe1063          	bne	x28,x31,4100047c <syscalls__pte_walk_fail_write>
    410003c0:	18002373          	csrr	x6,satp
    410003c4:	03c35e93          	srli	x29,x6,0x3c
    410003c8:	01431313          	slli	x6,x6,0x14
    410003cc:	01435313          	srli	x6,x6,0x14
    410003d0:	00c31313          	slli	x6,x6,0xc
    410003d4:	ff8e8e93          	addi	x29,x29,-8
    410003d8:	003e9f13          	slli	x30,x29,0x3
    410003dc:	01df0eb3          	add	x29,x30,x29
    410003e0:	01ee8e93          	addi	x29,x29,30
    410003e4:	00000f13          	li	x30,0

00000000410003e8 <syscalls__pte_walk_loop_write>:
    410003e8:	44aa0fb7          	lui	x31,0x44aa0
    410003ec:	0b0f8f9b          	addiw	x31,x31,176 # 44aa00b0 <pte_access_flags_pa>
    410003f0:	000fbf83          	ld	x31,0(x31)
    410003f4:	01dfdfb3          	srl	x31,x31,x29
    410003f8:	1fffff93          	andi	x31,x31,511
    410003fc:	003f9f93          	slli	x31,x31,0x3
    41000400:	01f30333          	add	x6,x6,x31
    41000404:	005f0e63          	beq	x30,x5,41000420 <syscalls__pte_walk_done_write>
    41000408:	00033f83          	ld	x31,0(x6)
    4100040c:	00afdf93          	srli	x31,x31,0xa
    41000410:	00cf9313          	slli	x6,x31,0xc
    41000414:	001f0f13          	addi	x30,x30,1
    41000418:	ff7e8e93          	addi	x29,x29,-9
    4100041c:	fcdff06f          	j	410003e8 <syscalls__pte_walk_loop_write>

0000000041000420 <syscalls__pte_walk_done_write>:
    41000420:	fff00f93          	li	x31,-1
    41000424:	05fe0263          	beq	x28,x31,41000468 <syscalls__pte_walk_final_write>

0000000041000428 <syscalls__pte_walk_gstage_write>:
    41000428:	44aa0fb7          	lui	x31,0x44aa0
    4100042c:	0b0f8f9b          	addiw	x31,x31,176 # 44aa00b0 <pte_access_flags_pa>
    41000430:	006fb023          	sd	x6,0(x31)
    41000434:	000e0293          	mv	x5,x28
    41000438:	fff00e13          	li	x28,-1
    4100043c:	68002373          	csrr	x6,hgatp
    41000440:	03c35e93          	srli	x29,x6,0x3c
    41000444:	01431313          	slli	x6,x6,0x14
    41000448:	01435313          	srli	x6,x6,0x14
    4100044c:	00c31313          	slli	x6,x6,0xc
    41000450:	ff8e8e93          	addi	x29,x29,-8
    41000454:	003e9f13          	slli	x30,x29,0x3
    41000458:	01df0eb3          	add	x29,x30,x29
    4100045c:	01ee8e93          	addi	x29,x29,30
    41000460:	00000f13          	li	x30,0
    41000464:	f85ff06f          	j	410003e8 <syscalls__pte_walk_loop_write>

0000000041000468 <syscalls__pte_walk_final_write>:
    41000468:	00733023          	sd	x7,0(x6)
    4100046c:	341022f3          	csrr	x5,mepc
    41000470:	00428293          	addi	x5,x5,4
    41000474:	16523c23          	sd	x5,376(x4) # 178 <XLEN+0x138>
    41000478:	dd1ff06f          	j	41000248 <syscalls__os_fn_f0001004>

000000004100047c <syscalls__pte_walk_fail_write>:
    4100047c:	3180006f          	j	41000794 <test_failed>

0000000041000480 <syscalls__os_get_hart_context>:
    41000480:	14002573          	csrr	x10,sscratch
    41000484:	341022f3          	csrr	x5,mepc
    41000488:	00428293          	addi	x5,x5,4
    4100048c:	0040006f          	j	41000490 <syscalls__ret_from_os_fn>

0000000041000490 <syscalls__ret_from_os_fn>:
    41000490:	34102373          	csrr	x6,mepc
    41000494:	00430313          	addi	x6,x6,4
    41000498:	16623c23          	sd	x6,376(x4) # 178 <XLEN+0x138>
    4100049c:	34129073          	csrw	mepc,x5
    410004a0:	fff00f93          	li	x31,-1
    410004a4:	2a40006f          	j	41000748 <trap_handler_m__skip_xepc_write>

00000000410004a8 <trap_handler_m__invalid_interrupt>:
    410004a8:	2ec0006f          	j	41000794 <test_failed>

00000000410004ac <trap_handler_m__clear_all_interrupts>:
    410004ac:	34401073          	csrw	mip,x0
    410004b0:	30200073          	mret

00000000410004b4 <trap_handler_m___CLEAR_SSI>:
    410004b4:	00200293          	li	x5,2
    410004b8:	3442b073          	csrc	mip,x5
    410004bc:	30200073          	mret

00000000410004c0 <trap_handler_m___CLEAR_MSI>:
    410004c0:	00800293          	li	x5,8
    410004c4:	3442b073          	csrc	mip,x5
    410004c8:	30200073          	mret

00000000410004cc <trap_handler_m___CLEAR_STI>:
    410004cc:	02000293          	li	x5,32
    410004d0:	3442b073          	csrc	mip,x5
    410004d4:	30200073          	mret

00000000410004d8 <trap_handler_m___CLEAR_MTI>:
    410004d8:	08000293          	li	x5,128
    410004dc:	3442b073          	csrc	mip,x5
    410004e0:	30200073          	mret

00000000410004e4 <trap_handler_m___CLEAR_SEI>:
    410004e4:	20000293          	li	x5,512
    410004e8:	3442b073          	csrc	mip,x5
    410004ec:	30200073          	mret

00000000410004f0 <trap_handler_m___CLEAR_MEI>:
    410004f0:	000012b7          	lui	x5,0x1
    410004f4:	8002829b          	addiw	x5,x5,-2048 # 800 <XLEN+0x7c0>
    410004f8:	3442b073          	csrc	mip,x5
    410004fc:	30200073          	mret

0000000041000500 <trap_handler_m___CLEAR_COI>:
    41000500:	000022b7          	lui	x5,0x2
    41000504:	3442b073          	csrc	mip,x5
    41000508:	30200073          	mret

000000004100050c <trap_handler_m__clear_highest_priority_interrupt>:
    4100050c:	344022f3          	csrr	x5,mip
    41000510:	40500333          	neg	x6,x5
    41000514:	0062f2b3          	and	x5,x5,x6
    41000518:	3442b073          	csrc	mip,x5
    4100051c:	30200073          	mret

0000000041000520 <trap_handler_m__trap_entry>:
    41000520:	0fc0006f          	j	4100061c <trap_handler_m__trap_handler>

0000000041000524 <trap_handler_m__interrupt_vector_table>:
    41000524:	f91ff06f          	j	410004b4 <trap_handler_m___CLEAR_SSI>
    41000528:	f81ff06f          	j	410004a8 <trap_handler_m__invalid_interrupt>
    4100052c:	f95ff06f          	j	410004c0 <trap_handler_m___CLEAR_MSI>
    41000530:	f79ff06f          	j	410004a8 <trap_handler_m__invalid_interrupt>
    41000534:	f99ff06f          	j	410004cc <trap_handler_m___CLEAR_STI>
    41000538:	f71ff06f          	j	410004a8 <trap_handler_m__invalid_interrupt>
    4100053c:	f9dff06f          	j	410004d8 <trap_handler_m___CLEAR_MTI>
    41000540:	f69ff06f          	j	410004a8 <trap_handler_m__invalid_interrupt>
    41000544:	fa1ff06f          	j	410004e4 <trap_handler_m___CLEAR_SEI>
    41000548:	f61ff06f          	j	410004a8 <trap_handler_m__invalid_interrupt>
    4100054c:	fa5ff06f          	j	410004f0 <trap_handler_m___CLEAR_MEI>
    41000550:	f59ff06f          	j	410004a8 <trap_handler_m__invalid_interrupt>
    41000554:	fadff06f          	j	41000500 <trap_handler_m___CLEAR_COI>
    41000558:	f51ff06f          	j	410004a8 <trap_handler_m__invalid_interrupt>
    4100055c:	f4dff06f          	j	410004a8 <trap_handler_m__invalid_interrupt>
    41000560:	fadff06f          	j	4100050c <trap_handler_m__clear_highest_priority_interrupt>
    41000564:	fa9ff06f          	j	4100050c <trap_handler_m__clear_highest_priority_interrupt>
    41000568:	fa5ff06f          	j	4100050c <trap_handler_m__clear_highest_priority_interrupt>
    4100056c:	fa1ff06f          	j	4100050c <trap_handler_m__clear_highest_priority_interrupt>
    41000570:	f9dff06f          	j	4100050c <trap_handler_m__clear_highest_priority_interrupt>
    41000574:	f99ff06f          	j	4100050c <trap_handler_m__clear_highest_priority_interrupt>
    41000578:	f95ff06f          	j	4100050c <trap_handler_m__clear_highest_priority_interrupt>
    4100057c:	f91ff06f          	j	4100050c <trap_handler_m__clear_highest_priority_interrupt>
    41000580:	f8dff06f          	j	4100050c <trap_handler_m__clear_highest_priority_interrupt>
    41000584:	f89ff06f          	j	4100050c <trap_handler_m__clear_highest_priority_interrupt>
    41000588:	f85ff06f          	j	4100050c <trap_handler_m__clear_highest_priority_interrupt>
    4100058c:	f81ff06f          	j	4100050c <trap_handler_m__clear_highest_priority_interrupt>
    41000590:	f7dff06f          	j	4100050c <trap_handler_m__clear_highest_priority_interrupt>
    41000594:	f79ff06f          	j	4100050c <trap_handler_m__clear_highest_priority_interrupt>
    41000598:	f75ff06f          	j	4100050c <trap_handler_m__clear_highest_priority_interrupt>
    4100059c:	f71ff06f          	j	4100050c <trap_handler_m__clear_highest_priority_interrupt>
    410005a0:	f6dff06f          	j	4100050c <trap_handler_m__clear_highest_priority_interrupt>
    410005a4:	f69ff06f          	j	4100050c <trap_handler_m__clear_highest_priority_interrupt>
    410005a8:	f65ff06f          	j	4100050c <trap_handler_m__clear_highest_priority_interrupt>
    410005ac:	f61ff06f          	j	4100050c <trap_handler_m__clear_highest_priority_interrupt>
    410005b0:	f5dff06f          	j	4100050c <trap_handler_m__clear_highest_priority_interrupt>
    410005b4:	f59ff06f          	j	4100050c <trap_handler_m__clear_highest_priority_interrupt>
    410005b8:	f55ff06f          	j	4100050c <trap_handler_m__clear_highest_priority_interrupt>
    410005bc:	f51ff06f          	j	4100050c <trap_handler_m__clear_highest_priority_interrupt>
    410005c0:	f4dff06f          	j	4100050c <trap_handler_m__clear_highest_priority_interrupt>
    410005c4:	f49ff06f          	j	4100050c <trap_handler_m__clear_highest_priority_interrupt>
    410005c8:	f45ff06f          	j	4100050c <trap_handler_m__clear_highest_priority_interrupt>
    410005cc:	f41ff06f          	j	4100050c <trap_handler_m__clear_highest_priority_interrupt>
    410005d0:	f3dff06f          	j	4100050c <trap_handler_m__clear_highest_priority_interrupt>
    410005d4:	f39ff06f          	j	4100050c <trap_handler_m__clear_highest_priority_interrupt>
    410005d8:	f35ff06f          	j	4100050c <trap_handler_m__clear_highest_priority_interrupt>
    410005dc:	f31ff06f          	j	4100050c <trap_handler_m__clear_highest_priority_interrupt>
    410005e0:	f2dff06f          	j	4100050c <trap_handler_m__clear_highest_priority_interrupt>
    410005e4:	f29ff06f          	j	4100050c <trap_handler_m__clear_highest_priority_interrupt>
    410005e8:	f25ff06f          	j	4100050c <trap_handler_m__clear_highest_priority_interrupt>
    410005ec:	f21ff06f          	j	4100050c <trap_handler_m__clear_highest_priority_interrupt>
    410005f0:	f1dff06f          	j	4100050c <trap_handler_m__clear_highest_priority_interrupt>
    410005f4:	f19ff06f          	j	4100050c <trap_handler_m__clear_highest_priority_interrupt>
    410005f8:	f15ff06f          	j	4100050c <trap_handler_m__clear_highest_priority_interrupt>
    410005fc:	f11ff06f          	j	4100050c <trap_handler_m__clear_highest_priority_interrupt>
    41000600:	f0dff06f          	j	4100050c <trap_handler_m__clear_highest_priority_interrupt>
    41000604:	f09ff06f          	j	4100050c <trap_handler_m__clear_highest_priority_interrupt>
    41000608:	f05ff06f          	j	4100050c <trap_handler_m__clear_highest_priority_interrupt>
    4100060c:	f01ff06f          	j	4100050c <trap_handler_m__clear_highest_priority_interrupt>
    41000610:	efdff06f          	j	4100050c <trap_handler_m__clear_highest_priority_interrupt>
    41000614:	ef9ff06f          	j	4100050c <trap_handler_m__clear_highest_priority_interrupt>
    41000618:	ef5ff06f          	j	4100050c <trap_handler_m__clear_highest_priority_interrupt>

000000004100061c <trap_handler_m__trap_handler>:
    4100061c:	342022f3          	csrr	x5,mcause
    41000620:	fff0031b          	addiw	x6,x0,-1
    41000624:	03f31313          	slli	x6,x6,0x3f
    41000628:	00537333          	and	x6,x6,x5
    4100062c:	02030263          	beqz	x6,41000650 <trap_handler_m__exception_path>

0000000041000630 <trap_handler_m__interrupt_handler>:
    41000630:	fff0031b          	addiw	x6,x0,-1
    41000634:	03f31313          	slli	x6,x6,0x3f
    41000638:	0062c2b3          	xor	x5,x5,x6
    4100063c:	00000317          	auipc	x6,0x0
    41000640:	ee430313          	addi	x6,x6,-284 # 41000520 <trap_handler_m__trap_entry>
    41000644:	00229293          	slli	x5,x5,0x2
    41000648:	005302b3          	add	x5,x6,x5
    4100064c:	00028067          	jr	x5 # 2000 <pma_region_1_size+0x1000>

0000000041000650 <trap_handler_m__exception_path>:
    41000650:	34021273          	csrrw	x4,mscratch,x4
    41000654:	00000297          	auipc	x5,0x0
    41000658:	10828293          	addi	x5,x5,264 # 4100075c <trap_handler_m__trap_panic>
    4100065c:	30529073          	csrw	mtvec,x5
    41000660:	0040006f          	j	41000664 <trap_handler_m__excp_entry>

0000000041000664 <trap_handler_m__excp_entry>:
    41000664:	34202373          	csrr	x6,mcause
    41000668:	00800293          	li	x5,8
    4100066c:	00534863          	blt	x6,x5,4100067c <trap_handler_m__check_exception_label>
    41000670:	00b00293          	li	x5,11
    41000674:	0062c463          	blt	x5,x6,4100067c <trap_handler_m__check_exception_label>
    41000678:	a5dff06f          	j	410000d4 <syscalls__syscall_check_schedule_next_test>

000000004100067c <trap_handler_m__check_exception_label>:
    4100067c:	04623c23          	sd	x6,88(x4) # 58 <XLEN+0x18>
    41000680:	341022f3          	csrr	x5,mepc
    41000684:	02523423          	sd	x5,40(x4) # 28 <SECURE_ACCESS_PROBABILITY+0xa>
    41000688:	01820283          	lb	x5,24(x4) # 18 <STORE_GUEST_PAGE_FAULT+0x1>
    4100068c:	00029863          	bnez	x5,4100069c <trap_handler_m__check_excp>
    41000690:	00128293          	addi	x5,x5,1
    41000694:	00520c23          	sb	x5,24(x4) # 18 <STORE_GUEST_PAGE_FAULT+0x1>
    41000698:	0980006f          	j	41000730 <trap_handler_m__ecall_from_machine>

000000004100069c <trap_handler_m__check_excp>:
    4100069c:	06823283          	ld	x5,104(x4) # 68 <XLEN+0x28>
    410006a0:	06023423          	sd	x0,104(x4) # 68 <XLEN+0x28>
    410006a4:	00028663          	beqz	x5,410006b0 <trap_handler_m__skip_mode_check>
    410006a8:	00100393          	li	x7,1
    410006ac:	0e729463          	bne	x5,x7,41000794 <test_failed>

00000000410006b0 <trap_handler_m__skip_mode_check>:
    410006b0:	05023283          	ld	x5,80(x4) # 50 <XLEN+0x10>
    410006b4:	04023823          	sd	x0,80(x4) # 50 <XLEN+0x10>
    410006b8:	0c531e63          	bne	x6,x5,41000794 <test_failed>
    410006bc:	03823283          	ld	x5,56(x4) # 38 <SECURE_ACCESS_PROBABILITY+0x1a>
    410006c0:	02023c23          	sd	x0,56(x4) # 38 <SECURE_ACCESS_PROBABILITY+0x1a>
    410006c4:	06029463          	bnez	x5,4100072c <trap_handler_m__skip_gva_check>
    410006c8:	02023303          	ld	x6,32(x4) # 20 <SECURE_ACCESS_PROBABILITY+0x2>
    410006cc:	02023023          	sd	x0,32(x4) # 20 <SECURE_ACCESS_PROBABILITY+0x2>
    410006d0:	02823283          	ld	x5,40(x4) # 28 <SECURE_ACCESS_PROBABILITY+0xa>
    410006d4:	02023423          	sd	x0,40(x4) # 28 <SECURE_ACCESS_PROBABILITY+0xa>
    410006d8:	0a531e63          	bne	x6,x5,41000794 <test_failed>
    410006dc:	04023283          	ld	x5,64(x4) # 40 <XLEN>
    410006e0:	04023023          	sd	x0,64(x4) # 40 <XLEN>
    410006e4:	00028663          	beqz	x5,410006f0 <trap_handler_m__skip_nonzero_tval_check>

00000000410006e8 <trap_handler_m__nonzero_tval_check>:
    410006e8:	34302373          	csrr	x6,mtval
    410006ec:	0a531463          	bne	x6,x5,41000794 <test_failed>

00000000410006f0 <trap_handler_m__skip_nonzero_tval_check>:
    410006f0:	04823283          	ld	x5,72(x4) # 48 <XLEN+0x8>
    410006f4:	04023423          	sd	x0,72(x4) # 48 <XLEN+0x8>
    410006f8:	00028663          	beqz	x5,41000704 <trap_handler_m__skip_nonzero_htval_check>

00000000410006fc <trap_handler_m__nonzero_htval_check>:
    410006fc:	34b02373          	csrr	x6,0x34b
    41000700:	08531a63          	bne	x6,x5,41000794 <test_failed>

0000000041000704 <trap_handler_m__skip_nonzero_htval_check>:
    41000704:	06023283          	ld	x5,96(x4) # 60 <XLEN+0x20>
    41000708:	06023023          	sd	x0,96(x4) # 60 <XLEN+0x20>
    4100070c:	02028063          	beqz	x5,4100072c <trap_handler_m__skip_gva_check>

0000000041000710 <trap_handler_m__gva_check>:
    41000710:	30002373          	csrr	x6,mstatus
    41000714:	02635313          	srli	x6,x6,0x26
    41000718:	00137313          	andi	x6,x6,1
    4100071c:	06030c63          	beqz	x6,41000794 <test_failed>
    41000720:	0010031b          	addiw	x6,x0,1
    41000724:	02631313          	slli	x6,x6,0x26
    41000728:	30033073          	csrc	mstatus,x6

000000004100072c <trap_handler_m__skip_gva_check>:
    4100072c:	0040006f          	j	41000730 <trap_handler_m__ecall_from_machine>

0000000041000730 <trap_handler_m__ecall_from_machine>:
    41000730:	03023283          	ld	x5,48(x4) # 30 <SECURE_ACCESS_PROBABILITY+0x12>
    41000734:	02023823          	sd	x0,48(x4) # 30 <SECURE_ACCESS_PROBABILITY+0x12>
    41000738:	07023303          	ld	x6,112(x4) # 70 <XLEN+0x30>
    4100073c:	06023823          	sd	x0,112(x4) # 70 <XLEN+0x30>
    41000740:	00031463          	bnez	x6,41000748 <trap_handler_m__skip_xepc_write>
    41000744:	34129073          	csrw	mepc,x5

0000000041000748 <trap_handler_m__skip_xepc_write>:
    41000748:	00000317          	auipc	x6,0x0
    4100074c:	dd830313          	addi	x6,x6,-552 # 41000520 <trap_handler_m__trap_entry>
    41000750:	30531073          	csrw	mtvec,x6
    41000754:	34021273          	csrrw	x4,mscratch,x4
    41000758:	30200073          	mret

000000004100075c <trap_handler_m__trap_panic>:
    4100075c:	00000193          	li	x3,0
    41000760:	2b00006f          	j	41000a10 <eot__end_test>

0000000041000764 <enter_scheduler>:
    41000764:	0002f337          	lui	x6,0x2f
    41000768:	ab73031b          	addiw	x6,x6,-1353 # 2eab7 <SID_ZA64RS_01_stack+0x12ab7>
    4100076c:	00e31313          	slli	x6,x6,0xe
    41000770:	0de30313          	addi	x6,x6,222
    41000774:	02628063          	beq	x5,x6,41000794 <test_failed>
    41000778:	00000513          	li	x10,0
    4100077c:	030000ef          	jal	410007ac <rvcp_print_test_result>
    41000780:	3140006f          	j	41000a94 <scheduler__dispatch>

0000000041000784 <test_passed>:
    41000784:	34021273          	csrrw	x4,mscratch,x4
    41000788:	00000513          	li	x10,0
    4100078c:	020000ef          	jal	410007ac <rvcp_print_test_result>
    41000790:	3040006f          	j	41000a94 <scheduler__dispatch>

0000000041000794 <test_failed>:
    41000794:	34021273          	csrrw	x4,mscratch,x4
    41000798:	00300193          	li	x3,3
    4100079c:	2740006f          	j	41000a10 <eot__end_test>

00000000410007a0 <os_end_test>:
    410007a0:	34021273          	csrrw	x4,mscratch,x4
    410007a4:	00100193          	li	x3,1
    410007a8:	2680006f          	j	41000a10 <eot__end_test>

00000000410007ac <rvcp_print_test_result>:
    410007ac:	00050e13          	mv	x28,x10
    410007b0:	18823283          	ld	x5,392(x4) # 188 <XLEN+0x148>
    410007b4:	0010031b          	addiw	x6,x0,1
    410007b8:	02031313          	slli	x6,x6,0x20
    410007bc:	ffe30313          	addi	x6,x6,-2
    410007c0:	1c628063          	beq	x5,x6,41000980 <rvcp_print_test_result+0x1d4>
    410007c4:	0010031b          	addiw	x6,x0,1
    410007c8:	02031313          	slli	x6,x6,0x20
    410007cc:	fff30313          	addi	x6,x6,-1
    410007d0:	1a628863          	beq	x5,x6,41000980 <rvcp_print_test_result+0x1d4>
    410007d4:	1a02c663          	bltz	x5,41000980 <rvcp_print_test_result+0x1d4>
    410007d8:	00000317          	auipc	x6,0x0
    410007dc:	45c30313          	addi	x6,x6,1116 # 41000c34 <dtest_descriptor_table>
    410007e0:	00329393          	slli	x7,x5,0x3
    410007e4:	00730333          	add	x6,x6,x7
    410007e8:	00033e83          	ld	x29,0(x6)
    410007ec:	44aa0f37          	lui	x30,0x44aa0
    410007f0:	030f0f1b          	addiw	x30,x30,48 # 44aa0030 <rvcp_prefix_str_pa>
    410007f4:	000f4283          	lbu	x5,0(x30)
    410007f8:	02028663          	beqz	x5,41000824 <rvcp_print_test_result+0x78>
    410007fc:	1010031b          	addiw	x6,x0,257
    41000800:	03031313          	slli	x6,x6,0x30
    41000804:	005362b3          	or	x5,x6,x5
    41000808:	0003f317          	auipc	x6,0x3f
    4100080c:	7f830313          	addi	x6,x6,2040 # 41040000 <tohost>
    41000810:	00033383          	ld	x7,0(x6)
    41000814:	fe039ee3          	bnez	x7,41000810 <rvcp_print_test_result+0x64>
    41000818:	00533023          	sd	x5,0(x6)
    4100081c:	001f0f13          	addi	x30,x30,1
    41000820:	fd5ff06f          	j	410007f4 <rvcp_print_test_result+0x48>
    41000824:	44aa0f37          	lui	x30,0x44aa0
    41000828:	041f0f1b          	addiw	x30,x30,65 # 44aa0041 <rvcp_testname_str_pa>
    4100082c:	000f4283          	lbu	x5,0(x30)
    41000830:	02028663          	beqz	x5,4100085c <rvcp_print_test_result+0xb0>
    41000834:	1010031b          	addiw	x6,x0,257
    41000838:	03031313          	slli	x6,x6,0x30
    4100083c:	005362b3          	or	x5,x6,x5
    41000840:	0003f317          	auipc	x6,0x3f
    41000844:	7c030313          	addi	x6,x6,1984 # 41040000 <tohost>
    41000848:	00033383          	ld	x7,0(x6)
    4100084c:	fe039ee3          	bnez	x7,41000848 <rvcp_print_test_result+0x9c>
    41000850:	00533023          	sd	x5,0(x6)
    41000854:	001f0f13          	addi	x30,x30,1
    41000858:	fd5ff06f          	j	4100082c <rvcp_print_test_result+0x80>
    4100085c:	44aa0f37          	lui	x30,0x44aa0
    41000860:	05bf0f1b          	addiw	x30,x30,91 # 44aa005b <rvcp_space_str_pa>
    41000864:	000f4283          	lbu	x5,0(x30)
    41000868:	02028663          	beqz	x5,41000894 <rvcp_print_test_result+0xe8>
    4100086c:	1010031b          	addiw	x6,x0,257
    41000870:	03031313          	slli	x6,x6,0x30
    41000874:	005362b3          	or	x5,x6,x5
    41000878:	0003f317          	auipc	x6,0x3f
    4100087c:	78830313          	addi	x6,x6,1928 # 41040000 <tohost>
    41000880:	00033383          	ld	x7,0(x6)
    41000884:	fe039ee3          	bnez	x7,41000880 <rvcp_print_test_result+0xd4>
    41000888:	00533023          	sd	x5,0(x6)
    4100088c:	001f0f13          	addi	x30,x30,1
    41000890:	fd5ff06f          	j	41000864 <rvcp_print_test_result+0xb8>
    41000894:	000e8f13          	mv	x30,x29
    41000898:	000f4283          	lbu	x5,0(x30)
    4100089c:	02028663          	beqz	x5,410008c8 <rvcp_print_test_result+0x11c>
    410008a0:	1010031b          	addiw	x6,x0,257
    410008a4:	03031313          	slli	x6,x6,0x30
    410008a8:	005362b3          	or	x5,x6,x5
    410008ac:	0003f317          	auipc	x6,0x3f
    410008b0:	75430313          	addi	x6,x6,1876 # 41040000 <tohost>
    410008b4:	00033383          	ld	x7,0(x6)
    410008b8:	fe039ee3          	bnez	x7,410008b4 <rvcp_print_test_result+0x108>
    410008bc:	00533023          	sd	x5,0(x6)
    410008c0:	001f0f13          	addi	x30,x30,1
    410008c4:	fd5ff06f          	j	41000898 <rvcp_print_test_result+0xec>
    410008c8:	44aa0f37          	lui	x30,0x44aa0
    410008cc:	05bf0f1b          	addiw	x30,x30,91 # 44aa005b <rvcp_space_str_pa>
    410008d0:	000f4283          	lbu	x5,0(x30)
    410008d4:	02028663          	beqz	x5,41000900 <rvcp_print_test_result+0x154>
    410008d8:	1010031b          	addiw	x6,x0,257
    410008dc:	03031313          	slli	x6,x6,0x30
    410008e0:	005362b3          	or	x5,x6,x5
    410008e4:	0003f317          	auipc	x6,0x3f
    410008e8:	71c30313          	addi	x6,x6,1820 # 41040000 <tohost>
    410008ec:	00033383          	ld	x7,0(x6)
    410008f0:	fe039ee3          	bnez	x7,410008ec <rvcp_print_test_result+0x140>
    410008f4:	00533023          	sd	x5,0(x6)
    410008f8:	001f0f13          	addi	x30,x30,1
    410008fc:	fd5ff06f          	j	410008d0 <rvcp_print_test_result+0x124>
    41000900:	000e1863          	bnez	x28,41000910 <rvcp_print_test_result+0x164>
    41000904:	44aa0f37          	lui	x30,0x44aa0
    41000908:	04df0f1b          	addiw	x30,x30,77 # 44aa004d <rvcp_passed_str_pa>
    4100090c:	00c0006f          	j	41000918 <rvcp_print_test_result+0x16c>
    41000910:	44aa0f37          	lui	x30,0x44aa0
    41000914:	054f0f1b          	addiw	x30,x30,84 # 44aa0054 <rvcp_failed_str_pa>
    41000918:	000f4283          	lbu	x5,0(x30)
    4100091c:	02028663          	beqz	x5,41000948 <rvcp_print_test_result+0x19c>
    41000920:	1010031b          	addiw	x6,x0,257
    41000924:	03031313          	slli	x6,x6,0x30
    41000928:	005362b3          	or	x5,x6,x5
    4100092c:	0003f317          	auipc	x6,0x3f
    41000930:	6d430313          	addi	x6,x6,1748 # 41040000 <tohost>
    41000934:	00033383          	ld	x7,0(x6)
    41000938:	fe039ee3          	bnez	x7,41000934 <rvcp_print_test_result+0x188>
    4100093c:	00533023          	sd	x5,0(x6)
    41000940:	001f0f13          	addi	x30,x30,1
    41000944:	fd5ff06f          	j	41000918 <rvcp_print_test_result+0x16c>
    41000948:	44aa0f37          	lui	x30,0x44aa0
    4100094c:	05df0f1b          	addiw	x30,x30,93 # 44aa005d <rvcp_newline_str_pa>
    41000950:	000f4283          	lbu	x5,0(x30)
    41000954:	02028663          	beqz	x5,41000980 <rvcp_print_test_result+0x1d4>
    41000958:	1010031b          	addiw	x6,x0,257
    4100095c:	03031313          	slli	x6,x6,0x30
    41000960:	005362b3          	or	x5,x6,x5
    41000964:	0003f317          	auipc	x6,0x3f
    41000968:	69c30313          	addi	x6,x6,1692 # 41040000 <tohost>
    4100096c:	00033383          	ld	x7,0(x6)
    41000970:	fe039ee3          	bnez	x7,4100096c <rvcp_print_test_result+0x1c0>
    41000974:	00533023          	sd	x5,0(x6)
    41000978:	001f0f13          	addi	x30,x30,1
    4100097c:	fd5ff06f          	j	41000950 <rvcp_print_test_result+0x1a4>
    41000980:	00008067          	ret

0000000041000984 <os_rng_orig>:
    41000984:	f14023f3          	csrr	x7,mhartid
    41000988:	00068313          	mv	x6,x13
    4100098c:	026383b3          	mul	x7,x7,x6
    41000990:	00058313          	mv	x6,x11
    41000994:	00730333          	add	x6,x6,x7
    41000998:	00033283          	ld	x5,0(x6)
    4100099c:	01529313          	slli	x6,x5,0x15
    410009a0:	0062c2b3          	xor	x5,x5,x6
    410009a4:	0232d313          	srli	x6,x5,0x23
    410009a8:	0062c2b3          	xor	x5,x5,x6
    410009ac:	00429313          	slli	x6,x5,0x4
    410009b0:	0062c2b3          	xor	x5,x5,x6
    410009b4:	00058313          	mv	x6,x11
    410009b8:	00730333          	add	x6,x6,x7
    410009bc:	00533023          	sd	x5,0(x6)
    410009c0:	00060313          	mv	x6,x12
    410009c4:	0262f2b3          	remu	x5,x5,x6
    410009c8:	00028513          	mv	x10,x5
    410009cc:	00008067          	ret
    410009d0:	02a00513          	li	x10,42
    410009d4:	001965b7          	lui	x11,0x196
    410009d8:	60d5859b          	addiw	x11,x11,1549 # 19660d <mem4+0x14960d>
    410009dc:	3c6ef637          	lui	x12,0x3c6ef
    410009e0:	35f6061b          	addiw	x12,x12,863 # 3c6ef35f <mem0+0x55bb35f>
    410009e4:	02200693          	li	x13,34
    410009e8:	02b50533          	mul	x10,x10,x11
    410009ec:	00c50533          	add	x10,x10,x12
    410009f0:	02d56533          	rem	x10,x10,x13
    410009f4:	00b00593          	li	x11,11
    410009f8:	02b56533          	rem	x10,x10,x11
    410009fc:	00008067          	ret

0000000041000a00 <tohost_mutex>:
	...

0000000041000a08 <tohost_addr_mem>:
    41000a08:	0000                	.insn	2, 0x0000
    41000a0a:	4104                	.insn	2, 0x4104
    41000a0c:	0000                	.insn	2, 0x0000
	...

0000000041000a10 <eot__end_test>:
    41000a10:	00100293          	li	x5,1
    41000a14:	00328463          	beq	x5,x3,41000a1c <eot__passed>
    41000a18:	01c0006f          	j	41000a34 <eot__failed>

0000000041000a1c <eot__passed>:
    41000a1c:	0ff0000f          	fence
    41000a20:	00000297          	auipc	x5,0x0
    41000a24:	fe82b283          	ld	x5,-24(x5) # 41000a08 <tohost_addr_mem>
    41000a28:	00100313          	li	x6,1
    41000a2c:	0062a023          	sw	x6,0(x5)
    41000a30:	0240006f          	j	41000a54 <eot__halt>

0000000041000a34 <eot__failed>:
    41000a34:	00100513          	li	x10,1
    41000a38:	d75ff0ef          	jal	410007ac <rvcp_print_test_result>
    41000a3c:	0ff0000f          	fence
    41000a40:	00000297          	auipc	x5,0x0
    41000a44:	fc82b283          	ld	x5,-56(x5) # 41000a08 <tohost_addr_mem>
    41000a48:	00300313          	li	x6,3
    41000a4c:	0062a023          	sw	x6,0(x5)
    41000a50:	0040006f          	j	41000a54 <eot__halt>

0000000041000a54 <eot__halt>:
    41000a54:	10500073          	wfi
    41000a58:	ffdff06f          	j	41000a54 <eot__halt>

0000000041000a5c <scheduler__init>:
    41000a5c:	00000297          	auipc	x5,0x0
    41000a60:	0d028293          	addi	x5,x5,208 # 41000b2c <scheduler__panic>
    41000a64:	305292f3          	csrrw	x5,mtvec,x5
    41000a68:	18523023          	sd	x5,384(x4) # 180 <XLEN+0x140>
    41000a6c:	01f00293          	li	x5,31
    41000a70:	18523823          	sd	x5,400(x4) # 190 <XLEN+0x150>
    41000a74:	0010029b          	addiw	x5,x0,1
    41000a78:	02029293          	slli	x5,x5,0x20
    41000a7c:	ffe28293          	addi	x5,x5,-2
    41000a80:	18523423          	sd	x5,392(x4) # 188 <XLEN+0x148>
    41000a84:	00000317          	auipc	x6,0x0
    41000a88:	33030313          	addi	x6,x6,816 # 41000db4 <scheduler__test_setup_ptr>
    41000a8c:	00033303          	ld	x6,0(x6)
    41000a90:	0740006f          	j	41000b04 <scheduler__execute_test>

0000000041000a94 <scheduler__dispatch>:
    41000a94:	00000297          	auipc	x5,0x0
    41000a98:	09828293          	addi	x5,x5,152 # 41000b2c <scheduler__panic>
    41000a9c:	305292f3          	csrrw	x5,mtvec,x5
    41000aa0:	18523023          	sd	x5,384(x4) # 180 <XLEN+0x140>

0000000041000aa4 <scheduler__csr_read_randomization>:
    41000aa4:	140022f3          	csrr	x5,sscratch
    41000aa8:	f15022f3          	csrr	x5,0xf15
    41000aac:	143022f3          	csrr	x5,stval
    41000ab0:	f12022f3          	csrr	x5,marchid
    41000ab4:	105022f3          	csrr	x5,stvec
    41000ab8:	342022f3          	csrr	x5,mcause
    41000abc:	f14022f3          	csrr	x5,mhartid
    41000ac0:	10a022f3          	csrr	x5,0x10a
    41000ac4:	f13022f3          	csrr	x5,mimpid

0000000041000ac8 <scheduler__load_num_runs>:
    41000ac8:	19023303          	ld	x6,400(x4) # 190 <XLEN+0x150>
    41000acc:	04030c63          	beqz	x6,41000b24 <scheduler__finished>

0000000041000ad0 <scheduler__decrement_num_runs>:
    41000ad0:	fff30393          	addi	x7,x6,-1
    41000ad4:	18723823          	sd	x7,400(x4) # 190 <XLEN+0x150>
    41000ad8:	00000e17          	auipc	x28,0x0
    41000adc:	260e0e13          	addi	x28,x28,608 # 41000d38 <dtest_index_map>
    41000ae0:	00239e93          	slli	x29,x7,0x2
    41000ae4:	01de0e33          	add	x28,x28,x29
    41000ae8:	000e2e03          	lw	x28,0(x28)
    41000aec:	19c23423          	sd	x28,392(x4) # 188 <XLEN+0x148>

0000000041000af0 <scheduler__calc_test_pointer>:
    41000af0:	00339293          	slli	x5,x7,0x3

0000000041000af4 <scheduler__load_test_addr>:
    41000af4:	00000317          	auipc	x6,0x0
    41000af8:	04830313          	addi	x6,x6,72 # 41000b3c <os_test_sequence>
    41000afc:	006282b3          	add	x5,x5,x6
    41000b00:	0002b303          	ld	x6,0(x5)

0000000041000b04 <scheduler__execute_test>:
    41000b04:	18023283          	ld	x5,384(x4) # 180 <XLEN+0x140>
    41000b08:	30529073          	csrw	mtvec,x5
    41000b0c:	34021273          	csrrw	x4,mscratch,x4
    41000b10:	00000213          	li	x4,0
    41000b14:	14131073          	csrw	sepc,x6
    41000b18:	10000293          	li	x5,256
    41000b1c:	1002a073          	csrs	sstatus,x5
    41000b20:	10200073          	sret

0000000041000b24 <scheduler__finished>:
    41000b24:	00100193          	li	x3,1
    41000b28:	ee9ff06f          	j	41000a10 <eot__end_test>

0000000041000b2c <scheduler__panic>:
    41000b2c:	00000193          	li	x3,0
    41000b30:	ee1ff06f          	j	41000a10 <eot__end_test>

0000000041000b34 <num_runs>:
    41000b34:	001f 0000 0000      	.insn	6, 0x001f
	...

0000000041000b3c <os_test_sequence>:
    41000b3c:	48c0                	.insn	2, 0x48c0
    41000b3e:	4101                	.insn	2, 0x4101
    41000b40:	0000                	.insn	2, 0x0000
    41000b42:	0000                	.insn	2, 0x0000
    41000b44:	4768                	.insn	2, 0x4768
    41000b46:	4101                	.insn	2, 0x4101
    41000b48:	0000                	.insn	2, 0x0000
    41000b4a:	0000                	.insn	2, 0x0000
    41000b4c:	44e4                	.insn	2, 0x44e4
    41000b4e:	4101                	.insn	2, 0x4101
    41000b50:	0000                	.insn	2, 0x0000
    41000b52:	0000                	.insn	2, 0x0000
    41000b54:	436c                	.insn	2, 0x436c
    41000b56:	4101                	.insn	2, 0x4101
    41000b58:	0000                	.insn	2, 0x0000
    41000b5a:	0000                	.insn	2, 0x0000
    41000b5c:	436c                	.insn	2, 0x436c
    41000b5e:	4101                	.insn	2, 0x4101
    41000b60:	0000                	.insn	2, 0x0000
    41000b62:	0000                	.insn	2, 0x0000
    41000b64:	469c                	.insn	2, 0x469c
    41000b66:	4101                	.insn	2, 0x4101
    41000b68:	0000                	.insn	2, 0x0000
    41000b6a:	0000                	.insn	2, 0x0000
    41000b6c:	4040                	.insn	2, 0x4040
    41000b6e:	4101                	.insn	2, 0x4101
    41000b70:	0000                	.insn	2, 0x0000
    41000b72:	0000                	.insn	2, 0x0000
    41000b74:	4148                	.insn	2, 0x4148
    41000b76:	4101                	.insn	2, 0x4101
    41000b78:	0000                	.insn	2, 0x0000
    41000b7a:	0000                	.insn	2, 0x0000
    41000b7c:	4814                	.insn	2, 0x4814
    41000b7e:	4101                	.insn	2, 0x4101
    41000b80:	0000                	.insn	2, 0x0000
    41000b82:	0000                	.insn	2, 0x0000
    41000b84:	4270                	.insn	2, 0x4270
    41000b86:	4101                	.insn	2, 0x4101
    41000b88:	0000                	.insn	2, 0x0000
    41000b8a:	0000                	.insn	2, 0x0000
    41000b8c:	45a8                	.insn	2, 0x45a8
    41000b8e:	4101                	.insn	2, 0x4101
    41000b90:	0000                	.insn	2, 0x0000
    41000b92:	0000                	.insn	2, 0x0000
    41000b94:	436c                	.insn	2, 0x436c
    41000b96:	4101                	.insn	2, 0x4101
    41000b98:	0000                	.insn	2, 0x0000
    41000b9a:	0000                	.insn	2, 0x0000
    41000b9c:	4814                	.insn	2, 0x4814
    41000b9e:	4101                	.insn	2, 0x4101
    41000ba0:	0000                	.insn	2, 0x0000
    41000ba2:	0000                	.insn	2, 0x0000
    41000ba4:	44e4                	.insn	2, 0x44e4
    41000ba6:	4101                	.insn	2, 0x4101
    41000ba8:	0000                	.insn	2, 0x0000
    41000baa:	0000                	.insn	2, 0x0000
    41000bac:	4430                	.insn	2, 0x4430
    41000bae:	4101                	.insn	2, 0x4101
    41000bb0:	0000                	.insn	2, 0x0000
    41000bb2:	0000                	.insn	2, 0x0000
    41000bb4:	4040                	.insn	2, 0x4040
    41000bb6:	4101                	.insn	2, 0x4101
    41000bb8:	0000                	.insn	2, 0x0000
    41000bba:	0000                	.insn	2, 0x0000
    41000bbc:	45a8                	.insn	2, 0x45a8
    41000bbe:	4101                	.insn	2, 0x4101
    41000bc0:	0000                	.insn	2, 0x0000
    41000bc2:	0000                	.insn	2, 0x0000
    41000bc4:	469c                	.insn	2, 0x469c
    41000bc6:	4101                	.insn	2, 0x4101
    41000bc8:	0000                	.insn	2, 0x0000
    41000bca:	0000                	.insn	2, 0x0000
    41000bcc:	4270                	.insn	2, 0x4270
    41000bce:	4101                	.insn	2, 0x4101
    41000bd0:	0000                	.insn	2, 0x0000
    41000bd2:	0000                	.insn	2, 0x0000
    41000bd4:	4430                	.insn	2, 0x4430
    41000bd6:	4101                	.insn	2, 0x4101
    41000bd8:	0000                	.insn	2, 0x0000
    41000bda:	0000                	.insn	2, 0x0000
    41000bdc:	469c                	.insn	2, 0x469c
    41000bde:	4101                	.insn	2, 0x4101
    41000be0:	0000                	.insn	2, 0x0000
    41000be2:	0000                	.insn	2, 0x0000
    41000be4:	4430                	.insn	2, 0x4430
    41000be6:	4101                	.insn	2, 0x4101
    41000be8:	0000                	.insn	2, 0x0000
    41000bea:	0000                	.insn	2, 0x0000
    41000bec:	44e4                	.insn	2, 0x44e4
    41000bee:	4101                	.insn	2, 0x4101
    41000bf0:	0000                	.insn	2, 0x0000
    41000bf2:	0000                	.insn	2, 0x0000
    41000bf4:	4148                	.insn	2, 0x4148
    41000bf6:	4101                	.insn	2, 0x4101
    41000bf8:	0000                	.insn	2, 0x0000
    41000bfa:	0000                	.insn	2, 0x0000
    41000bfc:	4270                	.insn	2, 0x4270
    41000bfe:	4101                	.insn	2, 0x4101
    41000c00:	0000                	.insn	2, 0x0000
    41000c02:	0000                	.insn	2, 0x0000
    41000c04:	4040                	.insn	2, 0x4040
    41000c06:	4101                	.insn	2, 0x4101
    41000c08:	0000                	.insn	2, 0x0000
    41000c0a:	0000                	.insn	2, 0x0000
    41000c0c:	4768                	.insn	2, 0x4768
    41000c0e:	4101                	.insn	2, 0x4101
    41000c10:	0000                	.insn	2, 0x0000
    41000c12:	0000                	.insn	2, 0x0000
    41000c14:	4768                	.insn	2, 0x4768
    41000c16:	4101                	.insn	2, 0x4101
    41000c18:	0000                	.insn	2, 0x0000
    41000c1a:	0000                	.insn	2, 0x0000
    41000c1c:	4814                	.insn	2, 0x4814
    41000c1e:	4101                	.insn	2, 0x4101
    41000c20:	0000                	.insn	2, 0x0000
    41000c22:	0000                	.insn	2, 0x0000
    41000c24:	45a8                	.insn	2, 0x45a8
    41000c26:	4101                	.insn	2, 0x4101
    41000c28:	0000                	.insn	2, 0x0000
    41000c2a:	0000                	.insn	2, 0x0000
    41000c2c:	4148                	.insn	2, 0x4148
    41000c2e:	4101                	.insn	2, 0x4101
    41000c30:	0000                	.insn	2, 0x0000
	...

0000000041000c34 <dtest_descriptor_table>:
    41000c34:	0c84                	.insn	2, 0x0c84
    41000c36:	4100                	.insn	2, 0x4100
    41000c38:	0000                	.insn	2, 0x0000
    41000c3a:	0000                	.insn	2, 0x0000
    41000c3c:	0c92                	.insn	2, 0x0c92
    41000c3e:	4100                	.insn	2, 0x4100
    41000c40:	0000                	.insn	2, 0x0000
    41000c42:	0000                	.insn	2, 0x0000
    41000c44:	0ca0                	.insn	2, 0x0ca0
    41000c46:	4100                	.insn	2, 0x4100
    41000c48:	0000                	.insn	2, 0x0000
    41000c4a:	0000                	.insn	2, 0x0000
    41000c4c:	0cb0                	.insn	2, 0x0cb0
    41000c4e:	4100                	.insn	2, 0x4100
    41000c50:	0000                	.insn	2, 0x0000
    41000c52:	0000                	.insn	2, 0x0000
    41000c54:	0cc0                	.insn	2, 0x0cc0
    41000c56:	4100                	.insn	2, 0x4100
    41000c58:	0000                	.insn	2, 0x0000
    41000c5a:	0000                	.insn	2, 0x0000
    41000c5c:	0cd6                	.insn	2, 0x0cd6
    41000c5e:	4100                	.insn	2, 0x4100
    41000c60:	0000                	.insn	2, 0x0000
    41000c62:	0000                	.insn	2, 0x0000
    41000c64:	0cec                	.insn	2, 0x0cec
    41000c66:	4100                	.insn	2, 0x4100
    41000c68:	0000                	.insn	2, 0x0000
    41000c6a:	0000                	.insn	2, 0x0000
    41000c6c:	0cfc                	.insn	2, 0x0cfc
    41000c6e:	4100                	.insn	2, 0x4100
    41000c70:	0000                	.insn	2, 0x0000
    41000c72:	0000                	.insn	2, 0x0000
    41000c74:	0d0c                	.insn	2, 0x0d0c
    41000c76:	4100                	.insn	2, 0x4100
    41000c78:	0000                	.insn	2, 0x0000
    41000c7a:	0000                	.insn	2, 0x0000
    41000c7c:	0d22                	.insn	2, 0x0d22
    41000c7e:	4100                	.insn	2, 0x4100
    41000c80:	0000                	.insn	2, 0x0000
	...

0000000041000c84 <dtest_name_0>:
    41000c84:	5f444953          	.insn	4, 0x5f444953
    41000c88:	415a                	.insn	2, 0x415a
    41000c8a:	3436                	.insn	2, 0x3436
    41000c8c:	5352                	.insn	2, 0x5352
    41000c8e:	305f 0031       	.insn	6, 0x49530031305f

0000000041000c92 <dtest_name_1>:
    41000c92:	5f444953          	.insn	4, 0x5f444953
    41000c96:	415a                	.insn	2, 0x415a
    41000c98:	3436                	.insn	2, 0x3436
    41000c9a:	5352                	.insn	2, 0x5352
    41000c9c:	305f 0032       	.insn	6, 0x49530032305f

0000000041000ca0 <dtest_name_2>:
    41000ca0:	5f444953          	.insn	4, 0x5f444953
    41000ca4:	415a                	.insn	2, 0x415a
    41000ca6:	3436                	.insn	2, 0x3436
    41000ca8:	5352                	.insn	2, 0x5352
    41000caa:	305f 5f33 0077      	.insn	6, 0x00775f33305f

0000000041000cb0 <dtest_name_3>:
    41000cb0:	5f444953          	.insn	4, 0x5f444953
    41000cb4:	415a                	.insn	2, 0x415a
    41000cb6:	3436                	.insn	2, 0x3436
    41000cb8:	5352                	.insn	2, 0x5352
    41000cba:	305f 5f33 0064      	.insn	6, 0x00645f33305f

0000000041000cc0 <dtest_name_4>:
    41000cc0:	5f444953          	.insn	4, 0x5f444953
    41000cc4:	415a                	.insn	2, 0x415a
    41000cc6:	3436                	.insn	2, 0x3436
    41000cc8:	5352                	.insn	2, 0x5352
    41000cca:	305f 5f33 726c      	.insn	6, 0x726c5f33305f
    41000cd0:	63735f77          	.insn	4, 0x63735f77
    41000cd4:	0064                	.insn	2, 0x0064

0000000041000cd6 <dtest_name_5>:
    41000cd6:	5f444953          	.insn	4, 0x5f444953
    41000cda:	415a                	.insn	2, 0x415a
    41000cdc:	3436                	.insn	2, 0x3436
    41000cde:	5352                	.insn	2, 0x5352
    41000ce0:	305f 5f33 726c      	.insn	6, 0x726c5f33305f
    41000ce6:	5f64                	.insn	2, 0x5f64
    41000ce8:	00776373          	csrrsi	x6,0x7,14

0000000041000cec <dtest_name_6>:
    41000cec:	5f444953          	.insn	4, 0x5f444953
    41000cf0:	415a                	.insn	2, 0x415a
    41000cf2:	3436                	.insn	2, 0x3436
    41000cf4:	5352                	.insn	2, 0x5352
    41000cf6:	305f 5f35 0077      	.insn	6, 0x00775f35305f

0000000041000cfc <dtest_name_7>:
    41000cfc:	5f444953          	.insn	4, 0x5f444953
    41000d00:	415a                	.insn	2, 0x415a
    41000d02:	3436                	.insn	2, 0x3436
    41000d04:	5352                	.insn	2, 0x5352
    41000d06:	305f 5f35 0064      	.insn	6, 0x00645f35305f

0000000041000d0c <dtest_name_8>:
    41000d0c:	5f444953          	.insn	4, 0x5f444953
    41000d10:	415a                	.insn	2, 0x415a
    41000d12:	3436                	.insn	2, 0x3436
    41000d14:	5352                	.insn	2, 0x5352
    41000d16:	305f 5f34 726c      	.insn	6, 0x726c5f34305f
    41000d1c:	63735f77          	.insn	4, 0x63735f77
    41000d20:	0064                	.insn	2, 0x0064

0000000041000d22 <dtest_name_9>:
    41000d22:	5f444953          	.insn	4, 0x5f444953
    41000d26:	415a                	.insn	2, 0x415a
    41000d28:	3436                	.insn	2, 0x3436
    41000d2a:	5352                	.insn	2, 0x5352
    41000d2c:	305f 5f34 726c      	.insn	6, 0x726c5f34305f
    41000d32:	5f64                	.insn	2, 0x5f64
    41000d34:	00776373          	csrrsi	x6,0x7,14

0000000041000d38 <dtest_index_map>:
    41000d38:	ffff                	.insn	2, 0xffff
    41000d3a:	ffff                	.insn	2, 0xffff
    41000d3c:	0008                	.insn	2, 0x0008
    41000d3e:	0000                	.insn	2, 0x0000
    41000d40:	0005                	.insn	2, 0x0005
    41000d42:	0000                	.insn	2, 0x0000
    41000d44:	00000003          	lb	x0,0(x0) # 0 <ALL_4KB_PAGES>
    41000d48:	00000003          	lb	x0,0(x0) # 0 <ALL_4KB_PAGES>
    41000d4c:	00000007          	vle8.v	v0,(x0),v0.t
    41000d50:	0000                	.insn	2, 0x0000
    41000d52:	0000                	.insn	2, 0x0000
    41000d54:	0001                	.insn	2, 0x0001
    41000d56:	0000                	.insn	2, 0x0000
    41000d58:	0009                	.insn	2, 0x0009
    41000d5a:	0000                	.insn	2, 0x0000
    41000d5c:	0002                	.insn	2, 0x0002
    41000d5e:	0000                	.insn	2, 0x0000
    41000d60:	0006                	.insn	2, 0x0006
    41000d62:	0000                	.insn	2, 0x0000
    41000d64:	00000003          	lb	x0,0(x0) # 0 <ALL_4KB_PAGES>
    41000d68:	0009                	.insn	2, 0x0009
    41000d6a:	0000                	.insn	2, 0x0000
    41000d6c:	0005                	.insn	2, 0x0005
    41000d6e:	0000                	.insn	2, 0x0000
    41000d70:	0004                	.insn	2, 0x0004
    41000d72:	0000                	.insn	2, 0x0000
    41000d74:	0000                	.insn	2, 0x0000
    41000d76:	0000                	.insn	2, 0x0000
    41000d78:	0006                	.insn	2, 0x0006
    41000d7a:	0000                	.insn	2, 0x0000
    41000d7c:	00000007          	vle8.v	v0,(x0),v0.t
    41000d80:	0002                	.insn	2, 0x0002
    41000d82:	0000                	.insn	2, 0x0000
    41000d84:	0004                	.insn	2, 0x0004
    41000d86:	0000                	.insn	2, 0x0000
    41000d88:	00000007          	vle8.v	v0,(x0),v0.t
    41000d8c:	0004                	.insn	2, 0x0004
    41000d8e:	0000                	.insn	2, 0x0000
    41000d90:	0005                	.insn	2, 0x0005
    41000d92:	0000                	.insn	2, 0x0000
    41000d94:	0001                	.insn	2, 0x0001
    41000d96:	0000                	.insn	2, 0x0000
    41000d98:	0002                	.insn	2, 0x0002
    41000d9a:	0000                	.insn	2, 0x0000
    41000d9c:	0000                	.insn	2, 0x0000
    41000d9e:	0000                	.insn	2, 0x0000
    41000da0:	0008                	.insn	2, 0x0008
    41000da2:	0000                	.insn	2, 0x0000
    41000da4:	0008                	.insn	2, 0x0008
    41000da6:	0000                	.insn	2, 0x0000
    41000da8:	0009                	.insn	2, 0x0009
    41000daa:	0000                	.insn	2, 0x0000
    41000dac:	0006                	.insn	2, 0x0006
    41000dae:	0000                	.insn	2, 0x0000
    41000db0:	0001                	.insn	2, 0x0001
	...

0000000041000db4 <scheduler__test_setup_ptr>:
    41000db4:	4030                	.insn	2, 0x4030
    41000db6:	4101                	.insn	2, 0x4101
    41000db8:	0000                	.insn	2, 0x0000
	...

0000000041000dbc <scheduler__test_cleanup_ptr>:
    41000dbc:	48c0                	.insn	2, 0x48c0
    41000dbe:	4101                	.insn	2, 0x4101
    41000dc0:	0000                	.insn	2, 0x0000
	...

Disassembly of section .runtime_s:

0000000041010000 <trap_handler_s__invalid_interrupt>:
    41010000:	1740006f          	j	41010174 <trap_handler_s__test_failed>

0000000041010004 <trap_handler_s__clear_all_interrupts>:
    41010004:	14401073          	csrw	sip,x0
    41010008:	10200073          	sret

000000004101000c <trap_handler_s___CLEAR_SSI>:
    4101000c:	00200293          	li	x5,2
    41010010:	1442b073          	csrc	sip,x5
    41010014:	10200073          	sret

0000000041010018 <trap_handler_s___CLEAR_MSI>:
    41010018:	00800293          	li	x5,8
    4101001c:	1442b073          	csrc	sip,x5
    41010020:	10200073          	sret

0000000041010024 <trap_handler_s___CLEAR_STI>:
    41010024:	02000293          	li	x5,32
    41010028:	1442b073          	csrc	sip,x5
    4101002c:	10200073          	sret

0000000041010030 <trap_handler_s___CLEAR_MTI>:
    41010030:	08000293          	li	x5,128
    41010034:	1442b073          	csrc	sip,x5
    41010038:	10200073          	sret

000000004101003c <trap_handler_s___CLEAR_SEI>:
    4101003c:	20000293          	li	x5,512
    41010040:	1442b073          	csrc	sip,x5
    41010044:	10200073          	sret

0000000041010048 <trap_handler_s___CLEAR_MEI>:
    41010048:	000012b7          	lui	x5,0x1
    4101004c:	8002829b          	addiw	x5,x5,-2048 # 800 <XLEN+0x7c0>
    41010050:	1442b073          	csrc	sip,x5
    41010054:	10200073          	sret

0000000041010058 <trap_handler_s___CLEAR_COI>:
    41010058:	000022b7          	lui	x5,0x2
    4101005c:	1442b073          	csrc	sip,x5
    41010060:	10200073          	sret

0000000041010064 <trap_handler_s__clear_highest_priority_interrupt>:
    41010064:	144022f3          	csrr	x5,sip
    41010068:	40500333          	neg	x6,x5
    4101006c:	0062f2b3          	and	x5,x5,x6
    41010070:	1442b073          	csrc	sip,x5
    41010074:	10200073          	sret

0000000041010078 <trap_handler_s__trap_entry>:
    41010078:	10c0006f          	j	41010184 <trap_handler_s__trap_handler>

000000004101007c <trap_handler_s__interrupt_vector_table>:
    4101007c:	f91ff06f          	j	4101000c <trap_handler_s___CLEAR_SSI>
    41010080:	f81ff06f          	j	41010000 <trap_handler_s__invalid_interrupt>
    41010084:	f95ff06f          	j	41010018 <trap_handler_s___CLEAR_MSI>
    41010088:	f79ff06f          	j	41010000 <trap_handler_s__invalid_interrupt>
    4101008c:	f99ff06f          	j	41010024 <trap_handler_s___CLEAR_STI>
    41010090:	f71ff06f          	j	41010000 <trap_handler_s__invalid_interrupt>
    41010094:	f9dff06f          	j	41010030 <trap_handler_s___CLEAR_MTI>
    41010098:	f69ff06f          	j	41010000 <trap_handler_s__invalid_interrupt>
    4101009c:	fa1ff06f          	j	4101003c <trap_handler_s___CLEAR_SEI>
    410100a0:	f61ff06f          	j	41010000 <trap_handler_s__invalid_interrupt>
    410100a4:	fa5ff06f          	j	41010048 <trap_handler_s___CLEAR_MEI>
    410100a8:	f59ff06f          	j	41010000 <trap_handler_s__invalid_interrupt>
    410100ac:	fadff06f          	j	41010058 <trap_handler_s___CLEAR_COI>
    410100b0:	f51ff06f          	j	41010000 <trap_handler_s__invalid_interrupt>
    410100b4:	f4dff06f          	j	41010000 <trap_handler_s__invalid_interrupt>
    410100b8:	fadff06f          	j	41010064 <trap_handler_s__clear_highest_priority_interrupt>
    410100bc:	fa9ff06f          	j	41010064 <trap_handler_s__clear_highest_priority_interrupt>
    410100c0:	fa5ff06f          	j	41010064 <trap_handler_s__clear_highest_priority_interrupt>
    410100c4:	fa1ff06f          	j	41010064 <trap_handler_s__clear_highest_priority_interrupt>
    410100c8:	f9dff06f          	j	41010064 <trap_handler_s__clear_highest_priority_interrupt>
    410100cc:	f99ff06f          	j	41010064 <trap_handler_s__clear_highest_priority_interrupt>
    410100d0:	f95ff06f          	j	41010064 <trap_handler_s__clear_highest_priority_interrupt>
    410100d4:	f91ff06f          	j	41010064 <trap_handler_s__clear_highest_priority_interrupt>
    410100d8:	f8dff06f          	j	41010064 <trap_handler_s__clear_highest_priority_interrupt>
    410100dc:	f89ff06f          	j	41010064 <trap_handler_s__clear_highest_priority_interrupt>
    410100e0:	f85ff06f          	j	41010064 <trap_handler_s__clear_highest_priority_interrupt>
    410100e4:	f81ff06f          	j	41010064 <trap_handler_s__clear_highest_priority_interrupt>
    410100e8:	f7dff06f          	j	41010064 <trap_handler_s__clear_highest_priority_interrupt>
    410100ec:	f79ff06f          	j	41010064 <trap_handler_s__clear_highest_priority_interrupt>
    410100f0:	f75ff06f          	j	41010064 <trap_handler_s__clear_highest_priority_interrupt>
    410100f4:	f71ff06f          	j	41010064 <trap_handler_s__clear_highest_priority_interrupt>
    410100f8:	f6dff06f          	j	41010064 <trap_handler_s__clear_highest_priority_interrupt>
    410100fc:	f69ff06f          	j	41010064 <trap_handler_s__clear_highest_priority_interrupt>
    41010100:	f65ff06f          	j	41010064 <trap_handler_s__clear_highest_priority_interrupt>
    41010104:	f61ff06f          	j	41010064 <trap_handler_s__clear_highest_priority_interrupt>
    41010108:	f5dff06f          	j	41010064 <trap_handler_s__clear_highest_priority_interrupt>
    4101010c:	f59ff06f          	j	41010064 <trap_handler_s__clear_highest_priority_interrupt>
    41010110:	f55ff06f          	j	41010064 <trap_handler_s__clear_highest_priority_interrupt>
    41010114:	f51ff06f          	j	41010064 <trap_handler_s__clear_highest_priority_interrupt>
    41010118:	f4dff06f          	j	41010064 <trap_handler_s__clear_highest_priority_interrupt>
    4101011c:	f49ff06f          	j	41010064 <trap_handler_s__clear_highest_priority_interrupt>
    41010120:	f45ff06f          	j	41010064 <trap_handler_s__clear_highest_priority_interrupt>
    41010124:	f41ff06f          	j	41010064 <trap_handler_s__clear_highest_priority_interrupt>
    41010128:	f3dff06f          	j	41010064 <trap_handler_s__clear_highest_priority_interrupt>
    4101012c:	f39ff06f          	j	41010064 <trap_handler_s__clear_highest_priority_interrupt>
    41010130:	f35ff06f          	j	41010064 <trap_handler_s__clear_highest_priority_interrupt>
    41010134:	f31ff06f          	j	41010064 <trap_handler_s__clear_highest_priority_interrupt>
    41010138:	f2dff06f          	j	41010064 <trap_handler_s__clear_highest_priority_interrupt>
    4101013c:	f29ff06f          	j	41010064 <trap_handler_s__clear_highest_priority_interrupt>
    41010140:	f25ff06f          	j	41010064 <trap_handler_s__clear_highest_priority_interrupt>
    41010144:	f21ff06f          	j	41010064 <trap_handler_s__clear_highest_priority_interrupt>
    41010148:	f1dff06f          	j	41010064 <trap_handler_s__clear_highest_priority_interrupt>
    4101014c:	f19ff06f          	j	41010064 <trap_handler_s__clear_highest_priority_interrupt>
    41010150:	f15ff06f          	j	41010064 <trap_handler_s__clear_highest_priority_interrupt>
    41010154:	f11ff06f          	j	41010064 <trap_handler_s__clear_highest_priority_interrupt>
    41010158:	f0dff06f          	j	41010064 <trap_handler_s__clear_highest_priority_interrupt>
    4101015c:	f09ff06f          	j	41010064 <trap_handler_s__clear_highest_priority_interrupt>
    41010160:	f05ff06f          	j	41010064 <trap_handler_s__clear_highest_priority_interrupt>
    41010164:	f01ff06f          	j	41010064 <trap_handler_s__clear_highest_priority_interrupt>
    41010168:	efdff06f          	j	41010064 <trap_handler_s__clear_highest_priority_interrupt>
    4101016c:	ef9ff06f          	j	41010064 <trap_handler_s__clear_highest_priority_interrupt>
    41010170:	ef5ff06f          	j	41010064 <trap_handler_s__clear_highest_priority_interrupt>

0000000041010174 <trap_handler_s__test_failed>:
    41010174:	00f00f9b          	addiw	x31,x0,15
    41010178:	01cf9f93          	slli	x31,x31,0x1c
    4101017c:	002f8f93          	addi	x31,x31,2
    41010180:	00000073          	ecall

0000000041010184 <trap_handler_s__trap_handler>:
    41010184:	142022f3          	csrr	x5,scause
    41010188:	fff0031b          	addiw	x6,x0,-1
    4101018c:	03f31313          	slli	x6,x6,0x3f
    41010190:	00537333          	and	x6,x6,x5
    41010194:	02030263          	beqz	x6,410101b8 <trap_handler_s__exception_path>

0000000041010198 <trap_handler_s__interrupt_handler>:
    41010198:	fff0031b          	addiw	x6,x0,-1
    4101019c:	03f31313          	slli	x6,x6,0x3f
    410101a0:	0062c2b3          	xor	x5,x5,x6
    410101a4:	00000317          	auipc	x6,0x0
    410101a8:	ed430313          	addi	x6,x6,-300 # 41010078 <trap_handler_s__trap_entry>
    410101ac:	00229293          	slli	x5,x5,0x2
    410101b0:	005302b3          	add	x5,x6,x5
    410101b4:	00028067          	jr	x5 # 2000 <pma_region_1_size+0x1000>

00000000410101b8 <trap_handler_s__exception_path>:
    410101b8:	14021273          	csrrw	x4,sscratch,x4
    410101bc:	00000297          	auipc	x5,0x0
    410101c0:	0cc28293          	addi	x5,x5,204 # 41010288 <trap_handler_s__trap_panic>
    410101c4:	10529073          	csrw	stvec,x5
    410101c8:	0040006f          	j	410101cc <trap_handler_s__excp_entry>

00000000410101cc <trap_handler_s__excp_entry>:
    410101cc:	14202373          	csrr	x6,scause
    410101d0:	00800293          	li	x5,8
    410101d4:	00534863          	blt	x6,x5,410101e4 <trap_handler_s__check_exception_label>
    410101d8:	00b00293          	li	x5,11
    410101dc:	0062c463          	blt	x5,x6,410101e4 <trap_handler_s__check_exception_label>
    410101e0:	0a80006f          	j	41010288 <trap_handler_s__trap_panic>

00000000410101e4 <trap_handler_s__check_exception_label>:
    410101e4:	04623c23          	sd	x6,88(x4) # 58 <XLEN+0x18>
    410101e8:	141022f3          	csrr	x5,sepc
    410101ec:	02523423          	sd	x5,40(x4) # 28 <SECURE_ACCESS_PROBABILITY+0xa>
    410101f0:	01820283          	lb	x5,24(x4) # 18 <STORE_GUEST_PAGE_FAULT+0x1>
    410101f4:	00029863          	bnez	x5,41010204 <trap_handler_s__check_excp>
    410101f8:	00128293          	addi	x5,x5,1
    410101fc:	00520c23          	sb	x5,24(x4) # 18 <STORE_GUEST_PAGE_FAULT+0x1>
    41010200:	05c0006f          	j	4101025c <trap_handler_s__ecall_from_machine>

0000000041010204 <trap_handler_s__check_excp>:
    41010204:	06823283          	ld	x5,104(x4) # 68 <XLEN+0x28>
    41010208:	06023423          	sd	x0,104(x4) # 68 <XLEN+0x28>
    4101020c:	00028663          	beqz	x5,41010218 <trap_handler_s__skip_mode_check>
    41010210:	00300393          	li	x7,3
    41010214:	f67290e3          	bne	x5,x7,41010174 <trap_handler_s__test_failed>

0000000041010218 <trap_handler_s__skip_mode_check>:
    41010218:	05023283          	ld	x5,80(x4) # 50 <XLEN+0x10>
    4101021c:	04023823          	sd	x0,80(x4) # 50 <XLEN+0x10>
    41010220:	f4531ae3          	bne	x6,x5,41010174 <trap_handler_s__test_failed>
    41010224:	03823283          	ld	x5,56(x4) # 38 <SECURE_ACCESS_PROBABILITY+0x1a>
    41010228:	02023c23          	sd	x0,56(x4) # 38 <SECURE_ACCESS_PROBABILITY+0x1a>
    4101022c:	02029663          	bnez	x5,41010258 <trap_handler_s__skip_nonzero_tval_check>
    41010230:	02023303          	ld	x6,32(x4) # 20 <SECURE_ACCESS_PROBABILITY+0x2>
    41010234:	02023023          	sd	x0,32(x4) # 20 <SECURE_ACCESS_PROBABILITY+0x2>
    41010238:	02823283          	ld	x5,40(x4) # 28 <SECURE_ACCESS_PROBABILITY+0xa>
    4101023c:	02023423          	sd	x0,40(x4) # 28 <SECURE_ACCESS_PROBABILITY+0xa>
    41010240:	f2531ae3          	bne	x6,x5,41010174 <trap_handler_s__test_failed>
    41010244:	04023283          	ld	x5,64(x4) # 40 <XLEN>
    41010248:	04023023          	sd	x0,64(x4) # 40 <XLEN>
    4101024c:	00028663          	beqz	x5,41010258 <trap_handler_s__skip_nonzero_tval_check>

0000000041010250 <trap_handler_s__nonzero_tval_check>:
    41010250:	14302373          	csrr	x6,stval
    41010254:	f25310e3          	bne	x6,x5,41010174 <trap_handler_s__test_failed>

0000000041010258 <trap_handler_s__skip_nonzero_tval_check>:
    41010258:	0040006f          	j	4101025c <trap_handler_s__ecall_from_machine>

000000004101025c <trap_handler_s__ecall_from_machine>:
    4101025c:	03023283          	ld	x5,48(x4) # 30 <SECURE_ACCESS_PROBABILITY+0x12>
    41010260:	02023823          	sd	x0,48(x4) # 30 <SECURE_ACCESS_PROBABILITY+0x12>
    41010264:	07023303          	ld	x6,112(x4) # 70 <XLEN+0x30>
    41010268:	06023823          	sd	x0,112(x4) # 70 <XLEN+0x30>
    4101026c:	00031463          	bnez	x6,41010274 <trap_handler_s__skip_xepc_write>
    41010270:	14129073          	csrw	sepc,x5

0000000041010274 <trap_handler_s__skip_xepc_write>:
    41010274:	00000317          	auipc	x6,0x0
    41010278:	e0430313          	addi	x6,x6,-508 # 41010078 <trap_handler_s__trap_entry>
    4101027c:	10531073          	csrw	stvec,x6
    41010280:	14021273          	csrrw	x4,sscratch,x4
    41010284:	10200073          	sret

0000000041010288 <trap_handler_s__trap_panic>:
    41010288:	00000193          	li	x3,0
    4101028c:	00f00f9b          	addiw	x31,x0,15
    41010290:	01cf9f93          	slli	x31,x31,0x1c
    41010294:	002f8f93          	addi	x31,x31,2
    41010298:	00000073          	ecall

Disassembly of section .code:

0000000041014000 <passed>:
    41014000:	00f00f9b          	addiw	x31,x0,15
    41014004:	01cf9f93          	slli	x31,x31,0x1c
    41014008:	001f8f93          	addi	x31,x31,1
    4101400c:	00000073          	ecall

0000000041014010 <failed>:
    41014010:	00f00f9b          	addiw	x31,x0,15
    41014014:	01cf9f93          	slli	x31,x31,0x1c
    41014018:	002f8f93          	addi	x31,x31,2
    4101401c:	00000073          	ecall

0000000041014020 <end_test>:
    41014020:	00f00f9b          	addiw	x31,x0,15
    41014024:	01cf9f93          	slli	x31,x31,0x1c
    41014028:	003f8f93          	addi	x31,x31,3
    4101402c:	00000073          	ecall

0000000041014030 <test_setup>:
    41014030:	00f00f9b          	addiw	x31,x0,15
    41014034:	01cf9f93          	slli	x31,x31,0x1c
    41014038:	001f8f93          	addi	x31,x31,1
    4101403c:	00000073          	ecall

0000000041014040 <SID_ZA64RS_01>:
    41014040:	0001c137          	lui	x2,0x1c
    41014044:	000012b7          	lui	x5,0x1
    41014048:	00510133          	add	x2,x2,x5
    4101404c:	ff017113          	andi	x2,x2,-16
    41014050:	40a92237          	lui	x4,0x40a92
    41014054:	00500e13          	li	x28,5
    41014058:	05c23823          	sd	x28,80(x4) # 40a92050 <check_excp_expected_cause>
    4101405c:	00000e17          	auipc	x28,0x0
    41014060:	054e0e13          	addi	x28,x28,84 # 410140b0 <fault_label_0>
    41014064:	03c23023          	sd	x28,32(x4) # 20 <SECURE_ACCESS_PROBABILITY+0x2>
    41014068:	00000e13          	li	x28,0
    4101406c:	05c23023          	sd	x28,64(x4) # 40 <XLEN>
    41014070:	00000e13          	li	x28,0
    41014074:	05c23423          	sd	x28,72(x4) # 48 <XLEN+0x8>
    41014078:	00000e17          	auipc	x28,0x0
    4101407c:	04ce0e13          	addi	x28,x28,76 # 410140c4 <excp_return_label_0>
    41014080:	03c23823          	sd	x28,48(x4) # 30 <SECURE_ACCESS_PROBABILITY+0x12>
    41014084:	00000e13          	li	x28,0
    41014088:	03c23c23          	sd	x28,56(x4) # 38 <SECURE_ACCESS_PROBABILITY+0x1a>
    4101408c:	00000e13          	li	x28,0
    41014090:	07c23023          	sd	x28,96(x4) # 60 <XLEN+0x20>
    41014094:	00000e13          	li	x28,0
    41014098:	07c23423          	sd	x28,104(x4) # 68 <XLEN+0x28>
    4101409c:	00000e13          	li	x28,0
    410140a0:	07c23823          	sd	x28,112(x4) # 70 <XLEN+0x30>
    410140a4:	37134fb7          	lui	x31,0x37134
    410140a8:	00100f13          	li	x30,1
    410140ac:	01ef8433          	add	x8,x31,x30

00000000410140b0 <fault_label_0>:
    410140b0:	100427af          	lr.w	x15,(x8)
    410140b4:	01778537          	lui	x10,0x1778
    410140b8:	0085051b          	addiw	x10,x10,8 # 1778008 <failed_addr>
    410140bc:	00053c03          	ld	x24,0(x10)
    410140c0:	000c0067          	jr	x24

00000000410140c4 <excp_return_label_0>:
    410140c4:	40a92237          	lui	x4,0x40a92
    410140c8:	00500e13          	li	x28,5
    410140cc:	05c23823          	sd	x28,80(x4) # 40a92050 <check_excp_expected_cause>
    410140d0:	00000e17          	auipc	x28,0x0
    410140d4:	054e0e13          	addi	x28,x28,84 # 41014124 <fault_label_1>
    410140d8:	03c23023          	sd	x28,32(x4) # 20 <SECURE_ACCESS_PROBABILITY+0x2>
    410140dc:	00000e13          	li	x28,0
    410140e0:	05c23023          	sd	x28,64(x4) # 40 <XLEN>
    410140e4:	00000e13          	li	x28,0
    410140e8:	05c23423          	sd	x28,72(x4) # 48 <XLEN+0x8>
    410140ec:	00000e17          	auipc	x28,0x0
    410140f0:	04ce0e13          	addi	x28,x28,76 # 41014138 <SID_ZA64RS_01_passed>
    410140f4:	03c23823          	sd	x28,48(x4) # 30 <SECURE_ACCESS_PROBABILITY+0x12>
    410140f8:	00000e13          	li	x28,0
    410140fc:	03c23c23          	sd	x28,56(x4) # 38 <SECURE_ACCESS_PROBABILITY+0x1a>
    41014100:	00000e13          	li	x28,0
    41014104:	07c23023          	sd	x28,96(x4) # 60 <XLEN+0x20>
    41014108:	00000e13          	li	x28,0
    4101410c:	07c23423          	sd	x28,104(x4) # 68 <XLEN+0x28>
    41014110:	00000e13          	li	x28,0
    41014114:	07c23823          	sd	x28,112(x4) # 70 <XLEN+0x30>
    41014118:	37134537          	lui	x10,0x37134
    4101411c:	00100b93          	li	x23,1
    41014120:	01750d33          	add	x26,x10,x23

0000000041014124 <fault_label_1>:
    41014124:	100d342f          	lr.d	x8,(x26)
    41014128:	01778ab7          	lui	x21,0x1778
    4101412c:	008a8a9b          	addiw	x21,x21,8 # 1778008 <failed_addr>
    41014130:	000aba83          	ld	x21,0(x21)
    41014134:	000a8067          	jr	x21

0000000041014138 <SID_ZA64RS_01_passed>:
    41014138:	00f00f9b          	addiw	x31,x0,15
    4101413c:	01cf9f93          	slli	x31,x31,0x1c
    41014140:	001f8f93          	addi	x31,x31,1 # 37134001 <mem0+0x1>
    41014144:	00000073          	ecall

0000000041014148 <SID_ZA64RS_02>:
    41014148:	007c7137          	lui	x2,0x7c7
    4101414c:	2fd1011b          	addiw	x2,x2,765 # 7c72fd <mem4+0x77a2fd>
    41014150:	00e11113          	slli	x2,x2,0xe
    41014154:	33f10113          	addi	x2,x2,831
    41014158:	00c11113          	slli	x2,x2,0xc
    4101415c:	000012b7          	lui	x5,0x1
    41014160:	00510133          	add	x2,x2,x5
    41014164:	ff017113          	andi	x2,x2,-16
    41014168:	40a92237          	lui	x4,0x40a92
    4101416c:	00700e13          	li	x28,7
    41014170:	05c23823          	sd	x28,80(x4) # 40a92050 <check_excp_expected_cause>
    41014174:	00000e17          	auipc	x28,0x0
    41014178:	05ce0e13          	addi	x28,x28,92 # 410141d0 <fault_label_2>
    4101417c:	03c23023          	sd	x28,32(x4) # 20 <SECURE_ACCESS_PROBABILITY+0x2>
    41014180:	00000e13          	li	x28,0
    41014184:	05c23023          	sd	x28,64(x4) # 40 <XLEN>
    41014188:	00000e13          	li	x28,0
    4101418c:	05c23423          	sd	x28,72(x4) # 48 <XLEN+0x8>
    41014190:	00000e17          	auipc	x28,0x0
    41014194:	054e0e13          	addi	x28,x28,84 # 410141e4 <excp_return_label_2>
    41014198:	03c23823          	sd	x28,48(x4) # 30 <SECURE_ACCESS_PROBABILITY+0x12>
    4101419c:	00000e13          	li	x28,0
    410141a0:	03c23c23          	sd	x28,56(x4) # 38 <SECURE_ACCESS_PROBABILITY+0x1a>
    410141a4:	00000e13          	li	x28,0
    410141a8:	07c23023          	sd	x28,96(x4) # 60 <XLEN+0x20>
    410141ac:	00000e13          	li	x28,0
    410141b0:	07c23423          	sd	x28,104(x4) # 68 <XLEN+0x28>
    410141b4:	00000e13          	li	x28,0
    410141b8:	07c23823          	sd	x28,112(x4) # 70 <XLEN+0x30>
    410141bc:	009a4ab7          	lui	x21,0x9a4
    410141c0:	00100313          	li	x6,1
    410141c4:	006a89b3          	add	x19,x21,x6
    410141c8:	35bfab37          	lui	x22,0x35bfa
    410141cc:	930b0b1b          	addiw	x22,x22,-1744 # 35bf9930 <SID_ZA64RS_03_d_stack+0x12913930>

00000000410141d0 <fault_label_2>:
    410141d0:	1969aeaf          	sc.w	x29,x22,(x19)
    410141d4:	01778b37          	lui	x22,0x1778
    410141d8:	008b0b1b          	addiw	x22,x22,8 # 1778008 <failed_addr>
    410141dc:	000b3e83          	ld	x29,0(x22)
    410141e0:	000e8067          	jr	x29

00000000410141e4 <excp_return_label_2>:
    410141e4:	40a92237          	lui	x4,0x40a92
    410141e8:	00700e13          	li	x28,7
    410141ec:	05c23823          	sd	x28,80(x4) # 40a92050 <check_excp_expected_cause>
    410141f0:	00000e17          	auipc	x28,0x0
    410141f4:	05ce0e13          	addi	x28,x28,92 # 4101424c <fault_label_3>
    410141f8:	03c23023          	sd	x28,32(x4) # 20 <SECURE_ACCESS_PROBABILITY+0x2>
    410141fc:	00000e13          	li	x28,0
    41014200:	05c23023          	sd	x28,64(x4) # 40 <XLEN>
    41014204:	00000e13          	li	x28,0
    41014208:	05c23423          	sd	x28,72(x4) # 48 <XLEN+0x8>
    4101420c:	00000e17          	auipc	x28,0x0
    41014210:	054e0e13          	addi	x28,x28,84 # 41014260 <SID_ZA64RS_02_passed>
    41014214:	03c23823          	sd	x28,48(x4) # 30 <SECURE_ACCESS_PROBABILITY+0x12>
    41014218:	00000e13          	li	x28,0
    4101421c:	03c23c23          	sd	x28,56(x4) # 38 <SECURE_ACCESS_PROBABILITY+0x1a>
    41014220:	00000e13          	li	x28,0
    41014224:	07c23023          	sd	x28,96(x4) # 60 <XLEN+0x20>
    41014228:	00000e13          	li	x28,0
    4101422c:	07c23423          	sd	x28,104(x4) # 68 <XLEN+0x28>
    41014230:	00000e13          	li	x28,0
    41014234:	07c23823          	sd	x28,112(x4) # 70 <XLEN+0x30>
    41014238:	009a43b7          	lui	x7,0x9a4
    4101423c:	00100993          	li	x19,1
    41014240:	01338cb3          	add	x25,x7,x19
    41014244:	18073837          	lui	x16,0x18073
    41014248:	e8f8081b          	addiw	x16,x16,-369 # 18072e8f <__section_data_1+0x1e8fe8f>

000000004101424c <fault_label_3>:
    4101424c:	190cb9af          	sc.d	x19,x16,(x25)
    41014250:	017789b7          	lui	x19,0x1778
    41014254:	0089899b          	addiw	x19,x19,8 # 1778008 <failed_addr>
    41014258:	0009b783          	ld	x15,0(x19)
    4101425c:	00078067          	jr	x15

0000000041014260 <SID_ZA64RS_02_passed>:
    41014260:	00f00f9b          	addiw	x31,x0,15
    41014264:	01cf9f93          	slli	x31,x31,0x1c
    41014268:	001f8f93          	addi	x31,x31,1
    4101426c:	00000073          	ecall

0000000041014270 <SID_ZA64RS_03_w>:
    41014270:	26854137          	lui	x2,0x26854
    41014274:	90f1011b          	addiw	x2,x2,-1777 # 2685390f <SID_ZA64RS_03_d_stack+0x356d90f>
    41014278:	00d11113          	slli	x2,x2,0xd
    4101427c:	af910113          	addi	x2,x2,-1287
    41014280:	00c11113          	slli	x2,x2,0xc
    41014284:	000012b7          	lui	x5,0x1
    41014288:	00510133          	add	x2,x2,x5
    4101428c:	ff017113          	andi	x2,x2,-16
    41014290:	00000493          	li	x9,0
    41014294:	01b988b7          	lui	x17,0x1b98
    41014298:	1038889b          	addiw	x17,x17,259 # 1b98103 <__section_os_data_1+0x41f103>
    4101429c:	00d89893          	slli	x17,x17,0xd
    410142a0:	4c188893          	addi	x17,x17,1217
    410142a4:	00c89893          	slli	x17,x17,0xc
    410142a8:	02000313          	li	x6,32
    410142ac:	006883b3          	add	x7,x17,x6
    410142b0:	1003a42f          	lr.w	x8,(x7)
    410142b4:	01b98fb7          	lui	x31,0x1b98
    410142b8:	103f8f9b          	addiw	x31,x31,259 # 1b98103 <__section_os_data_1+0x41f103>
    410142bc:	00df9f93          	slli	x31,x31,0xd
    410142c0:	4c1f8f93          	addi	x31,x31,1217
    410142c4:	00cf9f93          	slli	x31,x31,0xc
    410142c8:	06000e13          	li	x28,96
    410142cc:	01cf8533          	add	x10,x31,x28
    410142d0:	00097c37          	lui	x24,0x97
    410142d4:	55dc0c1b          	addiw	x24,x24,1373 # 9755d <mem4+0x4a55d>
    410142d8:	00cc1c13          	slli	x24,x24,0xc
    410142dc:	4c4c0c13          	addi	x24,x24,1220
    410142e0:	19852faf          	sc.w	x31,x24,(x10)
    410142e4:	009f9a63          	bne	x31,x9,410142f8 <pass_label_0>
    410142e8:	01778937          	lui	x18,0x1778
    410142ec:	0089091b          	addiw	x18,x18,8 # 1778008 <failed_addr>
    410142f0:	00093d83          	ld	x27,0(x18)
    410142f4:	000d8067          	jr	x27

00000000410142f8 <pass_label_0>:
    410142f8:	01b98937          	lui	x18,0x1b98
    410142fc:	1039091b          	addiw	x18,x18,259 # 1b98103 <__section_os_data_1+0x41f103>
    41014300:	00d91913          	slli	x18,x18,0xd
    41014304:	4c190913          	addi	x18,x18,1217
    41014308:	00c91913          	slli	x18,x18,0xc
    4101430c:	02000593          	li	x11,32
    41014310:	00b903b3          	add	x7,x18,x11
    41014314:	1003aaaf          	lr.w	x21,(x7)
    41014318:	01b98ab7          	lui	x21,0x1b98
    4101431c:	103a8a9b          	addiw	x21,x21,259 # 1b98103 <__section_os_data_1+0x41f103>
    41014320:	00da9a93          	slli	x21,x21,0xd
    41014324:	4c1a8a93          	addi	x21,x21,1217
    41014328:	00ca9a93          	slli	x21,x21,0xc
    4101432c:	02000313          	li	x6,32
    41014330:	006a8e33          	add	x28,x21,x6
    41014334:	0003cfb7          	lui	x31,0x3c
    41014338:	7f5f8f9b          	addiw	x31,x31,2037 # 3c7f5 <SID_ZA64RS_01_stack+0x207f5>
    4101433c:	00ef9f93          	slli	x31,x31,0xe
    41014340:	2a5f8f93          	addi	x31,x31,677
    41014344:	19fe2b2f          	sc.w	x22,x31,(x28)
    41014348:	009b0a63          	beq	x22,x9,4101435c <SID_ZA64RS_03_w_passed>
    4101434c:	01778f37          	lui	x30,0x1778
    41014350:	008f0f1b          	addiw	x30,x30,8 # 1778008 <failed_addr>
    41014354:	000f3b83          	ld	x23,0(x30)
    41014358:	000b8067          	jr	x23

000000004101435c <SID_ZA64RS_03_w_passed>:
    4101435c:	00f00f9b          	addiw	x31,x0,15
    41014360:	01cf9f93          	slli	x31,x31,0x1c
    41014364:	001f8f93          	addi	x31,x31,1
    41014368:	00000073          	ecall

000000004101436c <SID_ZA64RS_03_d>:
    4101436c:	232e6137          	lui	x2,0x232e6
    41014370:	000012b7          	lui	x5,0x1
    41014374:	00510133          	add	x2,x2,x5
    41014378:	ff017113          	andi	x2,x2,-16
    4101437c:	00000f13          	li	x30,0
    41014380:	04922a37          	lui	x20,0x4922
    41014384:	2f3a0a1b          	addiw	x20,x20,755 # 49222f3 <pma_region_2_size+0x9222f3>
    41014388:	00da1a13          	slli	x20,x20,0xd
    4101438c:	02000793          	li	x15,32
    41014390:	00fa0333          	add	x6,x20,x15
    41014394:	10033b2f          	lr.d	x22,(x6)
    41014398:	04922db7          	lui	x27,0x4922
    4101439c:	2f3d8d9b          	addiw	x27,x27,755 # 49222f3 <pma_region_2_size+0x9222f3>
    410143a0:	00dd9d93          	slli	x27,x27,0xd
    410143a4:	06000a13          	li	x20,96
    410143a8:	014d8533          	add	x10,x27,x20
    410143ac:	000ad6b7          	lui	x13,0xad
    410143b0:	45f6869b          	addiw	x13,x13,1119 # ad45f <mem4+0x6045f>
    410143b4:	00c69693          	slli	x13,x13,0xc
    410143b8:	24068693          	addi	x13,x13,576
    410143bc:	18d53b2f          	sc.d	x22,x13,(x10)
    410143c0:	01eb1a63          	bne	x22,x30,410143d4 <pass_label_2>
    410143c4:	017786b7          	lui	x13,0x1778
    410143c8:	0086869b          	addiw	x13,x13,8 # 1778008 <failed_addr>
    410143cc:	0006b983          	ld	x19,0(x13)
    410143d0:	00098067          	jr	x19

00000000410143d4 <pass_label_2>:
    410143d4:	049225b7          	lui	x11,0x4922
    410143d8:	2f35859b          	addiw	x11,x11,755 # 49222f3 <pma_region_2_size+0x9222f3>
    410143dc:	00d59593          	slli	x11,x11,0xd
    410143e0:	02000993          	li	x19,32
    410143e4:	01358c33          	add	x24,x11,x19
    410143e8:	100c39af          	lr.d	x19,(x24)
    410143ec:	049225b7          	lui	x11,0x4922
    410143f0:	2f35859b          	addiw	x11,x11,755 # 49222f3 <pma_region_2_size+0x9222f3>
    410143f4:	00d59593          	slli	x11,x11,0xd
    410143f8:	02000313          	li	x6,32
    410143fc:	00658eb3          	add	x29,x11,x6
    41014400:	38021a37          	lui	x20,0x38021
    41014404:	8aca0a1b          	addiw	x20,x20,-1876 # 380208ac <mem0+0xeec8ac>
    41014408:	194eb5af          	sc.d	x11,x20,(x29)
    4101440c:	01e58a63          	beq	x11,x30,41014420 <SID_ZA64RS_03_d_passed>
    41014410:	017788b7          	lui	x17,0x1778
    41014414:	0088889b          	addiw	x17,x17,8 # 1778008 <failed_addr>
    41014418:	0008bc83          	ld	x25,0(x17)
    4101441c:	000c8067          	jr	x25

0000000041014420 <SID_ZA64RS_03_d_passed>:
    41014420:	00f00f9b          	addiw	x31,x0,15
    41014424:	01cf9f93          	slli	x31,x31,0x1c
    41014428:	001f8f93          	addi	x31,x31,1
    4101442c:	00000073          	ecall

0000000041014430 <SID_ZA64RS_03_lrw_scd>:
    41014430:	00176137          	lui	x2,0x176
    41014434:	c631011b          	addiw	x2,x2,-925 # 175c63 <mem4+0x128c63>
    41014438:	00c11113          	slli	x2,x2,0xc
    4101443c:	30310113          	addi	x2,x2,771
    41014440:	00d11113          	slli	x2,x2,0xd
    41014444:	000012b7          	lui	x5,0x1
    41014448:	00510133          	add	x2,x2,x5
    4101444c:	ff017113          	andi	x2,x2,-16
    41014450:	00000a93          	li	x21,0
    41014454:	0004dbb7          	lui	x23,0x4d
    41014458:	02000913          	li	x18,32
    4101445c:	012b8db3          	add	x27,x23,x18
    41014460:	100da3af          	lr.w	x7,(x27)
    41014464:	0004dcb7          	lui	x25,0x4d
    41014468:	06000713          	li	x14,96
    4101446c:	00ec8cb3          	add	x25,x25,x14
    41014470:	48bebb37          	lui	x22,0x48beb
    41014474:	b16b0b1b          	addiw	x22,x22,-1258 # 48beab16 <pma_region_2_end+0x3ba9b16>
    41014478:	196cbd2f          	sc.d	x26,x22,(x25)
    4101447c:	015d1a63          	bne	x26,x21,41014490 <pass_label_4>
    41014480:	01778737          	lui	x14,0x1778
    41014484:	0087071b          	addiw	x14,x14,8 # 1778008 <failed_addr>
    41014488:	00073603          	ld	x12,0(x14)
    4101448c:	00060067          	jr	x12

0000000041014490 <pass_label_4>:
    41014490:	0004dc37          	lui	x24,0x4d
    41014494:	02000d93          	li	x27,32
    41014498:	01bc0633          	add	x12,x24,x27
    4101449c:	1006262f          	lr.w	x12,(x12)
    410144a0:	0004d737          	lui	x14,0x4d
    410144a4:	02000613          	li	x12,32
    410144a8:	00c70e33          	add	x28,x14,x12
    410144ac:	000964b7          	lui	x9,0x96
    410144b0:	6bb4849b          	addiw	x9,x9,1723 # 966bb <mem4+0x496bb>
    410144b4:	00c49493          	slli	x9,x9,0xc
    410144b8:	ea448493          	addi	x9,x9,-348
    410144bc:	189e392f          	sc.d	x18,x9,(x28)
    410144c0:	01590a63          	beq	x18,x21,410144d4 <SID_ZA64RS_03_lrw_scd_passed>
    410144c4:	01778637          	lui	x12,0x1778
    410144c8:	0086061b          	addiw	x12,x12,8 # 1778008 <failed_addr>
    410144cc:	00063b03          	ld	x22,0(x12)
    410144d0:	000b0067          	jr	x22

00000000410144d4 <SID_ZA64RS_03_lrw_scd_passed>:
    410144d4:	00f00f9b          	addiw	x31,x0,15
    410144d8:	01cf9f93          	slli	x31,x31,0x1c
    410144dc:	001f8f93          	addi	x31,x31,1
    410144e0:	00000073          	ecall

00000000410144e4 <SID_ZA64RS_03_lrd_scw>:
    410144e4:	0000a137          	lui	x2,0xa
    410144e8:	000012b7          	lui	x5,0x1
    410144ec:	00510133          	add	x2,x2,x5
    410144f0:	ff017113          	andi	x2,x2,-16
    410144f4:	00000593          	li	x11,0
    410144f8:	0013bbb7          	lui	x23,0x13b
    410144fc:	0d1b8b9b          	addiw	x23,x23,209 # 13b0d1 <mem4+0xee0d1>
    41014500:	010b9b93          	slli	x23,x23,0x10
    41014504:	02000993          	li	x19,32
    41014508:	013b8933          	add	x18,x23,x19
    4101450c:	10093caf          	lr.d	x25,(x18)
    41014510:	0013b937          	lui	x18,0x13b
    41014514:	0d19091b          	addiw	x18,x18,209 # 13b0d1 <mem4+0xee0d1>
    41014518:	01091913          	slli	x18,x18,0x10
    4101451c:	06000313          	li	x6,96
    41014520:	00690db3          	add	x27,x18,x6
    41014524:	1ba16437          	lui	x8,0x1ba16
    41014528:	2184041b          	addiw	x8,x8,536 # 1ba16218 <__section_data_1+0x5833218>
    4101452c:	188daa2f          	sc.w	x20,x8,(x27)
    41014530:	00ba1a63          	bne	x20,x11,41014544 <pass_label_6>
    41014534:	01778db7          	lui	x27,0x1778
    41014538:	008d8d9b          	addiw	x27,x27,8 # 1778008 <failed_addr>
    4101453c:	000dbc83          	ld	x25,0(x27)
    41014540:	000c8067          	jr	x25 # 4d000 <mem4>

0000000041014544 <pass_label_6>:
    41014544:	0013b9b7          	lui	x19,0x13b
    41014548:	0d19899b          	addiw	x19,x19,209 # 13b0d1 <mem4+0xee0d1>
    4101454c:	01099993          	slli	x19,x19,0x10
    41014550:	02000913          	li	x18,32
    41014554:	01298d33          	add	x26,x19,x18
    41014558:	100d3daf          	lr.d	x27,(x26)
    4101455c:	0013b737          	lui	x14,0x13b
    41014560:	0d17071b          	addiw	x14,x14,209 # 13b0d1 <mem4+0xee0d1>
    41014564:	01071713          	slli	x14,x14,0x10
    41014568:	02000793          	li	x15,32
    4101456c:	00f70433          	add	x8,x14,x15
    41014570:	00002ab7          	lui	x21,0x2
    41014574:	8e9a8a9b          	addiw	x21,x21,-1815 # 18e9 <pma_region_1_size+0x8e9>
    41014578:	013a9a93          	slli	x21,x21,0x13
    4101457c:	3e6a8a93          	addi	x21,x21,998
    41014580:	195423af          	sc.w	x7,x21,(x8)
    41014584:	00b38a63          	beq	x7,x11,41014598 <SID_ZA64RS_03_lrd_scw_passed>
    41014588:	017785b7          	lui	x11,0x1778
    4101458c:	0085859b          	addiw	x11,x11,8 # 1778008 <failed_addr>
    41014590:	0005bb03          	ld	x22,0(x11)
    41014594:	000b0067          	jr	x22

0000000041014598 <SID_ZA64RS_03_lrd_scw_passed>:
    41014598:	00f00f9b          	addiw	x31,x0,15
    4101459c:	01cf9f93          	slli	x31,x31,0x1c
    410145a0:	001f8f93          	addi	x31,x31,1
    410145a4:	00000073          	ecall

00000000410145a8 <SID_ZA64RS_05_w>:
    410145a8:	0b326137          	lui	x2,0xb326
    410145ac:	31d1011b          	addiw	x2,x2,797 # b32631d <pma_region_2_size+0x732631d>
    410145b0:	00d11113          	slli	x2,x2,0xd
    410145b4:	000012b7          	lui	x5,0x1
    410145b8:	00510133          	add	x2,x2,x5
    410145bc:	ff017113          	andi	x2,x2,-16
    410145c0:	00000b93          	li	x23,0
    410145c4:	01e436b7          	lui	x13,0x1e43
    410145c8:	ac36869b          	addiw	x13,x13,-1341 # 1e42ac3 <__section_os_data_1+0x6c9ac3>
    410145cc:	00c69693          	slli	x13,x13,0xc
    410145d0:	24968693          	addi	x13,x13,585
    410145d4:	00c69693          	slli	x13,x13,0xc
    410145d8:	06000993          	li	x19,96
    410145dc:	01368cb3          	add	x25,x13,x19
    410145e0:	100ca92f          	lr.w	x18,(x25)
    410145e4:	01e43eb7          	lui	x29,0x1e43
    410145e8:	ac3e8e9b          	addiw	x29,x29,-1341 # 1e42ac3 <__section_os_data_1+0x6c9ac3>
    410145ec:	00ce9e93          	slli	x29,x29,0xc
    410145f0:	249e8e93          	addi	x29,x29,585
    410145f4:	00ce9e93          	slli	x29,x29,0xc
    410145f8:	02000a13          	li	x20,32
    410145fc:	014e8d33          	add	x26,x29,x20
    41014600:	000457b7          	lui	x15,0x45
    41014604:	1237879b          	addiw	x15,x15,291 # 45123 <mem8+0x123>
    41014608:	00d79793          	slli	x15,x15,0xd
    4101460c:	e6e78793          	addi	x15,x15,-402
    41014610:	18fd2eaf          	sc.w	x29,x15,(x26)
    41014614:	017e9a63          	bne	x29,x23,41014628 <pass_label_8>
    41014618:	017786b7          	lui	x13,0x1778
    4101461c:	0086869b          	addiw	x13,x13,8 # 1778008 <failed_addr>
    41014620:	0006b903          	ld	x18,0(x13)
    41014624:	00090067          	jr	x18

0000000041014628 <pass_label_8>:
    41014628:	01e436b7          	lui	x13,0x1e43
    4101462c:	ac36869b          	addiw	x13,x13,-1341 # 1e42ac3 <__section_os_data_1+0x6c9ac3>
    41014630:	00c69693          	slli	x13,x13,0xc
    41014634:	24968693          	addi	x13,x13,585
    41014638:	00c69693          	slli	x13,x13,0xc
    4101463c:	06000313          	li	x6,96
    41014640:	00668db3          	add	x27,x13,x6
    41014644:	100da32f          	lr.w	x6,(x27)
    41014648:	01e43cb7          	lui	x25,0x1e43
    4101464c:	ac3c8c9b          	addiw	x25,x25,-1341 # 1e42ac3 <__section_os_data_1+0x6c9ac3>
    41014650:	00cc9c93          	slli	x25,x25,0xc
    41014654:	249c8c93          	addi	x25,x25,585
    41014658:	00cc9c93          	slli	x25,x25,0xc
    4101465c:	06000593          	li	x11,96
    41014660:	00bc8d33          	add	x26,x25,x11
    41014664:	000eceb7          	lui	x29,0xec
    41014668:	8ade8e9b          	addiw	x29,x29,-1875 # eb8ad <mem4+0x9e8ad>
    4101466c:	00ce9e93          	slli	x29,x29,0xc
    41014670:	8d1e8e93          	addi	x29,x29,-1839
    41014674:	19dd282f          	sc.w	x16,x29,(x26)
    41014678:	01780a63          	beq	x16,x23,4101468c <SID_ZA64RS_05_w_passed>
    4101467c:	017789b7          	lui	x19,0x1778
    41014680:	0089899b          	addiw	x19,x19,8 # 1778008 <failed_addr>
    41014684:	0009b403          	ld	x8,0(x19)
    41014688:	00040067          	jr	x8

000000004101468c <SID_ZA64RS_05_w_passed>:
    4101468c:	00f00f9b          	addiw	x31,x0,15
    41014690:	01cf9f93          	slli	x31,x31,0x1c
    41014694:	001f8f93          	addi	x31,x31,1
    41014698:	00000073          	ecall

000000004101469c <SID_ZA64RS_05_d>:
    4101469c:	02e30137          	lui	x2,0x2e30
    410146a0:	a8d1011b          	addiw	x2,x2,-1395 # 2e2fa8d <__section_os_data_1+0x16b6a8d>
    410146a4:	00f11113          	slli	x2,x2,0xf
    410146a8:	000012b7          	lui	x5,0x1
    410146ac:	00510133          	add	x2,x2,x5
    410146b0:	ff017113          	andi	x2,x2,-16
    410146b4:	00000893          	li	x17,0
    410146b8:	4234acb7          	lui	x25,0x4234a
    410146bc:	e25c8c9b          	addiw	x25,x25,-475 # 42349e25 <__pagetable_map_os_0x00000000421be000+0x18be25>
    410146c0:	00fc9c93          	slli	x25,x25,0xf
    410146c4:	06000c13          	li	x24,96
    410146c8:	018c8633          	add	x12,x25,x24
    410146cc:	10063d2f          	lr.d	x26,(x12)
    410146d0:	4234aab7          	lui	x21,0x4234a
    410146d4:	e25a8a9b          	addiw	x21,x21,-475 # 42349e25 <__pagetable_map_os_0x00000000421be000+0x18be25>
    410146d8:	00fa9a93          	slli	x21,x21,0xf
    410146dc:	02000d93          	li	x27,32
    410146e0:	01ba89b3          	add	x19,x21,x27
    410146e4:	7b298bb7          	lui	x23,0x7b298
    410146e8:	d0eb8b9b          	addiw	x23,x23,-754 # 7b297d0e <pma_region_2_end+0x36256d0e>
    410146ec:	1979ba2f          	sc.d	x20,x23,(x19)
    410146f0:	011a1a63          	bne	x20,x17,41014704 <pass_label_10>
    410146f4:	01778337          	lui	x6,0x1778
    410146f8:	0083031b          	addiw	x6,x6,8 # 1778008 <failed_addr>
    410146fc:	00033603          	ld	x12,0(x6)
    41014700:	00060067          	jr	x12

0000000041014704 <pass_label_10>:
    41014704:	4234ad37          	lui	x26,0x4234a
    41014708:	e25d0d1b          	addiw	x26,x26,-475 # 42349e25 <__pagetable_map_os_0x00000000421be000+0x18be25>
    4101470c:	00fd1d13          	slli	x26,x26,0xf
    41014710:	06000993          	li	x19,96
    41014714:	013d0bb3          	add	x23,x26,x19
    41014718:	100bbb2f          	lr.d	x22,(x23)
    4101471c:	4234acb7          	lui	x25,0x4234a
    41014720:	e25c8c9b          	addiw	x25,x25,-475 # 42349e25 <__pagetable_map_os_0x00000000421be000+0x18be25>
    41014724:	00fc9c93          	slli	x25,x25,0xf
    41014728:	06000613          	li	x12,96
    4101472c:	00cc83b3          	add	x7,x25,x12
    41014730:	0000e837          	lui	x16,0xe
    41014734:	eb98081b          	addiw	x16,x16,-327 # deb9 <SID_ZA64RS_03_lrd_scw_stack+0x3eb9>
    41014738:	01081813          	slli	x16,x16,0x10
    4101473c:	c4f80813          	addi	x16,x16,-945
    41014740:	1903bb2f          	sc.d	x22,x16,(x7)
    41014744:	011b0a63          	beq	x22,x17,41014758 <SID_ZA64RS_05_d_passed>
    41014748:	01778737          	lui	x14,0x1778
    4101474c:	0087071b          	addiw	x14,x14,8 # 1778008 <failed_addr>
    41014750:	00073983          	ld	x19,0(x14)
    41014754:	00098067          	jr	x19

0000000041014758 <SID_ZA64RS_05_d_passed>:
    41014758:	00f00f9b          	addiw	x31,x0,15
    4101475c:	01cf9f93          	slli	x31,x31,0x1c
    41014760:	001f8f93          	addi	x31,x31,1
    41014764:	00000073          	ecall

0000000041014768 <SID_ZA64RS_04_lrw_scd>:
    41014768:	0031d137          	lui	x2,0x31d
    4101476c:	c091011b          	addiw	x2,x2,-1015 # 31cc09 <mem4+0x2cfc09>
    41014770:	00c11113          	slli	x2,x2,0xc
    41014774:	000012b7          	lui	x5,0x1
    41014778:	00510133          	add	x2,x2,x5
    4101477c:	ff017113          	andi	x2,x2,-16
    41014780:	00000413          	li	x8,0
    41014784:	00045c37          	lui	x24,0x45
    41014788:	06000793          	li	x15,96
    4101478c:	00fc03b3          	add	x7,x24,x15
    41014790:	1003afaf          	lr.w	x31,(x7)
    41014794:	00045537          	lui	x10,0x45
    41014798:	02000593          	li	x11,32
    4101479c:	00b50333          	add	x6,x10,x11
    410147a0:	00025db7          	lui	x27,0x25
    410147a4:	67dd8d9b          	addiw	x27,x27,1661 # 2567d <SID_ZA64RS_01_stack+0x967d>
    410147a8:	00ed9d93          	slli	x27,x27,0xe
    410147ac:	a54d8d93          	addi	x27,x27,-1452
    410147b0:	19b334af          	sc.d	x9,x27,(x6)
    410147b4:	00849a63          	bne	x9,x8,410147c8 <pass_label_12>
    410147b8:	017784b7          	lui	x9,0x1778
    410147bc:	0084849b          	addiw	x9,x9,8 # 1778008 <failed_addr>
    410147c0:	0004b483          	ld	x9,0(x9)
    410147c4:	00048067          	jr	x9

00000000410147c8 <pass_label_12>:
    410147c8:	00045ab7          	lui	x21,0x45
    410147cc:	06000a13          	li	x20,96
    410147d0:	014a8bb3          	add	x23,x21,x20
    410147d4:	100ba82f          	lr.w	x16,(x23)
    410147d8:	00045db7          	lui	x27,0x45
    410147dc:	06000993          	li	x19,96
    410147e0:	013d8c33          	add	x24,x27,x19
    410147e4:	2e47eeb7          	lui	x29,0x2e47e
    410147e8:	c11e8e9b          	addiw	x29,x29,-1007 # 2e47dc11 <SID_ZA64RS_03_d_stack+0xb197c11>
    410147ec:	19dc372f          	sc.d	x14,x29,(x24)
    410147f0:	00870a63          	beq	x14,x8,41014804 <SID_ZA64RS_04_lrw_scd_passed>
    410147f4:	01778cb7          	lui	x25,0x1778
    410147f8:	008c8c9b          	addiw	x25,x25,8 # 1778008 <failed_addr>
    410147fc:	000cbd03          	ld	x26,0(x25)
    41014800:	000d0067          	jr	x26

0000000041014804 <SID_ZA64RS_04_lrw_scd_passed>:
    41014804:	00f00f9b          	addiw	x31,x0,15
    41014808:	01cf9f93          	slli	x31,x31,0x1c
    4101480c:	001f8f93          	addi	x31,x31,1
    41014810:	00000073          	ecall

0000000041014814 <SID_ZA64RS_04_lrd_scw>:
    41014814:	0823e137          	lui	x2,0x823e
    41014818:	abf1011b          	addiw	x2,x2,-1345 # 823dabf <pma_region_2_size+0x423dabf>
    4101481c:	01111113          	slli	x2,x2,0x11
    41014820:	000012b7          	lui	x5,0x1
    41014824:	00510133          	add	x2,x2,x5
    41014828:	ff017113          	andi	x2,x2,-16
    4101482c:	00000593          	li	x11,0
    41014830:	157f5e37          	lui	x28,0x157f5
    41014834:	06000793          	li	x15,96
    41014838:	00fe0eb3          	add	x29,x28,x15
    4101483c:	100ebe2f          	lr.d	x28,(x29)
    41014840:	157f58b7          	lui	x17,0x157f5
    41014844:	02000b93          	li	x23,32
    41014848:	01788e33          	add	x28,x17,x23
    4101484c:	4155d9b7          	lui	x19,0x4155d
    41014850:	7f29899b          	addiw	x19,x19,2034 # 4155d7f2 <SID_ZA64RS_04_lrw_scd_stack_pa+0x2f17f2>
    41014854:	193e2d2f          	sc.w	x26,x19,(x28)
    41014858:	00bd1a63          	bne	x26,x11,4101486c <pass_label_14>
    4101485c:	01778db7          	lui	x27,0x1778
    41014860:	008d8d9b          	addiw	x27,x27,8 # 1778008 <failed_addr>
    41014864:	000db483          	ld	x9,0(x27)
    41014868:	00048067          	jr	x9

000000004101486c <pass_label_14>:
    4101486c:	157f5337          	lui	x6,0x157f5
    41014870:	06000a93          	li	x21,96
    41014874:	01530f33          	add	x30,x6,x21
    41014878:	100f3c2f          	lr.d	x24,(x30)
    4101487c:	157f5eb7          	lui	x29,0x157f5
    41014880:	06000813          	li	x16,96
    41014884:	010e8b33          	add	x22,x29,x16
    41014888:	00044637          	lui	x12,0x44
    4101488c:	8136061b          	addiw	x12,x12,-2029 # 43813 <pma_region_0_size+0x3813>
    41014890:	00d61613          	slli	x12,x12,0xd
    41014894:	6c760613          	addi	x12,x12,1735
    41014898:	18cb2faf          	sc.w	x31,x12,(x22)
    4101489c:	00bf8a63          	beq	x31,x11,410148b0 <SID_ZA64RS_04_lrd_scw_passed>
    410148a0:	01778637          	lui	x12,0x1778
    410148a4:	0086061b          	addiw	x12,x12,8 # 1778008 <failed_addr>
    410148a8:	00063303          	ld	x6,0(x12)
    410148ac:	00030067          	jr	x6 # 157f5000 <mem9>

00000000410148b0 <SID_ZA64RS_04_lrd_scw_passed>:
    410148b0:	00f00f9b          	addiw	x31,x0,15
    410148b4:	01cf9f93          	slli	x31,x31,0x1c
    410148b8:	001f8f93          	addi	x31,x31,1
    410148bc:	00000073          	ecall

00000000410148c0 <test_cleanup>:
    410148c0:	00f00f9b          	addiw	x31,x0,15
    410148c4:	01cf9f93          	slli	x31,x31,0x1c
    410148c8:	001f8f93          	addi	x31,x31,1
    410148cc:	00000073          	ecall

00000000410148d0 <local_test_failed>:
    410148d0:	00f00f9b          	addiw	x31,x0,15
    410148d4:	01cf9f93          	slli	x31,x31,0x1c
    410148d8:	002f8f93          	addi	x31,x31,2
    410148dc:	00000073          	ecall

Disassembly of section .csr_machine_0:

0000000041214000 <csr_access_mstatus_machine_key_2_set-0x30>:
    41214000:	44aa0fb7          	lui	x31,0x44aa0
    41214004:	0a0f8f9b          	addiw	x31,x31,160 # 44aa00a0 <machine_csr_jump_table_flags_pa>
    41214008:	000fbf83          	ld	x31,0(x31)
    4121400c:	00200293          	li	x5,2
    41214010:	025f8063          	beq	x31,x5,41214030 <csr_access_mstatus_machine_key_2_set>
    41214014:	00100293          	li	x5,1
    41214018:	025f8063          	beq	x31,x5,41214038 <csr_access_mstatus_machine_key_1_clear>
    4121401c:	00400293          	li	x5,4
    41214020:	025f8063          	beq	x31,x5,41214040 <csr_access_mtvec_machine_key_4_set>
    41214024:	00300293          	li	x5,3
    41214028:	025f8063          	beq	x31,x5,41214048 <csr_access_mtvec_machine_key_3_clear>
    4121402c:	0240006f          	j	41214050 <end_machine_label>

0000000041214030 <csr_access_mstatus_machine_key_2_set>:
    41214030:	3003a073          	csrs	mstatus,x7
    41214034:	01c0006f          	j	41214050 <end_machine_label>

0000000041214038 <csr_access_mstatus_machine_key_1_clear>:
    41214038:	3003b073          	csrc	mstatus,x7
    4121403c:	0140006f          	j	41214050 <end_machine_label>

0000000041214040 <csr_access_mtvec_machine_key_4_set>:
    41214040:	3053a073          	csrs	mtvec,x7
    41214044:	00c0006f          	j	41214050 <end_machine_label>

0000000041214048 <csr_access_mtvec_machine_key_3_clear>:
    41214048:	3053b073          	csrc	mtvec,x7
    4121404c:	0040006f          	j	41214050 <end_machine_label>

0000000041214050 <end_machine_label>:
    41214050:	000f0fb7          	lui	x31,0xf0
    41214054:	001f8f9b          	addiw	x31,x31,1 # f0001 <mem4+0xa3001>
    41214058:	00cf9f93          	slli	x31,x31,0xc
    4121405c:	004f8f93          	addi	x31,x31,4
    41214060:	00000073          	ecall

Disassembly of section .csr_super_0:

0000000041215000 <end_super_label-0x10>:
    41215000:	01778fb7          	lui	x31,0x1778
    41215004:	0a8f8f9b          	addiw	x31,x31,168 # 17780a8 <super_csr_jump_table_flags>
    41215008:	000fbf83          	ld	x31,0(x31)
    4121500c:	0040006f          	j	41215010 <end_super_label>

0000000041215010 <end_super_label>:
    41215010:	000f0fb7          	lui	x31,0xf0
    41215014:	001f8f9b          	addiw	x31,x31,1 # f0001 <mem4+0xa3001>
    41215018:	00cf9f93          	slli	x31,x31,0xc
    4121501c:	004f8f93          	addi	x31,x31,4
    41215020:	00000073          	ecall

Disassembly of section .os_data:

0000000001778000 <passed_addr_ptr>:
 1778000:	4000                	.insn	2, 0x4000
 1778002:	4101                	.insn	2, 0x4101
 1778004:	0000                	.insn	2, 0x0000
	...

0000000001778008 <failed_addr_ptr>:
 1778008:	4010                	.insn	2, 0x4010
 177800a:	4101                	.insn	2, 0x4101
 177800c:	0000                	.insn	2, 0x0000
	...

0000000001778010 <end_test_addr_ptr>:
 1778010:	4020                	.insn	2, 0x4020
 1778012:	4101                	.insn	2, 0x4101
 1778014:	0000                	.insn	2, 0x0000
	...

0000000001778018 <os_passed_addr_ptr>:
 1778018:	0784                	.insn	2, 0x0784
 177801a:	4100                	.insn	2, 0x4100
 177801c:	0000                	.insn	2, 0x0000
	...

0000000001778020 <os_failed_addr_ptr>:
 1778020:	0794                	.insn	2, 0x0794
 1778022:	4100                	.insn	2, 0x4100
 1778024:	0000                	.insn	2, 0x0000
	...

0000000001778028 <os_end_test_addr_ptr>:
 1778028:	07a0                	.insn	2, 0x07a0
 177802a:	4100                	.insn	2, 0x4100
 177802c:	0000                	.insn	2, 0x0000
	...

0000000001778030 <rvcp_prefix_str_data>:
 1778030:	5652                	.insn	2, 0x5652
 1778032:	203a5043          	fmadd.s	f0,f20,f3,f4,unknown
 1778036:	6554                	.insn	2, 0x6554
 1778038:	46207473          	csrrci	x8,0x462,0
 177803c:	6c69                	.insn	2, 0x6c69
 177803e:	2065                	.insn	2, 0x2065
	...

0000000001778041 <rvcp_testname_str_data>:
 1778041:	7074                	.insn	2, 0x7074
 1778043:	7a5f 3661 7234      	.insn	6, 0x723436617a5f
 1778049:	00315f73          	csrrwi	x30,fcsr,2

000000000177804d <rvcp_passed_str_data>:
 177804d:	4150                	.insn	2, 0x4150
 177804f:	44455353          	fround.h	f6,f10,unknown
	...

0000000001778054 <rvcp_failed_str_data>:
 1778054:	4146                	.insn	2, 0x4146
 1778056:	4c49                	.insn	2, 0x4c49
 1778058:	4445                	.insn	2, 0x4445
	...

000000000177805b <rvcp_space_str_data>:
 177805b:	0020                	.insn	2, 0x0020

000000000177805d <rvcp_newline_str_data>:
 177805d:	000a                	.insn	2, 0x000a
	...

0000000001778060 <excp_ignored_count_mem>:
	...

0000000001778068 <machine_flags_mem>:
	...

0000000001778070 <user_flags_mem>:
	...

0000000001778078 <super_flags_mem>:
	...

0000000001778080 <machine_area_mem>:
	...

0000000001778088 <user_area_mem>:
	...

0000000001778090 <super_area_mem>:
	...

0000000001778098 <zero_data_mem>:
	...

00000000017780a0 <machine_csr_jump_table_flags_mem>:
	...

00000000017780a8 <super_csr_jump_table_flags_mem>:
	...

00000000017780b0 <pte_access_flags_mem>:
	...

00000000017780c8 <num_harts_ended_mem>:
	...

00000000017780d0 <num_hard_fails_mem>:
	...

Disassembly of section .hart_context:

0000000040a92000 <hart_context_0>:
    40a92000:	1000                	.insn	2, 0x1000
    40a92002:	1861                	.insn	2, 0x1861
    40a92004:	0001                	.insn	2, 0x0001
	...
    40a92016:	0000                	.insn	2, 0x0000
    40a92018:	0001                	.insn	2, 0x0001
    40a9201a:	0000                	.insn	2, 0x0000
    40a9201c:	0000                	.insn	2, 0x0000
    40a9201e:	0000                	.insn	2, 0x0000
    40a92020:	ffff                	.insn	2, 0xffff
    40a92022:	ffff                	.insn	2, 0xffff
    40a92024:	ffff                	.insn	2, 0xffff
    40a92026:	ffff                	.insn	2, 0xffff
    40a92028:	ffff                	.insn	2, 0xffff
    40a9202a:	ffff                	.insn	2, 0xffff
    40a9202c:	ffff                	.insn	2, 0xffff
    40a9202e:	ffff                	.insn	2, 0xffff
    40a92030:	ffff                	.insn	2, 0xffff
    40a92032:	ffff                	.insn	2, 0xffff
    40a92034:	ffff                	.insn	2, 0xffff
    40a92036:	ffff                	.insn	2, 0xffff
	...
    40a92050:	00ff 0000 0000 0000 	.insn	10, 0x00ff00000000000000ff
    40a92058:	00ff 
	...
    40a92176:	0000                	.insn	2, 0x0000
    40a92178:	ffff                	.insn	2, 0xffff
    40a9217a:	ffff                	.insn	2, 0xffff
    40a9217c:	ffff                	.insn	2, 0xffff
    40a9217e:	ffff                	.insn	2, 0xffff
	...
    40a92188:	ffff                	.insn	2, 0xffff
    40a9218a:	ffff                	.insn	2, 0xffff
	...

Disassembly of section .hart_stack_0:

0000000118610000 <hart_stack_0>:
	...

Disassembly of section .io_htif:

0000000041040000 <tohost>:
	...

0000000041040040 <fromhost>:
	...

Disassembly of section .mem0:

0000000037134000 <.mem0>:
    37134000:	c0de                	.insn	2, 0xc0de
    37134002:	c001                	.insn	2, 0xc001
    37134004:	0000                	.insn	2, 0x0000
	...

Disassembly of section .mem1:

00000000009a4000 <.mem1>:
  9a4000:	c0de                	.insn	2, 0xc0de
  9a4002:	c001                	.insn	2, 0xc001
  9a4004:	0000                	.insn	2, 0x0000
	...

Disassembly of section .mem2:

00037302064c1000 <.mem2>:
   37302064c1000:	c0de                	.insn	2, 0xc0de
   37302064c1002:	c001                	.insn	2, 0xc001
   37302064c1004:	0000                	.insn	2, 0x0000
	...

Disassembly of section .mem3:

00000092445e6000 <.mem3>:
  92445e6000:	c0de                	.insn	2, 0xc0de
  92445e6002:	c001                	.insn	2, 0xc001
  92445e6004:	0000                	.insn	2, 0x0000
	...

Disassembly of section .mem4:

000000000004d000 <.mem4>:
   4d000:	c0de                	.insn	2, 0xc0de
   4d002:	c001                	.insn	2, 0xc001
   4d004:	0000                	.insn	2, 0x0000
	...

Disassembly of section .mem5:

00000013b0d10000 <.mem5>:
  13b0d10000:	c0de                	.insn	2, 0xc0de
  13b0d10002:	c001                	.insn	2, 0xc001
  13b0d10004:	0000                	.insn	2, 0x0000
	...

Disassembly of section .mem6:

0001e42ac3249000 <.mem6>:
   1e42ac3249000:	c0de                	.insn	2, 0xc0de
   1e42ac3249002:	c001                	.insn	2, 0xc001
   1e42ac3249004:	0000                	.insn	2, 0x0000
	...

Disassembly of section .mem7:

0000211a4f128000 <.mem7>:
    211a4f128000:	c0de                	.insn	2, 0xc0de
    211a4f128002:	c001                	.insn	2, 0xc001
    211a4f128004:	0000                	.insn	2, 0x0000
	...

Disassembly of section .mem8:

0000000000045000 <.mem8>:
   45000:	c0de                	.insn	2, 0xc0de
   45002:	c001                	.insn	2, 0xc001
   45004:	0000                	.insn	2, 0x0000
	...

Disassembly of section .mem9:

00000000157f5000 <.mem9>:
    157f5000:	c0de                	.insn	2, 0xc0de
    157f5002:	c001                	.insn	2, 0xc001
    157f5004:	0000                	.insn	2, 0x0000
	...

Disassembly of section .tp_csr_storage:

0000019049084000 <.tp_csr_storage>:
 19049084000:	c0de                	.insn	2, 0xc0de
 19049084002:	c001                	.insn	2, 0xc001
 19049084004:	0000                	.insn	2, 0x0000
	...

Disassembly of section .SID_ZA64RS_01_stack:

000000000001c000 <.SID_ZA64RS_01_stack>:
   1c000:	c0de                	.insn	2, 0xc0de
   1c002:	c001                	.insn	2, 0xc001
   1c004:	0000                	.insn	2, 0x0000
	...

Disassembly of section .SID_ZA64RS_02_stack:

0001f1cbf433f000 <.SID_ZA64RS_02_stack>:
   1f1cbf433f000:	c0de                	.insn	2, 0xc0de
   1f1cbf433f002:	c001                	.insn	2, 0xc001
   1f1cbf433f004:	0000                	.insn	2, 0x0000
	...

Disassembly of section .SID_ZA64RS_03_w_stack:

004d0a721daf9000 <.SID_ZA64RS_03_w_stack>:
  4d0a721daf9000:	c0de                	.insn	2, 0xc0de
  4d0a721daf9002:	c001                	.insn	2, 0xc001
  4d0a721daf9004:	0000                	.insn	2, 0x0000
	...

Disassembly of section .SID_ZA64RS_03_d_stack:

00000000232e6000 <.SID_ZA64RS_03_d_stack>:
    232e6000:	c0de                	.insn	2, 0xc0de
    232e6002:	c001                	.insn	2, 0xc001
    232e6004:	0000                	.insn	2, 0x0000
	...

Disassembly of section .SID_ZA64RS_03_lrw_scd_stack:

00002eb8c6606000 <.SID_ZA64RS_03_lrw_scd_stack>:
    2eb8c6606000:	c0de                	.insn	2, 0xc0de
    2eb8c6606002:	c001                	.insn	2, 0xc001
    2eb8c6606004:	0000                	.insn	2, 0x0000
	...

Disassembly of section .SID_ZA64RS_03_lrd_scw_stack:

000000000000a000 <.SID_ZA64RS_03_lrd_scw_stack>:
    a000:	c0de                	.insn	2, 0xc0de
    a002:	c001                	.insn	2, 0xc001
    a004:	0000                	.insn	2, 0x0000
	...

Disassembly of section .SID_ZA64RS_05_w_stack:

000001664c63a000 <.SID_ZA64RS_05_w_stack>:
 1664c63a000:	c0de                	.insn	2, 0xc0de
 1664c63a002:	c001                	.insn	2, 0xc001
 1664c63a004:	0000                	.insn	2, 0x0000
	...

Disassembly of section .SID_ZA64RS_05_d_stack:

000001717d468000 <.SID_ZA64RS_05_d_stack>:
 1717d468000:	c0de                	.insn	2, 0xc0de
 1717d468002:	c001                	.insn	2, 0xc001
 1717d468004:	0000                	.insn	2, 0x0000
	...

Disassembly of section .SID_ZA64RS_04_lrw_scd_stack:

000000031cc09000 <.SID_ZA64RS_04_lrw_scd_stack>:
   31cc09000:	c0de                	.insn	2, 0xc0de
   31cc09002:	c001                	.insn	2, 0xc001
   31cc09004:	0000                	.insn	2, 0x0000
	...

Disassembly of section .SID_ZA64RS_04_lrd_scw_stack:

00001047b57e0000 <.SID_ZA64RS_04_lrd_scw_stack>:
    1047b57e0000:	c0de                	.insn	2, 0xc0de
    1047b57e0002:	c001                	.insn	2, 0xc001
    1047b57e0004:	0000                	.insn	2, 0x0000
	...

Disassembly of section .__pagetable_map_os_0x0000000044d28000:

0000000044d28000 <__pagetable_map_os_0x0000000044d28000>:
    44d28000:	6801                	.insn	2, 0x6801
    44d28002:	1126                	.insn	2, 0x1126
    44d28004:	0000                	.insn	2, 0x0000
    44d28006:	0000                	.insn	2, 0x0000
    44d28008:	a801                	.insn	2, 0xa801
    44d2800a:	00001127          	fsh	f0,2(x0) # 2 <CHECK_EXCP_MODE_HS>
	...
    44d28016:	0000                	.insn	2, 0x0000
    44d28018:	8c01                	.insn	2, 0x8c01
    44d2801a:	1119                	.insn	2, 0x1119
	...
    44d28268:	6c01                	.insn	2, 0x6c01
    44d2826a:	00001127          	fsh	f0,2(x0) # 2 <CHECK_EXCP_MODE_HS>
	...

Disassembly of section .__pagetable_map_os_0x000000004499a000:

000000004499a000 <__pagetable_map_os_0x000000004499a000>:
    4499a000:	d401                	.insn	2, 0xd401
    4499a002:	1048                	.insn	2, 0x1048
    4499a004:	0000                	.insn	2, 0x0000
    4499a006:	0000                	.insn	2, 0x0000
    4499a008:	bc01                	.insn	2, 0xbc01
    4499a00a:	1134                	.insn	2, 0x1134
    4499a00c:	0000                	.insn	2, 0x0000
    4499a00e:	0000                	.insn	2, 0x0000
    4499a010:	7801                	.insn	2, 0x7801
    4499a012:	10ae                	.insn	2, 0x10ae
    4499a014:	0000                	.insn	2, 0x0000
    4499a016:	0000                	.insn	2, 0x0000
    4499a018:	1c01                	.insn	2, 0x1c01
    4499a01a:	00001127          	fsh	f0,2(x0) # 2 <CHECK_EXCP_MODE_HS>
	...
    4499a0fe:	0000                	.insn	2, 0x0000
    4499a100:	2401                	.insn	2, 0x2401
    4499a102:	0000112b          	.insn	4, 0x112b
	...
    4499a20e:	0000                	.insn	2, 0x0000
    4499a210:	9801                	.insn	2, 0x9801
    4499a212:	10b1                	.insn	2, 0x10b1
	...
    4499a2e8:	1001                	.insn	2, 0x1001
    4499a2ea:	1134                	.insn	2, 0x1134
    4499a2ec:	0000                	.insn	2, 0x0000
	...

Disassembly of section .__pagetable_map_os_0x0000000041235000:

0000000041235000 <__pagetable_map_os_0x0000000041235000>:
    41235000:	c801                	.insn	2, 0xc801
    41235002:	1134                	.insn	2, 0x1134
    41235004:	0000                	.insn	2, 0x0000
    41235006:	0000                	.insn	2, 0x0000
    41235008:	2c01                	.insn	2, 0x2c01
    4123500a:	113d                	.insn	2, 0x113d
	...
    41235020:	2401                	.insn	2, 0x2401
    41235022:	113d                	.insn	2, 0x113d
	...
    41235060:	3c01                	.insn	2, 0x3c01
    41235062:	00001093          	slli	x1,x0,0x0
	...
    4123526e:	0000                	.insn	2, 0x0000
    41235270:	6401                	.insn	2, 0x6401
    41235272:	1134                	.insn	2, 0x1134
    41235274:	0000                	.insn	2, 0x0000
	...

Disassembly of section .__pagetable_map_os_0x0000000044f4b000:

0000000044f4b000 <__pagetable_map_os_0x0000000044f4b000>:
	...
    44f4b028:	7801                	.insn	2, 0x7801
    44f4b02a:	1126                	.insn	2, 0x1126
	...
    44f4b040:	5801                	.insn	2, 0x5801
    44f4b042:	10c8                	.insn	2, 0x10c8
    44f4b044:	0000                	.insn	2, 0x0000
    44f4b046:	0000                	.insn	2, 0x0000
    44f4b048:	a401                	.insn	2, 0xa401
    44f4b04a:	113c                	.insn	2, 0x113c
	...
    44f4b130:	cc01                	.insn	2, 0xcc01
    44f4b132:	1134                	.insn	2, 0x1134
    44f4b134:	0000                	.insn	2, 0x0000
	...

Disassembly of section .__pagetable_map_os_0x0000000043216000:

0000000043216000 <__pagetable_map_os_0x0000000043216000>:
	...
    43216080:	104040cf          	fnmadd.s	f1,f0,f4,f2,rmm
    43216084:	0000                	.insn	2, 0x0000
    43216086:	0000                	.insn	2, 0x0000
    43216088:	104044cf          	fnmadd.s	f9,f0,f4,f2,rmm
    4321608c:	0000                	.insn	2, 0x0000
    4321608e:	0000                	.insn	2, 0x0000
    43216090:	104048cf          	fnmadd.s	f17,f0,f4,f2,rmm
    43216094:	0000                	.insn	2, 0x0000
    43216096:	0000                	.insn	2, 0x0000
    43216098:	10404ccf          	fnmadd.s	f25,f0,f4,f2,rmm
    4321609c:	0000                	.insn	2, 0x0000
    4321609e:	0000                	.insn	2, 0x0000
    432160a0:	10e800cf          	fnmadd.s	f1,f16,f14,f2,rne
    432160a4:	0000                	.insn	2, 0x0000
    432160a6:	0000                	.insn	2, 0x0000
    432160a8:	10e804cf          	fnmadd.s	f9,f16,f14,f2,rne
    432160ac:	0000                	.insn	2, 0x0000
    432160ae:	0000                	.insn	2, 0x0000
    432160b0:	10e808cf          	fnmadd.s	f17,f16,f14,f2,rne
    432160b4:	0000                	.insn	2, 0x0000
    432160b6:	0000                	.insn	2, 0x0000
    432160b8:	10e80ccf          	fnmadd.s	f25,f16,f14,f2,rne
    432160bc:	0000                	.insn	2, 0x0000
    432160be:	0000                	.insn	2, 0x0000
    432160c0:	10e810cf          	fnmadd.s	f1,f16,f14,f2,rtz
    432160c4:	0000                	.insn	2, 0x0000
    432160c6:	0000                	.insn	2, 0x0000
    432160c8:	10e814cf          	fnmadd.s	f9,f16,f14,f2,rtz
    432160cc:	0000                	.insn	2, 0x0000
    432160ce:	0000                	.insn	2, 0x0000
    432160d0:	10e818cf          	fnmadd.s	f17,f16,f14,f2,rtz
    432160d4:	0000                	.insn	2, 0x0000
    432160d6:	0000                	.insn	2, 0x0000
    432160d8:	10e81ccf          	fnmadd.s	f25,f16,f14,f2,rtz
    432160dc:	0000                	.insn	2, 0x0000
    432160de:	0000                	.insn	2, 0x0000
    432160e0:	10e820cf          	fnmadd.s	f1,f16,f14,f2,rdn
    432160e4:	0000                	.insn	2, 0x0000
    432160e6:	0000                	.insn	2, 0x0000
    432160e8:	10e824cf          	fnmadd.s	f9,f16,f14,f2,rdn
    432160ec:	0000                	.insn	2, 0x0000
    432160ee:	0000                	.insn	2, 0x0000
    432160f0:	10e828cf          	fnmadd.s	f17,f16,f14,f2,rdn
    432160f4:	0000                	.insn	2, 0x0000
    432160f6:	0000                	.insn	2, 0x0000
    432160f8:	10e82ccf          	fnmadd.s	f25,f16,f14,f2,rdn
    432160fc:	0000                	.insn	2, 0x0000
    432160fe:	0000                	.insn	2, 0x0000
    43216100:	10e830cf          	fnmadd.s	f1,f16,f14,f2,rup
    43216104:	0000                	.insn	2, 0x0000
    43216106:	0000                	.insn	2, 0x0000
    43216108:	10e834cf          	fnmadd.s	f9,f16,f14,f2,rup
    4321610c:	0000                	.insn	2, 0x0000
    4321610e:	0000                	.insn	2, 0x0000
    43216110:	10e838cf          	fnmadd.s	f17,f16,f14,f2,rup
    43216114:	0000                	.insn	2, 0x0000
    43216116:	0000                	.insn	2, 0x0000
    43216118:	10e83ccf          	fnmadd.s	f25,f16,f14,f2,rup
    4321611c:	0000                	.insn	2, 0x0000
    4321611e:	0000                	.insn	2, 0x0000
    43216120:	10e840cf          	fnmadd.s	f1,f16,f14,f2,rmm
    43216124:	0000                	.insn	2, 0x0000
    43216126:	0000                	.insn	2, 0x0000
    43216128:	10e844cf          	fnmadd.s	f9,f16,f14,f2,rmm
    4321612c:	0000                	.insn	2, 0x0000
    4321612e:	0000                	.insn	2, 0x0000
    43216130:	10e848cf          	fnmadd.s	f17,f16,f14,f2,rmm
    43216134:	0000                	.insn	2, 0x0000
    43216136:	0000                	.insn	2, 0x0000
    43216138:	10e84ccf          	fnmadd.s	f25,f16,f14,f2,rmm
    4321613c:	0000                	.insn	2, 0x0000
    4321613e:	0000                	.insn	2, 0x0000
    43216140:	10e850cf          	fnmadd.s	f1,f16,f14,f2,unknown
    43216144:	0000                	.insn	2, 0x0000
    43216146:	0000                	.insn	2, 0x0000
    43216148:	10e854cf          	fnmadd.s	f9,f16,f14,f2,unknown
    4321614c:	0000                	.insn	2, 0x0000
    4321614e:	0000                	.insn	2, 0x0000
    43216150:	10e858cf          	fnmadd.s	f17,f16,f14,f2,unknown
    43216154:	0000                	.insn	2, 0x0000
    43216156:	0000                	.insn	2, 0x0000
    43216158:	10e85ccf          	fnmadd.s	f25,f16,f14,f2,unknown
    4321615c:	0000                	.insn	2, 0x0000
    4321615e:	0000                	.insn	2, 0x0000
    43216160:	10e860cf          	fnmadd.s	f1,f16,f14,f2,unknown
    43216164:	0000                	.insn	2, 0x0000
    43216166:	0000                	.insn	2, 0x0000
    43216168:	10e864cf          	fnmadd.s	f9,f16,f14,f2,unknown
    4321616c:	0000                	.insn	2, 0x0000
    4321616e:	0000                	.insn	2, 0x0000
    43216170:	10e868cf          	fnmadd.s	f17,f16,f14,f2,unknown
    43216174:	0000                	.insn	2, 0x0000
    43216176:	0000                	.insn	2, 0x0000
    43216178:	10e86ccf          	fnmadd.s	f25,f16,f14,f2,unknown
    4321617c:	0000                	.insn	2, 0x0000
    4321617e:	0000                	.insn	2, 0x0000
    43216180:	10e870cf          	fnmadd.s	f1,f16,f14,f2
    43216184:	0000                	.insn	2, 0x0000
    43216186:	0000                	.insn	2, 0x0000
    43216188:	10e874cf          	fnmadd.s	f9,f16,f14,f2
    4321618c:	0000                	.insn	2, 0x0000
    4321618e:	0000                	.insn	2, 0x0000
    43216190:	10e878cf          	fnmadd.s	f17,f16,f14,f2
    43216194:	0000                	.insn	2, 0x0000
    43216196:	0000                	.insn	2, 0x0000
    43216198:	10e87ccf          	fnmadd.s	f25,f16,f14,f2
    4321619c:	0000                	.insn	2, 0x0000
    4321619e:	0000                	.insn	2, 0x0000
    432161a0:	10e880cf          	fnmadd.s	f1,f17,f14,f2,rne
    432161a4:	0000                	.insn	2, 0x0000
    432161a6:	0000                	.insn	2, 0x0000
    432161a8:	10e884cf          	fnmadd.s	f9,f17,f14,f2,rne
    432161ac:	0000                	.insn	2, 0x0000
    432161ae:	0000                	.insn	2, 0x0000
    432161b0:	10e888cf          	fnmadd.s	f17,f17,f14,f2,rne
    432161b4:	0000                	.insn	2, 0x0000
    432161b6:	0000                	.insn	2, 0x0000
    432161b8:	10e88ccf          	fnmadd.s	f25,f17,f14,f2,rne
    432161bc:	0000                	.insn	2, 0x0000
    432161be:	0000                	.insn	2, 0x0000
    432161c0:	10e890cf          	fnmadd.s	f1,f17,f14,f2,rtz
    432161c4:	0000                	.insn	2, 0x0000
    432161c6:	0000                	.insn	2, 0x0000
    432161c8:	10e894cf          	fnmadd.s	f9,f17,f14,f2,rtz
    432161cc:	0000                	.insn	2, 0x0000
    432161ce:	0000                	.insn	2, 0x0000
    432161d0:	10e898cf          	fnmadd.s	f17,f17,f14,f2,rtz
    432161d4:	0000                	.insn	2, 0x0000
    432161d6:	0000                	.insn	2, 0x0000
    432161d8:	10e89ccf          	fnmadd.s	f25,f17,f14,f2,rtz
    432161dc:	0000                	.insn	2, 0x0000
    432161de:	0000                	.insn	2, 0x0000
    432161e0:	10e8a0cf          	fnmadd.s	f1,f17,f14,f2,rdn
    432161e4:	0000                	.insn	2, 0x0000
    432161e6:	0000                	.insn	2, 0x0000
    432161e8:	10e8a4cf          	fnmadd.s	f9,f17,f14,f2,rdn
    432161ec:	0000                	.insn	2, 0x0000
    432161ee:	0000                	.insn	2, 0x0000
    432161f0:	10e8a8cf          	fnmadd.s	f17,f17,f14,f2,rdn
    432161f4:	0000                	.insn	2, 0x0000
    432161f6:	0000                	.insn	2, 0x0000
    432161f8:	10e8accf          	fnmadd.s	f25,f17,f14,f2,rdn
    432161fc:	0000                	.insn	2, 0x0000
    432161fe:	0000                	.insn	2, 0x0000
    43216200:	104100cf          	fnmadd.s	f1,f2,f4,f2,rne
    43216204:	0000                	.insn	2, 0x0000
    43216206:	0000                	.insn	2, 0x0000
    43216208:	10e8b4cf          	fnmadd.s	f9,f17,f14,f2,rup
    4321620c:	0000                	.insn	2, 0x0000
    4321620e:	0000                	.insn	2, 0x0000
    43216210:	10e8b8cf          	fnmadd.s	f17,f17,f14,f2,rup
    43216214:	0000                	.insn	2, 0x0000
    43216216:	0000                	.insn	2, 0x0000
    43216218:	10e8bccf          	fnmadd.s	f25,f17,f14,f2,rup
    4321621c:	0000                	.insn	2, 0x0000
    4321621e:	0000                	.insn	2, 0x0000
    43216220:	10e8c0cf          	fnmadd.s	f1,f17,f14,f2,rmm
    43216224:	0000                	.insn	2, 0x0000
    43216226:	0000                	.insn	2, 0x0000
    43216228:	10e8c4cf          	fnmadd.s	f9,f17,f14,f2,rmm
    4321622c:	0000                	.insn	2, 0x0000
    4321622e:	0000                	.insn	2, 0x0000
    43216230:	10e8c8cf          	fnmadd.s	f17,f17,f14,f2,rmm
    43216234:	0000                	.insn	2, 0x0000
    43216236:	0000                	.insn	2, 0x0000
    43216238:	10e8cccf          	fnmadd.s	f25,f17,f14,f2,rmm
    4321623c:	0000                	.insn	2, 0x0000
    4321623e:	0000                	.insn	2, 0x0000
    43216240:	10e8d0cf          	fnmadd.s	f1,f17,f14,f2,unknown
    43216244:	0000                	.insn	2, 0x0000
    43216246:	0000                	.insn	2, 0x0000
    43216248:	10e8d4cf          	fnmadd.s	f9,f17,f14,f2,unknown
    4321624c:	0000                	.insn	2, 0x0000
    4321624e:	0000                	.insn	2, 0x0000
    43216250:	10e8d8cf          	fnmadd.s	f17,f17,f14,f2,unknown
    43216254:	0000                	.insn	2, 0x0000
    43216256:	0000                	.insn	2, 0x0000
    43216258:	10e8dccf          	fnmadd.s	f25,f17,f14,f2,unknown
    4321625c:	0000                	.insn	2, 0x0000
    4321625e:	0000                	.insn	2, 0x0000
    43216260:	10e8e0cf          	fnmadd.s	f1,f17,f14,f2,unknown
    43216264:	0000                	.insn	2, 0x0000
    43216266:	0000                	.insn	2, 0x0000
    43216268:	10e8e4cf          	fnmadd.s	f9,f17,f14,f2,unknown
    4321626c:	0000                	.insn	2, 0x0000
    4321626e:	0000                	.insn	2, 0x0000
    43216270:	10e8e8cf          	fnmadd.s	f17,f17,f14,f2,unknown
    43216274:	0000                	.insn	2, 0x0000
    43216276:	0000                	.insn	2, 0x0000
    43216278:	10e8eccf          	fnmadd.s	f25,f17,f14,f2,unknown
    4321627c:	0000                	.insn	2, 0x0000
    4321627e:	0000                	.insn	2, 0x0000
    43216280:	10e8f0cf          	fnmadd.s	f1,f17,f14,f2
    43216284:	0000                	.insn	2, 0x0000
    43216286:	0000                	.insn	2, 0x0000
    43216288:	10e8f4cf          	fnmadd.s	f9,f17,f14,f2
    4321628c:	0000                	.insn	2, 0x0000
    4321628e:	0000                	.insn	2, 0x0000
    43216290:	10e8f8cf          	fnmadd.s	f17,f17,f14,f2
    43216294:	0000                	.insn	2, 0x0000
    43216296:	0000                	.insn	2, 0x0000
    43216298:	10e8fccf          	fnmadd.s	f25,f17,f14,f2
    4321629c:	0000                	.insn	2, 0x0000
    4321629e:	0000                	.insn	2, 0x0000
    432162a0:	10e900cf          	fnmadd.s	f1,f18,f14,f2,rne
    432162a4:	0000                	.insn	2, 0x0000
    432162a6:	0000                	.insn	2, 0x0000
    432162a8:	10e904cf          	fnmadd.s	f9,f18,f14,f2,rne
    432162ac:	0000                	.insn	2, 0x0000
    432162ae:	0000                	.insn	2, 0x0000
    432162b0:	10e908cf          	fnmadd.s	f17,f18,f14,f2,rne
    432162b4:	0000                	.insn	2, 0x0000
    432162b6:	0000                	.insn	2, 0x0000
    432162b8:	10e90ccf          	fnmadd.s	f25,f18,f14,f2,rne
    432162bc:	0000                	.insn	2, 0x0000
    432162be:	0000                	.insn	2, 0x0000
    432162c0:	10e910cf          	fnmadd.s	f1,f18,f14,f2,rtz
    432162c4:	0000                	.insn	2, 0x0000
    432162c6:	0000                	.insn	2, 0x0000
    432162c8:	10e914cf          	fnmadd.s	f9,f18,f14,f2,rtz
    432162cc:	0000                	.insn	2, 0x0000
    432162ce:	0000                	.insn	2, 0x0000
    432162d0:	10e918cf          	fnmadd.s	f17,f18,f14,f2,rtz
    432162d4:	0000                	.insn	2, 0x0000
    432162d6:	0000                	.insn	2, 0x0000
    432162d8:	10e91ccf          	fnmadd.s	f25,f18,f14,f2,rtz
    432162dc:	0000                	.insn	2, 0x0000
    432162de:	0000                	.insn	2, 0x0000
    432162e0:	10e920cf          	fnmadd.s	f1,f18,f14,f2,rdn
    432162e4:	0000                	.insn	2, 0x0000
    432162e6:	0000                	.insn	2, 0x0000
    432162e8:	10e924cf          	fnmadd.s	f9,f18,f14,f2,rdn
    432162ec:	0000                	.insn	2, 0x0000
    432162ee:	0000                	.insn	2, 0x0000
    432162f0:	10e928cf          	fnmadd.s	f17,f18,f14,f2,rdn
    432162f4:	0000                	.insn	2, 0x0000
    432162f6:	0000                	.insn	2, 0x0000
    432162f8:	10e92ccf          	fnmadd.s	f25,f18,f14,f2,rdn
    432162fc:	0000                	.insn	2, 0x0000
    432162fe:	0000                	.insn	2, 0x0000
    43216300:	10e930cf          	fnmadd.s	f1,f18,f14,f2,rup
    43216304:	0000                	.insn	2, 0x0000
    43216306:	0000                	.insn	2, 0x0000
    43216308:	10e934cf          	fnmadd.s	f9,f18,f14,f2,rup
    4321630c:	0000                	.insn	2, 0x0000
    4321630e:	0000                	.insn	2, 0x0000
    43216310:	10e938cf          	fnmadd.s	f17,f18,f14,f2,rup
    43216314:	0000                	.insn	2, 0x0000
    43216316:	0000                	.insn	2, 0x0000
    43216318:	10e93ccf          	fnmadd.s	f25,f18,f14,f2,rup
    4321631c:	0000                	.insn	2, 0x0000
    4321631e:	0000                	.insn	2, 0x0000
    43216320:	10e940cf          	fnmadd.s	f1,f18,f14,f2,rmm
    43216324:	0000                	.insn	2, 0x0000
    43216326:	0000                	.insn	2, 0x0000
    43216328:	10e944cf          	fnmadd.s	f9,f18,f14,f2,rmm
    4321632c:	0000                	.insn	2, 0x0000
    4321632e:	0000                	.insn	2, 0x0000
    43216330:	10e948cf          	fnmadd.s	f17,f18,f14,f2,rmm
    43216334:	0000                	.insn	2, 0x0000
    43216336:	0000                	.insn	2, 0x0000
    43216338:	10e94ccf          	fnmadd.s	f25,f18,f14,f2,rmm
    4321633c:	0000                	.insn	2, 0x0000
    4321633e:	0000                	.insn	2, 0x0000
    43216340:	10e950cf          	fnmadd.s	f1,f18,f14,f2,unknown
    43216344:	0000                	.insn	2, 0x0000
    43216346:	0000                	.insn	2, 0x0000
    43216348:	10e954cf          	fnmadd.s	f9,f18,f14,f2,unknown
    4321634c:	0000                	.insn	2, 0x0000
    4321634e:	0000                	.insn	2, 0x0000
    43216350:	10e958cf          	fnmadd.s	f17,f18,f14,f2,unknown
    43216354:	0000                	.insn	2, 0x0000
    43216356:	0000                	.insn	2, 0x0000
    43216358:	10e95ccf          	fnmadd.s	f25,f18,f14,f2,unknown
    4321635c:	0000                	.insn	2, 0x0000
    4321635e:	0000                	.insn	2, 0x0000
    43216360:	10e960cf          	fnmadd.s	f1,f18,f14,f2,unknown
    43216364:	0000                	.insn	2, 0x0000
    43216366:	0000                	.insn	2, 0x0000
    43216368:	10e964cf          	fnmadd.s	f9,f18,f14,f2,unknown
    4321636c:	0000                	.insn	2, 0x0000
    4321636e:	0000                	.insn	2, 0x0000
    43216370:	10e968cf          	fnmadd.s	f17,f18,f14,f2,unknown
    43216374:	0000                	.insn	2, 0x0000
    43216376:	0000                	.insn	2, 0x0000
    43216378:	10e96ccf          	fnmadd.s	f25,f18,f14,f2,unknown
    4321637c:	0000                	.insn	2, 0x0000
    4321637e:	0000                	.insn	2, 0x0000
    43216380:	10e970cf          	fnmadd.s	f1,f18,f14,f2
    43216384:	0000                	.insn	2, 0x0000
    43216386:	0000                	.insn	2, 0x0000
    43216388:	10e974cf          	fnmadd.s	f9,f18,f14,f2
    4321638c:	0000                	.insn	2, 0x0000
    4321638e:	0000                	.insn	2, 0x0000
    43216390:	10e978cf          	fnmadd.s	f17,f18,f14,f2
    43216394:	0000                	.insn	2, 0x0000
    43216396:	0000                	.insn	2, 0x0000
    43216398:	10e97ccf          	fnmadd.s	f25,f18,f14,f2
    4321639c:	0000                	.insn	2, 0x0000
    4321639e:	0000                	.insn	2, 0x0000
    432163a0:	10e980cf          	fnmadd.s	f1,f19,f14,f2,rne
    432163a4:	0000                	.insn	2, 0x0000
    432163a6:	0000                	.insn	2, 0x0000
    432163a8:	10e984cf          	fnmadd.s	f9,f19,f14,f2,rne
    432163ac:	0000                	.insn	2, 0x0000
    432163ae:	0000                	.insn	2, 0x0000
    432163b0:	10e988cf          	fnmadd.s	f17,f19,f14,f2,rne
    432163b4:	0000                	.insn	2, 0x0000
    432163b6:	0000                	.insn	2, 0x0000
    432163b8:	10e98ccf          	fnmadd.s	f25,f19,f14,f2,rne
    432163bc:	0000                	.insn	2, 0x0000
    432163be:	0000                	.insn	2, 0x0000
    432163c0:	10e990cf          	fnmadd.s	f1,f19,f14,f2,rtz
    432163c4:	0000                	.insn	2, 0x0000
    432163c6:	0000                	.insn	2, 0x0000
    432163c8:	10e994cf          	fnmadd.s	f9,f19,f14,f2,rtz
    432163cc:	0000                	.insn	2, 0x0000
    432163ce:	0000                	.insn	2, 0x0000
    432163d0:	10e998cf          	fnmadd.s	f17,f19,f14,f2,rtz
    432163d4:	0000                	.insn	2, 0x0000
    432163d6:	0000                	.insn	2, 0x0000
    432163d8:	10e99ccf          	fnmadd.s	f25,f19,f14,f2,rtz
    432163dc:	0000                	.insn	2, 0x0000
    432163de:	0000                	.insn	2, 0x0000
    432163e0:	10e9a0cf          	fnmadd.s	f1,f19,f14,f2,rdn
    432163e4:	0000                	.insn	2, 0x0000
    432163e6:	0000                	.insn	2, 0x0000
    432163e8:	10e9a4cf          	fnmadd.s	f9,f19,f14,f2,rdn
    432163ec:	0000                	.insn	2, 0x0000
    432163ee:	0000                	.insn	2, 0x0000
    432163f0:	10e9a8cf          	fnmadd.s	f17,f19,f14,f2,rdn
    432163f4:	0000                	.insn	2, 0x0000
    432163f6:	0000                	.insn	2, 0x0000
    432163f8:	10e9accf          	fnmadd.s	f25,f19,f14,f2,rdn
    432163fc:	0000                	.insn	2, 0x0000
    432163fe:	0000                	.insn	2, 0x0000
    43216400:	10e9b0cf          	fnmadd.s	f1,f19,f14,f2,rup
    43216404:	0000                	.insn	2, 0x0000
    43216406:	0000                	.insn	2, 0x0000
    43216408:	10e9b4cf          	fnmadd.s	f9,f19,f14,f2,rup
    4321640c:	0000                	.insn	2, 0x0000
    4321640e:	0000                	.insn	2, 0x0000
    43216410:	10e9b8cf          	fnmadd.s	f17,f19,f14,f2,rup
    43216414:	0000                	.insn	2, 0x0000
    43216416:	0000                	.insn	2, 0x0000
    43216418:	10e9bccf          	fnmadd.s	f25,f19,f14,f2,rup
    4321641c:	0000                	.insn	2, 0x0000
    4321641e:	0000                	.insn	2, 0x0000
    43216420:	10e9c0cf          	fnmadd.s	f1,f19,f14,f2,rmm
    43216424:	0000                	.insn	2, 0x0000
    43216426:	0000                	.insn	2, 0x0000
    43216428:	10e9c4cf          	fnmadd.s	f9,f19,f14,f2,rmm
    4321642c:	0000                	.insn	2, 0x0000
    4321642e:	0000                	.insn	2, 0x0000
    43216430:	10e9c8cf          	fnmadd.s	f17,f19,f14,f2,rmm
    43216434:	0000                	.insn	2, 0x0000
    43216436:	0000                	.insn	2, 0x0000
    43216438:	10e9cccf          	fnmadd.s	f25,f19,f14,f2,rmm
    4321643c:	0000                	.insn	2, 0x0000
    4321643e:	0000                	.insn	2, 0x0000
    43216440:	10e9d0cf          	fnmadd.s	f1,f19,f14,f2,unknown
    43216444:	0000                	.insn	2, 0x0000
    43216446:	0000                	.insn	2, 0x0000
    43216448:	10e9d4cf          	fnmadd.s	f9,f19,f14,f2,unknown
    4321644c:	0000                	.insn	2, 0x0000
    4321644e:	0000                	.insn	2, 0x0000
    43216450:	10e9d8cf          	fnmadd.s	f17,f19,f14,f2,unknown
    43216454:	0000                	.insn	2, 0x0000
    43216456:	0000                	.insn	2, 0x0000
    43216458:	10e9dccf          	fnmadd.s	f25,f19,f14,f2,unknown
    4321645c:	0000                	.insn	2, 0x0000
    4321645e:	0000                	.insn	2, 0x0000
    43216460:	10e9e0cf          	fnmadd.s	f1,f19,f14,f2,unknown
    43216464:	0000                	.insn	2, 0x0000
    43216466:	0000                	.insn	2, 0x0000
    43216468:	10e9e4cf          	fnmadd.s	f9,f19,f14,f2,unknown
    4321646c:	0000                	.insn	2, 0x0000
    4321646e:	0000                	.insn	2, 0x0000
    43216470:	10e9e8cf          	fnmadd.s	f17,f19,f14,f2,unknown
    43216474:	0000                	.insn	2, 0x0000
    43216476:	0000                	.insn	2, 0x0000
    43216478:	10e9eccf          	fnmadd.s	f25,f19,f14,f2,unknown
    4321647c:	0000                	.insn	2, 0x0000
    4321647e:	0000                	.insn	2, 0x0000
    43216480:	10e9f0cf          	fnmadd.s	f1,f19,f14,f2
    43216484:	0000                	.insn	2, 0x0000
    43216486:	0000                	.insn	2, 0x0000
    43216488:	10e9f4cf          	fnmadd.s	f9,f19,f14,f2
    4321648c:	0000                	.insn	2, 0x0000
    4321648e:	0000                	.insn	2, 0x0000
    43216490:	10e9f8cf          	fnmadd.s	f17,f19,f14,f2
    43216494:	0000                	.insn	2, 0x0000
    43216496:	0000                	.insn	2, 0x0000
    43216498:	10e9fccf          	fnmadd.s	f25,f19,f14,f2
    4321649c:	0000                	.insn	2, 0x0000
    4321649e:	0000                	.insn	2, 0x0000
    432164a0:	10ea00cf          	fnmadd.s	f1,f20,f14,f2,rne
    432164a4:	0000                	.insn	2, 0x0000
    432164a6:	0000                	.insn	2, 0x0000
    432164a8:	10ea04cf          	fnmadd.s	f9,f20,f14,f2,rne
    432164ac:	0000                	.insn	2, 0x0000
    432164ae:	0000                	.insn	2, 0x0000
    432164b0:	10ea08cf          	fnmadd.s	f17,f20,f14,f2,rne
    432164b4:	0000                	.insn	2, 0x0000
    432164b6:	0000                	.insn	2, 0x0000
    432164b8:	10ea0ccf          	fnmadd.s	f25,f20,f14,f2,rne
    432164bc:	0000                	.insn	2, 0x0000
    432164be:	0000                	.insn	2, 0x0000
    432164c0:	10ea10cf          	fnmadd.s	f1,f20,f14,f2,rtz
    432164c4:	0000                	.insn	2, 0x0000
    432164c6:	0000                	.insn	2, 0x0000
    432164c8:	10ea14cf          	fnmadd.s	f9,f20,f14,f2,rtz
    432164cc:	0000                	.insn	2, 0x0000
    432164ce:	0000                	.insn	2, 0x0000
    432164d0:	10ea18cf          	fnmadd.s	f17,f20,f14,f2,rtz
    432164d4:	0000                	.insn	2, 0x0000
    432164d6:	0000                	.insn	2, 0x0000
    432164d8:	10ea1ccf          	fnmadd.s	f25,f20,f14,f2,rtz
    432164dc:	0000                	.insn	2, 0x0000
    432164de:	0000                	.insn	2, 0x0000
    432164e0:	10ea20cf          	fnmadd.s	f1,f20,f14,f2,rdn
    432164e4:	0000                	.insn	2, 0x0000
    432164e6:	0000                	.insn	2, 0x0000
    432164e8:	10ea24cf          	fnmadd.s	f9,f20,f14,f2,rdn
    432164ec:	0000                	.insn	2, 0x0000
    432164ee:	0000                	.insn	2, 0x0000
    432164f0:	10ea28cf          	fnmadd.s	f17,f20,f14,f2,rdn
    432164f4:	0000                	.insn	2, 0x0000
    432164f6:	0000                	.insn	2, 0x0000
    432164f8:	10ea2ccf          	fnmadd.s	f25,f20,f14,f2,rdn
    432164fc:	0000                	.insn	2, 0x0000
    432164fe:	0000                	.insn	2, 0x0000
    43216500:	10ea30cf          	fnmadd.s	f1,f20,f14,f2,rup
    43216504:	0000                	.insn	2, 0x0000
    43216506:	0000                	.insn	2, 0x0000
    43216508:	10ea34cf          	fnmadd.s	f9,f20,f14,f2,rup
    4321650c:	0000                	.insn	2, 0x0000
    4321650e:	0000                	.insn	2, 0x0000
    43216510:	10ea38cf          	fnmadd.s	f17,f20,f14,f2,rup
    43216514:	0000                	.insn	2, 0x0000
    43216516:	0000                	.insn	2, 0x0000
    43216518:	10ea3ccf          	fnmadd.s	f25,f20,f14,f2,rup
    4321651c:	0000                	.insn	2, 0x0000
    4321651e:	0000                	.insn	2, 0x0000
    43216520:	10ea40cf          	fnmadd.s	f1,f20,f14,f2,rmm
    43216524:	0000                	.insn	2, 0x0000
    43216526:	0000                	.insn	2, 0x0000
    43216528:	10ea44cf          	fnmadd.s	f9,f20,f14,f2,rmm
    4321652c:	0000                	.insn	2, 0x0000
    4321652e:	0000                	.insn	2, 0x0000
    43216530:	10ea48cf          	fnmadd.s	f17,f20,f14,f2,rmm
    43216534:	0000                	.insn	2, 0x0000
    43216536:	0000                	.insn	2, 0x0000
    43216538:	10ea4ccf          	fnmadd.s	f25,f20,f14,f2,rmm
    4321653c:	0000                	.insn	2, 0x0000
    4321653e:	0000                	.insn	2, 0x0000
    43216540:	10ea50cf          	fnmadd.s	f1,f20,f14,f2,unknown
    43216544:	0000                	.insn	2, 0x0000
    43216546:	0000                	.insn	2, 0x0000
    43216548:	10ea54cf          	fnmadd.s	f9,f20,f14,f2,unknown
    4321654c:	0000                	.insn	2, 0x0000
    4321654e:	0000                	.insn	2, 0x0000
    43216550:	10ea58cf          	fnmadd.s	f17,f20,f14,f2,unknown
    43216554:	0000                	.insn	2, 0x0000
    43216556:	0000                	.insn	2, 0x0000
    43216558:	10ea5ccf          	fnmadd.s	f25,f20,f14,f2,unknown
    4321655c:	0000                	.insn	2, 0x0000
    4321655e:	0000                	.insn	2, 0x0000
    43216560:	10ea60cf          	fnmadd.s	f1,f20,f14,f2,unknown
    43216564:	0000                	.insn	2, 0x0000
    43216566:	0000                	.insn	2, 0x0000
    43216568:	10ea64cf          	fnmadd.s	f9,f20,f14,f2,unknown
    4321656c:	0000                	.insn	2, 0x0000
    4321656e:	0000                	.insn	2, 0x0000
    43216570:	10ea68cf          	fnmadd.s	f17,f20,f14,f2,unknown
    43216574:	0000                	.insn	2, 0x0000
    43216576:	0000                	.insn	2, 0x0000
    43216578:	10ea6ccf          	fnmadd.s	f25,f20,f14,f2,unknown
    4321657c:	0000                	.insn	2, 0x0000
    4321657e:	0000                	.insn	2, 0x0000
    43216580:	10ea70cf          	fnmadd.s	f1,f20,f14,f2
    43216584:	0000                	.insn	2, 0x0000
    43216586:	0000                	.insn	2, 0x0000
    43216588:	10ea74cf          	fnmadd.s	f9,f20,f14,f2
    4321658c:	0000                	.insn	2, 0x0000
    4321658e:	0000                	.insn	2, 0x0000
    43216590:	10ea78cf          	fnmadd.s	f17,f20,f14,f2
    43216594:	0000                	.insn	2, 0x0000
    43216596:	0000                	.insn	2, 0x0000
    43216598:	10ea7ccf          	fnmadd.s	f25,f20,f14,f2
    4321659c:	0000                	.insn	2, 0x0000
    4321659e:	0000                	.insn	2, 0x0000
    432165a0:	10ea80cf          	fnmadd.s	f1,f21,f14,f2,rne
    432165a4:	0000                	.insn	2, 0x0000
    432165a6:	0000                	.insn	2, 0x0000
    432165a8:	10ea84cf          	fnmadd.s	f9,f21,f14,f2,rne
    432165ac:	0000                	.insn	2, 0x0000
    432165ae:	0000                	.insn	2, 0x0000
    432165b0:	10ea88cf          	fnmadd.s	f17,f21,f14,f2,rne
    432165b4:	0000                	.insn	2, 0x0000
    432165b6:	0000                	.insn	2, 0x0000
    432165b8:	10ea8ccf          	fnmadd.s	f25,f21,f14,f2,rne
    432165bc:	0000                	.insn	2, 0x0000
    432165be:	0000                	.insn	2, 0x0000
    432165c0:	10ea90cf          	fnmadd.s	f1,f21,f14,f2,rtz
    432165c4:	0000                	.insn	2, 0x0000
    432165c6:	0000                	.insn	2, 0x0000
    432165c8:	10ea94cf          	fnmadd.s	f9,f21,f14,f2,rtz
    432165cc:	0000                	.insn	2, 0x0000
    432165ce:	0000                	.insn	2, 0x0000
    432165d0:	10ea98cf          	fnmadd.s	f17,f21,f14,f2,rtz
    432165d4:	0000                	.insn	2, 0x0000
    432165d6:	0000                	.insn	2, 0x0000
    432165d8:	10ea9ccf          	fnmadd.s	f25,f21,f14,f2,rtz
    432165dc:	0000                	.insn	2, 0x0000
    432165de:	0000                	.insn	2, 0x0000
    432165e0:	10eaa0cf          	fnmadd.s	f1,f21,f14,f2,rdn
    432165e4:	0000                	.insn	2, 0x0000
    432165e6:	0000                	.insn	2, 0x0000
    432165e8:	10eaa4cf          	fnmadd.s	f9,f21,f14,f2,rdn
    432165ec:	0000                	.insn	2, 0x0000
    432165ee:	0000                	.insn	2, 0x0000
    432165f0:	10eaa8cf          	fnmadd.s	f17,f21,f14,f2,rdn
    432165f4:	0000                	.insn	2, 0x0000
    432165f6:	0000                	.insn	2, 0x0000
    432165f8:	10eaaccf          	fnmadd.s	f25,f21,f14,f2,rdn
    432165fc:	0000                	.insn	2, 0x0000
    432165fe:	0000                	.insn	2, 0x0000
    43216600:	10eab0cf          	fnmadd.s	f1,f21,f14,f2,rup
    43216604:	0000                	.insn	2, 0x0000
    43216606:	0000                	.insn	2, 0x0000
    43216608:	10eab4cf          	fnmadd.s	f9,f21,f14,f2,rup
    4321660c:	0000                	.insn	2, 0x0000
    4321660e:	0000                	.insn	2, 0x0000
    43216610:	10eab8cf          	fnmadd.s	f17,f21,f14,f2,rup
    43216614:	0000                	.insn	2, 0x0000
    43216616:	0000                	.insn	2, 0x0000
    43216618:	10eabccf          	fnmadd.s	f25,f21,f14,f2,rup
    4321661c:	0000                	.insn	2, 0x0000
    4321661e:	0000                	.insn	2, 0x0000
    43216620:	10eac0cf          	fnmadd.s	f1,f21,f14,f2,rmm
    43216624:	0000                	.insn	2, 0x0000
    43216626:	0000                	.insn	2, 0x0000
    43216628:	10eac4cf          	fnmadd.s	f9,f21,f14,f2,rmm
    4321662c:	0000                	.insn	2, 0x0000
    4321662e:	0000                	.insn	2, 0x0000
    43216630:	10eac8cf          	fnmadd.s	f17,f21,f14,f2,rmm
    43216634:	0000                	.insn	2, 0x0000
    43216636:	0000                	.insn	2, 0x0000
    43216638:	10eacccf          	fnmadd.s	f25,f21,f14,f2,rmm
    4321663c:	0000                	.insn	2, 0x0000
    4321663e:	0000                	.insn	2, 0x0000
    43216640:	10ead0cf          	fnmadd.s	f1,f21,f14,f2,unknown
    43216644:	0000                	.insn	2, 0x0000
    43216646:	0000                	.insn	2, 0x0000
    43216648:	10ead4cf          	fnmadd.s	f9,f21,f14,f2,unknown
    4321664c:	0000                	.insn	2, 0x0000
    4321664e:	0000                	.insn	2, 0x0000
    43216650:	10ead8cf          	fnmadd.s	f17,f21,f14,f2,unknown
    43216654:	0000                	.insn	2, 0x0000
    43216656:	0000                	.insn	2, 0x0000
    43216658:	10eadccf          	fnmadd.s	f25,f21,f14,f2,unknown
    4321665c:	0000                	.insn	2, 0x0000
    4321665e:	0000                	.insn	2, 0x0000
    43216660:	10eae0cf          	fnmadd.s	f1,f21,f14,f2,unknown
    43216664:	0000                	.insn	2, 0x0000
    43216666:	0000                	.insn	2, 0x0000
    43216668:	10eae4cf          	fnmadd.s	f9,f21,f14,f2,unknown
    4321666c:	0000                	.insn	2, 0x0000
    4321666e:	0000                	.insn	2, 0x0000
    43216670:	10eae8cf          	fnmadd.s	f17,f21,f14,f2,unknown
    43216674:	0000                	.insn	2, 0x0000
    43216676:	0000                	.insn	2, 0x0000
    43216678:	10eaeccf          	fnmadd.s	f25,f21,f14,f2,unknown
    4321667c:	0000                	.insn	2, 0x0000
    4321667e:	0000                	.insn	2, 0x0000
    43216680:	10eaf0cf          	fnmadd.s	f1,f21,f14,f2
    43216684:	0000                	.insn	2, 0x0000
    43216686:	0000                	.insn	2, 0x0000
    43216688:	10eaf4cf          	fnmadd.s	f9,f21,f14,f2
    4321668c:	0000                	.insn	2, 0x0000
    4321668e:	0000                	.insn	2, 0x0000
    43216690:	10eaf8cf          	fnmadd.s	f17,f21,f14,f2
    43216694:	0000                	.insn	2, 0x0000
    43216696:	0000                	.insn	2, 0x0000
    43216698:	10eafccf          	fnmadd.s	f25,f21,f14,f2
    4321669c:	0000                	.insn	2, 0x0000
    4321669e:	0000                	.insn	2, 0x0000
    432166a0:	10eb00cf          	fnmadd.s	f1,f22,f14,f2,rne
    432166a4:	0000                	.insn	2, 0x0000
    432166a6:	0000                	.insn	2, 0x0000
    432166a8:	10eb04cf          	fnmadd.s	f9,f22,f14,f2,rne
    432166ac:	0000                	.insn	2, 0x0000
    432166ae:	0000                	.insn	2, 0x0000
    432166b0:	10eb08cf          	fnmadd.s	f17,f22,f14,f2,rne
    432166b4:	0000                	.insn	2, 0x0000
    432166b6:	0000                	.insn	2, 0x0000
    432166b8:	10eb0ccf          	fnmadd.s	f25,f22,f14,f2,rne
    432166bc:	0000                	.insn	2, 0x0000
    432166be:	0000                	.insn	2, 0x0000
    432166c0:	10eb10cf          	fnmadd.s	f1,f22,f14,f2,rtz
    432166c4:	0000                	.insn	2, 0x0000
    432166c6:	0000                	.insn	2, 0x0000
    432166c8:	10eb14cf          	fnmadd.s	f9,f22,f14,f2,rtz
    432166cc:	0000                	.insn	2, 0x0000
    432166ce:	0000                	.insn	2, 0x0000
    432166d0:	10eb18cf          	fnmadd.s	f17,f22,f14,f2,rtz
    432166d4:	0000                	.insn	2, 0x0000
    432166d6:	0000                	.insn	2, 0x0000
    432166d8:	10eb1ccf          	fnmadd.s	f25,f22,f14,f2,rtz
    432166dc:	0000                	.insn	2, 0x0000
    432166de:	0000                	.insn	2, 0x0000
    432166e0:	10eb20cf          	fnmadd.s	f1,f22,f14,f2,rdn
    432166e4:	0000                	.insn	2, 0x0000
    432166e6:	0000                	.insn	2, 0x0000
    432166e8:	10eb24cf          	fnmadd.s	f9,f22,f14,f2,rdn
    432166ec:	0000                	.insn	2, 0x0000
    432166ee:	0000                	.insn	2, 0x0000
    432166f0:	10eb28cf          	fnmadd.s	f17,f22,f14,f2,rdn
    432166f4:	0000                	.insn	2, 0x0000
    432166f6:	0000                	.insn	2, 0x0000
    432166f8:	10eb2ccf          	fnmadd.s	f25,f22,f14,f2,rdn
    432166fc:	0000                	.insn	2, 0x0000
    432166fe:	0000                	.insn	2, 0x0000
    43216700:	10eb30cf          	fnmadd.s	f1,f22,f14,f2,rup
    43216704:	0000                	.insn	2, 0x0000
    43216706:	0000                	.insn	2, 0x0000
    43216708:	10eb34cf          	fnmadd.s	f9,f22,f14,f2,rup
    4321670c:	0000                	.insn	2, 0x0000
    4321670e:	0000                	.insn	2, 0x0000
    43216710:	10eb38cf          	fnmadd.s	f17,f22,f14,f2,rup
    43216714:	0000                	.insn	2, 0x0000
    43216716:	0000                	.insn	2, 0x0000
    43216718:	10eb3ccf          	fnmadd.s	f25,f22,f14,f2,rup
    4321671c:	0000                	.insn	2, 0x0000
    4321671e:	0000                	.insn	2, 0x0000
    43216720:	10eb40cf          	fnmadd.s	f1,f22,f14,f2,rmm
    43216724:	0000                	.insn	2, 0x0000
    43216726:	0000                	.insn	2, 0x0000
    43216728:	10eb44cf          	fnmadd.s	f9,f22,f14,f2,rmm
    4321672c:	0000                	.insn	2, 0x0000
    4321672e:	0000                	.insn	2, 0x0000
    43216730:	10eb48cf          	fnmadd.s	f17,f22,f14,f2,rmm
    43216734:	0000                	.insn	2, 0x0000
    43216736:	0000                	.insn	2, 0x0000
    43216738:	10eb4ccf          	fnmadd.s	f25,f22,f14,f2,rmm
    4321673c:	0000                	.insn	2, 0x0000
    4321673e:	0000                	.insn	2, 0x0000
    43216740:	10eb50cf          	fnmadd.s	f1,f22,f14,f2,unknown
    43216744:	0000                	.insn	2, 0x0000
    43216746:	0000                	.insn	2, 0x0000
    43216748:	10eb54cf          	fnmadd.s	f9,f22,f14,f2,unknown
    4321674c:	0000                	.insn	2, 0x0000
    4321674e:	0000                	.insn	2, 0x0000
    43216750:	10eb58cf          	fnmadd.s	f17,f22,f14,f2,unknown
    43216754:	0000                	.insn	2, 0x0000
    43216756:	0000                	.insn	2, 0x0000
    43216758:	10eb5ccf          	fnmadd.s	f25,f22,f14,f2,unknown
    4321675c:	0000                	.insn	2, 0x0000
    4321675e:	0000                	.insn	2, 0x0000
    43216760:	10eb60cf          	fnmadd.s	f1,f22,f14,f2,unknown
    43216764:	0000                	.insn	2, 0x0000
    43216766:	0000                	.insn	2, 0x0000
    43216768:	10eb64cf          	fnmadd.s	f9,f22,f14,f2,unknown
    4321676c:	0000                	.insn	2, 0x0000
    4321676e:	0000                	.insn	2, 0x0000
    43216770:	10eb68cf          	fnmadd.s	f17,f22,f14,f2,unknown
    43216774:	0000                	.insn	2, 0x0000
    43216776:	0000                	.insn	2, 0x0000
    43216778:	10eb6ccf          	fnmadd.s	f25,f22,f14,f2,unknown
    4321677c:	0000                	.insn	2, 0x0000
    4321677e:	0000                	.insn	2, 0x0000
    43216780:	10eb70cf          	fnmadd.s	f1,f22,f14,f2
    43216784:	0000                	.insn	2, 0x0000
    43216786:	0000                	.insn	2, 0x0000
    43216788:	10eb74cf          	fnmadd.s	f9,f22,f14,f2
    4321678c:	0000                	.insn	2, 0x0000
    4321678e:	0000                	.insn	2, 0x0000
    43216790:	10eb78cf          	fnmadd.s	f17,f22,f14,f2
    43216794:	0000                	.insn	2, 0x0000
    43216796:	0000                	.insn	2, 0x0000
    43216798:	10eb7ccf          	fnmadd.s	f25,f22,f14,f2
    4321679c:	0000                	.insn	2, 0x0000
    4321679e:	0000                	.insn	2, 0x0000
    432167a0:	10eb80cf          	fnmadd.s	f1,f23,f14,f2,rne
    432167a4:	0000                	.insn	2, 0x0000
    432167a6:	0000                	.insn	2, 0x0000
    432167a8:	10eb84cf          	fnmadd.s	f9,f23,f14,f2,rne
    432167ac:	0000                	.insn	2, 0x0000
    432167ae:	0000                	.insn	2, 0x0000
    432167b0:	10eb88cf          	fnmadd.s	f17,f23,f14,f2,rne
    432167b4:	0000                	.insn	2, 0x0000
    432167b6:	0000                	.insn	2, 0x0000
    432167b8:	10eb8ccf          	fnmadd.s	f25,f23,f14,f2,rne
    432167bc:	0000                	.insn	2, 0x0000
    432167be:	0000                	.insn	2, 0x0000
    432167c0:	10eb90cf          	fnmadd.s	f1,f23,f14,f2,rtz
    432167c4:	0000                	.insn	2, 0x0000
    432167c6:	0000                	.insn	2, 0x0000
    432167c8:	10eb94cf          	fnmadd.s	f9,f23,f14,f2,rtz
    432167cc:	0000                	.insn	2, 0x0000
    432167ce:	0000                	.insn	2, 0x0000
    432167d0:	10eb98cf          	fnmadd.s	f17,f23,f14,f2,rtz
    432167d4:	0000                	.insn	2, 0x0000
    432167d6:	0000                	.insn	2, 0x0000
    432167d8:	10eb9ccf          	fnmadd.s	f25,f23,f14,f2,rtz
    432167dc:	0000                	.insn	2, 0x0000
    432167de:	0000                	.insn	2, 0x0000
    432167e0:	10eba0cf          	fnmadd.s	f1,f23,f14,f2,rdn
    432167e4:	0000                	.insn	2, 0x0000
    432167e6:	0000                	.insn	2, 0x0000
    432167e8:	10eba4cf          	fnmadd.s	f9,f23,f14,f2,rdn
    432167ec:	0000                	.insn	2, 0x0000
    432167ee:	0000                	.insn	2, 0x0000
    432167f0:	10eba8cf          	fnmadd.s	f17,f23,f14,f2,rdn
    432167f4:	0000                	.insn	2, 0x0000
    432167f6:	0000                	.insn	2, 0x0000
    432167f8:	10ebaccf          	fnmadd.s	f25,f23,f14,f2,rdn
    432167fc:	0000                	.insn	2, 0x0000
    432167fe:	0000                	.insn	2, 0x0000
    43216800:	10ebb0cf          	fnmadd.s	f1,f23,f14,f2,rup
    43216804:	0000                	.insn	2, 0x0000
    43216806:	0000                	.insn	2, 0x0000
    43216808:	10ebb4cf          	fnmadd.s	f9,f23,f14,f2,rup
    4321680c:	0000                	.insn	2, 0x0000
    4321680e:	0000                	.insn	2, 0x0000
    43216810:	10ebb8cf          	fnmadd.s	f17,f23,f14,f2,rup
    43216814:	0000                	.insn	2, 0x0000
    43216816:	0000                	.insn	2, 0x0000
    43216818:	10ebbccf          	fnmadd.s	f25,f23,f14,f2,rup
    4321681c:	0000                	.insn	2, 0x0000
    4321681e:	0000                	.insn	2, 0x0000
    43216820:	10ebc0cf          	fnmadd.s	f1,f23,f14,f2,rmm
    43216824:	0000                	.insn	2, 0x0000
    43216826:	0000                	.insn	2, 0x0000
    43216828:	10ebc4cf          	fnmadd.s	f9,f23,f14,f2,rmm
    4321682c:	0000                	.insn	2, 0x0000
    4321682e:	0000                	.insn	2, 0x0000
    43216830:	10ebc8cf          	fnmadd.s	f17,f23,f14,f2,rmm
    43216834:	0000                	.insn	2, 0x0000
    43216836:	0000                	.insn	2, 0x0000
    43216838:	10ebcccf          	fnmadd.s	f25,f23,f14,f2,rmm
    4321683c:	0000                	.insn	2, 0x0000
    4321683e:	0000                	.insn	2, 0x0000
    43216840:	10ebd0cf          	fnmadd.s	f1,f23,f14,f2,unknown
    43216844:	0000                	.insn	2, 0x0000
    43216846:	0000                	.insn	2, 0x0000
    43216848:	10ebd4cf          	fnmadd.s	f9,f23,f14,f2,unknown
    4321684c:	0000                	.insn	2, 0x0000
    4321684e:	0000                	.insn	2, 0x0000
    43216850:	10ebd8cf          	fnmadd.s	f17,f23,f14,f2,unknown
    43216854:	0000                	.insn	2, 0x0000
    43216856:	0000                	.insn	2, 0x0000
    43216858:	10ebdccf          	fnmadd.s	f25,f23,f14,f2,unknown
    4321685c:	0000                	.insn	2, 0x0000
    4321685e:	0000                	.insn	2, 0x0000
    43216860:	10ebe0cf          	fnmadd.s	f1,f23,f14,f2,unknown
    43216864:	0000                	.insn	2, 0x0000
    43216866:	0000                	.insn	2, 0x0000
    43216868:	10ebe4cf          	fnmadd.s	f9,f23,f14,f2,unknown
    4321686c:	0000                	.insn	2, 0x0000
    4321686e:	0000                	.insn	2, 0x0000
    43216870:	10ebe8cf          	fnmadd.s	f17,f23,f14,f2,unknown
    43216874:	0000                	.insn	2, 0x0000
    43216876:	0000                	.insn	2, 0x0000
    43216878:	10ebeccf          	fnmadd.s	f25,f23,f14,f2,unknown
    4321687c:	0000                	.insn	2, 0x0000
    4321687e:	0000                	.insn	2, 0x0000
    43216880:	10ebf0cf          	fnmadd.s	f1,f23,f14,f2
    43216884:	0000                	.insn	2, 0x0000
    43216886:	0000                	.insn	2, 0x0000
    43216888:	10ebf4cf          	fnmadd.s	f9,f23,f14,f2
    4321688c:	0000                	.insn	2, 0x0000
    4321688e:	0000                	.insn	2, 0x0000
    43216890:	10ebf8cf          	fnmadd.s	f17,f23,f14,f2
    43216894:	0000                	.insn	2, 0x0000
    43216896:	0000                	.insn	2, 0x0000
    43216898:	10ebfccf          	fnmadd.s	f25,f23,f14,f2
    4321689c:	0000                	.insn	2, 0x0000
    4321689e:	0000                	.insn	2, 0x0000
    432168a0:	00df 10ec 0000      	.insn	6, 0x10ec00df
    432168a6:	0000                	.insn	2, 0x0000
    432168a8:	04df 10ec 0000      	.insn	6, 0x10ec04df
    432168ae:	0000                	.insn	2, 0x0000
    432168b0:	08df 10ec 0000      	.insn	6, 0x10ec08df
    432168b6:	0000                	.insn	2, 0x0000
    432168b8:	0cdf 10ec 0000      	.insn	6, 0x10ec0cdf
    432168be:	0000                	.insn	2, 0x0000
    432168c0:	10df 10ec 0000      	.insn	6, 0x10ec10df
    432168c6:	0000                	.insn	2, 0x0000
    432168c8:	14df 10ec 0000      	.insn	6, 0x10ec14df
    432168ce:	0000                	.insn	2, 0x0000
    432168d0:	18df 10ec 0000      	.insn	6, 0x10ec18df
    432168d6:	0000                	.insn	2, 0x0000
    432168d8:	1cdf 10ec 0000      	.insn	6, 0x10ec1cdf
    432168de:	0000                	.insn	2, 0x0000
    432168e0:	20df 10ec 0000      	.insn	6, 0x10ec20df
    432168e6:	0000                	.insn	2, 0x0000
    432168e8:	24df 10ec 0000      	.insn	6, 0x10ec24df
    432168ee:	0000                	.insn	2, 0x0000
    432168f0:	28df 10ec 0000      	.insn	6, 0x10ec28df
    432168f6:	0000                	.insn	2, 0x0000
    432168f8:	2cdf 10ec 0000      	.insn	6, 0x10ec2cdf
    432168fe:	0000                	.insn	2, 0x0000
    43216900:	30df 10ec 0000      	.insn	6, 0x10ec30df
    43216906:	0000                	.insn	2, 0x0000
    43216908:	34df 10ec 0000      	.insn	6, 0x10ec34df
    4321690e:	0000                	.insn	2, 0x0000
    43216910:	38df 10ec 0000      	.insn	6, 0x10ec38df
    43216916:	0000                	.insn	2, 0x0000
    43216918:	3cdf 10ec 0000      	.insn	6, 0x10ec3cdf
    4321691e:	0000                	.insn	2, 0x0000
    43216920:	40df 10ec 0000      	.insn	6, 0x10ec40df
    43216926:	0000                	.insn	2, 0x0000
    43216928:	44df 10ec 0000      	.insn	6, 0x10ec44df
    4321692e:	0000                	.insn	2, 0x0000
    43216930:	48df 10ec 0000      	.insn	6, 0x10ec48df
    43216936:	0000                	.insn	2, 0x0000
    43216938:	4cdf 10ec 0000      	.insn	6, 0x10ec4cdf
    4321693e:	0000                	.insn	2, 0x0000
    43216940:	50df 10ec 0000      	.insn	6, 0x10ec50df
    43216946:	0000                	.insn	2, 0x0000
    43216948:	54df 10ec 0000      	.insn	6, 0x10ec54df
    4321694e:	0000                	.insn	2, 0x0000
    43216950:	58df 10ec 0000      	.insn	6, 0x10ec58df
    43216956:	0000                	.insn	2, 0x0000
    43216958:	5cdf 10ec 0000      	.insn	6, 0x10ec5cdf
    4321695e:	0000                	.insn	2, 0x0000
    43216960:	60df 10ec 0000      	.insn	6, 0x10ec60df
    43216966:	0000                	.insn	2, 0x0000
    43216968:	64df 10ec 0000      	.insn	6, 0x10ec64df
    4321696e:	0000                	.insn	2, 0x0000
    43216970:	68df 10ec 0000      	.insn	6, 0x10ec68df
    43216976:	0000                	.insn	2, 0x0000
    43216978:	6cdf 10ec 0000      	.insn	6, 0x10ec6cdf
    4321697e:	0000                	.insn	2, 0x0000
    43216980:	70df 10ec 0000      	.insn	6, 0x10ec70df
    43216986:	0000                	.insn	2, 0x0000
    43216988:	74df 10ec 0000      	.insn	6, 0x10ec74df
    4321698e:	0000                	.insn	2, 0x0000
    43216990:	78df 10ec 0000      	.insn	6, 0x10ec78df
    43216996:	0000                	.insn	2, 0x0000
    43216998:	7cdf 10ec 0000      	.insn	6, 0x10ec7cdf
    4321699e:	0000                	.insn	2, 0x0000
    432169a0:	80df 10ec 0000      	.insn	6, 0x10ec80df
    432169a6:	0000                	.insn	2, 0x0000
    432169a8:	84df 10ec 0000      	.insn	6, 0x10ec84df
    432169ae:	0000                	.insn	2, 0x0000
    432169b0:	88df 10ec 0000      	.insn	6, 0x10ec88df
    432169b6:	0000                	.insn	2, 0x0000
    432169b8:	8cdf 10ec 0000      	.insn	6, 0x10ec8cdf
    432169be:	0000                	.insn	2, 0x0000
    432169c0:	90df 10ec 0000      	.insn	6, 0x10ec90df
    432169c6:	0000                	.insn	2, 0x0000
    432169c8:	94df 10ec 0000      	.insn	6, 0x10ec94df
    432169ce:	0000                	.insn	2, 0x0000
    432169d0:	98df 10ec 0000      	.insn	6, 0x10ec98df
    432169d6:	0000                	.insn	2, 0x0000
    432169d8:	9cdf 10ec 0000      	.insn	6, 0x10ec9cdf
    432169de:	0000                	.insn	2, 0x0000
    432169e0:	a0df 10ec 0000      	.insn	6, 0x10eca0df
    432169e6:	0000                	.insn	2, 0x0000
    432169e8:	a4df 10ec 0000      	.insn	6, 0x10eca4df
    432169ee:	0000                	.insn	2, 0x0000
    432169f0:	a8df 10ec 0000      	.insn	6, 0x10eca8df
    432169f6:	0000                	.insn	2, 0x0000
    432169f8:	acdf 10ec 0000      	.insn	6, 0x10ecacdf
    432169fe:	0000                	.insn	2, 0x0000
    43216a00:	b0df 10ec 0000      	.insn	6, 0x10ecb0df
    43216a06:	0000                	.insn	2, 0x0000
    43216a08:	b4df 10ec 0000      	.insn	6, 0x10ecb4df
    43216a0e:	0000                	.insn	2, 0x0000
    43216a10:	b8df 10ec 0000      	.insn	6, 0x10ecb8df
    43216a16:	0000                	.insn	2, 0x0000
    43216a18:	bcdf 10ec 0000      	.insn	6, 0x10ecbcdf
    43216a1e:	0000                	.insn	2, 0x0000
    43216a20:	c0df 10ec 0000      	.insn	6, 0x10ecc0df
    43216a26:	0000                	.insn	2, 0x0000
    43216a28:	c4df 10ec 0000      	.insn	6, 0x10ecc4df
    43216a2e:	0000                	.insn	2, 0x0000
    43216a30:	c8df 10ec 0000      	.insn	6, 0x10ecc8df
    43216a36:	0000                	.insn	2, 0x0000
    43216a38:	ccdf 10ec 0000      	.insn	6, 0x10ecccdf
    43216a3e:	0000                	.insn	2, 0x0000
    43216a40:	d0df 10ec 0000      	.insn	6, 0x10ecd0df
    43216a46:	0000                	.insn	2, 0x0000
    43216a48:	d4df 10ec 0000      	.insn	6, 0x10ecd4df
    43216a4e:	0000                	.insn	2, 0x0000
    43216a50:	d8df 10ec 0000      	.insn	6, 0x10ecd8df
    43216a56:	0000                	.insn	2, 0x0000
    43216a58:	dcdf 10ec 0000      	.insn	6, 0x10ecdcdf
    43216a5e:	0000                	.insn	2, 0x0000
    43216a60:	e0df 10ec 0000      	.insn	6, 0x10ece0df
    43216a66:	0000                	.insn	2, 0x0000
    43216a68:	e4df 10ec 0000      	.insn	6, 0x10ece4df
    43216a6e:	0000                	.insn	2, 0x0000
    43216a70:	e8df 10ec 0000      	.insn	6, 0x10ece8df
    43216a76:	0000                	.insn	2, 0x0000
    43216a78:	ecdf 10ec 0000      	.insn	6, 0x10ececdf
    43216a7e:	0000                	.insn	2, 0x0000
    43216a80:	f0df 10ec 0000      	.insn	6, 0x10ecf0df
    43216a86:	0000                	.insn	2, 0x0000
    43216a88:	f4df 10ec 0000      	.insn	6, 0x10ecf4df
    43216a8e:	0000                	.insn	2, 0x0000
    43216a90:	f8df 10ec 0000      	.insn	6, 0x10ecf8df
    43216a96:	0000                	.insn	2, 0x0000
    43216a98:	fcdf 10ec 0000      	.insn	6, 0x10ecfcdf
    43216a9e:	0000                	.insn	2, 0x0000
    43216aa0:	00df 10ed 0000      	.insn	6, 0x10ed00df
    43216aa6:	0000                	.insn	2, 0x0000
    43216aa8:	04df 10ed 0000      	.insn	6, 0x10ed04df
    43216aae:	0000                	.insn	2, 0x0000
    43216ab0:	08df 10ed 0000      	.insn	6, 0x10ed08df
    43216ab6:	0000                	.insn	2, 0x0000
    43216ab8:	0cdf 10ed 0000      	.insn	6, 0x10ed0cdf
    43216abe:	0000                	.insn	2, 0x0000
    43216ac0:	10df 10ed 0000      	.insn	6, 0x10ed10df
    43216ac6:	0000                	.insn	2, 0x0000
    43216ac8:	14df 10ed 0000      	.insn	6, 0x10ed14df
    43216ace:	0000                	.insn	2, 0x0000
    43216ad0:	18df 10ed 0000      	.insn	6, 0x10ed18df
    43216ad6:	0000                	.insn	2, 0x0000
    43216ad8:	1cdf 10ed 0000      	.insn	6, 0x10ed1cdf
    43216ade:	0000                	.insn	2, 0x0000
    43216ae0:	20df 10ed 0000      	.insn	6, 0x10ed20df
    43216ae6:	0000                	.insn	2, 0x0000
    43216ae8:	24df 10ed 0000      	.insn	6, 0x10ed24df
    43216aee:	0000                	.insn	2, 0x0000
    43216af0:	28df 10ed 0000      	.insn	6, 0x10ed28df
    43216af6:	0000                	.insn	2, 0x0000
    43216af8:	2cdf 10ed 0000      	.insn	6, 0x10ed2cdf
    43216afe:	0000                	.insn	2, 0x0000
    43216b00:	30df 10ed 0000      	.insn	6, 0x10ed30df
    43216b06:	0000                	.insn	2, 0x0000
    43216b08:	34df 10ed 0000      	.insn	6, 0x10ed34df
    43216b0e:	0000                	.insn	2, 0x0000
    43216b10:	38df 10ed 0000      	.insn	6, 0x10ed38df
    43216b16:	0000                	.insn	2, 0x0000
    43216b18:	3cdf 10ed 0000      	.insn	6, 0x10ed3cdf
    43216b1e:	0000                	.insn	2, 0x0000
    43216b20:	40df 10ed 0000      	.insn	6, 0x10ed40df
    43216b26:	0000                	.insn	2, 0x0000
    43216b28:	44df 10ed 0000      	.insn	6, 0x10ed44df
    43216b2e:	0000                	.insn	2, 0x0000
    43216b30:	48df 10ed 0000      	.insn	6, 0x10ed48df
    43216b36:	0000                	.insn	2, 0x0000
    43216b38:	4cdf 10ed 0000      	.insn	6, 0x10ed4cdf
    43216b3e:	0000                	.insn	2, 0x0000
    43216b40:	50df 10ed 0000      	.insn	6, 0x10ed50df
    43216b46:	0000                	.insn	2, 0x0000
    43216b48:	54df 10ed 0000      	.insn	6, 0x10ed54df
    43216b4e:	0000                	.insn	2, 0x0000
    43216b50:	58df 10ed 0000      	.insn	6, 0x10ed58df
    43216b56:	0000                	.insn	2, 0x0000
    43216b58:	5cdf 10ed 0000      	.insn	6, 0x10ed5cdf
    43216b5e:	0000                	.insn	2, 0x0000
    43216b60:	60df 10ed 0000      	.insn	6, 0x10ed60df
    43216b66:	0000                	.insn	2, 0x0000
    43216b68:	64df 10ed 0000      	.insn	6, 0x10ed64df
    43216b6e:	0000                	.insn	2, 0x0000
    43216b70:	68df 10ed 0000      	.insn	6, 0x10ed68df
    43216b76:	0000                	.insn	2, 0x0000
    43216b78:	6cdf 10ed 0000      	.insn	6, 0x10ed6cdf
    43216b7e:	0000                	.insn	2, 0x0000
    43216b80:	70df 10ed 0000      	.insn	6, 0x10ed70df
    43216b86:	0000                	.insn	2, 0x0000
    43216b88:	74df 10ed 0000      	.insn	6, 0x10ed74df
    43216b8e:	0000                	.insn	2, 0x0000
    43216b90:	78df 10ed 0000      	.insn	6, 0x10ed78df
    43216b96:	0000                	.insn	2, 0x0000
    43216b98:	7cdf 10ed 0000      	.insn	6, 0x10ed7cdf
    43216b9e:	0000                	.insn	2, 0x0000
    43216ba0:	80df 10ed 0000      	.insn	6, 0x10ed80df
    43216ba6:	0000                	.insn	2, 0x0000
    43216ba8:	84df 10ed 0000      	.insn	6, 0x10ed84df
    43216bae:	0000                	.insn	2, 0x0000
    43216bb0:	88df 10ed 0000      	.insn	6, 0x10ed88df
    43216bb6:	0000                	.insn	2, 0x0000
    43216bb8:	8cdf 10ed 0000      	.insn	6, 0x10ed8cdf
    43216bbe:	0000                	.insn	2, 0x0000
    43216bc0:	90df 10ed 0000      	.insn	6, 0x10ed90df
    43216bc6:	0000                	.insn	2, 0x0000
    43216bc8:	94df 10ed 0000      	.insn	6, 0x10ed94df
    43216bce:	0000                	.insn	2, 0x0000
    43216bd0:	98df 10ed 0000      	.insn	6, 0x10ed98df
    43216bd6:	0000                	.insn	2, 0x0000
    43216bd8:	9cdf 10ed 0000      	.insn	6, 0x10ed9cdf
    43216bde:	0000                	.insn	2, 0x0000
    43216be0:	a0df 10ed 0000      	.insn	6, 0x10eda0df
    43216be6:	0000                	.insn	2, 0x0000
    43216be8:	a4df 10ed 0000      	.insn	6, 0x10eda4df
    43216bee:	0000                	.insn	2, 0x0000
    43216bf0:	a8df 10ed 0000      	.insn	6, 0x10eda8df
    43216bf6:	0000                	.insn	2, 0x0000
    43216bf8:	acdf 10ed 0000      	.insn	6, 0x10edacdf
    43216bfe:	0000                	.insn	2, 0x0000
    43216c00:	b0df 10ed 0000      	.insn	6, 0x10edb0df
    43216c06:	0000                	.insn	2, 0x0000
    43216c08:	b4df 10ed 0000      	.insn	6, 0x10edb4df
    43216c0e:	0000                	.insn	2, 0x0000
    43216c10:	b8df 10ed 0000      	.insn	6, 0x10edb8df
    43216c16:	0000                	.insn	2, 0x0000
    43216c18:	bcdf 10ed 0000      	.insn	6, 0x10edbcdf
    43216c1e:	0000                	.insn	2, 0x0000
    43216c20:	c0df 10ed 0000      	.insn	6, 0x10edc0df
    43216c26:	0000                	.insn	2, 0x0000
    43216c28:	c4df 10ed 0000      	.insn	6, 0x10edc4df
    43216c2e:	0000                	.insn	2, 0x0000
    43216c30:	c8df 10ed 0000      	.insn	6, 0x10edc8df
    43216c36:	0000                	.insn	2, 0x0000
    43216c38:	ccdf 10ed 0000      	.insn	6, 0x10edccdf
    43216c3e:	0000                	.insn	2, 0x0000
    43216c40:	d0df 10ed 0000      	.insn	6, 0x10edd0df
    43216c46:	0000                	.insn	2, 0x0000
    43216c48:	d4df 10ed 0000      	.insn	6, 0x10edd4df
    43216c4e:	0000                	.insn	2, 0x0000
    43216c50:	d8df 10ed 0000      	.insn	6, 0x10edd8df
    43216c56:	0000                	.insn	2, 0x0000
    43216c58:	dcdf 10ed 0000      	.insn	6, 0x10eddcdf
    43216c5e:	0000                	.insn	2, 0x0000
    43216c60:	e0df 10ed 0000      	.insn	6, 0x10ede0df
    43216c66:	0000                	.insn	2, 0x0000
    43216c68:	e4df 10ed 0000      	.insn	6, 0x10ede4df
    43216c6e:	0000                	.insn	2, 0x0000
    43216c70:	e8df 10ed 0000      	.insn	6, 0x10ede8df
    43216c76:	0000                	.insn	2, 0x0000
    43216c78:	ecdf 10ed 0000      	.insn	6, 0x10edecdf
    43216c7e:	0000                	.insn	2, 0x0000
    43216c80:	f0df 10ed 0000      	.insn	6, 0x10edf0df
    43216c86:	0000                	.insn	2, 0x0000
    43216c88:	f4df 10ed 0000      	.insn	6, 0x10edf4df
    43216c8e:	0000                	.insn	2, 0x0000
    43216c90:	f8df 10ed 0000      	.insn	6, 0x10edf8df
    43216c96:	0000                	.insn	2, 0x0000
    43216c98:	fcdf 10ed 0000      	.insn	6, 0x10edfcdf
	...

Disassembly of section .__pagetable_map_os_0x0000000044f29000:

0000000044f29000 <__pagetable_map_os_0x0000000044f29000>:
	...
    44f290a8:	10f004cf          	fnmadd.s	f9,f0,f15,f2,rne
    44f290ac:	0000                	.insn	2, 0x0000
	...

Disassembly of section .__pagetable_map_os_0x000000004499e000:

000000004499e000 <__pagetable_map_os_0x000000004499e000>:
	...
    4499e490:	113404cf          	fnmadd.s	f9,f8,f19,f2,rne
    4499e494:	0000                	.insn	2, 0x0000
	...

Disassembly of section .__pagetable_map_os_0x0000000044d33000:

0000000044d33000 <__pagetable_map_os_0x0000000044d33000>:
	...
    44d33940:	1134a0cf          	fnmadd.s	f1,f9,f19,f2,rdn
    44d33944:	0000                	.insn	2, 0x0000
	...

Disassembly of section .__pagetable_map_os_0x0000000044d32000:

0000000044d32000 <__pagetable_map_os_0x0000000044d32000>:
    44d32000:	7801                	.insn	2, 0x7801
    44d32002:	112a                	.insn	2, 0x112a
	...
    44d32020:	c401                	.insn	2, 0xc401
    44d32022:	1134                	.insn	2, 0x1134
	...
    44d32058:	4001                	.insn	2, 0x4001
    44d3205a:	113a                	.insn	2, 0x113a
	...
    44d32558:	9401                	.insn	2, 0x9401
    44d3255a:	1068                	.insn	2, 0x1068
	...
    44d32580:	0c01                	.insn	2, 0x0c01
    44d32582:	1135                	.insn	2, 0x1135
	...
    44d328c8:	c001                	.insn	2, 0xc001
    44d328ca:	112e                	.insn	2, 0x112e
	...
    44d32dc0:	1001                	.insn	2, 0x1001
    44d32dc2:	1136                	.insn	2, 0x1136
    44d32dc4:	0000                	.insn	2, 0x0000
	...

Disassembly of section .__pagetable_map_os_0x0000000044d43000:

0000000044d43000 <__pagetable_map_os_0x0000000044d43000>:
	...
    44d43f10:	10f008cf          	fnmadd.s	f17,f0,f15,f2,rne
    44d43f14:	0000                	.insn	2, 0x0000
    44d43f16:	0000                	.insn	2, 0x0000
    44d43f18:	10f00ccf          	fnmadd.s	f25,f0,f15,f2,rne
    44d43f1c:	0000                	.insn	2, 0x0000
	...

Disassembly of section .__pagetable_map_os_0x0000000044e90000:

0000000044e90000 <__pagetable_map_os_0x0000000044e90000>:
	...
    44e90bc0:	112a80cf          	fnmadd.s	f1,f21,f18,f2,rne
    44e90bc4:	0000                	.insn	2, 0x0000
    44e90bc6:	0000                	.insn	2, 0x0000
    44e90bc8:	112a84cf          	fnmadd.s	f9,f21,f18,f2,rne
    44e90bcc:	0000                	.insn	2, 0x0000
	...

Disassembly of section .__pagetable_map_os_0x0000000044d84000:

0000000044d84000 <__pagetable_map_os_0x0000000044d84000>:
	...
    44d849a0:	113688cf          	fnmadd.s	f17,f13,f19,f2,rne
    44d849a4:	0000                	.insn	2, 0x0000
	...

Disassembly of section .__pagetable_map_os_0x0000000044d31000:

0000000044d31000 <__pagetable_map_os_0x0000000044d31000>:
	...
    44d31d20:	113400cf          	fnmadd.s	f1,f8,f19,f2,rne
    44d31d24:	0000                	.insn	2, 0x0000
	...

Disassembly of section .__pagetable_map_os_0x0000000044a9e000:

0000000044a9e000 <__pagetable_map_os_0x0000000044a9e000>:
	...
    44a9e050:	113060c7          	fmsub.s	f1,f0,f19,f2,unknown
	...
    44a9e0e0:	11346cc7          	fmsub.s	f25,f8,f19,f2,unknown
	...
    44a9e228:	112754cf          	fnmadd.s	f9,f14,f18,f2,unknown
	...
    44a9e268:	112b5ccf          	fnmadd.s	f25,f22,f18,f2,unknown
    44a9e26c:	0000                	.insn	2, 0x0000
	...

Disassembly of section .__pagetable_map_os_0x0000000041a25000:

0000000041a25000 <__pagetable_map_os_0x0000000041a25000>:
	...
    41a25fa8:	1135b8cf          	fnmadd.s	f17,f11,f19,f2,rup
    41a25fac:	0000                	.insn	2, 0x0000
	...

Disassembly of section .__pagetable_map_os_0x0000000044bb0000:

0000000044bb0000 <__pagetable_map_os_0x0000000044bb0000>:
	...
    44bb0730:	10b19cc7          	fmsub.s	f25,f3,f11,f2,rtz
    44bb0734:	0000                	.insn	2, 0x0000
	...

Disassembly of section .__pagetable_map_os_0x0000000044f49000:

0000000044f49000 <__pagetable_map_os_0x0000000044f49000>:
	...
    44f49618:	b801                	.insn	2, 0xb801
    44f4961a:	1134                	.insn	2, 0x1134
    44f4961c:	0000                	.insn	2, 0x0000
	...

Disassembly of section .__pagetable_map_os_0x0000000044d2e000:

0000000044d2e000 <__pagetable_map_os_0x0000000044d2e000>:
	...
    44d2e080:	112644cf          	fnmadd.s	f9,f12,f18,f2,rmm
    44d2e084:	0000                	.insn	2, 0x0000
	...

Disassembly of section .__pagetable_map_os_0x0000000044d19000:

0000000044d19000 <__pagetable_map_os_0x0000000044d19000>:
	...
    44d19c30:	bc01                	.insn	2, 0xbc01
    44d19c32:	10e2                	.insn	2, 0x10e2
    44d19c34:	0000                	.insn	2, 0x0000
	...

Disassembly of section .__pagetable_map_os_0x00000000438af000:

00000000438af000 <__pagetable_map_os_0x00000000438af000>:
	...
    438af880:	11342ccf          	fnmadd.s	f25,f8,f19,f2,rdn
    438af884:	0000                	.insn	2, 0x0000
	...

Disassembly of section .__pagetable_map_os_0x00000000424cf000:

00000000424cf000 <__pagetable_map_os_0x00000000424cf000>:
	...
    424cf730:	5401                	.insn	2, 0x5401
    424cf732:	1135                	.insn	2, 0x1135
    424cf734:	0000                	.insn	2, 0x0000
	...

Disassembly of section .__pagetable_map_os_0x0000000044d55000:

0000000044d55000 <__pagetable_map_os_0x0000000044d55000>:
	...
    44d55048:	1049b0c7          	fmsub.s	f1,f19,f4,f2,rup
    44d5504c:	0000                	.insn	2, 0x0000
	...

Disassembly of section .__pagetable_map_os_0x0000000044d2f000:

0000000044d2f000 <__pagetable_map_os_0x0000000044d2f000>:
	...
    44d2f248:	d001                	.insn	2, 0xd001
    44d2f24a:	1134                	.insn	2, 0x1134
    44d2f24c:	0000                	.insn	2, 0x0000
	...

Disassembly of section .__pagetable_map_os_0x0000000044d34000:

0000000044d34000 <__pagetable_map_os_0x0000000044d34000>:
	...
    44d34110:	6001                	.insn	2, 0x6001
    44d34112:	1134                	.insn	2, 0x1134
    44d34114:	0000                	.insn	2, 0x0000
	...

Disassembly of section .__pagetable_map_os_0x0000000044d18000:

0000000044d18000 <__pagetable_map_os_0x0000000044d18000>:
	...
    44d18f30:	11283ccf          	fnmadd.s	f25,f16,f18,f2,rup
    44d18f34:	0000                	.insn	2, 0x0000
	...

Disassembly of section .__pagetable_map_os_0x0000000042c66000:

0000000042c66000 <__pagetable_map_os_0x0000000042c66000>:
	...
    42c66348:	3c01                	.insn	2, 0x3c01
    42c6634a:	10fd                	.insn	2, 0x10fd
    42c6634c:	0000                	.insn	2, 0x0000
	...

Disassembly of section .__pagetable_map_os_0x0000000043f4f000:

0000000043f4f000 <__pagetable_map_os_0x0000000043f4f000>:
	...
    43f4f3c0:	2001                	.insn	2, 0x2001
    43f4f3c2:	10a5                	.insn	2, 0x10a5
    43f4f3c4:	0000                	.insn	2, 0x0000
	...

Disassembly of section .__pagetable_map_os_0x0000000042948000:

0000000042948000 <__pagetable_map_os_0x0000000042948000>:
	...
    42948940:	1134d4cf          	fnmadd.s	f9,f9,f19,f2,unknown
    42948944:	0000                	.insn	2, 0x0000
	...

Disassembly of section .__pagetable_map_os_0x00000000449c7000:

00000000449c7000 <__pagetable_map_os_0x00000000449c7000>:
	...
    449c7208:	0801                	.insn	2, 0x0801
    449c720a:	10c1                	.insn	2, 0x10c1
    449c720c:	0000                	.insn	2, 0x0000
	...

Disassembly of section .__pagetable_map_os_0x0000000043042000:

0000000043042000 <__pagetable_map_os_0x0000000043042000>:
	...
    43042240:	d401                	.insn	2, 0xd401
    43042242:	1121                	.insn	2, 0x1121
    43042244:	0000                	.insn	2, 0x0000
	...

Disassembly of section .__pagetable_map_os_0x0000000044875000:

0000000044875000 <__pagetable_map_os_0x0000000044875000>:
	...
    44875420:	1132d4c7          	fmsub.s	f9,f5,f19,f2,unknown
    44875424:	0000                	.insn	2, 0x0000
	...

Disassembly of section .__pagetable_map_os_0x0000000044d04000:

0000000044d04000 <__pagetable_map_os_0x0000000044d04000>:
	...
    44d04718:	b001                	.insn	2, 0xb001
    44d0471a:	00001127          	fsh	f0,2(x0) # 2 <CHECK_EXCP_MODE_HS>
	...

Disassembly of section .__pagetable_map_os_0x00000000449ec000:

00000000449ec000 <__pagetable_map_os_0x00000000449ec000>:
	...
    449ec198:	8001                	.insn	2, 0x8001
    449ec19a:	10ad                	.insn	2, 0x10ad
    449ec19c:	0000                	.insn	2, 0x0000
	...

Disassembly of section .__pagetable_map_os_0x0000000042b60000:

0000000042b60000 <__pagetable_map_os_0x0000000042b60000>:
	...
    42b60030:	1134c0c7          	fmsub.s	f1,f9,f19,f2,rmm
    42b60034:	0000                	.insn	2, 0x0000
	...

Disassembly of section .__pagetable_map_os_0x0000000042b9e000:

0000000042b9e000 <__pagetable_map_os_0x0000000042b9e000>:
	...
    42b9ecc8:	a001                	.insn	2, 0xa001
    42b9ecca:	1049                	.insn	2, 0x1049
	...
    42b9ee28:	1401                	.insn	2, 0x1401
    42b9ee2a:	00001127          	fsh	f0,2(x0) # 2 <CHECK_EXCP_MODE_HS>
	...

Disassembly of section .__pagetable_map_os_0x0000000041268000:

0000000041268000 <__pagetable_map_os_0x0000000041268000>:
	...
    41268318:	ec01                	.insn	2, 0xec01
    4126831a:	1134                	.insn	2, 0x1134
    4126831c:	0000                	.insn	2, 0x0000
	...

Disassembly of section .__pagetable_map_os_0x0000000044d3b000:

0000000044d3b000 <__pagetable_map_os_0x0000000044d3b000>:
	...
    44d3b1d0:	1134b4c7          	fmsub.s	f9,f9,f19,f2,rup
    44d3b1d4:	0000                	.insn	2, 0x0000
	...

Disassembly of section .__pagetable_map_os_0x00000000449c5000:

00000000449c5000 <__pagetable_map_os_0x00000000449c5000>:
	...
    449c5f50:	4401                	.insn	2, 0x4401
    449c5f52:	1130                	.insn	2, 0x1130
    449c5f54:	0000                	.insn	2, 0x0000
	...

Disassembly of section .__pagetable_map_os_0x0000000044c11000:

0000000044c11000 <__pagetable_map_os_0x0000000044c11000>:
	...
    44c11340:	1140a8c7          	fmsub.s	f17,f1,f20,f2,rdn
    44c11344:	0000                	.insn	2, 0x0000
	...

Disassembly of section .__pagetable_map_os_0x0000000044ac9000:

0000000044ac9000 <__pagetable_map_os_0x0000000044ac9000>:
	...
    44ac98f0:	4c01                	.insn	2, 0x4c01
    44ac98f2:	1139                	.insn	2, 0x1139
    44ac98f4:	0000                	.insn	2, 0x0000
	...

Disassembly of section .__pagetable_map_os_0x0000000044e53000:

0000000044e53000 <__pagetable_map_os_0x0000000044e53000>:
	...
    44e53d58:	f801                	.insn	2, 0xf801
    44e53d5a:	1086                	.insn	2, 0x1086
    44e53d5c:	0000                	.insn	2, 0x0000
	...

Disassembly of section .__pagetable_map_os_0x00000000421be000:

00000000421be000 <__pagetable_map_os_0x00000000421be000>:
	...
    421bef00:	113408c7          	fmsub.s	f17,f8,f19,f2,rne
    421bef04:	0000                	.insn	2, 0x0000
	...

Disassembly of section .__pagetable_map_os_0x0000000044663000:

0000000044663000 <__pagetable_map_os_0x0000000044663000>:
	...
    44663730:	b001                	.insn	2, 0xb001
    44663732:	1134                	.insn	2, 0x1134
    44663734:	0000                	.insn	2, 0x0000
	...

Disassembly of section .__pagetable_map_os_0x0000000044d2c000:

0000000044d2c000 <__pagetable_map_os_0x0000000044d2c000>:
	...
    44d2c040:	bc01                	.insn	2, 0xbc01
    44d2c042:	00001127          	fsh	f0,2(x0) # 2 <CHECK_EXCP_MODE_HS>
	...

Disassembly of section .__pagetable_map_os_0x00000000449ef000:

00000000449ef000 <__pagetable_map_os_0x00000000449ef000>:
	...
    449ef190:	5c01                	.insn	2, 0x5c01
    449ef192:	1134                	.insn	2, 0x1134
    449ef194:	0000                	.insn	2, 0x0000
	...

Disassembly of section .__pagetable_map_os_0x0000000044d17000:

0000000044d17000 <__pagetable_map_os_0x0000000044d17000>:
	...
    44d17608:	113454cf          	fnmadd.s	f9,f8,f19,f2,unknown
    44d1760c:	0000                	.insn	2, 0x0000
	...

Disassembly of section .__pagetable_map_os_0x00000000449ea000:

00000000449ea000 <__pagetable_map_os_0x00000000449ea000>:
	...
    449eae40:	6801                	.insn	2, 0x6801
    449eae42:	1134                	.insn	2, 0x1134
	...
    449eaf18:	2c01                	.insn	2, 0x2c01
    449eaf1a:	10a8                	.insn	2, 0x10a8
    449eaf1c:	0000                	.insn	2, 0x0000
	...

Disassembly of section .__pagetable_map_os_0x0000000044d1a000:

0000000044d1a000 <__pagetable_map_os_0x0000000044d1a000>:
	...
    44d1a558:	8001                	.insn	2, 0x8001
    44d1a55a:	1130                	.insn	2, 0x1130
    44d1a55c:	0000                	.insn	2, 0x0000
	...

Disassembly of section .__pagetable_map_os_0x0000000044c20000:

0000000044c20000 <__pagetable_map_os_0x0000000044c20000>:
	...
    44c200c8:	1401                	.insn	2, 0x1401
    44c200ca:	1134                	.insn	2, 0x1134
    44c200cc:	0000                	.insn	2, 0x0000
	...

Disassembly of section .__pagetable_map_os_0x0000000044d05000:

0000000044d05000 <__pagetable_map_os_0x0000000044d05000>:
	...
    44d05248:	113064cf          	fnmadd.s	f9,f0,f19,f2,unknown
    44d0524c:	0000                	.insn	2, 0x0000
	...

Disassembly of section .__pagetable_map_os_0x0000000042a0b000:

0000000042a0b000 <__pagetable_map_os_0x0000000042a0b000>:
	...
    42a0b978:	7401                	.insn	2, 0x7401
    42a0b97a:	0000113b          	sllw	x2,x0,x0
	...

Disassembly of section .__pagetable_map_os_0x0000000044edd000:

0000000044edd000 <__pagetable_map_os_0x0000000044edd000>:
	...
    44eddd08:	8401                	.insn	2, 0x8401
    44eddd0a:	1134                	.insn	2, 0x1134
    44eddd0c:	0000                	.insn	2, 0x0000
	...

Disassembly of section .__pagetable_map_os_0x0000000044d21000:

0000000044d21000 <__pagetable_map_os_0x0000000044d21000>:
	...
    44d219f8:	113458c7          	fmsub.s	f17,f8,f19,f2,unknown
    44d219fc:	0000                	.insn	2, 0x0000
	...

Disassembly of section .__pagetable_map_os_0x00000000449db000:

00000000449db000 <__pagetable_map_os_0x00000000449db000>:
	...
    449db0a0:	1001                	.insn	2, 0x1001
    449db0a2:	00001127          	fsh	f0,2(x0) # 2 <CHECK_EXCP_MODE_HS>
	...

Disassembly of section .__pagetable_map_os_0x00000000449c4000:

00000000449c4000 <__pagetable_map_os_0x00000000449c4000>:
	...
    449c4e40:	5801                	.insn	2, 0x5801
    449c4e42:	00001127          	fsh	f0,2(x0) # 2 <CHECK_EXCP_MODE_HS>
	...

Disassembly of section .__pagetable_map_os_0x00000000449d6000:

00000000449d6000 <__pagetable_map_os_0x00000000449d6000>:
	...
    449d6768:	0c01                	.insn	2, 0x0c01
    449d676a:	1134                	.insn	2, 0x1134
    449d676c:	0000                	.insn	2, 0x0000
	...

Disassembly of section .__pagetable_map_os_0x0000000044d03000:

0000000044d03000 <__pagetable_map_os_0x0000000044d03000>:
	...
    44d037c8:	108060c7          	fmsub.s	f1,f0,f8,f2,unknown
    44d037cc:	0000                	.insn	2, 0x0000
	...
