
/home/abdullah/RiescueC/riescue/10x_R/hypervisor_exceptions/testsuite/hypervisor_exceptions/virtualized/super_sv39_gdisable/tp_hypervisor_exceptions_2:     file format elf64-littleriscv


Disassembly of section .runtime:

0000000041000000 <_start>:
    41000000:	00000093          	li	x1,0
    41000004:	00000113          	li	x2,0
    41000008:	00000193          	li	x3,0
    4100000c:	00000213          	li	x4,0
    41000010:	00000293          	li	x5,0
    41000014:	00000313          	li	x6,0
    41000018:	00000393          	li	x7,0
    4100001c:	00000413          	li	x8,0
    41000020:	00000493          	li	x9,0
    41000024:	00000513          	li	x10,0
    41000028:	00000593          	li	x11,0
    4100002c:	00000613          	li	x12,0
    41000030:	00000693          	li	x13,0
    41000034:	00000713          	li	x14,0
    41000038:	00000793          	li	x15,0
    4100003c:	00000813          	li	x16,0
    41000040:	00000893          	li	x17,0
    41000044:	00000913          	li	x18,0
    41000048:	00000993          	li	x19,0
    4100004c:	00000a13          	li	x20,0
    41000050:	00000a93          	li	x21,0
    41000054:	00000b13          	li	x22,0
    41000058:	00000b93          	li	x23,0
    4100005c:	00000c13          	li	x24,0
    41000060:	00000c93          	li	x25,0
    41000064:	00000d13          	li	x26,0
    41000068:	00000d93          	li	x27,0
    4100006c:	00000e13          	li	x28,0
    41000070:	00000e93          	li	x29,0
    41000074:	00000f13          	li	x30,0
    41000078:	00000f93          	li	x31,0

000000004100007c <loader__load_panic_address>:
    4100007c:	00001297          	auipc	x5,0x1
    41000080:	a8828293          	addi	x5,x5,-1400 # 41000b04 <eot__failed>
    41000084:	30529073          	csrw	mtvec,x5

0000000041000088 <loader__initialize_runtime>:
    41000088:	00000293          	li	x5,0
    4100008c:	3012a2f3          	csrrs	x5,misa,x5

0000000041000090 <loader__set_mstatus>:
    41000090:	000402b7          	lui	x5,0x40
    41000094:	00a2829b          	addiw	x5,x5,10 # 4000a <pma_region_0_size+0xa>
    41000098:	3002a2f3          	csrrs	x5,mstatus,x5
    4100009c:	4355b237          	lui	x4,0x4355b
    410000a0:	34021073          	csrw	mscratch,x4
    410000a4:	0e7de237          	lui	x4,0xe7de
    410000a8:	24021073          	csrw	vsscratch,x4
    410000ac:	4355b237          	lui	x4,0x4355b

00000000410000b0 <loader__setup_menvcfg>:
    410000b0:	00000297          	auipc	x5,0x0
    410000b4:	53c28293          	addi	x5,x5,1340 # 410005ec <trap_handler_m__trap_entry>
    410000b8:	30529073          	csrw	mtvec,x5

00000000410000bc <setup_vmm>:
    410000bc:	00000013          	nop

00000000410000c0 <setup_hedeleg>:
    410000c0:	ff5cd2b7          	lui	x5,0xff5cd
    410000c4:	c4d2829b          	addiw	x5,x5,-947 # ffffffffff5ccc4d <SID_HEXCEP_17_vsstatus_vs0_stack+0xffffffd5f791dc4d>
    410000c8:	00d29293          	slli	x5,x5,0xd
    410000cc:	d6528293          	addi	x5,x5,-667
    410000d0:	00c29293          	slli	x5,x5,0xc
    410000d4:	32728293          	addi	x5,x5,807
    410000d8:	00e29293          	slli	x5,x5,0xe
    410000dc:	05028293          	addi	x5,x5,80
    410000e0:	60229073          	csrw	hedeleg,x5

00000000410000e4 <setup_hideleg>:
    410000e4:	fff00293          	li	x5,-1
    410000e8:	60329073          	csrw	hideleg,x5

00000000410000ec <setup_henvcfg>:
    410000ec:	00000293          	li	x5,0
    410000f0:	60a29073          	csrw	henvcfg,x5
    410000f4:	00010297          	auipc	x5,0x10
    410000f8:	32c28293          	addi	x5,x5,812 # 41010420 <trap_handler_hs__trap_handler>
    410000fc:	10529073          	csrw	stvec,x5
    41000100:	f010029b          	addiw	x5,x0,-255
    41000104:	02a29293          	slli	x5,x5,0x2a
    41000108:	02128293          	addi	x5,x5,33
    4100010c:	00d29293          	slli	x5,x5,0xd
    41000110:	5ac28293          	addi	x5,x5,1452
    41000114:	28029073          	csrw	vsatp,x5
    41000118:	200022f3          	csrr	x5,vsstatus
    4100011c:	00042337          	lui	x6,0x42
    41000120:	2003031b          	addiw	x6,x6,512 # 42200 <SID_HEXCEP_16_vsstatus_fs0_stack+0x1200>
    41000124:	0062e2b3          	or	x5,x5,x6
    41000128:	20029073          	csrw	vsstatus,x5

000000004100012c <loader__enable_paging>:
    4100012c:	fff800b7          	lui	x1,0xfff80
    41000130:	0b50809b          	addiw	x1,x1,181 # fffffffffff800b5 <SID_HEXCEP_17_vsstatus_vs0_stack+0xffffffd5f82d10b5>
    41000134:	01f09093          	slli	x1,x1,0x1f
    41000138:	02108093          	addi	x1,x1,33
    4100013c:	00d09093          	slli	x1,x1,0xd
    41000140:	5ac08093          	addi	x1,x1,1452
    41000144:	18009073          	csrw	satp,x1

0000000041000148 <loader__done>:
    41000148:	1e50006f          	j	41000b2c <scheduler__init>

000000004100014c <loader__panic>:
    4100014c:	1b90006f          	j	41000b04 <eot__failed>

0000000041000150 <syscalls__syscall_check_schedule_next_test>:
    41000150:	00f0029b          	addiw	x5,x0,15
    41000154:	01c29293          	slli	x5,x5,0x1c
    41000158:	00128293          	addi	x5,x5,1
    4100015c:	01f29a63          	bne	x5,x31,41000170 <syscalls__syscall_check_fail_test>
    41000160:	00000317          	auipc	x6,0x0
    41000164:	48c30313          	addi	x6,x6,1164 # 410005ec <trap_handler_m__trap_entry>
    41000168:	30531073          	csrw	mtvec,x6
    4100016c:	6c40006f          	j	41000830 <enter_scheduler>

0000000041000170 <syscalls__syscall_check_fail_test>:
    41000170:	00f0029b          	addiw	x5,x0,15
    41000174:	01c29293          	slli	x5,x5,0x1c
    41000178:	00228293          	addi	x5,x5,2
    4100017c:	01f29a63          	bne	x5,x31,41000190 <syscalls__syscall_check_end_test_without_failure>
    41000180:	00000317          	auipc	x6,0x0
    41000184:	46c30313          	addi	x6,x6,1132 # 410005ec <trap_handler_m__trap_entry>
    41000188:	30531073          	csrw	mtvec,x6
    4100018c:	6d40006f          	j	41000860 <test_failed>

0000000041000190 <syscalls__syscall_check_end_test_without_failure>:
    41000190:	00f0029b          	addiw	x5,x0,15
    41000194:	01c29293          	slli	x5,x5,0x1c
    41000198:	00328293          	addi	x5,x5,3
    4100019c:	01f29a63          	bne	x5,x31,410001b0 <syscalls__syscall_check_switch_machine_mode>
    410001a0:	00000317          	auipc	x6,0x0
    410001a4:	44c30313          	addi	x6,x6,1100 # 410005ec <trap_handler_m__trap_entry>
    410001a8:	30531073          	csrw	mtvec,x6
    410001ac:	6c00006f          	j	4100086c <os_end_test>

00000000410001b0 <syscalls__syscall_check_switch_machine_mode>:
    410001b0:	000f02b7          	lui	x5,0xf0
    410001b4:	0012829b          	addiw	x5,x5,1 # f0001 <SID_HEXCEP_09_sfence_vma_vtvm1_vs_stack+0x5c001>
    410001b8:	00c29293          	slli	x5,x5,0xc
    410001bc:	00128293          	addi	x5,x5,1
    410001c0:	0a5f8463          	beq	x31,x5,41000268 <syscalls__os_fn_f0001001>

00000000410001c4 <syscalls__syscall_check_switch_super_mode>:
    410001c4:	000f02b7          	lui	x5,0xf0
    410001c8:	0012829b          	addiw	x5,x5,1 # f0001 <SID_HEXCEP_09_sfence_vma_vtvm1_vs_stack+0x5c001>
    410001cc:	00c29293          	slli	x5,x5,0xc
    410001d0:	00228293          	addi	x5,x5,2
    410001d4:	0c5f8063          	beq	x31,x5,41000294 <syscalls__os_fn_f0001002>

00000000410001d8 <syscalls__syscall_check_switch_user_mode>:
    410001d8:	000f02b7          	lui	x5,0xf0
    410001dc:	0012829b          	addiw	x5,x5,1 # f0001 <SID_HEXCEP_09_sfence_vma_vtvm1_vs_stack+0x5c001>
    410001e0:	00c29293          	slli	x5,x5,0xc
    410001e4:	00328293          	addi	x5,x5,3
    410001e8:	0c5f8e63          	beq	x31,x5,410002c4 <syscalls__os_fn_f0001003>

00000000410001ec <syscalls__syscall_check_switch_test_mode>:
    410001ec:	000f02b7          	lui	x5,0xf0
    410001f0:	0012829b          	addiw	x5,x5,1 # f0001 <SID_HEXCEP_09_sfence_vma_vtvm1_vs_stack+0x5c001>
    410001f4:	00c29293          	slli	x5,x5,0xc
    410001f8:	00428293          	addi	x5,x5,4
    410001fc:	0e5f8863          	beq	x31,x5,410002ec <syscalls__os_fn_f0001004>

0000000041000200 <syscalls__syscall_machine_csr_rw>:
    41000200:	000f02b7          	lui	x5,0xf0
    41000204:	0012829b          	addiw	x5,x5,1 # f0001 <SID_HEXCEP_09_sfence_vma_vtvm1_vs_stack+0x5c001>
    41000208:	00c29293          	slli	x5,x5,0xc
    4100020c:	00528293          	addi	x5,x5,5
    41000210:	105f8463          	beq	x31,x5,41000318 <syscalls__os_fn_f0001005>

0000000041000214 <syscalls__syscall_supervisor_csr_rw>:
    41000214:	000f02b7          	lui	x5,0xf0
    41000218:	0012829b          	addiw	x5,x5,1 # f0001 <SID_HEXCEP_09_sfence_vma_vtvm1_vs_stack+0x5c001>
    4100021c:	00c29293          	slli	x5,x5,0xc
    41000220:	00628293          	addi	x5,x5,6
    41000224:	125f8063          	beq	x31,x5,41000344 <syscalls__os_fn_f0001006>

0000000041000228 <syscalls__syscall_machine_pte_read>:
    41000228:	000f02b7          	lui	x5,0xf0
    4100022c:	0012829b          	addiw	x5,x5,1 # f0001 <SID_HEXCEP_09_sfence_vma_vtvm1_vs_stack+0x5c001>
    41000230:	00c29293          	slli	x5,x5,0xc
    41000234:	00728293          	addi	x5,x5,7
    41000238:	125f8e63          	beq	x31,x5,41000374 <syscalls__os_fn_f0001007>

000000004100023c <syscalls__syscall_machine_pte_write>:
    4100023c:	000f02b7          	lui	x5,0xf0
    41000240:	0012829b          	addiw	x5,x5,1 # f0001 <SID_HEXCEP_09_sfence_vma_vtvm1_vs_stack+0x5c001>
    41000244:	00c29293          	slli	x5,x5,0xc
    41000248:	00828293          	addi	x5,x5,8
    4100024c:	205f8a63          	beq	x31,x5,41000460 <syscalls__os_fn_f0001008>

0000000041000250 <syscalls__syscall_check_get_hart_context>:
    41000250:	000782b7          	lui	x5,0x78
    41000254:	0012829b          	addiw	x5,x5,1 # 78001 <SID_HEXCEP_09_hinval_vvma_vs_stack+0x20001>
    41000258:	00d29293          	slli	x5,x5,0xd
    4100025c:	00128293          	addi	x5,x5,1
    41000260:	2e5f8663          	beq	x31,x5,4100054c <syscalls__os_get_hart_context>
    41000264:	4e40006f          	j	41000748 <trap_handler_m__check_exception_label>

0000000041000268 <syscalls__os_fn_f0001001>:
    41000268:	000022b7          	lui	x5,0x2
    4100026c:	8002829b          	addiw	x5,x5,-2048 # 1800 <pma_region_1_size+0x800>
    41000270:	3002b073          	csrc	mstatus,x5
    41000274:	000022b7          	lui	x5,0x2
    41000278:	8002829b          	addiw	x5,x5,-2048 # 1800 <pma_region_1_size+0x800>
    4100027c:	3002a073          	csrs	mstatus,x5
    41000280:	0010029b          	addiw	x5,x0,1
    41000284:	02729293          	slli	x5,x5,0x27
    41000288:	3002b073          	csrc	mstatus,x5
    4100028c:	411942b7          	lui	x5,0x41194
    41000290:	2cc0006f          	j	4100055c <syscalls__ret_from_os_fn>

0000000041000294 <syscalls__os_fn_f0001002>:
    41000294:	000022b7          	lui	x5,0x2
    41000298:	8002829b          	addiw	x5,x5,-2048 # 1800 <pma_region_1_size+0x800>
    4100029c:	3002b073          	csrc	mstatus,x5
    410002a0:	000012b7          	lui	x5,0x1
    410002a4:	8002829b          	addiw	x5,x5,-2048 # 800 <XLEN+0x7c0>
    410002a8:	3002a073          	csrs	mstatus,x5
    410002ac:	0010029b          	addiw	x5,x0,1
    410002b0:	02729293          	slli	x5,x5,0x27
    410002b4:	3002b073          	csrc	mstatus,x5
    410002b8:	12000073          	sfence.vma
    410002bc:	410942b7          	lui	x5,0x41094
    410002c0:	29c0006f          	j	4100055c <syscalls__ret_from_os_fn>

00000000410002c4 <syscalls__os_fn_f0001003>:
    410002c4:	000022b7          	lui	x5,0x2
    410002c8:	8002829b          	addiw	x5,x5,-2048 # 1800 <pma_region_1_size+0x800>
    410002cc:	3002b073          	csrc	mstatus,x5
    410002d0:	00000293          	li	x5,0
    410002d4:	3002a073          	csrs	mstatus,x5
    410002d8:	0010029b          	addiw	x5,x0,1
    410002dc:	02729293          	slli	x5,x5,0x27
    410002e0:	3002b073          	csrc	mstatus,x5
    410002e4:	411142b7          	lui	x5,0x41114
    410002e8:	2740006f          	j	4100055c <syscalls__ret_from_os_fn>

00000000410002ec <syscalls__os_fn_f0001004>:
    410002ec:	000022b7          	lui	x5,0x2
    410002f0:	8002829b          	addiw	x5,x5,-2048 # 1800 <pma_region_1_size+0x800>
    410002f4:	3002b073          	csrc	mstatus,x5
    410002f8:	000012b7          	lui	x5,0x1
    410002fc:	8002829b          	addiw	x5,x5,-2048 # 800 <XLEN+0x7c0>
    41000300:	3002a073          	csrs	mstatus,x5
    41000304:	0010029b          	addiw	x5,x0,1
    41000308:	02729293          	slli	x5,x5,0x27
    4100030c:	3002a073          	csrs	mstatus,x5
    41000310:	17823283          	ld	x5,376(x4) # 4355b178 <__section_hart_context+0x178>
    41000314:	2480006f          	j	4100055c <syscalls__ret_from_os_fn>

0000000041000318 <syscalls__os_fn_f0001005>:
    41000318:	000022b7          	lui	x5,0x2
    4100031c:	8002829b          	addiw	x5,x5,-2048 # 1800 <pma_region_1_size+0x800>
    41000320:	3002b073          	csrc	mstatus,x5
    41000324:	000022b7          	lui	x5,0x2
    41000328:	8002829b          	addiw	x5,x5,-2048 # 1800 <pma_region_1_size+0x800>
    4100032c:	3002a073          	csrs	mstatus,x5
    41000330:	0010029b          	addiw	x5,x0,1
    41000334:	02729293          	slli	x5,x5,0x27
    41000338:	3002b073          	csrc	mstatus,x5
    4100033c:	412142b7          	lui	x5,0x41214
    41000340:	21c0006f          	j	4100055c <syscalls__ret_from_os_fn>

0000000041000344 <syscalls__os_fn_f0001006>:
    41000344:	000022b7          	lui	x5,0x2
    41000348:	8002829b          	addiw	x5,x5,-2048 # 1800 <pma_region_1_size+0x800>
    4100034c:	3002b073          	csrc	mstatus,x5
    41000350:	000012b7          	lui	x5,0x1
    41000354:	8002829b          	addiw	x5,x5,-2048 # 800 <XLEN+0x7c0>
    41000358:	3002a073          	csrs	mstatus,x5
    4100035c:	0010029b          	addiw	x5,x0,1
    41000360:	02729293          	slli	x5,x5,0x27
    41000364:	3002b073          	csrc	mstatus,x5
    41000368:	12000073          	sfence.vma
    4100036c:	412152b7          	lui	x5,0x41215
    41000370:	1ec0006f          	j	4100055c <syscalls__ret_from_os_fn>

0000000041000374 <syscalls__os_fn_f0001007>:
    41000374:	43bf2fb7          	lui	x31,0x43bf2
    41000378:	0c0f8f9b          	addiw	x31,x31,192 # 43bf20c0 <pte_access_flags_pa>
    4100037c:	000fbf83          	ld	x31,0(x31)
    41000380:	43bf22b7          	lui	x5,0x43bf2
    41000384:	0c82829b          	addiw	x5,x5,200 # 43bf20c8 <pte_access_flags_pa+0x8>
    41000388:	0002b283          	ld	x5,0(x5)
    4100038c:	43bf2e37          	lui	x28,0x43bf2
    41000390:	0d0e0e1b          	addiw	x28,x28,208 # 43bf20d0 <pte_access_flags_pa+0x10>
    41000394:	000e3e03          	ld	x28,0(x28)

0000000041000398 <syscalls__pte_walk_check_glevel_without_gstage_read>:
    41000398:	fff00f93          	li	x31,-1
    4100039c:	0dfe1063          	bne	x28,x31,4100045c <syscalls__pte_walk_fail_read>
    410003a0:	18002373          	csrr	x6,satp
    410003a4:	03c35e93          	srli	x29,x6,0x3c
    410003a8:	01431313          	slli	x6,x6,0x14
    410003ac:	01435313          	srli	x6,x6,0x14
    410003b0:	00c31313          	slli	x6,x6,0xc
    410003b4:	ff8e8e93          	addi	x29,x29,-8
    410003b8:	003e9f13          	slli	x30,x29,0x3
    410003bc:	01df0eb3          	add	x29,x30,x29
    410003c0:	01ee8e93          	addi	x29,x29,30
    410003c4:	00000f13          	li	x30,0

00000000410003c8 <syscalls__pte_walk_loop_read>:
    410003c8:	43bf2fb7          	lui	x31,0x43bf2
    410003cc:	0c0f8f9b          	addiw	x31,x31,192 # 43bf20c0 <pte_access_flags_pa>
    410003d0:	000fbf83          	ld	x31,0(x31)
    410003d4:	01dfdfb3          	srl	x31,x31,x29
    410003d8:	1fffff93          	andi	x31,x31,511
    410003dc:	003f9f93          	slli	x31,x31,0x3
    410003e0:	01f30333          	add	x6,x6,x31
    410003e4:	005f0e63          	beq	x30,x5,41000400 <syscalls__pte_walk_done_read>
    410003e8:	00033f83          	ld	x31,0(x6)
    410003ec:	00afdf93          	srli	x31,x31,0xa
    410003f0:	00cf9313          	slli	x6,x31,0xc
    410003f4:	001f0f13          	addi	x30,x30,1
    410003f8:	ff7e8e93          	addi	x29,x29,-9
    410003fc:	fcdff06f          	j	410003c8 <syscalls__pte_walk_loop_read>

0000000041000400 <syscalls__pte_walk_done_read>:
    41000400:	fff00f93          	li	x31,-1
    41000404:	05fe0263          	beq	x28,x31,41000448 <syscalls__pte_walk_final_read>

0000000041000408 <syscalls__pte_walk_gstage_read>:
    41000408:	43bf2fb7          	lui	x31,0x43bf2
    4100040c:	0c0f8f9b          	addiw	x31,x31,192 # 43bf20c0 <pte_access_flags_pa>
    41000410:	006fb023          	sd	x6,0(x31)
    41000414:	000e0293          	mv	x5,x28
    41000418:	fff00e13          	li	x28,-1
    4100041c:	68002373          	csrr	x6,hgatp
    41000420:	03c35e93          	srli	x29,x6,0x3c
    41000424:	01431313          	slli	x6,x6,0x14
    41000428:	01435313          	srli	x6,x6,0x14
    4100042c:	00c31313          	slli	x6,x6,0xc
    41000430:	ff8e8e93          	addi	x29,x29,-8
    41000434:	003e9f13          	slli	x30,x29,0x3
    41000438:	01df0eb3          	add	x29,x30,x29
    4100043c:	01ee8e93          	addi	x29,x29,30
    41000440:	00000f13          	li	x30,0
    41000444:	f85ff06f          	j	410003c8 <syscalls__pte_walk_loop_read>

0000000041000448 <syscalls__pte_walk_final_read>:
    41000448:	00033383          	ld	x7,0(x6)
    4100044c:	341022f3          	csrr	x5,mepc
    41000450:	00428293          	addi	x5,x5,4
    41000454:	16523c23          	sd	x5,376(x4) # 178 <XLEN+0x138>
    41000458:	e95ff06f          	j	410002ec <syscalls__os_fn_f0001004>

000000004100045c <syscalls__pte_walk_fail_read>:
    4100045c:	4040006f          	j	41000860 <test_failed>

0000000041000460 <syscalls__os_fn_f0001008>:
    41000460:	43bf2fb7          	lui	x31,0x43bf2
    41000464:	0c0f8f9b          	addiw	x31,x31,192 # 43bf20c0 <pte_access_flags_pa>
    41000468:	000fbf83          	ld	x31,0(x31)
    4100046c:	43bf22b7          	lui	x5,0x43bf2
    41000470:	0c82829b          	addiw	x5,x5,200 # 43bf20c8 <pte_access_flags_pa+0x8>
    41000474:	0002b283          	ld	x5,0(x5)
    41000478:	43bf2e37          	lui	x28,0x43bf2
    4100047c:	0d0e0e1b          	addiw	x28,x28,208 # 43bf20d0 <pte_access_flags_pa+0x10>
    41000480:	000e3e03          	ld	x28,0(x28)

0000000041000484 <syscalls__pte_walk_check_glevel_without_gstage_write>:
    41000484:	fff00f93          	li	x31,-1
    41000488:	0dfe1063          	bne	x28,x31,41000548 <syscalls__pte_walk_fail_write>
    4100048c:	18002373          	csrr	x6,satp
    41000490:	03c35e93          	srli	x29,x6,0x3c
    41000494:	01431313          	slli	x6,x6,0x14
    41000498:	01435313          	srli	x6,x6,0x14
    4100049c:	00c31313          	slli	x6,x6,0xc
    410004a0:	ff8e8e93          	addi	x29,x29,-8
    410004a4:	003e9f13          	slli	x30,x29,0x3
    410004a8:	01df0eb3          	add	x29,x30,x29
    410004ac:	01ee8e93          	addi	x29,x29,30
    410004b0:	00000f13          	li	x30,0

00000000410004b4 <syscalls__pte_walk_loop_write>:
    410004b4:	43bf2fb7          	lui	x31,0x43bf2
    410004b8:	0c0f8f9b          	addiw	x31,x31,192 # 43bf20c0 <pte_access_flags_pa>
    410004bc:	000fbf83          	ld	x31,0(x31)
    410004c0:	01dfdfb3          	srl	x31,x31,x29
    410004c4:	1fffff93          	andi	x31,x31,511
    410004c8:	003f9f93          	slli	x31,x31,0x3
    410004cc:	01f30333          	add	x6,x6,x31
    410004d0:	005f0e63          	beq	x30,x5,410004ec <syscalls__pte_walk_done_write>
    410004d4:	00033f83          	ld	x31,0(x6)
    410004d8:	00afdf93          	srli	x31,x31,0xa
    410004dc:	00cf9313          	slli	x6,x31,0xc
    410004e0:	001f0f13          	addi	x30,x30,1
    410004e4:	ff7e8e93          	addi	x29,x29,-9
    410004e8:	fcdff06f          	j	410004b4 <syscalls__pte_walk_loop_write>

00000000410004ec <syscalls__pte_walk_done_write>:
    410004ec:	fff00f93          	li	x31,-1
    410004f0:	05fe0263          	beq	x28,x31,41000534 <syscalls__pte_walk_final_write>

00000000410004f4 <syscalls__pte_walk_gstage_write>:
    410004f4:	43bf2fb7          	lui	x31,0x43bf2
    410004f8:	0c0f8f9b          	addiw	x31,x31,192 # 43bf20c0 <pte_access_flags_pa>
    410004fc:	006fb023          	sd	x6,0(x31)
    41000500:	000e0293          	mv	x5,x28
    41000504:	fff00e13          	li	x28,-1
    41000508:	68002373          	csrr	x6,hgatp
    4100050c:	03c35e93          	srli	x29,x6,0x3c
    41000510:	01431313          	slli	x6,x6,0x14
    41000514:	01435313          	srli	x6,x6,0x14
    41000518:	00c31313          	slli	x6,x6,0xc
    4100051c:	ff8e8e93          	addi	x29,x29,-8
    41000520:	003e9f13          	slli	x30,x29,0x3
    41000524:	01df0eb3          	add	x29,x30,x29
    41000528:	01ee8e93          	addi	x29,x29,30
    4100052c:	00000f13          	li	x30,0
    41000530:	f85ff06f          	j	410004b4 <syscalls__pte_walk_loop_write>

0000000041000534 <syscalls__pte_walk_final_write>:
    41000534:	00733023          	sd	x7,0(x6)
    41000538:	341022f3          	csrr	x5,mepc
    4100053c:	00428293          	addi	x5,x5,4
    41000540:	16523c23          	sd	x5,376(x4) # 178 <XLEN+0x138>
    41000544:	da9ff06f          	j	410002ec <syscalls__os_fn_f0001004>

0000000041000548 <syscalls__pte_walk_fail_write>:
    41000548:	3180006f          	j	41000860 <test_failed>

000000004100054c <syscalls__os_get_hart_context>:
    4100054c:	14002573          	csrr	x10,sscratch
    41000550:	341022f3          	csrr	x5,mepc
    41000554:	00428293          	addi	x5,x5,4
    41000558:	0040006f          	j	4100055c <syscalls__ret_from_os_fn>

000000004100055c <syscalls__ret_from_os_fn>:
    4100055c:	34102373          	csrr	x6,mepc
    41000560:	00430313          	addi	x6,x6,4
    41000564:	16623c23          	sd	x6,376(x4) # 178 <XLEN+0x138>
    41000568:	34129073          	csrw	mepc,x5
    4100056c:	fff00f93          	li	x31,-1
    41000570:	2a40006f          	j	41000814 <trap_handler_m__skip_xepc_write>

0000000041000574 <trap_handler_m__invalid_interrupt>:
    41000574:	2ec0006f          	j	41000860 <test_failed>

0000000041000578 <trap_handler_m__clear_all_interrupts>:
    41000578:	34401073          	csrw	mip,x0
    4100057c:	30200073          	mret

0000000041000580 <trap_handler_m___CLEAR_SSI>:
    41000580:	00200293          	li	x5,2
    41000584:	3442b073          	csrc	mip,x5
    41000588:	30200073          	mret

000000004100058c <trap_handler_m___CLEAR_MSI>:
    4100058c:	00800293          	li	x5,8
    41000590:	3442b073          	csrc	mip,x5
    41000594:	30200073          	mret

0000000041000598 <trap_handler_m___CLEAR_STI>:
    41000598:	02000293          	li	x5,32
    4100059c:	3442b073          	csrc	mip,x5
    410005a0:	30200073          	mret

00000000410005a4 <trap_handler_m___CLEAR_MTI>:
    410005a4:	08000293          	li	x5,128
    410005a8:	3442b073          	csrc	mip,x5
    410005ac:	30200073          	mret

00000000410005b0 <trap_handler_m___CLEAR_SEI>:
    410005b0:	20000293          	li	x5,512
    410005b4:	3442b073          	csrc	mip,x5
    410005b8:	30200073          	mret

00000000410005bc <trap_handler_m___CLEAR_MEI>:
    410005bc:	000012b7          	lui	x5,0x1
    410005c0:	8002829b          	addiw	x5,x5,-2048 # 800 <XLEN+0x7c0>
    410005c4:	3442b073          	csrc	mip,x5
    410005c8:	30200073          	mret

00000000410005cc <trap_handler_m___CLEAR_COI>:
    410005cc:	000022b7          	lui	x5,0x2
    410005d0:	3442b073          	csrc	mip,x5
    410005d4:	30200073          	mret

00000000410005d8 <trap_handler_m__clear_highest_priority_interrupt>:
    410005d8:	344022f3          	csrr	x5,mip
    410005dc:	40500333          	neg	x6,x5
    410005e0:	0062f2b3          	and	x5,x5,x6
    410005e4:	3442b073          	csrc	mip,x5
    410005e8:	30200073          	mret

00000000410005ec <trap_handler_m__trap_entry>:
    410005ec:	0fc0006f          	j	410006e8 <trap_handler_m__trap_handler>

00000000410005f0 <trap_handler_m__interrupt_vector_table>:
    410005f0:	f91ff06f          	j	41000580 <trap_handler_m___CLEAR_SSI>
    410005f4:	f81ff06f          	j	41000574 <trap_handler_m__invalid_interrupt>
    410005f8:	f95ff06f          	j	4100058c <trap_handler_m___CLEAR_MSI>
    410005fc:	f79ff06f          	j	41000574 <trap_handler_m__invalid_interrupt>
    41000600:	f99ff06f          	j	41000598 <trap_handler_m___CLEAR_STI>
    41000604:	f71ff06f          	j	41000574 <trap_handler_m__invalid_interrupt>
    41000608:	f9dff06f          	j	410005a4 <trap_handler_m___CLEAR_MTI>
    4100060c:	f69ff06f          	j	41000574 <trap_handler_m__invalid_interrupt>
    41000610:	fa1ff06f          	j	410005b0 <trap_handler_m___CLEAR_SEI>
    41000614:	f61ff06f          	j	41000574 <trap_handler_m__invalid_interrupt>
    41000618:	fa5ff06f          	j	410005bc <trap_handler_m___CLEAR_MEI>
    4100061c:	f59ff06f          	j	41000574 <trap_handler_m__invalid_interrupt>
    41000620:	fadff06f          	j	410005cc <trap_handler_m___CLEAR_COI>
    41000624:	f51ff06f          	j	41000574 <trap_handler_m__invalid_interrupt>
    41000628:	f4dff06f          	j	41000574 <trap_handler_m__invalid_interrupt>
    4100062c:	fadff06f          	j	410005d8 <trap_handler_m__clear_highest_priority_interrupt>
    41000630:	fa9ff06f          	j	410005d8 <trap_handler_m__clear_highest_priority_interrupt>
    41000634:	fa5ff06f          	j	410005d8 <trap_handler_m__clear_highest_priority_interrupt>
    41000638:	fa1ff06f          	j	410005d8 <trap_handler_m__clear_highest_priority_interrupt>
    4100063c:	f9dff06f          	j	410005d8 <trap_handler_m__clear_highest_priority_interrupt>
    41000640:	f99ff06f          	j	410005d8 <trap_handler_m__clear_highest_priority_interrupt>
    41000644:	f95ff06f          	j	410005d8 <trap_handler_m__clear_highest_priority_interrupt>
    41000648:	f91ff06f          	j	410005d8 <trap_handler_m__clear_highest_priority_interrupt>
    4100064c:	f8dff06f          	j	410005d8 <trap_handler_m__clear_highest_priority_interrupt>
    41000650:	f89ff06f          	j	410005d8 <trap_handler_m__clear_highest_priority_interrupt>
    41000654:	f85ff06f          	j	410005d8 <trap_handler_m__clear_highest_priority_interrupt>
    41000658:	f81ff06f          	j	410005d8 <trap_handler_m__clear_highest_priority_interrupt>
    4100065c:	f7dff06f          	j	410005d8 <trap_handler_m__clear_highest_priority_interrupt>
    41000660:	f79ff06f          	j	410005d8 <trap_handler_m__clear_highest_priority_interrupt>
    41000664:	f75ff06f          	j	410005d8 <trap_handler_m__clear_highest_priority_interrupt>
    41000668:	f71ff06f          	j	410005d8 <trap_handler_m__clear_highest_priority_interrupt>
    4100066c:	f6dff06f          	j	410005d8 <trap_handler_m__clear_highest_priority_interrupt>
    41000670:	f69ff06f          	j	410005d8 <trap_handler_m__clear_highest_priority_interrupt>
    41000674:	f65ff06f          	j	410005d8 <trap_handler_m__clear_highest_priority_interrupt>
    41000678:	f61ff06f          	j	410005d8 <trap_handler_m__clear_highest_priority_interrupt>
    4100067c:	f5dff06f          	j	410005d8 <trap_handler_m__clear_highest_priority_interrupt>
    41000680:	f59ff06f          	j	410005d8 <trap_handler_m__clear_highest_priority_interrupt>
    41000684:	f55ff06f          	j	410005d8 <trap_handler_m__clear_highest_priority_interrupt>
    41000688:	f51ff06f          	j	410005d8 <trap_handler_m__clear_highest_priority_interrupt>
    4100068c:	f4dff06f          	j	410005d8 <trap_handler_m__clear_highest_priority_interrupt>
    41000690:	f49ff06f          	j	410005d8 <trap_handler_m__clear_highest_priority_interrupt>
    41000694:	f45ff06f          	j	410005d8 <trap_handler_m__clear_highest_priority_interrupt>
    41000698:	f41ff06f          	j	410005d8 <trap_handler_m__clear_highest_priority_interrupt>
    4100069c:	f3dff06f          	j	410005d8 <trap_handler_m__clear_highest_priority_interrupt>
    410006a0:	f39ff06f          	j	410005d8 <trap_handler_m__clear_highest_priority_interrupt>
    410006a4:	f35ff06f          	j	410005d8 <trap_handler_m__clear_highest_priority_interrupt>
    410006a8:	f31ff06f          	j	410005d8 <trap_handler_m__clear_highest_priority_interrupt>
    410006ac:	f2dff06f          	j	410005d8 <trap_handler_m__clear_highest_priority_interrupt>
    410006b0:	f29ff06f          	j	410005d8 <trap_handler_m__clear_highest_priority_interrupt>
    410006b4:	f25ff06f          	j	410005d8 <trap_handler_m__clear_highest_priority_interrupt>
    410006b8:	f21ff06f          	j	410005d8 <trap_handler_m__clear_highest_priority_interrupt>
    410006bc:	f1dff06f          	j	410005d8 <trap_handler_m__clear_highest_priority_interrupt>
    410006c0:	f19ff06f          	j	410005d8 <trap_handler_m__clear_highest_priority_interrupt>
    410006c4:	f15ff06f          	j	410005d8 <trap_handler_m__clear_highest_priority_interrupt>
    410006c8:	f11ff06f          	j	410005d8 <trap_handler_m__clear_highest_priority_interrupt>
    410006cc:	f0dff06f          	j	410005d8 <trap_handler_m__clear_highest_priority_interrupt>
    410006d0:	f09ff06f          	j	410005d8 <trap_handler_m__clear_highest_priority_interrupt>
    410006d4:	f05ff06f          	j	410005d8 <trap_handler_m__clear_highest_priority_interrupt>
    410006d8:	f01ff06f          	j	410005d8 <trap_handler_m__clear_highest_priority_interrupt>
    410006dc:	efdff06f          	j	410005d8 <trap_handler_m__clear_highest_priority_interrupt>
    410006e0:	ef9ff06f          	j	410005d8 <trap_handler_m__clear_highest_priority_interrupt>
    410006e4:	ef5ff06f          	j	410005d8 <trap_handler_m__clear_highest_priority_interrupt>

00000000410006e8 <trap_handler_m__trap_handler>:
    410006e8:	342022f3          	csrr	x5,mcause
    410006ec:	fff0031b          	addiw	x6,x0,-1
    410006f0:	03f31313          	slli	x6,x6,0x3f
    410006f4:	00537333          	and	x6,x6,x5
    410006f8:	02030263          	beqz	x6,4100071c <trap_handler_m__exception_path>

00000000410006fc <trap_handler_m__interrupt_handler>:
    410006fc:	fff0031b          	addiw	x6,x0,-1
    41000700:	03f31313          	slli	x6,x6,0x3f
    41000704:	0062c2b3          	xor	x5,x5,x6
    41000708:	00000317          	auipc	x6,0x0
    4100070c:	ee430313          	addi	x6,x6,-284 # 410005ec <trap_handler_m__trap_entry>
    41000710:	00229293          	slli	x5,x5,0x2
    41000714:	005302b3          	add	x5,x6,x5
    41000718:	00028067          	jr	x5 # 2000 <mem3>

000000004100071c <trap_handler_m__exception_path>:
    4100071c:	34021273          	csrrw	x4,mscratch,x4
    41000720:	00000297          	auipc	x5,0x0
    41000724:	10828293          	addi	x5,x5,264 # 41000828 <trap_handler_m__trap_panic>
    41000728:	30529073          	csrw	mtvec,x5
    4100072c:	0040006f          	j	41000730 <trap_handler_m__excp_entry>

0000000041000730 <trap_handler_m__excp_entry>:
    41000730:	34202373          	csrr	x6,mcause
    41000734:	00800293          	li	x5,8
    41000738:	00534863          	blt	x6,x5,41000748 <trap_handler_m__check_exception_label>
    4100073c:	00b00293          	li	x5,11
    41000740:	0062c463          	blt	x5,x6,41000748 <trap_handler_m__check_exception_label>
    41000744:	a0dff06f          	j	41000150 <syscalls__syscall_check_schedule_next_test>

0000000041000748 <trap_handler_m__check_exception_label>:
    41000748:	04623c23          	sd	x6,88(x4) # 58 <XLEN+0x18>
    4100074c:	341022f3          	csrr	x5,mepc
    41000750:	02523423          	sd	x5,40(x4) # 28 <SECURE_ACCESS_PROBABILITY+0xa>
    41000754:	01820283          	lb	x5,24(x4) # 18 <STORE_GUEST_PAGE_FAULT+0x1>
    41000758:	00029863          	bnez	x5,41000768 <trap_handler_m__check_excp>
    4100075c:	00128293          	addi	x5,x5,1
    41000760:	00520c23          	sb	x5,24(x4) # 18 <STORE_GUEST_PAGE_FAULT+0x1>
    41000764:	0980006f          	j	410007fc <trap_handler_m__ecall_from_machine>

0000000041000768 <trap_handler_m__check_excp>:
    41000768:	06823283          	ld	x5,104(x4) # 68 <XLEN+0x28>
    4100076c:	06023423          	sd	x0,104(x4) # 68 <XLEN+0x28>
    41000770:	00028663          	beqz	x5,4100077c <trap_handler_m__skip_mode_check>
    41000774:	00100393          	li	x7,1
    41000778:	0e729463          	bne	x5,x7,41000860 <test_failed>

000000004100077c <trap_handler_m__skip_mode_check>:
    4100077c:	05023283          	ld	x5,80(x4) # 50 <XLEN+0x10>
    41000780:	04023823          	sd	x0,80(x4) # 50 <XLEN+0x10>
    41000784:	0c531e63          	bne	x6,x5,41000860 <test_failed>
    41000788:	03823283          	ld	x5,56(x4) # 38 <SECURE_ACCESS_PROBABILITY+0x1a>
    4100078c:	02023c23          	sd	x0,56(x4) # 38 <SECURE_ACCESS_PROBABILITY+0x1a>
    41000790:	06029463          	bnez	x5,410007f8 <trap_handler_m__skip_gva_check>
    41000794:	02023303          	ld	x6,32(x4) # 20 <SECURE_ACCESS_PROBABILITY+0x2>
    41000798:	02023023          	sd	x0,32(x4) # 20 <SECURE_ACCESS_PROBABILITY+0x2>
    4100079c:	02823283          	ld	x5,40(x4) # 28 <SECURE_ACCESS_PROBABILITY+0xa>
    410007a0:	02023423          	sd	x0,40(x4) # 28 <SECURE_ACCESS_PROBABILITY+0xa>
    410007a4:	0a531e63          	bne	x6,x5,41000860 <test_failed>
    410007a8:	04023283          	ld	x5,64(x4) # 40 <XLEN>
    410007ac:	04023023          	sd	x0,64(x4) # 40 <XLEN>
    410007b0:	00028663          	beqz	x5,410007bc <trap_handler_m__skip_nonzero_tval_check>

00000000410007b4 <trap_handler_m__nonzero_tval_check>:
    410007b4:	34302373          	csrr	x6,mtval
    410007b8:	0a531463          	bne	x6,x5,41000860 <test_failed>

00000000410007bc <trap_handler_m__skip_nonzero_tval_check>:
    410007bc:	04823283          	ld	x5,72(x4) # 48 <XLEN+0x8>
    410007c0:	04023423          	sd	x0,72(x4) # 48 <XLEN+0x8>
    410007c4:	00028663          	beqz	x5,410007d0 <trap_handler_m__skip_nonzero_htval_check>

00000000410007c8 <trap_handler_m__nonzero_htval_check>:
    410007c8:	34b02373          	csrr	x6,0x34b
    410007cc:	08531a63          	bne	x6,x5,41000860 <test_failed>

00000000410007d0 <trap_handler_m__skip_nonzero_htval_check>:
    410007d0:	06023283          	ld	x5,96(x4) # 60 <XLEN+0x20>
    410007d4:	06023023          	sd	x0,96(x4) # 60 <XLEN+0x20>
    410007d8:	02028063          	beqz	x5,410007f8 <trap_handler_m__skip_gva_check>

00000000410007dc <trap_handler_m__gva_check>:
    410007dc:	30002373          	csrr	x6,mstatus
    410007e0:	02635313          	srli	x6,x6,0x26
    410007e4:	00137313          	andi	x6,x6,1
    410007e8:	06030c63          	beqz	x6,41000860 <test_failed>
    410007ec:	0010031b          	addiw	x6,x0,1
    410007f0:	02631313          	slli	x6,x6,0x26
    410007f4:	30033073          	csrc	mstatus,x6

00000000410007f8 <trap_handler_m__skip_gva_check>:
    410007f8:	0040006f          	j	410007fc <trap_handler_m__ecall_from_machine>

00000000410007fc <trap_handler_m__ecall_from_machine>:
    410007fc:	03023283          	ld	x5,48(x4) # 30 <SECURE_ACCESS_PROBABILITY+0x12>
    41000800:	02023823          	sd	x0,48(x4) # 30 <SECURE_ACCESS_PROBABILITY+0x12>
    41000804:	07023303          	ld	x6,112(x4) # 70 <XLEN+0x30>
    41000808:	06023823          	sd	x0,112(x4) # 70 <XLEN+0x30>
    4100080c:	00031463          	bnez	x6,41000814 <trap_handler_m__skip_xepc_write>
    41000810:	34129073          	csrw	mepc,x5

0000000041000814 <trap_handler_m__skip_xepc_write>:
    41000814:	00000317          	auipc	x6,0x0
    41000818:	dd830313          	addi	x6,x6,-552 # 410005ec <trap_handler_m__trap_entry>
    4100081c:	30531073          	csrw	mtvec,x6
    41000820:	34021273          	csrrw	x4,mscratch,x4
    41000824:	30200073          	mret

0000000041000828 <trap_handler_m__trap_panic>:
    41000828:	00000193          	li	x3,0
    4100082c:	2b40006f          	j	41000ae0 <eot__end_test>

0000000041000830 <enter_scheduler>:
    41000830:	0002f337          	lui	x6,0x2f
    41000834:	ab73031b          	addiw	x6,x6,-1353 # 2eab7 <mem4+0x7ab7>
    41000838:	00e31313          	slli	x6,x6,0xe
    4100083c:	0de30313          	addi	x6,x6,222
    41000840:	02628063          	beq	x5,x6,41000860 <test_failed>
    41000844:	00000513          	li	x10,0
    41000848:	030000ef          	jal	41000878 <rvcp_print_test_result>
    4100084c:	3180006f          	j	41000b64 <scheduler__dispatch>

0000000041000850 <test_passed>:
    41000850:	34021273          	csrrw	x4,mscratch,x4
    41000854:	00000513          	li	x10,0
    41000858:	020000ef          	jal	41000878 <rvcp_print_test_result>
    4100085c:	3080006f          	j	41000b64 <scheduler__dispatch>

0000000041000860 <test_failed>:
    41000860:	34021273          	csrrw	x4,mscratch,x4
    41000864:	00300193          	li	x3,3
    41000868:	2780006f          	j	41000ae0 <eot__end_test>

000000004100086c <os_end_test>:
    4100086c:	34021273          	csrrw	x4,mscratch,x4
    41000870:	00100193          	li	x3,1
    41000874:	26c0006f          	j	41000ae0 <eot__end_test>

0000000041000878 <rvcp_print_test_result>:
    41000878:	00050e13          	mv	x28,x10
    4100087c:	18823283          	ld	x5,392(x4) # 188 <XLEN+0x148>
    41000880:	0010031b          	addiw	x6,x0,1
    41000884:	02031313          	slli	x6,x6,0x20
    41000888:	ffe30313          	addi	x6,x6,-2
    4100088c:	1c628063          	beq	x5,x6,41000a4c <rvcp_print_test_result+0x1d4>
    41000890:	0010031b          	addiw	x6,x0,1
    41000894:	02031313          	slli	x6,x6,0x20
    41000898:	fff30313          	addi	x6,x6,-1
    4100089c:	1a628863          	beq	x5,x6,41000a4c <rvcp_print_test_result+0x1d4>
    410008a0:	1a02c663          	bltz	x5,41000a4c <rvcp_print_test_result+0x1d4>
    410008a4:	00000317          	auipc	x6,0x0
    410008a8:	42030313          	addi	x6,x6,1056 # 41000cc4 <dtest_descriptor_table>
    410008ac:	00329393          	slli	x7,x5,0x3
    410008b0:	00730333          	add	x6,x6,x7
    410008b4:	00033e83          	ld	x29,0(x6)
    410008b8:	43bf2f37          	lui	x30,0x43bf2
    410008bc:	030f0f1b          	addiw	x30,x30,48 # 43bf2030 <rvcp_prefix_str_pa>
    410008c0:	000f4283          	lbu	x5,0(x30)
    410008c4:	02028663          	beqz	x5,410008f0 <rvcp_print_test_result+0x78>
    410008c8:	1010031b          	addiw	x6,x0,257
    410008cc:	03031313          	slli	x6,x6,0x30
    410008d0:	005362b3          	or	x5,x6,x5
    410008d4:	0003f317          	auipc	x6,0x3f
    410008d8:	72c30313          	addi	x6,x6,1836 # 41040000 <tohost>
    410008dc:	00033383          	ld	x7,0(x6)
    410008e0:	fe039ee3          	bnez	x7,410008dc <rvcp_print_test_result+0x64>
    410008e4:	00533023          	sd	x5,0(x6)
    410008e8:	001f0f13          	addi	x30,x30,1
    410008ec:	fd5ff06f          	j	410008c0 <rvcp_print_test_result+0x48>
    410008f0:	43bf2f37          	lui	x30,0x43bf2
    410008f4:	041f0f1b          	addiw	x30,x30,65 # 43bf2041 <rvcp_testname_str_pa>
    410008f8:	000f4283          	lbu	x5,0(x30)
    410008fc:	02028663          	beqz	x5,41000928 <rvcp_print_test_result+0xb0>
    41000900:	1010031b          	addiw	x6,x0,257
    41000904:	03031313          	slli	x6,x6,0x30
    41000908:	005362b3          	or	x5,x6,x5
    4100090c:	0003f317          	auipc	x6,0x3f
    41000910:	6f430313          	addi	x6,x6,1780 # 41040000 <tohost>
    41000914:	00033383          	ld	x7,0(x6)
    41000918:	fe039ee3          	bnez	x7,41000914 <rvcp_print_test_result+0x9c>
    4100091c:	00533023          	sd	x5,0(x6)
    41000920:	001f0f13          	addi	x30,x30,1
    41000924:	fd5ff06f          	j	410008f8 <rvcp_print_test_result+0x80>
    41000928:	43bf2f37          	lui	x30,0x43bf2
    4100092c:	06af0f1b          	addiw	x30,x30,106 # 43bf206a <rvcp_space_str_pa>
    41000930:	000f4283          	lbu	x5,0(x30)
    41000934:	02028663          	beqz	x5,41000960 <rvcp_print_test_result+0xe8>
    41000938:	1010031b          	addiw	x6,x0,257
    4100093c:	03031313          	slli	x6,x6,0x30
    41000940:	005362b3          	or	x5,x6,x5
    41000944:	0003f317          	auipc	x6,0x3f
    41000948:	6bc30313          	addi	x6,x6,1724 # 41040000 <tohost>
    4100094c:	00033383          	ld	x7,0(x6)
    41000950:	fe039ee3          	bnez	x7,4100094c <rvcp_print_test_result+0xd4>
    41000954:	00533023          	sd	x5,0(x6)
    41000958:	001f0f13          	addi	x30,x30,1
    4100095c:	fd5ff06f          	j	41000930 <rvcp_print_test_result+0xb8>
    41000960:	000e8f13          	mv	x30,x29
    41000964:	000f4283          	lbu	x5,0(x30)
    41000968:	02028663          	beqz	x5,41000994 <rvcp_print_test_result+0x11c>
    4100096c:	1010031b          	addiw	x6,x0,257
    41000970:	03031313          	slli	x6,x6,0x30
    41000974:	005362b3          	or	x5,x6,x5
    41000978:	0003f317          	auipc	x6,0x3f
    4100097c:	68830313          	addi	x6,x6,1672 # 41040000 <tohost>
    41000980:	00033383          	ld	x7,0(x6)
    41000984:	fe039ee3          	bnez	x7,41000980 <rvcp_print_test_result+0x108>
    41000988:	00533023          	sd	x5,0(x6)
    4100098c:	001f0f13          	addi	x30,x30,1
    41000990:	fd5ff06f          	j	41000964 <rvcp_print_test_result+0xec>
    41000994:	43bf2f37          	lui	x30,0x43bf2
    41000998:	06af0f1b          	addiw	x30,x30,106 # 43bf206a <rvcp_space_str_pa>
    4100099c:	000f4283          	lbu	x5,0(x30)
    410009a0:	02028663          	beqz	x5,410009cc <rvcp_print_test_result+0x154>
    410009a4:	1010031b          	addiw	x6,x0,257
    410009a8:	03031313          	slli	x6,x6,0x30
    410009ac:	005362b3          	or	x5,x6,x5
    410009b0:	0003f317          	auipc	x6,0x3f
    410009b4:	65030313          	addi	x6,x6,1616 # 41040000 <tohost>
    410009b8:	00033383          	ld	x7,0(x6)
    410009bc:	fe039ee3          	bnez	x7,410009b8 <rvcp_print_test_result+0x140>
    410009c0:	00533023          	sd	x5,0(x6)
    410009c4:	001f0f13          	addi	x30,x30,1
    410009c8:	fd5ff06f          	j	4100099c <rvcp_print_test_result+0x124>
    410009cc:	000e1863          	bnez	x28,410009dc <rvcp_print_test_result+0x164>
    410009d0:	43bf2f37          	lui	x30,0x43bf2
    410009d4:	05cf0f1b          	addiw	x30,x30,92 # 43bf205c <rvcp_passed_str_pa>
    410009d8:	00c0006f          	j	410009e4 <rvcp_print_test_result+0x16c>
    410009dc:	43bf2f37          	lui	x30,0x43bf2
    410009e0:	063f0f1b          	addiw	x30,x30,99 # 43bf2063 <rvcp_failed_str_pa>
    410009e4:	000f4283          	lbu	x5,0(x30)
    410009e8:	02028663          	beqz	x5,41000a14 <rvcp_print_test_result+0x19c>
    410009ec:	1010031b          	addiw	x6,x0,257
    410009f0:	03031313          	slli	x6,x6,0x30
    410009f4:	005362b3          	or	x5,x6,x5
    410009f8:	0003f317          	auipc	x6,0x3f
    410009fc:	60830313          	addi	x6,x6,1544 # 41040000 <tohost>
    41000a00:	00033383          	ld	x7,0(x6)
    41000a04:	fe039ee3          	bnez	x7,41000a00 <rvcp_print_test_result+0x188>
    41000a08:	00533023          	sd	x5,0(x6)
    41000a0c:	001f0f13          	addi	x30,x30,1
    41000a10:	fd5ff06f          	j	410009e4 <rvcp_print_test_result+0x16c>
    41000a14:	43bf2f37          	lui	x30,0x43bf2
    41000a18:	06cf0f1b          	addiw	x30,x30,108 # 43bf206c <rvcp_newline_str_pa>
    41000a1c:	000f4283          	lbu	x5,0(x30)
    41000a20:	02028663          	beqz	x5,41000a4c <rvcp_print_test_result+0x1d4>
    41000a24:	1010031b          	addiw	x6,x0,257
    41000a28:	03031313          	slli	x6,x6,0x30
    41000a2c:	005362b3          	or	x5,x6,x5
    41000a30:	0003f317          	auipc	x6,0x3f
    41000a34:	5d030313          	addi	x6,x6,1488 # 41040000 <tohost>
    41000a38:	00033383          	ld	x7,0(x6)
    41000a3c:	fe039ee3          	bnez	x7,41000a38 <rvcp_print_test_result+0x1c0>
    41000a40:	00533023          	sd	x5,0(x6)
    41000a44:	001f0f13          	addi	x30,x30,1
    41000a48:	fd5ff06f          	j	41000a1c <rvcp_print_test_result+0x1a4>
    41000a4c:	00008067          	ret

0000000041000a50 <os_rng_orig>:
    41000a50:	f14023f3          	csrr	x7,mhartid
    41000a54:	00068313          	mv	x6,x13
    41000a58:	026383b3          	mul	x7,x7,x6
    41000a5c:	00058313          	mv	x6,x11
    41000a60:	00730333          	add	x6,x6,x7
    41000a64:	00033283          	ld	x5,0(x6)
    41000a68:	01529313          	slli	x6,x5,0x15
    41000a6c:	0062c2b3          	xor	x5,x5,x6
    41000a70:	0232d313          	srli	x6,x5,0x23
    41000a74:	0062c2b3          	xor	x5,x5,x6
    41000a78:	00429313          	slli	x6,x5,0x4
    41000a7c:	0062c2b3          	xor	x5,x5,x6
    41000a80:	00058313          	mv	x6,x11
    41000a84:	00730333          	add	x6,x6,x7
    41000a88:	00533023          	sd	x5,0(x6)
    41000a8c:	00060313          	mv	x6,x12
    41000a90:	0262f2b3          	remu	x5,x5,x6
    41000a94:	00028513          	mv	x10,x5
    41000a98:	00008067          	ret
    41000a9c:	02a00513          	li	x10,42
    41000aa0:	001965b7          	lui	x11,0x196
    41000aa4:	60d5859b          	addiw	x11,x11,1549 # 19660d <tp_csr_storage+0x2660d>
    41000aa8:	3c6ef637          	lui	x12,0x3c6ef
    41000aac:	35f6061b          	addiw	x12,x12,863 # 3c6ef35f <SID_HEXCEP_19_misaligned_amo_delegated_stack+0x469735f>
    41000ab0:	02200693          	li	x13,34
    41000ab4:	02b50533          	mul	x10,x10,x11
    41000ab8:	00c50533          	add	x10,x10,x12
    41000abc:	02d56533          	rem	x10,x10,x13
    41000ac0:	00b00593          	li	x11,11
    41000ac4:	02b56533          	rem	x10,x10,x11
    41000ac8:	00008067          	ret
    41000acc:	0000                	.insn	2, 0x0000
	...

0000000041000ad0 <tohost_mutex>:
	...

0000000041000ad8 <tohost_addr_mem>:
    41000ad8:	0000                	.insn	2, 0x0000
    41000ada:	4104                	.insn	2, 0x4104
    41000adc:	0000                	.insn	2, 0x0000
	...

0000000041000ae0 <eot__end_test>:
    41000ae0:	00100293          	li	x5,1
    41000ae4:	00328463          	beq	x5,x3,41000aec <eot__passed>
    41000ae8:	01c0006f          	j	41000b04 <eot__failed>

0000000041000aec <eot__passed>:
    41000aec:	0ff0000f          	fence
    41000af0:	00000297          	auipc	x5,0x0
    41000af4:	fe82b283          	ld	x5,-24(x5) # 41000ad8 <tohost_addr_mem>
    41000af8:	00100313          	li	x6,1
    41000afc:	0062a023          	sw	x6,0(x5)
    41000b00:	0240006f          	j	41000b24 <eot__halt>

0000000041000b04 <eot__failed>:
    41000b04:	00100513          	li	x10,1
    41000b08:	d71ff0ef          	jal	41000878 <rvcp_print_test_result>
    41000b0c:	0ff0000f          	fence
    41000b10:	00000297          	auipc	x5,0x0
    41000b14:	fc82b283          	ld	x5,-56(x5) # 41000ad8 <tohost_addr_mem>
    41000b18:	00300313          	li	x6,3
    41000b1c:	0062a023          	sw	x6,0(x5)
    41000b20:	0040006f          	j	41000b24 <eot__halt>

0000000041000b24 <eot__halt>:
    41000b24:	10500073          	wfi
    41000b28:	ffdff06f          	j	41000b24 <eot__halt>

0000000041000b2c <scheduler__init>:
    41000b2c:	00000297          	auipc	x5,0x0
    41000b30:	0c428293          	addi	x5,x5,196 # 41000bf0 <scheduler__panic>
    41000b34:	305292f3          	csrrw	x5,mtvec,x5
    41000b38:	18523023          	sd	x5,384(x4) # 180 <XLEN+0x140>
    41000b3c:	01800293          	li	x5,24
    41000b40:	18523823          	sd	x5,400(x4) # 190 <XLEN+0x150>
    41000b44:	0010029b          	addiw	x5,x0,1
    41000b48:	02029293          	slli	x5,x5,0x20
    41000b4c:	ffe28293          	addi	x5,x5,-2
    41000b50:	18523423          	sd	x5,392(x4) # 188 <XLEN+0x148>
    41000b54:	00000317          	auipc	x6,0x0
    41000b58:	4f030313          	addi	x6,x6,1264 # 41001044 <scheduler__test_setup_ptr>
    41000b5c:	00033303          	ld	x6,0(x6)
    41000b60:	0600006f          	j	41000bc0 <scheduler__execute_test>

0000000041000b64 <scheduler__dispatch>:
    41000b64:	00000297          	auipc	x5,0x0
    41000b68:	08c28293          	addi	x5,x5,140 # 41000bf0 <scheduler__panic>
    41000b6c:	305292f3          	csrrw	x5,mtvec,x5
    41000b70:	18523023          	sd	x5,384(x4) # 180 <XLEN+0x140>

0000000041000b74 <scheduler__csr_read_randomization>:
    41000b74:	f15022f3          	csrr	x5,0xf15
    41000b78:	104022f3          	csrr	x5,sie
    41000b7c:	f12022f3          	csrr	x5,marchid
    41000b80:	10a022f3          	csrr	x5,0x10a

0000000041000b84 <scheduler__load_num_runs>:
    41000b84:	19023303          	ld	x6,400(x4) # 190 <XLEN+0x150>
    41000b88:	06030063          	beqz	x6,41000be8 <scheduler__finished>

0000000041000b8c <scheduler__decrement_num_runs>:
    41000b8c:	fff30393          	addi	x7,x6,-1
    41000b90:	18723823          	sd	x7,400(x4) # 190 <XLEN+0x150>
    41000b94:	00000e17          	auipc	x28,0x0
    41000b98:	44ce0e13          	addi	x28,x28,1100 # 41000fe0 <dtest_index_map>
    41000b9c:	00239e93          	slli	x29,x7,0x2
    41000ba0:	01de0e33          	add	x28,x28,x29
    41000ba4:	000e2e03          	lw	x28,0(x28)
    41000ba8:	19c23423          	sd	x28,392(x4) # 188 <XLEN+0x148>

0000000041000bac <scheduler__calc_test_pointer>:
    41000bac:	00339293          	slli	x5,x7,0x3

0000000041000bb0 <scheduler__load_test_addr>:
    41000bb0:	00000317          	auipc	x6,0x0
    41000bb4:	05430313          	addi	x6,x6,84 # 41000c04 <os_test_sequence>
    41000bb8:	006282b3          	add	x5,x5,x6
    41000bbc:	0002b303          	ld	x6,0(x5)

0000000041000bc0 <scheduler__execute_test>:
    41000bc0:	18023283          	ld	x5,384(x4) # 180 <XLEN+0x140>
    41000bc4:	30529073          	csrw	mtvec,x5
    41000bc8:	34021273          	csrrw	x4,mscratch,x4
    41000bcc:	00000213          	li	x4,0
    41000bd0:	14131073          	csrw	sepc,x6
    41000bd4:	10000293          	li	x5,256
    41000bd8:	1002a073          	csrs	sstatus,x5
    41000bdc:	08000093          	li	x1,128
    41000be0:	6000a073          	csrs	hstatus,x1
    41000be4:	10200073          	sret

0000000041000be8 <scheduler__finished>:
    41000be8:	00100193          	li	x3,1
    41000bec:	ef5ff06f          	j	41000ae0 <eot__end_test>

0000000041000bf0 <scheduler__panic>:
    41000bf0:	00000193          	li	x3,0
    41000bf4:	eedff06f          	j	41000ae0 <eot__end_test>
    41000bf8:	0000                	.insn	2, 0x0000
	...

0000000041000bfc <num_runs>:
    41000bfc:	0018                	.insn	2, 0x0018
    41000bfe:	0000                	.insn	2, 0x0000
    41000c00:	0000                	.insn	2, 0x0000
	...

0000000041000c04 <os_test_sequence>:
    41000c04:	7f1c                	.insn	2, 0x7f1c
    41000c06:	4101                	.insn	2, 0x4101
    41000c08:	0000                	.insn	2, 0x0000
    41000c0a:	0000                	.insn	2, 0x0000
    41000c0c:	7d3c                	.insn	2, 0x7d3c
    41000c0e:	4101                	.insn	2, 0x4101
    41000c10:	0000                	.insn	2, 0x0000
    41000c12:	0000                	.insn	2, 0x0000
    41000c14:	697c                	.insn	2, 0x697c
    41000c16:	4101                	.insn	2, 0x4101
    41000c18:	0000                	.insn	2, 0x0000
    41000c1a:	0000                	.insn	2, 0x0000
    41000c1c:	7068                	.insn	2, 0x7068
    41000c1e:	4101                	.insn	2, 0x4101
    41000c20:	0000                	.insn	2, 0x0000
    41000c22:	0000                	.insn	2, 0x0000
    41000c24:	7808                	.insn	2, 0x7808
    41000c26:	4101                	.insn	2, 0x4101
    41000c28:	0000                	.insn	2, 0x0000
    41000c2a:	0000                	.insn	2, 0x0000
    41000c2c:	73b4                	.insn	2, 0x73b4
    41000c2e:	4101                	.insn	2, 0x4101
    41000c30:	0000                	.insn	2, 0x0000
    41000c32:	0000                	.insn	2, 0x0000
    41000c34:	65c0                	.insn	2, 0x65c0
    41000c36:	4101                	.insn	2, 0x4101
    41000c38:	0000                	.insn	2, 0x0000
    41000c3a:	0000                	.insn	2, 0x0000
    41000c3c:	6650                	.insn	2, 0x6650
    41000c3e:	4101                	.insn	2, 0x4101
    41000c40:	0000                	.insn	2, 0x0000
    41000c42:	0000                	.insn	2, 0x0000
    41000c44:	76a8                	.insn	2, 0x76a8
    41000c46:	4101                	.insn	2, 0x4101
    41000c48:	0000                	.insn	2, 0x0000
    41000c4a:	0000                	.insn	2, 0x0000
    41000c4c:	6f54                	.insn	2, 0x6f54
    41000c4e:	4101                	.insn	2, 0x4101
    41000c50:	0000                	.insn	2, 0x0000
    41000c52:	0000                	.insn	2, 0x0000
    41000c54:	7298                	.insn	2, 0x7298
    41000c56:	4101                	.insn	2, 0x4101
    41000c58:	0000                	.insn	2, 0x0000
    41000c5a:	0000                	.insn	2, 0x0000
    41000c5c:	7970                	.insn	2, 0x7970
    41000c5e:	4101                	.insn	2, 0x4101
    41000c60:	0000                	.insn	2, 0x0000
    41000c62:	0000                	.insn	2, 0x0000
    41000c64:	6b98                	.insn	2, 0x6b98
    41000c66:	4101                	.insn	2, 0x4101
    41000c68:	0000                	.insn	2, 0x0000
    41000c6a:	0000                	.insn	2, 0x0000
    41000c6c:	7184                	.insn	2, 0x7184
    41000c6e:	4101                	.insn	2, 0x4101
    41000c70:	0000                	.insn	2, 0x0000
    41000c72:	0000                	.insn	2, 0x0000
    41000c74:	40b0                	.insn	2, 0x40b0
    41000c76:	4101                	.insn	2, 0x4101
    41000c78:	0000                	.insn	2, 0x0000
    41000c7a:	0000                	.insn	2, 0x0000
    41000c7c:	74c8                	.insn	2, 0x74c8
    41000c7e:	4101                	.insn	2, 0x4101
    41000c80:	0000                	.insn	2, 0x0000
    41000c82:	0000                	.insn	2, 0x0000
    41000c84:	6868                	.insn	2, 0x6868
    41000c86:	4101                	.insn	2, 0x4101
    41000c88:	0000                	.insn	2, 0x0000
    41000c8a:	0000                	.insn	2, 0x0000
    41000c8c:	6a04                	.insn	2, 0x6a04
    41000c8e:	4101                	.insn	2, 0x4101
    41000c90:	0000                	.insn	2, 0x0000
    41000c92:	0000                	.insn	2, 0x0000
    41000c94:	6a8c                	.insn	2, 0x6a8c
    41000c96:	4101                	.insn	2, 0x4101
    41000c98:	0000                	.insn	2, 0x0000
    41000c9a:	0000                	.insn	2, 0x0000
    41000c9c:	6760                	.insn	2, 0x6760
    41000c9e:	4101                	.insn	2, 0x4101
    41000ca0:	0000                	.insn	2, 0x0000
    41000ca2:	0000                	.insn	2, 0x0000
    41000ca4:	6e40                	.insn	2, 0x6e40
    41000ca6:	4101                	.insn	2, 0x4101
    41000ca8:	0000                	.insn	2, 0x0000
    41000caa:	0000                	.insn	2, 0x0000
    41000cac:	7b50                	.insn	2, 0x7b50
    41000cae:	4101                	.insn	2, 0x4101
    41000cb0:	0000                	.insn	2, 0x0000
    41000cb2:	0000                	.insn	2, 0x0000
    41000cb4:	6368                	.insn	2, 0x6368
    41000cb6:	4101                	.insn	2, 0x4101
    41000cb8:	0000                	.insn	2, 0x0000
    41000cba:	0000                	.insn	2, 0x0000
    41000cbc:	54cc                	.insn	2, 0x54cc
    41000cbe:	4101                	.insn	2, 0x4101
    41000cc0:	0000                	.insn	2, 0x0000
	...

0000000041000cc4 <dtest_descriptor_table>:
    41000cc4:	0d7c                	.insn	2, 0x0d7c
    41000cc6:	4100                	.insn	2, 0x4100
    41000cc8:	0000                	.insn	2, 0x0000
    41000cca:	0000                	.insn	2, 0x0000
    41000ccc:	0d8a                	.insn	2, 0x0d8a
    41000cce:	4100                	.insn	2, 0x4100
    41000cd0:	0000                	.insn	2, 0x0000
    41000cd2:	0000                	.insn	2, 0x0000
    41000cd4:	0da0                	.insn	2, 0x0da0
    41000cd6:	4100                	.insn	2, 0x4100
    41000cd8:	0000                	.insn	2, 0x0000
    41000cda:	0000                	.insn	2, 0x0000
    41000cdc:	0dae                	.insn	2, 0x0dae
    41000cde:	4100                	.insn	2, 0x4100
    41000ce0:	0000                	.insn	2, 0x0000
    41000ce2:	0000                	.insn	2, 0x0000
    41000ce4:	0dca                	.insn	2, 0x0dca
    41000ce6:	4100                	.insn	2, 0x4100
    41000ce8:	0000                	.insn	2, 0x0000
    41000cea:	0000                	.insn	2, 0x0000
    41000cec:	0de6                	.insn	2, 0x0de6
    41000cee:	4100                	.insn	2, 0x4100
    41000cf0:	0000                	.insn	2, 0x0000
    41000cf2:	0000                	.insn	2, 0x0000
    41000cf4:	0e08                	.insn	2, 0x0e08
    41000cf6:	4100                	.insn	2, 0x4100
    41000cf8:	0000                	.insn	2, 0x0000
    41000cfa:	0000                	.insn	2, 0x0000
    41000cfc:	0e2a                	.insn	2, 0x0e2a
    41000cfe:	4100                	.insn	2, 0x4100
    41000d00:	0000                	.insn	2, 0x0000
    41000d02:	0000                	.insn	2, 0x0000
    41000d04:	41000e47          	fmsub.s	f28,f0,f16,f8,rne
    41000d08:	0000                	.insn	2, 0x0000
    41000d0a:	0000                	.insn	2, 0x0000
    41000d0c:	0e64                	.insn	2, 0x0e64
    41000d0e:	4100                	.insn	2, 0x4100
    41000d10:	0000                	.insn	2, 0x0000
    41000d12:	0000                	.insn	2, 0x0000
    41000d14:	0e72                	.insn	2, 0x0e72
    41000d16:	4100                	.insn	2, 0x4100
    41000d18:	0000                	.insn	2, 0x0000
    41000d1a:	0000                	.insn	2, 0x0000
    41000d1c:	0e80                	.insn	2, 0x0e80
    41000d1e:	4100                	.insn	2, 0x4100
    41000d20:	0000                	.insn	2, 0x0000
    41000d22:	0000                	.insn	2, 0x0000
    41000d24:	41000e97          	auipc	x29,0x41000
    41000d28:	0000                	.insn	2, 0x0000
    41000d2a:	0000                	.insn	2, 0x0000
    41000d2c:	0eb2                	.insn	2, 0x0eb2
    41000d2e:	4100                	.insn	2, 0x4100
    41000d30:	0000                	.insn	2, 0x0000
    41000d32:	0000                	.insn	2, 0x0000
    41000d34:	0ecc                	.insn	2, 0x0ecc
    41000d36:	4100                	.insn	2, 0x4100
    41000d38:	0000                	.insn	2, 0x0000
    41000d3a:	0000                	.insn	2, 0x0000
    41000d3c:	41000ee3          	beq	x0,x16,41001958 <scheduler__test_cleanup_ptr+0x90c>
    41000d40:	0000                	.insn	2, 0x0000
    41000d42:	0000                	.insn	2, 0x0000
    41000d44:	0efe                	.insn	2, 0x0efe
    41000d46:	4100                	.insn	2, 0x4100
    41000d48:	0000                	.insn	2, 0x0000
    41000d4a:	0000                	.insn	2, 0x0000
    41000d4c:	0f18                	.insn	2, 0x0f18
    41000d4e:	4100                	.insn	2, 0x4100
    41000d50:	0000                	.insn	2, 0x0000
    41000d52:	0000                	.insn	2, 0x0000
    41000d54:	0f35                	.insn	2, 0x0f35
    41000d56:	4100                	.insn	2, 0x4100
    41000d58:	0000                	.insn	2, 0x0000
    41000d5a:	0000                	.insn	2, 0x0000
    41000d5c:	0f51                	.insn	2, 0x0f51
    41000d5e:	4100                	.insn	2, 0x4100
    41000d60:	0000                	.insn	2, 0x0000
    41000d62:	0000                	.insn	2, 0x0000
    41000d64:	0f6d                	.insn	2, 0x0f6d
    41000d66:	4100                	.insn	2, 0x4100
    41000d68:	0000                	.insn	2, 0x0000
    41000d6a:	0000                	.insn	2, 0x0000
    41000d6c:	0f94                	.insn	2, 0x0f94
    41000d6e:	4100                	.insn	2, 0x4100
    41000d70:	0000                	.insn	2, 0x0000
    41000d72:	0000                	.insn	2, 0x0000
    41000d74:	0fba                	.insn	2, 0x0fba
    41000d76:	4100                	.insn	2, 0x4100
    41000d78:	0000                	.insn	2, 0x0000
	...

0000000041000d7c <dtest_name_0>:
    41000d7c:	5f444953          	.insn	4, 0x5f444953
    41000d80:	4548                	.insn	2, 0x4548
    41000d82:	4358                	.insn	2, 0x4358
    41000d84:	5045                	.insn	2, 0x5045
    41000d86:	305f 0035       	.insn	6, 0x49530035305f

0000000041000d8a <dtest_name_1>:
    41000d8a:	5f444953          	.insn	4, 0x5f444953
    41000d8e:	4548                	.insn	2, 0x4548
    41000d90:	4358                	.insn	2, 0x4358
    41000d92:	5045                	.insn	2, 0x5045
    41000d94:	305f 5f37 7376      	.insn	6, 0x73765f37305f
    41000d9a:	6d5f 646f 0065      	.insn	6, 0x0065646f6d5f

0000000041000da0 <dtest_name_2>:
    41000da0:	5f444953          	.insn	4, 0x5f444953
    41000da4:	4548                	.insn	2, 0x4548
    41000da6:	4358                	.insn	2, 0x4358
    41000da8:	5045                	.insn	2, 0x5045
    41000daa:	305f 0038       	.insn	6, 0x49530038305f

0000000041000dae <dtest_name_3>:
    41000dae:	5f444953          	.insn	4, 0x5f444953
    41000db2:	4548                	.insn	2, 0x4548
    41000db4:	4358                	.insn	2, 0x4358
    41000db6:	5045                	.insn	2, 0x5045
    41000db8:	305f 5f39 726d      	.insn	6, 0x726d5f39305f
    41000dbe:	7465                	.insn	2, 0x7465
    41000dc0:	695f 5f6e 7376      	.insn	6, 0x73765f6e695f
    41000dc6:	765f 0075       	.insn	6, 0x49530075765f

0000000041000dca <dtest_name_4>:
    41000dca:	5f444953          	.insn	4, 0x5f444953
    41000dce:	4548                	.insn	2, 0x4548
    41000dd0:	4358                	.insn	2, 0x4358
    41000dd2:	5045                	.insn	2, 0x5045
    41000dd4:	305f 5f39 7273      	.insn	6, 0x72735f39305f
    41000dda:	7465                	.insn	2, 0x7465
    41000ddc:	765f 7374 3172      	.insn	6, 0x31727374765f
    41000de2:	765f 0073       	.insn	6, 0x49530073765f

0000000041000de6 <dtest_name_5>:
    41000de6:	5f444953          	.insn	4, 0x5f444953
    41000dea:	4548                	.insn	2, 0x4548
    41000dec:	4358                	.insn	2, 0x4358
    41000dee:	5045                	.insn	2, 0x5045
    41000df0:	305f 5f39 6673      	.insn	6, 0x66735f39305f
    41000df6:	6e65                	.insn	2, 0x6e65
    41000df8:	765f6563          	bltu	x30,x5,41001562 <scheduler__test_cleanup_ptr+0x516>
    41000dfc:	616d                	.insn	2, 0x616d
    41000dfe:	765f 7674 316d      	.insn	6, 0x316d7674765f
    41000e04:	765f 0073       	.insn	6, 0x49530073765f

0000000041000e08 <dtest_name_6>:
    41000e08:	5f444953          	.insn	4, 0x5f444953
    41000e0c:	4548                	.insn	2, 0x4548
    41000e0e:	4358                	.insn	2, 0x4358
    41000e10:	5045                	.insn	2, 0x5045
    41000e12:	305f 5f39 6973      	.insn	6, 0x69735f39305f
    41000e18:	766e                	.insn	2, 0x766e
    41000e1a:	6c61                	.insn	2, 0x6c61
    41000e1c:	765f 616d 765f      	.insn	6, 0x765f616d765f
    41000e22:	7674                	.insn	2, 0x7674
    41000e24:	316d                	.insn	2, 0x316d
    41000e26:	765f 0073       	.insn	6, 0x49530073765f

0000000041000e2a <dtest_name_7>:
    41000e2a:	5f444953          	.insn	4, 0x5f444953
    41000e2e:	4548                	.insn	2, 0x4548
    41000e30:	4358                	.insn	2, 0x4358
    41000e32:	5045                	.insn	2, 0x5045
    41000e34:	305f 5f39 6968      	.insn	6, 0x69685f39305f
    41000e3a:	766e                	.insn	2, 0x766e
    41000e3c:	6c61                	.insn	2, 0x6c61
    41000e3e:	765f 6d76 5f61      	.insn	6, 0x5f616d76765f
    41000e44:	7376                	.insn	2, 0x7376
	...

0000000041000e47 <dtest_name_8>:
    41000e47:	5f444953          	.insn	4, 0x5f444953
    41000e4b:	4548                	.insn	2, 0x4548
    41000e4d:	4358                	.insn	2, 0x4358
    41000e4f:	5045                	.insn	2, 0x5045
    41000e51:	305f 5f39 6968      	.insn	6, 0x69685f39305f
    41000e57:	766e                	.insn	2, 0x766e
    41000e59:	6c61                	.insn	2, 0x6c61
    41000e5b:	675f 6d76 5f61      	.insn	6, 0x5f616d76675f
    41000e61:	7376                	.insn	2, 0x7376
	...

0000000041000e64 <dtest_name_9>:
    41000e64:	5f444953          	.insn	4, 0x5f444953
    41000e68:	4548                	.insn	2, 0x4548
    41000e6a:	4358                	.insn	2, 0x4358
    41000e6c:	5045                	.insn	2, 0x5045
    41000e6e:	315f 0030       	.insn	6, 0x49530030315f

0000000041000e72 <dtest_name_10>:
    41000e72:	5f444953          	.insn	4, 0x5f444953
    41000e76:	4548                	.insn	2, 0x4548
    41000e78:	4358                	.insn	2, 0x4358
    41000e7a:	5045                	.insn	2, 0x5045
    41000e7c:	315f 0031       	.insn	6, 0x49530031315f

0000000041000e80 <dtest_name_11>:
    41000e80:	5f444953          	.insn	4, 0x5f444953
    41000e84:	4548                	.insn	2, 0x4548
    41000e86:	4358                	.insn	2, 0x4358
    41000e88:	5045                	.insn	2, 0x5045
    41000e8a:	315f 5f36 7366      	.insn	6, 0x73665f36315f
    41000e90:	5f30                	.insn	2, 0x5f30
    41000e92:	6f62                	.insn	2, 0x6f62
    41000e94:	6874                	.insn	2, 0x6874
	...

0000000041000e97 <dtest_name_12>:
    41000e97:	5f444953          	.insn	4, 0x5f444953
    41000e9b:	4548                	.insn	2, 0x4548
    41000e9d:	4358                	.insn	2, 0x4358
    41000e9f:	5045                	.insn	2, 0x5045
    41000ea1:	315f 5f36 7376      	.insn	6, 0x73765f36315f
    41000ea7:	74617473          	csrrci	x8,0x746,2
    41000eab:	7375                	.insn	2, 0x7375
    41000ead:	665f 3073       	.insn	6, 0x53003073665f

0000000041000eb2 <dtest_name_13>:
    41000eb2:	5f444953          	.insn	4, 0x5f444953
    41000eb6:	4548                	.insn	2, 0x4548
    41000eb8:	4358                	.insn	2, 0x4358
    41000eba:	5045                	.insn	2, 0x5045
    41000ebc:	315f 5f36 7373      	.insn	6, 0x73735f36315f
    41000ec2:	6174                	.insn	2, 0x6174
    41000ec4:	7574                	.insn	2, 0x7574
    41000ec6:	73665f73          	csrrwi	x30,mhpmevent22h,12
    41000eca:	0030                	.insn	2, 0x0030

0000000041000ecc <dtest_name_14>:
    41000ecc:	5f444953          	.insn	4, 0x5f444953
    41000ed0:	4548                	.insn	2, 0x4548
    41000ed2:	4358                	.insn	2, 0x4358
    41000ed4:	5045                	.insn	2, 0x5045
    41000ed6:	315f 5f37 7376      	.insn	6, 0x73765f37315f
    41000edc:	5f30                	.insn	2, 0x5f30
    41000ede:	6f62                	.insn	2, 0x6f62
    41000ee0:	6874                	.insn	2, 0x6874
	...

0000000041000ee3 <dtest_name_15>:
    41000ee3:	5f444953          	.insn	4, 0x5f444953
    41000ee7:	4548                	.insn	2, 0x4548
    41000ee9:	4358                	.insn	2, 0x4358
    41000eeb:	5045                	.insn	2, 0x5045
    41000eed:	315f 5f37 7376      	.insn	6, 0x73765f37315f
    41000ef3:	74617473          	csrrci	x8,0x746,2
    41000ef7:	7375                	.insn	2, 0x7375
    41000ef9:	765f 3073       	.insn	6, 0x53003073765f

0000000041000efe <dtest_name_16>:
    41000efe:	5f444953          	.insn	4, 0x5f444953
    41000f02:	4548                	.insn	2, 0x4548
    41000f04:	4358                	.insn	2, 0x4358
    41000f06:	5045                	.insn	2, 0x5045
    41000f08:	315f 5f37 7373      	.insn	6, 0x73735f37315f
    41000f0e:	6174                	.insn	2, 0x6174
    41000f10:	7574                	.insn	2, 0x7574
    41000f12:	73765f73          	csrrwi	x30,mhpmevent23h,12
    41000f16:	0030                	.insn	2, 0x0030

0000000041000f18 <dtest_name_17>:
    41000f18:	5f444953          	.insn	4, 0x5f444953
    41000f1c:	4548                	.insn	2, 0x4548
    41000f1e:	4358                	.insn	2, 0x4358
    41000f20:	5045                	.insn	2, 0x5045
    41000f22:	315f 5f39 696d      	.insn	6, 0x696d5f39315f
    41000f28:	696c6173          	csrrsi	x2,0x696,24
    41000f2c:	64656e67          	.insn	4, 0x64656e67
    41000f30:	615f 6f6d       	.insn	6, 0x53006f6d615f

0000000041000f35 <dtest_name_18>:
    41000f35:	5f444953          	.insn	4, 0x5f444953
    41000f39:	4548                	.insn	2, 0x4548
    41000f3b:	4358                	.insn	2, 0x4358
    41000f3d:	5045                	.insn	2, 0x5045
    41000f3f:	315f 5f39 696d      	.insn	6, 0x696d5f39315f
    41000f45:	696c6173          	csrrsi	x2,0x696,24
    41000f49:	64656e67          	.insn	4, 0x64656e67
    41000f4d:	6c5f 0072       	.insn	6, 0x495300726c5f

0000000041000f51 <dtest_name_19>:
    41000f51:	5f444953          	.insn	4, 0x5f444953
    41000f55:	4548                	.insn	2, 0x4548
    41000f57:	4358                	.insn	2, 0x4358
    41000f59:	5045                	.insn	2, 0x5045
    41000f5b:	315f 5f39 696d      	.insn	6, 0x696d5f39315f
    41000f61:	696c6173          	csrrsi	x2,0x696,24
    41000f65:	64656e67          	.insn	4, 0x64656e67
    41000f69:	735f 0063       	.insn	6, 0x49530063735f

0000000041000f6d <dtest_name_20>:
    41000f6d:	5f444953          	.insn	4, 0x5f444953
    41000f71:	4548                	.insn	2, 0x4548
    41000f73:	4358                	.insn	2, 0x4358
    41000f75:	5045                	.insn	2, 0x5045
    41000f77:	315f 5f39 696d      	.insn	6, 0x696d5f39315f
    41000f7d:	696c6173          	csrrsi	x2,0x696,24
    41000f81:	64656e67          	.insn	4, 0x64656e67
    41000f85:	615f 6f6d 645f      	.insn	6, 0x645f6f6d615f
    41000f8b:	6c65                	.insn	2, 0x6c65
    41000f8d:	6765                	.insn	2, 0x6765
    41000f8f:	7461                	.insn	2, 0x7461
    41000f91:	6465                	.insn	2, 0x6465
	...

0000000041000f94 <dtest_name_21>:
    41000f94:	5f444953          	.insn	4, 0x5f444953
    41000f98:	4548                	.insn	2, 0x4548
    41000f9a:	4358                	.insn	2, 0x4358
    41000f9c:	5045                	.insn	2, 0x5045
    41000f9e:	315f 5f39 696d      	.insn	6, 0x696d5f39315f
    41000fa4:	696c6173          	csrrsi	x2,0x696,24
    41000fa8:	64656e67          	.insn	4, 0x64656e67
    41000fac:	6c5f 5f72 6564      	.insn	6, 0x65645f726c5f
    41000fb2:	656c                	.insn	2, 0x656c
    41000fb4:	65746167          	.insn	4, 0x65746167
    41000fb8:	0064                	.insn	2, 0x0064

0000000041000fba <dtest_name_22>:
    41000fba:	5f444953          	.insn	4, 0x5f444953
    41000fbe:	4548                	.insn	2, 0x4548
    41000fc0:	4358                	.insn	2, 0x4358
    41000fc2:	5045                	.insn	2, 0x5045
    41000fc4:	315f 5f39 696d      	.insn	6, 0x696d5f39315f
    41000fca:	696c6173          	csrrsi	x2,0x696,24
    41000fce:	64656e67          	.insn	4, 0x64656e67
    41000fd2:	735f 5f63 6564      	.insn	6, 0x65645f63735f
    41000fd8:	656c                	.insn	2, 0x656c
    41000fda:	65746167          	.insn	4, 0x65746167
    41000fde:	0064                	.insn	2, 0x0064

0000000041000fe0 <dtest_index_map>:
    41000fe0:	ffff                	.insn	2, 0xffff
    41000fe2:	ffff                	.insn	2, 0xffff
    41000fe4:	0016                	.insn	2, 0x0016
    41000fe6:	0000                	.insn	2, 0x0000
    41000fe8:	00000007          	vle8.v	v0,(x0),v0.t
    41000fec:	000d                	.insn	2, 0x000d
    41000fee:	0000                	.insn	2, 0x0000
    41000ff0:	00000013          	nop
    41000ff4:	0010                	.insn	2, 0x0010
    41000ff6:	0000                	.insn	2, 0x0000
    41000ff8:	00000003          	lb	x0,0(x0) # 0 <ALL_4KB_PAGES>
    41000ffc:	0004                	.insn	2, 0x0004
    41000ffe:	0000                	.insn	2, 0x0000
    41001000:	0012                	.insn	2, 0x0012
    41001002:	0000                	.insn	2, 0x0000
    41001004:	000c                	.insn	2, 0x000c
    41001006:	0000                	.insn	2, 0x0000
    41001008:	0000000f          	fence	unknown,unknown
    4100100c:	0014                	.insn	2, 0x0014
    4100100e:	0000                	.insn	2, 0x0000
    41001010:	000a                	.insn	2, 0x000a
    41001012:	0000                	.insn	2, 0x0000
    41001014:	000e                	.insn	2, 0x000e
    41001016:	0000                	.insn	2, 0x0000
    41001018:	0000                	.insn	2, 0x0000
    4100101a:	0000                	.insn	2, 0x0000
    4100101c:	0011                	.insn	2, 0x0011
    4100101e:	0000                	.insn	2, 0x0000
    41001020:	0006                	.insn	2, 0x0006
    41001022:	0000                	.insn	2, 0x0000
    41001024:	0008                	.insn	2, 0x0008
    41001026:	0000                	.insn	2, 0x0000
    41001028:	0009                	.insn	2, 0x0009
    4100102a:	0000                	.insn	2, 0x0000
    4100102c:	0005                	.insn	2, 0x0005
    4100102e:	0000                	.insn	2, 0x0000
    41001030:	0000000b          	.insn	4, 0x000b
    41001034:	0015                	.insn	2, 0x0015
    41001036:	0000                	.insn	2, 0x0000
    41001038:	0002                	.insn	2, 0x0002
    4100103a:	0000                	.insn	2, 0x0000
    4100103c:	0001                	.insn	2, 0x0001
    4100103e:	0000                	.insn	2, 0x0000
    41001040:	0000                	.insn	2, 0x0000
	...

0000000041001044 <scheduler__test_setup_ptr>:
    41001044:	40a0                	.insn	2, 0x40a0
    41001046:	4101                	.insn	2, 0x4101
    41001048:	0000                	.insn	2, 0x0000
	...

000000004100104c <scheduler__test_cleanup_ptr>:
    4100104c:	7f1c                	.insn	2, 0x7f1c
    4100104e:	4101                	.insn	2, 0x4101
    41001050:	0000                	.insn	2, 0x0000
	...

Disassembly of section .runtime_s:

0000000041010000 <trap_handler_s__invalid_interrupt>:
    41010000:	1740006f          	j	41010174 <trap_handler_s__test_failed>

0000000041010004 <trap_handler_s__clear_all_interrupts>:
    41010004:	14401073          	csrw	sip,x0
    41010008:	10200073          	sret

000000004101000c <trap_handler_s___CLEAR_SSI>:
    4101000c:	00200293          	li	x5,2
    41010010:	1442b073          	csrc	sip,x5
    41010014:	10200073          	sret

0000000041010018 <trap_handler_s___CLEAR_MSI>:
    41010018:	00800293          	li	x5,8
    4101001c:	1442b073          	csrc	sip,x5
    41010020:	10200073          	sret

0000000041010024 <trap_handler_s___CLEAR_STI>:
    41010024:	02000293          	li	x5,32
    41010028:	1442b073          	csrc	sip,x5
    4101002c:	10200073          	sret

0000000041010030 <trap_handler_s___CLEAR_MTI>:
    41010030:	08000293          	li	x5,128
    41010034:	1442b073          	csrc	sip,x5
    41010038:	10200073          	sret

000000004101003c <trap_handler_s___CLEAR_SEI>:
    4101003c:	20000293          	li	x5,512
    41010040:	1442b073          	csrc	sip,x5
    41010044:	10200073          	sret

0000000041010048 <trap_handler_s___CLEAR_MEI>:
    41010048:	000012b7          	lui	x5,0x1
    4101004c:	8002829b          	addiw	x5,x5,-2048 # 800 <XLEN+0x7c0>
    41010050:	1442b073          	csrc	sip,x5
    41010054:	10200073          	sret

0000000041010058 <trap_handler_s___CLEAR_COI>:
    41010058:	000022b7          	lui	x5,0x2
    4101005c:	1442b073          	csrc	sip,x5
    41010060:	10200073          	sret

0000000041010064 <trap_handler_s__clear_highest_priority_interrupt>:
    41010064:	144022f3          	csrr	x5,sip
    41010068:	40500333          	neg	x6,x5
    4101006c:	0062f2b3          	and	x5,x5,x6
    41010070:	1442b073          	csrc	sip,x5
    41010074:	10200073          	sret

0000000041010078 <trap_handler_s__trap_entry>:
    41010078:	10c0006f          	j	41010184 <trap_handler_s__trap_handler>

000000004101007c <trap_handler_s__interrupt_vector_table>:
    4101007c:	f91ff06f          	j	4101000c <trap_handler_s___CLEAR_SSI>
    41010080:	f81ff06f          	j	41010000 <trap_handler_s__invalid_interrupt>
    41010084:	f95ff06f          	j	41010018 <trap_handler_s___CLEAR_MSI>
    41010088:	f79ff06f          	j	41010000 <trap_handler_s__invalid_interrupt>
    4101008c:	f99ff06f          	j	41010024 <trap_handler_s___CLEAR_STI>
    41010090:	f71ff06f          	j	41010000 <trap_handler_s__invalid_interrupt>
    41010094:	f9dff06f          	j	41010030 <trap_handler_s___CLEAR_MTI>
    41010098:	f69ff06f          	j	41010000 <trap_handler_s__invalid_interrupt>
    4101009c:	fa1ff06f          	j	4101003c <trap_handler_s___CLEAR_SEI>
    410100a0:	f61ff06f          	j	41010000 <trap_handler_s__invalid_interrupt>
    410100a4:	fa5ff06f          	j	41010048 <trap_handler_s___CLEAR_MEI>
    410100a8:	f59ff06f          	j	41010000 <trap_handler_s__invalid_interrupt>
    410100ac:	fadff06f          	j	41010058 <trap_handler_s___CLEAR_COI>
    410100b0:	f51ff06f          	j	41010000 <trap_handler_s__invalid_interrupt>
    410100b4:	f4dff06f          	j	41010000 <trap_handler_s__invalid_interrupt>
    410100b8:	fadff06f          	j	41010064 <trap_handler_s__clear_highest_priority_interrupt>
    410100bc:	fa9ff06f          	j	41010064 <trap_handler_s__clear_highest_priority_interrupt>
    410100c0:	fa5ff06f          	j	41010064 <trap_handler_s__clear_highest_priority_interrupt>
    410100c4:	fa1ff06f          	j	41010064 <trap_handler_s__clear_highest_priority_interrupt>
    410100c8:	f9dff06f          	j	41010064 <trap_handler_s__clear_highest_priority_interrupt>
    410100cc:	f99ff06f          	j	41010064 <trap_handler_s__clear_highest_priority_interrupt>
    410100d0:	f95ff06f          	j	41010064 <trap_handler_s__clear_highest_priority_interrupt>
    410100d4:	f91ff06f          	j	41010064 <trap_handler_s__clear_highest_priority_interrupt>
    410100d8:	f8dff06f          	j	41010064 <trap_handler_s__clear_highest_priority_interrupt>
    410100dc:	f89ff06f          	j	41010064 <trap_handler_s__clear_highest_priority_interrupt>
    410100e0:	f85ff06f          	j	41010064 <trap_handler_s__clear_highest_priority_interrupt>
    410100e4:	f81ff06f          	j	41010064 <trap_handler_s__clear_highest_priority_interrupt>
    410100e8:	f7dff06f          	j	41010064 <trap_handler_s__clear_highest_priority_interrupt>
    410100ec:	f79ff06f          	j	41010064 <trap_handler_s__clear_highest_priority_interrupt>
    410100f0:	f75ff06f          	j	41010064 <trap_handler_s__clear_highest_priority_interrupt>
    410100f4:	f71ff06f          	j	41010064 <trap_handler_s__clear_highest_priority_interrupt>
    410100f8:	f6dff06f          	j	41010064 <trap_handler_s__clear_highest_priority_interrupt>
    410100fc:	f69ff06f          	j	41010064 <trap_handler_s__clear_highest_priority_interrupt>
    41010100:	f65ff06f          	j	41010064 <trap_handler_s__clear_highest_priority_interrupt>
    41010104:	f61ff06f          	j	41010064 <trap_handler_s__clear_highest_priority_interrupt>
    41010108:	f5dff06f          	j	41010064 <trap_handler_s__clear_highest_priority_interrupt>
    4101010c:	f59ff06f          	j	41010064 <trap_handler_s__clear_highest_priority_interrupt>
    41010110:	f55ff06f          	j	41010064 <trap_handler_s__clear_highest_priority_interrupt>
    41010114:	f51ff06f          	j	41010064 <trap_handler_s__clear_highest_priority_interrupt>
    41010118:	f4dff06f          	j	41010064 <trap_handler_s__clear_highest_priority_interrupt>
    4101011c:	f49ff06f          	j	41010064 <trap_handler_s__clear_highest_priority_interrupt>
    41010120:	f45ff06f          	j	41010064 <trap_handler_s__clear_highest_priority_interrupt>
    41010124:	f41ff06f          	j	41010064 <trap_handler_s__clear_highest_priority_interrupt>
    41010128:	f3dff06f          	j	41010064 <trap_handler_s__clear_highest_priority_interrupt>
    4101012c:	f39ff06f          	j	41010064 <trap_handler_s__clear_highest_priority_interrupt>
    41010130:	f35ff06f          	j	41010064 <trap_handler_s__clear_highest_priority_interrupt>
    41010134:	f31ff06f          	j	41010064 <trap_handler_s__clear_highest_priority_interrupt>
    41010138:	f2dff06f          	j	41010064 <trap_handler_s__clear_highest_priority_interrupt>
    4101013c:	f29ff06f          	j	41010064 <trap_handler_s__clear_highest_priority_interrupt>
    41010140:	f25ff06f          	j	41010064 <trap_handler_s__clear_highest_priority_interrupt>
    41010144:	f21ff06f          	j	41010064 <trap_handler_s__clear_highest_priority_interrupt>
    41010148:	f1dff06f          	j	41010064 <trap_handler_s__clear_highest_priority_interrupt>
    4101014c:	f19ff06f          	j	41010064 <trap_handler_s__clear_highest_priority_interrupt>
    41010150:	f15ff06f          	j	41010064 <trap_handler_s__clear_highest_priority_interrupt>
    41010154:	f11ff06f          	j	41010064 <trap_handler_s__clear_highest_priority_interrupt>
    41010158:	f0dff06f          	j	41010064 <trap_handler_s__clear_highest_priority_interrupt>
    4101015c:	f09ff06f          	j	41010064 <trap_handler_s__clear_highest_priority_interrupt>
    41010160:	f05ff06f          	j	41010064 <trap_handler_s__clear_highest_priority_interrupt>
    41010164:	f01ff06f          	j	41010064 <trap_handler_s__clear_highest_priority_interrupt>
    41010168:	efdff06f          	j	41010064 <trap_handler_s__clear_highest_priority_interrupt>
    4101016c:	ef9ff06f          	j	41010064 <trap_handler_s__clear_highest_priority_interrupt>
    41010170:	ef5ff06f          	j	41010064 <trap_handler_s__clear_highest_priority_interrupt>

0000000041010174 <trap_handler_s__test_failed>:
    41010174:	00f00f9b          	addiw	x31,x0,15
    41010178:	01cf9f93          	slli	x31,x31,0x1c
    4101017c:	002f8f93          	addi	x31,x31,2
    41010180:	00000073          	ecall

0000000041010184 <trap_handler_s__trap_handler>:
    41010184:	142022f3          	csrr	x5,scause
    41010188:	fff0031b          	addiw	x6,x0,-1
    4101018c:	03f31313          	slli	x6,x6,0x3f
    41010190:	00537333          	and	x6,x6,x5
    41010194:	02030263          	beqz	x6,410101b8 <trap_handler_s__exception_path>

0000000041010198 <trap_handler_s__interrupt_handler>:
    41010198:	fff0031b          	addiw	x6,x0,-1
    4101019c:	03f31313          	slli	x6,x6,0x3f
    410101a0:	0062c2b3          	xor	x5,x5,x6
    410101a4:	00000317          	auipc	x6,0x0
    410101a8:	ed430313          	addi	x6,x6,-300 # 41010078 <trap_handler_s__trap_entry>
    410101ac:	00229293          	slli	x5,x5,0x2
    410101b0:	005302b3          	add	x5,x6,x5
    410101b4:	00028067          	jr	x5 # 2000 <mem3>

00000000410101b8 <trap_handler_s__exception_path>:
    410101b8:	14021273          	csrrw	x4,sscratch,x4
    410101bc:	00000297          	auipc	x5,0x0
    410101c0:	0cc28293          	addi	x5,x5,204 # 41010288 <trap_handler_s__trap_panic>
    410101c4:	10529073          	csrw	stvec,x5
    410101c8:	0040006f          	j	410101cc <trap_handler_s__excp_entry>

00000000410101cc <trap_handler_s__excp_entry>:
    410101cc:	14202373          	csrr	x6,scause
    410101d0:	00800293          	li	x5,8
    410101d4:	00534863          	blt	x6,x5,410101e4 <trap_handler_s__check_exception_label>
    410101d8:	00b00293          	li	x5,11
    410101dc:	0062c463          	blt	x5,x6,410101e4 <trap_handler_s__check_exception_label>
    410101e0:	0a80006f          	j	41010288 <trap_handler_s__trap_panic>

00000000410101e4 <trap_handler_s__check_exception_label>:
    410101e4:	04623c23          	sd	x6,88(x4) # 58 <XLEN+0x18>
    410101e8:	141022f3          	csrr	x5,sepc
    410101ec:	02523423          	sd	x5,40(x4) # 28 <SECURE_ACCESS_PROBABILITY+0xa>
    410101f0:	01820283          	lb	x5,24(x4) # 18 <STORE_GUEST_PAGE_FAULT+0x1>
    410101f4:	00029863          	bnez	x5,41010204 <trap_handler_s__check_excp>
    410101f8:	00128293          	addi	x5,x5,1
    410101fc:	00520c23          	sb	x5,24(x4) # 18 <STORE_GUEST_PAGE_FAULT+0x1>
    41010200:	05c0006f          	j	4101025c <trap_handler_s__ecall_from_machine>

0000000041010204 <trap_handler_s__check_excp>:
    41010204:	06823283          	ld	x5,104(x4) # 68 <XLEN+0x28>
    41010208:	06023423          	sd	x0,104(x4) # 68 <XLEN+0x28>
    4101020c:	00028663          	beqz	x5,41010218 <trap_handler_s__skip_mode_check>
    41010210:	00300393          	li	x7,3
    41010214:	f67290e3          	bne	x5,x7,41010174 <trap_handler_s__test_failed>

0000000041010218 <trap_handler_s__skip_mode_check>:
    41010218:	05023283          	ld	x5,80(x4) # 50 <XLEN+0x10>
    4101021c:	04023823          	sd	x0,80(x4) # 50 <XLEN+0x10>
    41010220:	f4531ae3          	bne	x6,x5,41010174 <trap_handler_s__test_failed>
    41010224:	03823283          	ld	x5,56(x4) # 38 <SECURE_ACCESS_PROBABILITY+0x1a>
    41010228:	02023c23          	sd	x0,56(x4) # 38 <SECURE_ACCESS_PROBABILITY+0x1a>
    4101022c:	02029663          	bnez	x5,41010258 <trap_handler_s__skip_nonzero_tval_check>
    41010230:	02023303          	ld	x6,32(x4) # 20 <SECURE_ACCESS_PROBABILITY+0x2>
    41010234:	02023023          	sd	x0,32(x4) # 20 <SECURE_ACCESS_PROBABILITY+0x2>
    41010238:	02823283          	ld	x5,40(x4) # 28 <SECURE_ACCESS_PROBABILITY+0xa>
    4101023c:	02023423          	sd	x0,40(x4) # 28 <SECURE_ACCESS_PROBABILITY+0xa>
    41010240:	f2531ae3          	bne	x6,x5,41010174 <trap_handler_s__test_failed>
    41010244:	04023283          	ld	x5,64(x4) # 40 <XLEN>
    41010248:	04023023          	sd	x0,64(x4) # 40 <XLEN>
    4101024c:	00028663          	beqz	x5,41010258 <trap_handler_s__skip_nonzero_tval_check>

0000000041010250 <trap_handler_s__nonzero_tval_check>:
    41010250:	14302373          	csrr	x6,stval
    41010254:	f25310e3          	bne	x6,x5,41010174 <trap_handler_s__test_failed>

0000000041010258 <trap_handler_s__skip_nonzero_tval_check>:
    41010258:	0040006f          	j	4101025c <trap_handler_s__ecall_from_machine>

000000004101025c <trap_handler_s__ecall_from_machine>:
    4101025c:	03023283          	ld	x5,48(x4) # 30 <SECURE_ACCESS_PROBABILITY+0x12>
    41010260:	02023823          	sd	x0,48(x4) # 30 <SECURE_ACCESS_PROBABILITY+0x12>
    41010264:	07023303          	ld	x6,112(x4) # 70 <XLEN+0x30>
    41010268:	06023823          	sd	x0,112(x4) # 70 <XLEN+0x30>
    4101026c:	00031463          	bnez	x6,41010274 <trap_handler_s__skip_xepc_write>
    41010270:	14129073          	csrw	sepc,x5

0000000041010274 <trap_handler_s__skip_xepc_write>:
    41010274:	00000317          	auipc	x6,0x0
    41010278:	e0430313          	addi	x6,x6,-508 # 41010078 <trap_handler_s__trap_entry>
    4101027c:	10531073          	csrw	stvec,x6
    41010280:	14021273          	csrrw	x4,sscratch,x4
    41010284:	10200073          	sret

0000000041010288 <trap_handler_s__trap_panic>:
    41010288:	00000193          	li	x3,0
    4101028c:	00f00f9b          	addiw	x31,x0,15
    41010290:	01cf9f93          	slli	x31,x31,0x1c
    41010294:	002f8f93          	addi	x31,x31,2
    41010298:	00000073          	ecall

000000004101029c <trap_handler_hs__invalid_interrupt>:
    4101029c:	1740006f          	j	41010410 <trap_handler_hs__test_failed>

00000000410102a0 <trap_handler_hs__clear_all_interrupts>:
    410102a0:	14401073          	csrw	sip,x0
    410102a4:	10200073          	sret

00000000410102a8 <trap_handler_hs___CLEAR_SSI>:
    410102a8:	00200293          	li	x5,2
    410102ac:	1442b073          	csrc	sip,x5
    410102b0:	10200073          	sret

00000000410102b4 <trap_handler_hs___CLEAR_MSI>:
    410102b4:	00800293          	li	x5,8
    410102b8:	1442b073          	csrc	sip,x5
    410102bc:	10200073          	sret

00000000410102c0 <trap_handler_hs___CLEAR_STI>:
    410102c0:	02000293          	li	x5,32
    410102c4:	1442b073          	csrc	sip,x5
    410102c8:	10200073          	sret

00000000410102cc <trap_handler_hs___CLEAR_MTI>:
    410102cc:	08000293          	li	x5,128
    410102d0:	1442b073          	csrc	sip,x5
    410102d4:	10200073          	sret

00000000410102d8 <trap_handler_hs___CLEAR_SEI>:
    410102d8:	20000293          	li	x5,512
    410102dc:	1442b073          	csrc	sip,x5
    410102e0:	10200073          	sret

00000000410102e4 <trap_handler_hs___CLEAR_MEI>:
    410102e4:	000012b7          	lui	x5,0x1
    410102e8:	8002829b          	addiw	x5,x5,-2048 # 800 <XLEN+0x7c0>
    410102ec:	1442b073          	csrc	sip,x5
    410102f0:	10200073          	sret

00000000410102f4 <trap_handler_hs___CLEAR_COI>:
    410102f4:	000022b7          	lui	x5,0x2
    410102f8:	1442b073          	csrc	sip,x5
    410102fc:	10200073          	sret

0000000041010300 <trap_handler_hs__clear_highest_priority_interrupt>:
    41010300:	144022f3          	csrr	x5,sip
    41010304:	40500333          	neg	x6,x5
    41010308:	0062f2b3          	and	x5,x5,x6
    4101030c:	1442b073          	csrc	sip,x5
    41010310:	10200073          	sret

0000000041010314 <trap_handler_hs__trap_entry>:
    41010314:	10c0006f          	j	41010420 <trap_handler_hs__trap_handler>

0000000041010318 <trap_handler_hs__interrupt_vector_table>:
    41010318:	f91ff06f          	j	410102a8 <trap_handler_hs___CLEAR_SSI>
    4101031c:	f81ff06f          	j	4101029c <trap_handler_hs__invalid_interrupt>
    41010320:	f95ff06f          	j	410102b4 <trap_handler_hs___CLEAR_MSI>
    41010324:	f79ff06f          	j	4101029c <trap_handler_hs__invalid_interrupt>
    41010328:	f99ff06f          	j	410102c0 <trap_handler_hs___CLEAR_STI>
    4101032c:	f71ff06f          	j	4101029c <trap_handler_hs__invalid_interrupt>
    41010330:	f9dff06f          	j	410102cc <trap_handler_hs___CLEAR_MTI>
    41010334:	f69ff06f          	j	4101029c <trap_handler_hs__invalid_interrupt>
    41010338:	fa1ff06f          	j	410102d8 <trap_handler_hs___CLEAR_SEI>
    4101033c:	f61ff06f          	j	4101029c <trap_handler_hs__invalid_interrupt>
    41010340:	fa5ff06f          	j	410102e4 <trap_handler_hs___CLEAR_MEI>
    41010344:	f59ff06f          	j	4101029c <trap_handler_hs__invalid_interrupt>
    41010348:	fadff06f          	j	410102f4 <trap_handler_hs___CLEAR_COI>
    4101034c:	f51ff06f          	j	4101029c <trap_handler_hs__invalid_interrupt>
    41010350:	f4dff06f          	j	4101029c <trap_handler_hs__invalid_interrupt>
    41010354:	fadff06f          	j	41010300 <trap_handler_hs__clear_highest_priority_interrupt>
    41010358:	fa9ff06f          	j	41010300 <trap_handler_hs__clear_highest_priority_interrupt>
    4101035c:	fa5ff06f          	j	41010300 <trap_handler_hs__clear_highest_priority_interrupt>
    41010360:	fa1ff06f          	j	41010300 <trap_handler_hs__clear_highest_priority_interrupt>
    41010364:	f9dff06f          	j	41010300 <trap_handler_hs__clear_highest_priority_interrupt>
    41010368:	f99ff06f          	j	41010300 <trap_handler_hs__clear_highest_priority_interrupt>
    4101036c:	f95ff06f          	j	41010300 <trap_handler_hs__clear_highest_priority_interrupt>
    41010370:	f91ff06f          	j	41010300 <trap_handler_hs__clear_highest_priority_interrupt>
    41010374:	f8dff06f          	j	41010300 <trap_handler_hs__clear_highest_priority_interrupt>
    41010378:	f89ff06f          	j	41010300 <trap_handler_hs__clear_highest_priority_interrupt>
    4101037c:	f85ff06f          	j	41010300 <trap_handler_hs__clear_highest_priority_interrupt>
    41010380:	f81ff06f          	j	41010300 <trap_handler_hs__clear_highest_priority_interrupt>
    41010384:	f7dff06f          	j	41010300 <trap_handler_hs__clear_highest_priority_interrupt>
    41010388:	f79ff06f          	j	41010300 <trap_handler_hs__clear_highest_priority_interrupt>
    4101038c:	f75ff06f          	j	41010300 <trap_handler_hs__clear_highest_priority_interrupt>
    41010390:	f71ff06f          	j	41010300 <trap_handler_hs__clear_highest_priority_interrupt>
    41010394:	f6dff06f          	j	41010300 <trap_handler_hs__clear_highest_priority_interrupt>
    41010398:	f69ff06f          	j	41010300 <trap_handler_hs__clear_highest_priority_interrupt>
    4101039c:	f65ff06f          	j	41010300 <trap_handler_hs__clear_highest_priority_interrupt>
    410103a0:	f61ff06f          	j	41010300 <trap_handler_hs__clear_highest_priority_interrupt>
    410103a4:	f5dff06f          	j	41010300 <trap_handler_hs__clear_highest_priority_interrupt>
    410103a8:	f59ff06f          	j	41010300 <trap_handler_hs__clear_highest_priority_interrupt>
    410103ac:	f55ff06f          	j	41010300 <trap_handler_hs__clear_highest_priority_interrupt>
    410103b0:	f51ff06f          	j	41010300 <trap_handler_hs__clear_highest_priority_interrupt>
    410103b4:	f4dff06f          	j	41010300 <trap_handler_hs__clear_highest_priority_interrupt>
    410103b8:	f49ff06f          	j	41010300 <trap_handler_hs__clear_highest_priority_interrupt>
    410103bc:	f45ff06f          	j	41010300 <trap_handler_hs__clear_highest_priority_interrupt>
    410103c0:	f41ff06f          	j	41010300 <trap_handler_hs__clear_highest_priority_interrupt>
    410103c4:	f3dff06f          	j	41010300 <trap_handler_hs__clear_highest_priority_interrupt>
    410103c8:	f39ff06f          	j	41010300 <trap_handler_hs__clear_highest_priority_interrupt>
    410103cc:	f35ff06f          	j	41010300 <trap_handler_hs__clear_highest_priority_interrupt>
    410103d0:	f31ff06f          	j	41010300 <trap_handler_hs__clear_highest_priority_interrupt>
    410103d4:	f2dff06f          	j	41010300 <trap_handler_hs__clear_highest_priority_interrupt>
    410103d8:	f29ff06f          	j	41010300 <trap_handler_hs__clear_highest_priority_interrupt>
    410103dc:	f25ff06f          	j	41010300 <trap_handler_hs__clear_highest_priority_interrupt>
    410103e0:	f21ff06f          	j	41010300 <trap_handler_hs__clear_highest_priority_interrupt>
    410103e4:	f1dff06f          	j	41010300 <trap_handler_hs__clear_highest_priority_interrupt>
    410103e8:	f19ff06f          	j	41010300 <trap_handler_hs__clear_highest_priority_interrupt>
    410103ec:	f15ff06f          	j	41010300 <trap_handler_hs__clear_highest_priority_interrupt>
    410103f0:	f11ff06f          	j	41010300 <trap_handler_hs__clear_highest_priority_interrupt>
    410103f4:	f0dff06f          	j	41010300 <trap_handler_hs__clear_highest_priority_interrupt>
    410103f8:	f09ff06f          	j	41010300 <trap_handler_hs__clear_highest_priority_interrupt>
    410103fc:	f05ff06f          	j	41010300 <trap_handler_hs__clear_highest_priority_interrupt>
    41010400:	f01ff06f          	j	41010300 <trap_handler_hs__clear_highest_priority_interrupt>
    41010404:	efdff06f          	j	41010300 <trap_handler_hs__clear_highest_priority_interrupt>
    41010408:	ef9ff06f          	j	41010300 <trap_handler_hs__clear_highest_priority_interrupt>
    4101040c:	ef5ff06f          	j	41010300 <trap_handler_hs__clear_highest_priority_interrupt>

0000000041010410 <trap_handler_hs__test_failed>:
    41010410:	00f00f9b          	addiw	x31,x0,15
    41010414:	01cf9f93          	slli	x31,x31,0x1c
    41010418:	002f8f93          	addi	x31,x31,2
    4101041c:	00000073          	ecall

0000000041010420 <trap_handler_hs__trap_handler>:
    41010420:	142022f3          	csrr	x5,scause
    41010424:	fff0031b          	addiw	x6,x0,-1
    41010428:	03f31313          	slli	x6,x6,0x3f
    4101042c:	00537333          	and	x6,x6,x5
    41010430:	02030263          	beqz	x6,41010454 <trap_handler_hs__exception_path>

0000000041010434 <trap_handler_hs__interrupt_handler>:
    41010434:	fff0031b          	addiw	x6,x0,-1
    41010438:	03f31313          	slli	x6,x6,0x3f
    4101043c:	0062c2b3          	xor	x5,x5,x6
    41010440:	00000317          	auipc	x6,0x0
    41010444:	ed430313          	addi	x6,x6,-300 # 41010314 <trap_handler_hs__trap_entry>
    41010448:	00229293          	slli	x5,x5,0x2
    4101044c:	005302b3          	add	x5,x6,x5
    41010450:	00028067          	jr	x5 # 2000 <mem3>

0000000041010454 <trap_handler_hs__exception_path>:
    41010454:	14021273          	csrrw	x4,sscratch,x4
    41010458:	00000297          	auipc	x5,0x0
    4101045c:	10428293          	addi	x5,x5,260 # 4101055c <trap_handler_hs__trap_panic>
    41010460:	10529073          	csrw	stvec,x5
    41010464:	0040006f          	j	41010468 <trap_handler_hs__excp_entry>

0000000041010468 <trap_handler_hs__excp_entry>:
    41010468:	14202373          	csrr	x6,scause
    4101046c:	00800293          	li	x5,8
    41010470:	00534863          	blt	x6,x5,41010480 <trap_handler_hs__check_exception_label>
    41010474:	00b00293          	li	x5,11
    41010478:	0062c463          	blt	x5,x6,41010480 <trap_handler_hs__check_exception_label>
    4101047c:	0e00006f          	j	4101055c <trap_handler_hs__trap_panic>

0000000041010480 <trap_handler_hs__check_exception_label>:
    41010480:	04623c23          	sd	x6,88(x4) # 58 <XLEN+0x18>
    41010484:	141022f3          	csrr	x5,sepc
    41010488:	02523423          	sd	x5,40(x4) # 28 <SECURE_ACCESS_PROBABILITY+0xa>
    4101048c:	01820283          	lb	x5,24(x4) # 18 <STORE_GUEST_PAGE_FAULT+0x1>
    41010490:	00029863          	bnez	x5,410104a0 <trap_handler_hs__check_excp>
    41010494:	00128293          	addi	x5,x5,1
    41010498:	00520c23          	sb	x5,24(x4) # 18 <STORE_GUEST_PAGE_FAULT+0x1>
    4101049c:	0940006f          	j	41010530 <trap_handler_hs__ecall_from_machine>

00000000410104a0 <trap_handler_hs__check_excp>:
    410104a0:	06823283          	ld	x5,104(x4) # 68 <XLEN+0x28>
    410104a4:	06023423          	sd	x0,104(x4) # 68 <XLEN+0x28>
    410104a8:	00028663          	beqz	x5,410104b4 <trap_handler_hs__skip_mode_check>
    410104ac:	00200393          	li	x7,2
    410104b0:	f67290e3          	bne	x5,x7,41010410 <trap_handler_hs__test_failed>

00000000410104b4 <trap_handler_hs__skip_mode_check>:
    410104b4:	05023283          	ld	x5,80(x4) # 50 <XLEN+0x10>
    410104b8:	04023823          	sd	x0,80(x4) # 50 <XLEN+0x10>
    410104bc:	f4531ae3          	bne	x6,x5,41010410 <trap_handler_hs__test_failed>
    410104c0:	03823283          	ld	x5,56(x4) # 38 <SECURE_ACCESS_PROBABILITY+0x1a>
    410104c4:	02023c23          	sd	x0,56(x4) # 38 <SECURE_ACCESS_PROBABILITY+0x1a>
    410104c8:	06029263          	bnez	x5,4101052c <trap_handler_hs__skip_gva_check>
    410104cc:	02023303          	ld	x6,32(x4) # 20 <SECURE_ACCESS_PROBABILITY+0x2>
    410104d0:	02023023          	sd	x0,32(x4) # 20 <SECURE_ACCESS_PROBABILITY+0x2>
    410104d4:	02823283          	ld	x5,40(x4) # 28 <SECURE_ACCESS_PROBABILITY+0xa>
    410104d8:	02023423          	sd	x0,40(x4) # 28 <SECURE_ACCESS_PROBABILITY+0xa>
    410104dc:	f2531ae3          	bne	x6,x5,41010410 <trap_handler_hs__test_failed>
    410104e0:	04023283          	ld	x5,64(x4) # 40 <XLEN>
    410104e4:	04023023          	sd	x0,64(x4) # 40 <XLEN>
    410104e8:	00028663          	beqz	x5,410104f4 <trap_handler_hs__skip_nonzero_tval_check>

00000000410104ec <trap_handler_hs__nonzero_tval_check>:
    410104ec:	14302373          	csrr	x6,stval
    410104f0:	f25310e3          	bne	x6,x5,41010410 <trap_handler_hs__test_failed>

00000000410104f4 <trap_handler_hs__skip_nonzero_tval_check>:
    410104f4:	04823283          	ld	x5,72(x4) # 48 <XLEN+0x8>
    410104f8:	04023423          	sd	x0,72(x4) # 48 <XLEN+0x8>
    410104fc:	00028663          	beqz	x5,41010508 <trap_handler_hs__skip_nonzero_htval_check>

0000000041010500 <trap_handler_hs__nonzero_htval_check>:
    41010500:	64302373          	csrr	x6,htval
    41010504:	f05316e3          	bne	x6,x5,41010410 <trap_handler_hs__test_failed>

0000000041010508 <trap_handler_hs__skip_nonzero_htval_check>:
    41010508:	06023283          	ld	x5,96(x4) # 60 <XLEN+0x20>
    4101050c:	06023023          	sd	x0,96(x4) # 60 <XLEN+0x20>
    41010510:	00028e63          	beqz	x5,4101052c <trap_handler_hs__skip_gva_check>

0000000041010514 <trap_handler_hs__gva_check>:
    41010514:	60002373          	csrr	x6,hstatus
    41010518:	00635313          	srli	x6,x6,0x6
    4101051c:	00137313          	andi	x6,x6,1
    41010520:	ee0308e3          	beqz	x6,41010410 <trap_handler_hs__test_failed>
    41010524:	04000313          	li	x6,64
    41010528:	60033073          	csrc	hstatus,x6

000000004101052c <trap_handler_hs__skip_gva_check>:
    4101052c:	0040006f          	j	41010530 <trap_handler_hs__ecall_from_machine>

0000000041010530 <trap_handler_hs__ecall_from_machine>:
    41010530:	03023283          	ld	x5,48(x4) # 30 <SECURE_ACCESS_PROBABILITY+0x12>
    41010534:	02023823          	sd	x0,48(x4) # 30 <SECURE_ACCESS_PROBABILITY+0x12>
    41010538:	07023303          	ld	x6,112(x4) # 70 <XLEN+0x30>
    4101053c:	06023823          	sd	x0,112(x4) # 70 <XLEN+0x30>
    41010540:	00031463          	bnez	x6,41010548 <trap_handler_hs__skip_xepc_write>
    41010544:	14129073          	csrw	sepc,x5

0000000041010548 <trap_handler_hs__skip_xepc_write>:
    41010548:	00000317          	auipc	x6,0x0
    4101054c:	dcc30313          	addi	x6,x6,-564 # 41010314 <trap_handler_hs__trap_entry>
    41010550:	10531073          	csrw	stvec,x6
    41010554:	14021273          	csrrw	x4,sscratch,x4
    41010558:	10200073          	sret

000000004101055c <trap_handler_hs__trap_panic>:
    4101055c:	00000193          	li	x3,0
    41010560:	00f00f9b          	addiw	x31,x0,15
    41010564:	01cf9f93          	slli	x31,x31,0x1c
    41010568:	002f8f93          	addi	x31,x31,2
    4101056c:	00000073          	ecall

Disassembly of section .code:

0000000041014070 <passed>:
    41014070:	00f00f9b          	addiw	x31,x0,15
    41014074:	01cf9f93          	slli	x31,x31,0x1c
    41014078:	001f8f93          	addi	x31,x31,1
    4101407c:	00000073          	ecall

0000000041014080 <failed>:
    41014080:	00f00f9b          	addiw	x31,x0,15
    41014084:	01cf9f93          	slli	x31,x31,0x1c
    41014088:	002f8f93          	addi	x31,x31,2
    4101408c:	00000073          	ecall

0000000041014090 <end_test>:
    41014090:	00f00f9b          	addiw	x31,x0,15
    41014094:	01cf9f93          	slli	x31,x31,0x1c
    41014098:	003f8f93          	addi	x31,x31,3
    4101409c:	00000073          	ecall

00000000410140a0 <test_setup>:
    410140a0:	00f00f9b          	addiw	x31,x0,15
    410140a4:	01cf9f93          	slli	x31,x31,0x1c
    410140a8:	001f8f93          	addi	x31,x31,1
    410140ac:	00000073          	ecall

00000000410140b0 <SID_HEXCEP_05>:
    410140b0:	00170137          	lui	x2,0x170
    410140b4:	4164efb7          	lui	x31,0x4164e
    410140b8:	0b0f8f9b          	addiw	x31,x31,176 # 4164e0b0 <machine_csr_jump_table_flags>
    410140bc:	00100f13          	li	x30,1
    410140c0:	01efb023          	sd	x30,0(x31)
    410140c4:	000f0fb7          	lui	x31,0xf0
    410140c8:	001f8f9b          	addiw	x31,x31,1 # f0001 <SID_HEXCEP_09_sfence_vma_vtvm1_vs_stack+0x5c001>
    410140cc:	00cf9f93          	slli	x31,x31,0xc
    410140d0:	005f8f93          	addi	x31,x31,5
    410140d4:	00000073          	ecall
    410140d8:	00713023          	sd	x7,0(x2) # 170000 <tp_csr_storage>
    410140dc:	0ec3d137          	lui	x2,0xec3d
    410140e0:	000012b7          	lui	x5,0x1
    410140e4:	00510133          	add	x2,x2,x5
    410140e8:	ff017113          	andi	x2,x2,-16
    410140ec:	001003b7          	lui	x7,0x100
    410140f0:	4164efb7          	lui	x31,0x4164e
    410140f4:	0b0f8f9b          	addiw	x31,x31,176 # 4164e0b0 <machine_csr_jump_table_flags>
    410140f8:	00200f13          	li	x30,2
    410140fc:	01efb023          	sd	x30,0(x31)
    41014100:	000f0fb7          	lui	x31,0xf0
    41014104:	001f8f9b          	addiw	x31,x31,1 # f0001 <SID_HEXCEP_09_sfence_vma_vtvm1_vs_stack+0x5c001>
    41014108:	00cf9f93          	slli	x31,x31,0xc
    4101410c:	005f8f93          	addi	x31,x31,5
    41014110:	00000073          	ecall
    41014114:	00000493          	li	x9,0
    41014118:	0e7de237          	lui	x4,0xe7de
    4101411c:	01600e13          	li	x28,22
    41014120:	05c23823          	sd	x28,80(x4) # e7de050 <check_excp_expected_cause>
    41014124:	00000e17          	auipc	x28,0x0
    41014128:	04ce0e13          	addi	x28,x28,76 # 41014170 <fault_label_0>
    4101412c:	03c23023          	sd	x28,32(x4) # 20 <SECURE_ACCESS_PROBABILITY+0x2>
    41014130:	00000e13          	li	x28,0
    41014134:	05c23023          	sd	x28,64(x4) # 40 <XLEN>
    41014138:	00000e13          	li	x28,0
    4101413c:	05c23423          	sd	x28,72(x4) # 48 <XLEN+0x8>
    41014140:	00000e17          	auipc	x28,0x0
    41014144:	044e0e13          	addi	x28,x28,68 # 41014184 <excp_return_label_0>
    41014148:	03c23823          	sd	x28,48(x4) # 30 <SECURE_ACCESS_PROBABILITY+0x12>
    4101414c:	00000e13          	li	x28,0
    41014150:	03c23c23          	sd	x28,56(x4) # 38 <SECURE_ACCESS_PROBABILITY+0x1a>
    41014154:	00000e13          	li	x28,0
    41014158:	07c23023          	sd	x28,96(x4) # 60 <XLEN+0x20>
    4101415c:	00000e13          	li	x28,0
    41014160:	07c23423          	sd	x28,104(x4) # 68 <XLEN+0x28>
    41014164:	00000e13          	li	x28,0
    41014168:	07c23823          	sd	x28,112(x4) # 70 <XLEN+0x30>
    4101416c:	00000513          	li	x10,0

0000000041014170 <fault_label_0>:
    41014170:	200525f3          	csrrs	x11,vsstatus,x10
    41014174:	4164eab7          	lui	x21,0x4164e
    41014178:	008a8a9b          	addiw	x21,x21,8 # 4164e008 <failed_addr>
    4101417c:	000ab783          	ld	x15,0(x21)
    41014180:	00078067          	jr	x15

0000000041014184 <excp_return_label_0>:
    41014184:	0e7de237          	lui	x4,0xe7de
    41014188:	01600e13          	li	x28,22
    4101418c:	05c23823          	sd	x28,80(x4) # e7de050 <check_excp_expected_cause>
    41014190:	00000e17          	auipc	x28,0x0
    41014194:	048e0e13          	addi	x28,x28,72 # 410141d8 <fault_label_1>
    41014198:	03c23023          	sd	x28,32(x4) # 20 <SECURE_ACCESS_PROBABILITY+0x2>
    4101419c:	00000e13          	li	x28,0
    410141a0:	05c23023          	sd	x28,64(x4) # 40 <XLEN>
    410141a4:	00000e13          	li	x28,0
    410141a8:	05c23423          	sd	x28,72(x4) # 48 <XLEN+0x8>
    410141ac:	00000e17          	auipc	x28,0x0
    410141b0:	040e0e13          	addi	x28,x28,64 # 410141ec <excp_return_label_1>
    410141b4:	03c23823          	sd	x28,48(x4) # 30 <SECURE_ACCESS_PROBABILITY+0x12>
    410141b8:	00000e13          	li	x28,0
    410141bc:	03c23c23          	sd	x28,56(x4) # 38 <SECURE_ACCESS_PROBABILITY+0x1a>
    410141c0:	00000e13          	li	x28,0
    410141c4:	07c23023          	sd	x28,96(x4) # 60 <XLEN+0x20>
    410141c8:	00000e13          	li	x28,0
    410141cc:	07c23423          	sd	x28,104(x4) # 68 <XLEN+0x28>
    410141d0:	00000e13          	li	x28,0
    410141d4:	07c23823          	sd	x28,112(x4) # 70 <XLEN+0x30>

00000000410141d8 <fault_label_1>:
    410141d8:	20049af3          	csrrw	x21,vsstatus,x9
    410141dc:	4164e537          	lui	x10,0x4164e
    410141e0:	0085051b          	addiw	x10,x10,8 # 4164e008 <failed_addr>
    410141e4:	00053a03          	ld	x20,0(x10)
    410141e8:	000a0067          	jr	x20

00000000410141ec <excp_return_label_1>:
    410141ec:	0e7de237          	lui	x4,0xe7de
    410141f0:	01600e13          	li	x28,22
    410141f4:	05c23823          	sd	x28,80(x4) # e7de050 <check_excp_expected_cause>
    410141f8:	00000e17          	auipc	x28,0x0
    410141fc:	04ce0e13          	addi	x28,x28,76 # 41014244 <fault_label_2>
    41014200:	03c23023          	sd	x28,32(x4) # 20 <SECURE_ACCESS_PROBABILITY+0x2>
    41014204:	00000e13          	li	x28,0
    41014208:	05c23023          	sd	x28,64(x4) # 40 <XLEN>
    4101420c:	00000e13          	li	x28,0
    41014210:	05c23423          	sd	x28,72(x4) # 48 <XLEN+0x8>
    41014214:	00000e17          	auipc	x28,0x0
    41014218:	044e0e13          	addi	x28,x28,68 # 41014258 <excp_return_label_2>
    4101421c:	03c23823          	sd	x28,48(x4) # 30 <SECURE_ACCESS_PROBABILITY+0x12>
    41014220:	00000e13          	li	x28,0
    41014224:	03c23c23          	sd	x28,56(x4) # 38 <SECURE_ACCESS_PROBABILITY+0x1a>
    41014228:	00000e13          	li	x28,0
    4101422c:	07c23023          	sd	x28,96(x4) # 60 <XLEN+0x20>
    41014230:	00000e13          	li	x28,0
    41014234:	07c23423          	sd	x28,104(x4) # 68 <XLEN+0x28>
    41014238:	00000e13          	li	x28,0
    4101423c:	07c23823          	sd	x28,112(x4) # 70 <XLEN+0x30>
    41014240:	00000993          	li	x19,0

0000000041014244 <fault_label_2>:
    41014244:	2449a5f3          	csrrs	x11,vsip,x19
    41014248:	4164e8b7          	lui	x17,0x4164e
    4101424c:	0088889b          	addiw	x17,x17,8 # 4164e008 <failed_addr>
    41014250:	0008ba83          	ld	x21,0(x17)
    41014254:	000a8067          	jr	x21

0000000041014258 <excp_return_label_2>:
    41014258:	0e7de237          	lui	x4,0xe7de
    4101425c:	01600e13          	li	x28,22
    41014260:	05c23823          	sd	x28,80(x4) # e7de050 <check_excp_expected_cause>
    41014264:	00000e17          	auipc	x28,0x0
    41014268:	048e0e13          	addi	x28,x28,72 # 410142ac <fault_label_3>
    4101426c:	03c23023          	sd	x28,32(x4) # 20 <SECURE_ACCESS_PROBABILITY+0x2>
    41014270:	00000e13          	li	x28,0
    41014274:	05c23023          	sd	x28,64(x4) # 40 <XLEN>
    41014278:	00000e13          	li	x28,0
    4101427c:	05c23423          	sd	x28,72(x4) # 48 <XLEN+0x8>
    41014280:	00000e17          	auipc	x28,0x0
    41014284:	040e0e13          	addi	x28,x28,64 # 410142c0 <excp_return_label_3>
    41014288:	03c23823          	sd	x28,48(x4) # 30 <SECURE_ACCESS_PROBABILITY+0x12>
    4101428c:	00000e13          	li	x28,0
    41014290:	03c23c23          	sd	x28,56(x4) # 38 <SECURE_ACCESS_PROBABILITY+0x1a>
    41014294:	00000e13          	li	x28,0
    41014298:	07c23023          	sd	x28,96(x4) # 60 <XLEN+0x20>
    4101429c:	00000e13          	li	x28,0
    410142a0:	07c23423          	sd	x28,104(x4) # 68 <XLEN+0x28>
    410142a4:	00000e13          	li	x28,0
    410142a8:	07c23823          	sd	x28,112(x4) # 70 <XLEN+0x30>

00000000410142ac <fault_label_3>:
    410142ac:	24449473          	csrrw	x8,vsip,x9
    410142b0:	4164e537          	lui	x10,0x4164e
    410142b4:	0085051b          	addiw	x10,x10,8 # 4164e008 <failed_addr>
    410142b8:	00053883          	ld	x17,0(x10)
    410142bc:	00088067          	jr	x17

00000000410142c0 <excp_return_label_3>:
    410142c0:	0e7de237          	lui	x4,0xe7de
    410142c4:	01600e13          	li	x28,22
    410142c8:	05c23823          	sd	x28,80(x4) # e7de050 <check_excp_expected_cause>
    410142cc:	00000e17          	auipc	x28,0x0
    410142d0:	04ce0e13          	addi	x28,x28,76 # 41014318 <fault_label_4>
    410142d4:	03c23023          	sd	x28,32(x4) # 20 <SECURE_ACCESS_PROBABILITY+0x2>
    410142d8:	00000e13          	li	x28,0
    410142dc:	05c23023          	sd	x28,64(x4) # 40 <XLEN>
    410142e0:	00000e13          	li	x28,0
    410142e4:	05c23423          	sd	x28,72(x4) # 48 <XLEN+0x8>
    410142e8:	00000e17          	auipc	x28,0x0
    410142ec:	044e0e13          	addi	x28,x28,68 # 4101432c <excp_return_label_4>
    410142f0:	03c23823          	sd	x28,48(x4) # 30 <SECURE_ACCESS_PROBABILITY+0x12>
    410142f4:	00000e13          	li	x28,0
    410142f8:	03c23c23          	sd	x28,56(x4) # 38 <SECURE_ACCESS_PROBABILITY+0x1a>
    410142fc:	00000e13          	li	x28,0
    41014300:	07c23023          	sd	x28,96(x4) # 60 <XLEN+0x20>
    41014304:	00000e13          	li	x28,0
    41014308:	07c23423          	sd	x28,104(x4) # 68 <XLEN+0x28>
    4101430c:	00000e13          	li	x28,0
    41014310:	07c23823          	sd	x28,112(x4) # 70 <XLEN+0x30>
    41014314:	00000913          	li	x18,0

0000000041014318 <fault_label_4>:
    41014318:	20492f73          	csrrs	x30,vsie,x18
    4101431c:	4164e437          	lui	x8,0x4164e
    41014320:	0084041b          	addiw	x8,x8,8 # 4164e008 <failed_addr>
    41014324:	00043e83          	ld	x29,0(x8)
    41014328:	000e8067          	jr	x29 # 82000d24 <pma_region_2_end+0x3cfbfd24>

000000004101432c <excp_return_label_4>:
    4101432c:	0e7de237          	lui	x4,0xe7de
    41014330:	01600e13          	li	x28,22
    41014334:	05c23823          	sd	x28,80(x4) # e7de050 <check_excp_expected_cause>
    41014338:	00000e17          	auipc	x28,0x0
    4101433c:	048e0e13          	addi	x28,x28,72 # 41014380 <fault_label_5>
    41014340:	03c23023          	sd	x28,32(x4) # 20 <SECURE_ACCESS_PROBABILITY+0x2>
    41014344:	00000e13          	li	x28,0
    41014348:	05c23023          	sd	x28,64(x4) # 40 <XLEN>
    4101434c:	00000e13          	li	x28,0
    41014350:	05c23423          	sd	x28,72(x4) # 48 <XLEN+0x8>
    41014354:	00000e17          	auipc	x28,0x0
    41014358:	040e0e13          	addi	x28,x28,64 # 41014394 <excp_return_label_5>
    4101435c:	03c23823          	sd	x28,48(x4) # 30 <SECURE_ACCESS_PROBABILITY+0x12>
    41014360:	00000e13          	li	x28,0
    41014364:	03c23c23          	sd	x28,56(x4) # 38 <SECURE_ACCESS_PROBABILITY+0x1a>
    41014368:	00000e13          	li	x28,0
    4101436c:	07c23023          	sd	x28,96(x4) # 60 <XLEN+0x20>
    41014370:	00000e13          	li	x28,0
    41014374:	07c23423          	sd	x28,104(x4) # 68 <XLEN+0x28>
    41014378:	00000e13          	li	x28,0
    4101437c:	07c23823          	sd	x28,112(x4) # 70 <XLEN+0x30>

0000000041014380 <fault_label_5>:
    41014380:	20449473          	csrrw	x8,vsie,x9
    41014384:	4164e9b7          	lui	x19,0x4164e
    41014388:	0089899b          	addiw	x19,x19,8 # 4164e008 <failed_addr>
    4101438c:	0009be03          	ld	x28,0(x19)
    41014390:	000e0067          	jr	x28

0000000041014394 <excp_return_label_5>:
    41014394:	0e7de237          	lui	x4,0xe7de
    41014398:	01600e13          	li	x28,22
    4101439c:	05c23823          	sd	x28,80(x4) # e7de050 <check_excp_expected_cause>
    410143a0:	00000e17          	auipc	x28,0x0
    410143a4:	04ce0e13          	addi	x28,x28,76 # 410143ec <fault_label_6>
    410143a8:	03c23023          	sd	x28,32(x4) # 20 <SECURE_ACCESS_PROBABILITY+0x2>
    410143ac:	00000e13          	li	x28,0
    410143b0:	05c23023          	sd	x28,64(x4) # 40 <XLEN>
    410143b4:	00000e13          	li	x28,0
    410143b8:	05c23423          	sd	x28,72(x4) # 48 <XLEN+0x8>
    410143bc:	00000e17          	auipc	x28,0x0
    410143c0:	044e0e13          	addi	x28,x28,68 # 41014400 <excp_return_label_6>
    410143c4:	03c23823          	sd	x28,48(x4) # 30 <SECURE_ACCESS_PROBABILITY+0x12>
    410143c8:	00000e13          	li	x28,0
    410143cc:	03c23c23          	sd	x28,56(x4) # 38 <SECURE_ACCESS_PROBABILITY+0x1a>
    410143d0:	00000e13          	li	x28,0
    410143d4:	07c23023          	sd	x28,96(x4) # 60 <XLEN+0x20>
    410143d8:	00000e13          	li	x28,0
    410143dc:	07c23423          	sd	x28,104(x4) # 68 <XLEN+0x28>
    410143e0:	00000e13          	li	x28,0
    410143e4:	07c23823          	sd	x28,112(x4) # 70 <XLEN+0x30>
    410143e8:	00000513          	li	x10,0

00000000410143ec <fault_label_6>:
    410143ec:	20552a73          	csrrs	x20,vstvec,x10
    410143f0:	4164e8b7          	lui	x17,0x4164e
    410143f4:	0088889b          	addiw	x17,x17,8 # 4164e008 <failed_addr>
    410143f8:	0008bc83          	ld	x25,0(x17)
    410143fc:	000c8067          	jr	x25

0000000041014400 <excp_return_label_6>:
    41014400:	0e7de237          	lui	x4,0xe7de
    41014404:	01600e13          	li	x28,22
    41014408:	05c23823          	sd	x28,80(x4) # e7de050 <check_excp_expected_cause>
    4101440c:	00000e17          	auipc	x28,0x0
    41014410:	048e0e13          	addi	x28,x28,72 # 41014454 <fault_label_7>
    41014414:	03c23023          	sd	x28,32(x4) # 20 <SECURE_ACCESS_PROBABILITY+0x2>
    41014418:	00000e13          	li	x28,0
    4101441c:	05c23023          	sd	x28,64(x4) # 40 <XLEN>
    41014420:	00000e13          	li	x28,0
    41014424:	05c23423          	sd	x28,72(x4) # 48 <XLEN+0x8>
    41014428:	00000e17          	auipc	x28,0x0
    4101442c:	040e0e13          	addi	x28,x28,64 # 41014468 <excp_return_label_7>
    41014430:	03c23823          	sd	x28,48(x4) # 30 <SECURE_ACCESS_PROBABILITY+0x12>
    41014434:	00000e13          	li	x28,0
    41014438:	03c23c23          	sd	x28,56(x4) # 38 <SECURE_ACCESS_PROBABILITY+0x1a>
    4101443c:	00000e13          	li	x28,0
    41014440:	07c23023          	sd	x28,96(x4) # 60 <XLEN+0x20>
    41014444:	00000e13          	li	x28,0
    41014448:	07c23423          	sd	x28,104(x4) # 68 <XLEN+0x28>
    4101444c:	00000e13          	li	x28,0
    41014450:	07c23823          	sd	x28,112(x4) # 70 <XLEN+0x30>

0000000041014454 <fault_label_7>:
    41014454:	20549673          	csrrw	x12,vstvec,x9
    41014458:	4164e337          	lui	x6,0x4164e
    4101445c:	0083031b          	addiw	x6,x6,8 # 4164e008 <failed_addr>
    41014460:	00033583          	ld	x11,0(x6)
    41014464:	00058067          	jr	x11

0000000041014468 <excp_return_label_7>:
    41014468:	0e7de237          	lui	x4,0xe7de
    4101446c:	01600e13          	li	x28,22
    41014470:	05c23823          	sd	x28,80(x4) # e7de050 <check_excp_expected_cause>
    41014474:	00000e17          	auipc	x28,0x0
    41014478:	04ce0e13          	addi	x28,x28,76 # 410144c0 <fault_label_8>
    4101447c:	03c23023          	sd	x28,32(x4) # 20 <SECURE_ACCESS_PROBABILITY+0x2>
    41014480:	00000e13          	li	x28,0
    41014484:	05c23023          	sd	x28,64(x4) # 40 <XLEN>
    41014488:	00000e13          	li	x28,0
    4101448c:	05c23423          	sd	x28,72(x4) # 48 <XLEN+0x8>
    41014490:	00000e17          	auipc	x28,0x0
    41014494:	044e0e13          	addi	x28,x28,68 # 410144d4 <excp_return_label_8>
    41014498:	03c23823          	sd	x28,48(x4) # 30 <SECURE_ACCESS_PROBABILITY+0x12>
    4101449c:	00000e13          	li	x28,0
    410144a0:	03c23c23          	sd	x28,56(x4) # 38 <SECURE_ACCESS_PROBABILITY+0x1a>
    410144a4:	00000e13          	li	x28,0
    410144a8:	07c23023          	sd	x28,96(x4) # 60 <XLEN+0x20>
    410144ac:	00000e13          	li	x28,0
    410144b0:	07c23423          	sd	x28,104(x4) # 68 <XLEN+0x28>
    410144b4:	00000e13          	li	x28,0
    410144b8:	07c23823          	sd	x28,112(x4) # 70 <XLEN+0x30>
    410144bc:	00000e93          	li	x29,0

00000000410144c0 <fault_label_8>:
    410144c0:	240ea7f3          	csrrs	x15,vsscratch,x29
    410144c4:	4164ef37          	lui	x30,0x4164e
    410144c8:	008f0f1b          	addiw	x30,x30,8 # 4164e008 <failed_addr>
    410144cc:	000f3983          	ld	x19,0(x30)
    410144d0:	00098067          	jr	x19

00000000410144d4 <excp_return_label_8>:
    410144d4:	0e7de237          	lui	x4,0xe7de
    410144d8:	01600e13          	li	x28,22
    410144dc:	05c23823          	sd	x28,80(x4) # e7de050 <check_excp_expected_cause>
    410144e0:	00000e17          	auipc	x28,0x0
    410144e4:	048e0e13          	addi	x28,x28,72 # 41014528 <fault_label_9>
    410144e8:	03c23023          	sd	x28,32(x4) # 20 <SECURE_ACCESS_PROBABILITY+0x2>
    410144ec:	00000e13          	li	x28,0
    410144f0:	05c23023          	sd	x28,64(x4) # 40 <XLEN>
    410144f4:	00000e13          	li	x28,0
    410144f8:	05c23423          	sd	x28,72(x4) # 48 <XLEN+0x8>
    410144fc:	00000e17          	auipc	x28,0x0
    41014500:	040e0e13          	addi	x28,x28,64 # 4101453c <excp_return_label_9>
    41014504:	03c23823          	sd	x28,48(x4) # 30 <SECURE_ACCESS_PROBABILITY+0x12>
    41014508:	00000e13          	li	x28,0
    4101450c:	03c23c23          	sd	x28,56(x4) # 38 <SECURE_ACCESS_PROBABILITY+0x1a>
    41014510:	00000e13          	li	x28,0
    41014514:	07c23023          	sd	x28,96(x4) # 60 <XLEN+0x20>
    41014518:	00000e13          	li	x28,0
    4101451c:	07c23423          	sd	x28,104(x4) # 68 <XLEN+0x28>
    41014520:	00000e13          	li	x28,0
    41014524:	07c23823          	sd	x28,112(x4) # 70 <XLEN+0x30>

0000000041014528 <fault_label_9>:
    41014528:	240498f3          	csrrw	x17,vsscratch,x9
    4101452c:	4164ec37          	lui	x24,0x4164e
    41014530:	008c0c1b          	addiw	x24,x24,8 # 4164e008 <failed_addr>
    41014534:	000c3303          	ld	x6,0(x24)
    41014538:	00030067          	jr	x6

000000004101453c <excp_return_label_9>:
    4101453c:	0e7de237          	lui	x4,0xe7de
    41014540:	01600e13          	li	x28,22
    41014544:	05c23823          	sd	x28,80(x4) # e7de050 <check_excp_expected_cause>
    41014548:	00000e17          	auipc	x28,0x0
    4101454c:	04ce0e13          	addi	x28,x28,76 # 41014594 <fault_label_10>
    41014550:	03c23023          	sd	x28,32(x4) # 20 <SECURE_ACCESS_PROBABILITY+0x2>
    41014554:	00000e13          	li	x28,0
    41014558:	05c23023          	sd	x28,64(x4) # 40 <XLEN>
    4101455c:	00000e13          	li	x28,0
    41014560:	05c23423          	sd	x28,72(x4) # 48 <XLEN+0x8>
    41014564:	00000e17          	auipc	x28,0x0
    41014568:	044e0e13          	addi	x28,x28,68 # 410145a8 <excp_return_label_10>
    4101456c:	03c23823          	sd	x28,48(x4) # 30 <SECURE_ACCESS_PROBABILITY+0x12>
    41014570:	00000e13          	li	x28,0
    41014574:	03c23c23          	sd	x28,56(x4) # 38 <SECURE_ACCESS_PROBABILITY+0x1a>
    41014578:	00000e13          	li	x28,0
    4101457c:	07c23023          	sd	x28,96(x4) # 60 <XLEN+0x20>
    41014580:	00000e13          	li	x28,0
    41014584:	07c23423          	sd	x28,104(x4) # 68 <XLEN+0x28>
    41014588:	00000e13          	li	x28,0
    4101458c:	07c23823          	sd	x28,112(x4) # 70 <XLEN+0x30>
    41014590:	00000d13          	li	x26,0

0000000041014594 <fault_label_10>:
    41014594:	241d23f3          	csrrs	x7,vsepc,x26
    41014598:	4164eab7          	lui	x21,0x4164e
    4101459c:	008a8a9b          	addiw	x21,x21,8 # 4164e008 <failed_addr>
    410145a0:	000ab683          	ld	x13,0(x21)
    410145a4:	00068067          	jr	x13

00000000410145a8 <excp_return_label_10>:
    410145a8:	0e7de237          	lui	x4,0xe7de
    410145ac:	01600e13          	li	x28,22
    410145b0:	05c23823          	sd	x28,80(x4) # e7de050 <check_excp_expected_cause>
    410145b4:	00000e17          	auipc	x28,0x0
    410145b8:	048e0e13          	addi	x28,x28,72 # 410145fc <fault_label_11>
    410145bc:	03c23023          	sd	x28,32(x4) # 20 <SECURE_ACCESS_PROBABILITY+0x2>
    410145c0:	00000e13          	li	x28,0
    410145c4:	05c23023          	sd	x28,64(x4) # 40 <XLEN>
    410145c8:	00000e13          	li	x28,0
    410145cc:	05c23423          	sd	x28,72(x4) # 48 <XLEN+0x8>
    410145d0:	00000e17          	auipc	x28,0x0
    410145d4:	040e0e13          	addi	x28,x28,64 # 41014610 <excp_return_label_11>
    410145d8:	03c23823          	sd	x28,48(x4) # 30 <SECURE_ACCESS_PROBABILITY+0x12>
    410145dc:	00000e13          	li	x28,0
    410145e0:	03c23c23          	sd	x28,56(x4) # 38 <SECURE_ACCESS_PROBABILITY+0x1a>
    410145e4:	00000e13          	li	x28,0
    410145e8:	07c23023          	sd	x28,96(x4) # 60 <XLEN+0x20>
    410145ec:	00000e13          	li	x28,0
    410145f0:	07c23423          	sd	x28,104(x4) # 68 <XLEN+0x28>
    410145f4:	00000e13          	li	x28,0
    410145f8:	07c23823          	sd	x28,112(x4) # 70 <XLEN+0x30>

00000000410145fc <fault_label_11>:
    410145fc:	24149ff3          	csrrw	x31,vsepc,x9
    41014600:	4164ecb7          	lui	x25,0x4164e
    41014604:	008c8c9b          	addiw	x25,x25,8 # 4164e008 <failed_addr>
    41014608:	000cb903          	ld	x18,0(x25)
    4101460c:	00090067          	jr	x18

0000000041014610 <excp_return_label_11>:
    41014610:	0e7de237          	lui	x4,0xe7de
    41014614:	01600e13          	li	x28,22
    41014618:	05c23823          	sd	x28,80(x4) # e7de050 <check_excp_expected_cause>
    4101461c:	00000e17          	auipc	x28,0x0
    41014620:	04ce0e13          	addi	x28,x28,76 # 41014668 <fault_label_12>
    41014624:	03c23023          	sd	x28,32(x4) # 20 <SECURE_ACCESS_PROBABILITY+0x2>
    41014628:	00000e13          	li	x28,0
    4101462c:	05c23023          	sd	x28,64(x4) # 40 <XLEN>
    41014630:	00000e13          	li	x28,0
    41014634:	05c23423          	sd	x28,72(x4) # 48 <XLEN+0x8>
    41014638:	00000e17          	auipc	x28,0x0
    4101463c:	044e0e13          	addi	x28,x28,68 # 4101467c <excp_return_label_12>
    41014640:	03c23823          	sd	x28,48(x4) # 30 <SECURE_ACCESS_PROBABILITY+0x12>
    41014644:	00000e13          	li	x28,0
    41014648:	03c23c23          	sd	x28,56(x4) # 38 <SECURE_ACCESS_PROBABILITY+0x1a>
    4101464c:	00000e13          	li	x28,0
    41014650:	07c23023          	sd	x28,96(x4) # 60 <XLEN+0x20>
    41014654:	00000e13          	li	x28,0
    41014658:	07c23423          	sd	x28,104(x4) # 68 <XLEN+0x28>
    4101465c:	00000e13          	li	x28,0
    41014660:	07c23823          	sd	x28,112(x4) # 70 <XLEN+0x30>
    41014664:	00000d93          	li	x27,0

0000000041014668 <fault_label_12>:
    41014668:	242da373          	csrrs	x6,vscause,x27
    4101466c:	4164ed37          	lui	x26,0x4164e
    41014670:	008d0d1b          	addiw	x26,x26,8 # 4164e008 <failed_addr>
    41014674:	000d3783          	ld	x15,0(x26)
    41014678:	00078067          	jr	x15

000000004101467c <excp_return_label_12>:
    4101467c:	0e7de237          	lui	x4,0xe7de
    41014680:	01600e13          	li	x28,22
    41014684:	05c23823          	sd	x28,80(x4) # e7de050 <check_excp_expected_cause>
    41014688:	00000e17          	auipc	x28,0x0
    4101468c:	048e0e13          	addi	x28,x28,72 # 410146d0 <fault_label_13>
    41014690:	03c23023          	sd	x28,32(x4) # 20 <SECURE_ACCESS_PROBABILITY+0x2>
    41014694:	00000e13          	li	x28,0
    41014698:	05c23023          	sd	x28,64(x4) # 40 <XLEN>
    4101469c:	00000e13          	li	x28,0
    410146a0:	05c23423          	sd	x28,72(x4) # 48 <XLEN+0x8>
    410146a4:	00000e17          	auipc	x28,0x0
    410146a8:	040e0e13          	addi	x28,x28,64 # 410146e4 <excp_return_label_13>
    410146ac:	03c23823          	sd	x28,48(x4) # 30 <SECURE_ACCESS_PROBABILITY+0x12>
    410146b0:	00000e13          	li	x28,0
    410146b4:	03c23c23          	sd	x28,56(x4) # 38 <SECURE_ACCESS_PROBABILITY+0x1a>
    410146b8:	00000e13          	li	x28,0
    410146bc:	07c23023          	sd	x28,96(x4) # 60 <XLEN+0x20>
    410146c0:	00000e13          	li	x28,0
    410146c4:	07c23423          	sd	x28,104(x4) # 68 <XLEN+0x28>
    410146c8:	00000e13          	li	x28,0
    410146cc:	07c23823          	sd	x28,112(x4) # 70 <XLEN+0x30>

00000000410146d0 <fault_label_13>:
    410146d0:	24249af3          	csrrw	x21,vscause,x9
    410146d4:	4164e337          	lui	x6,0x4164e
    410146d8:	0083031b          	addiw	x6,x6,8 # 4164e008 <failed_addr>
    410146dc:	00033f83          	ld	x31,0(x6)
    410146e0:	000f8067          	jr	x31

00000000410146e4 <excp_return_label_13>:
    410146e4:	0e7de237          	lui	x4,0xe7de
    410146e8:	01600e13          	li	x28,22
    410146ec:	05c23823          	sd	x28,80(x4) # e7de050 <check_excp_expected_cause>
    410146f0:	00000e17          	auipc	x28,0x0
    410146f4:	04ce0e13          	addi	x28,x28,76 # 4101473c <fault_label_14>
    410146f8:	03c23023          	sd	x28,32(x4) # 20 <SECURE_ACCESS_PROBABILITY+0x2>
    410146fc:	00000e13          	li	x28,0
    41014700:	05c23023          	sd	x28,64(x4) # 40 <XLEN>
    41014704:	00000e13          	li	x28,0
    41014708:	05c23423          	sd	x28,72(x4) # 48 <XLEN+0x8>
    4101470c:	00000e17          	auipc	x28,0x0
    41014710:	044e0e13          	addi	x28,x28,68 # 41014750 <excp_return_label_14>
    41014714:	03c23823          	sd	x28,48(x4) # 30 <SECURE_ACCESS_PROBABILITY+0x12>
    41014718:	00000e13          	li	x28,0
    4101471c:	03c23c23          	sd	x28,56(x4) # 38 <SECURE_ACCESS_PROBABILITY+0x1a>
    41014720:	00000e13          	li	x28,0
    41014724:	07c23023          	sd	x28,96(x4) # 60 <XLEN+0x20>
    41014728:	00000e13          	li	x28,0
    4101472c:	07c23423          	sd	x28,104(x4) # 68 <XLEN+0x28>
    41014730:	00000e13          	li	x28,0
    41014734:	07c23823          	sd	x28,112(x4) # 70 <XLEN+0x30>
    41014738:	00000e13          	li	x28,0

000000004101473c <fault_label_14>:
    4101473c:	243e23f3          	csrrs	x7,vstval,x28
    41014740:	4164ec37          	lui	x24,0x4164e
    41014744:	008c0c1b          	addiw	x24,x24,8 # 4164e008 <failed_addr>
    41014748:	000c3383          	ld	x7,0(x24)
    4101474c:	00038067          	jr	x7 # 100000 <SID_HEXCEP_09_sfence_vma_vtvm1_vs_stack+0x6c000>

0000000041014750 <excp_return_label_14>:
    41014750:	0e7de237          	lui	x4,0xe7de
    41014754:	01600e13          	li	x28,22
    41014758:	05c23823          	sd	x28,80(x4) # e7de050 <check_excp_expected_cause>
    4101475c:	00000e17          	auipc	x28,0x0
    41014760:	048e0e13          	addi	x28,x28,72 # 410147a4 <fault_label_15>
    41014764:	03c23023          	sd	x28,32(x4) # 20 <SECURE_ACCESS_PROBABILITY+0x2>
    41014768:	00000e13          	li	x28,0
    4101476c:	05c23023          	sd	x28,64(x4) # 40 <XLEN>
    41014770:	00000e13          	li	x28,0
    41014774:	05c23423          	sd	x28,72(x4) # 48 <XLEN+0x8>
    41014778:	00000e17          	auipc	x28,0x0
    4101477c:	040e0e13          	addi	x28,x28,64 # 410147b8 <excp_return_label_15>
    41014780:	03c23823          	sd	x28,48(x4) # 30 <SECURE_ACCESS_PROBABILITY+0x12>
    41014784:	00000e13          	li	x28,0
    41014788:	03c23c23          	sd	x28,56(x4) # 38 <SECURE_ACCESS_PROBABILITY+0x1a>
    4101478c:	00000e13          	li	x28,0
    41014790:	07c23023          	sd	x28,96(x4) # 60 <XLEN+0x20>
    41014794:	00000e13          	li	x28,0
    41014798:	07c23423          	sd	x28,104(x4) # 68 <XLEN+0x28>
    4101479c:	00000e13          	li	x28,0
    410147a0:	07c23823          	sd	x28,112(x4) # 70 <XLEN+0x30>

00000000410147a4 <fault_label_15>:
    410147a4:	24349df3          	csrrw	x27,vstval,x9
    410147a8:	4164edb7          	lui	x27,0x4164e
    410147ac:	008d8d9b          	addiw	x27,x27,8 # 4164e008 <failed_addr>
    410147b0:	000db983          	ld	x19,0(x27)
    410147b4:	00098067          	jr	x19

00000000410147b8 <excp_return_label_15>:
    410147b8:	0e7de237          	lui	x4,0xe7de
    410147bc:	01600e13          	li	x28,22
    410147c0:	05c23823          	sd	x28,80(x4) # e7de050 <check_excp_expected_cause>
    410147c4:	00000e17          	auipc	x28,0x0
    410147c8:	04ce0e13          	addi	x28,x28,76 # 41014810 <fault_label_16>
    410147cc:	03c23023          	sd	x28,32(x4) # 20 <SECURE_ACCESS_PROBABILITY+0x2>
    410147d0:	00000e13          	li	x28,0
    410147d4:	05c23023          	sd	x28,64(x4) # 40 <XLEN>
    410147d8:	00000e13          	li	x28,0
    410147dc:	05c23423          	sd	x28,72(x4) # 48 <XLEN+0x8>
    410147e0:	00000e17          	auipc	x28,0x0
    410147e4:	044e0e13          	addi	x28,x28,68 # 41014824 <excp_return_label_16>
    410147e8:	03c23823          	sd	x28,48(x4) # 30 <SECURE_ACCESS_PROBABILITY+0x12>
    410147ec:	00000e13          	li	x28,0
    410147f0:	03c23c23          	sd	x28,56(x4) # 38 <SECURE_ACCESS_PROBABILITY+0x1a>
    410147f4:	00000e13          	li	x28,0
    410147f8:	07c23023          	sd	x28,96(x4) # 60 <XLEN+0x20>
    410147fc:	00000e13          	li	x28,0
    41014800:	07c23423          	sd	x28,104(x4) # 68 <XLEN+0x28>
    41014804:	00000e13          	li	x28,0
    41014808:	07c23823          	sd	x28,112(x4) # 70 <XLEN+0x30>
    4101480c:	00000313          	li	x6,0

0000000041014810 <fault_label_16>:
    41014810:	280328f3          	csrrs	x17,vsatp,x6
    41014814:	4164e6b7          	lui	x13,0x4164e
    41014818:	0086869b          	addiw	x13,x13,8 # 4164e008 <failed_addr>
    4101481c:	0006b783          	ld	x15,0(x13)
    41014820:	00078067          	jr	x15

0000000041014824 <excp_return_label_16>:
    41014824:	0e7de237          	lui	x4,0xe7de
    41014828:	01600e13          	li	x28,22
    4101482c:	05c23823          	sd	x28,80(x4) # e7de050 <check_excp_expected_cause>
    41014830:	00000e17          	auipc	x28,0x0
    41014834:	048e0e13          	addi	x28,x28,72 # 41014878 <fault_label_17>
    41014838:	03c23023          	sd	x28,32(x4) # 20 <SECURE_ACCESS_PROBABILITY+0x2>
    4101483c:	00000e13          	li	x28,0
    41014840:	05c23023          	sd	x28,64(x4) # 40 <XLEN>
    41014844:	00000e13          	li	x28,0
    41014848:	05c23423          	sd	x28,72(x4) # 48 <XLEN+0x8>
    4101484c:	00000e17          	auipc	x28,0x0
    41014850:	040e0e13          	addi	x28,x28,64 # 4101488c <excp_return_label_17>
    41014854:	03c23823          	sd	x28,48(x4) # 30 <SECURE_ACCESS_PROBABILITY+0x12>
    41014858:	00000e13          	li	x28,0
    4101485c:	03c23c23          	sd	x28,56(x4) # 38 <SECURE_ACCESS_PROBABILITY+0x1a>
    41014860:	00000e13          	li	x28,0
    41014864:	07c23023          	sd	x28,96(x4) # 60 <XLEN+0x20>
    41014868:	00000e13          	li	x28,0
    4101486c:	07c23423          	sd	x28,104(x4) # 68 <XLEN+0x28>
    41014870:	00000e13          	li	x28,0
    41014874:	07c23823          	sd	x28,112(x4) # 70 <XLEN+0x30>

0000000041014878 <fault_label_17>:
    41014878:	28049573          	csrrw	x10,vsatp,x9
    4101487c:	4164e537          	lui	x10,0x4164e
    41014880:	0085051b          	addiw	x10,x10,8 # 4164e008 <failed_addr>
    41014884:	00053d03          	ld	x26,0(x10)
    41014888:	000d0067          	jr	x26

000000004101488c <excp_return_label_17>:
    4101488c:	0e7de237          	lui	x4,0xe7de
    41014890:	01600e13          	li	x28,22
    41014894:	05c23823          	sd	x28,80(x4) # e7de050 <check_excp_expected_cause>
    41014898:	00000e17          	auipc	x28,0x0
    4101489c:	04ce0e13          	addi	x28,x28,76 # 410148e4 <fault_label_18>
    410148a0:	03c23023          	sd	x28,32(x4) # 20 <SECURE_ACCESS_PROBABILITY+0x2>
    410148a4:	00000e13          	li	x28,0
    410148a8:	05c23023          	sd	x28,64(x4) # 40 <XLEN>
    410148ac:	00000e13          	li	x28,0
    410148b0:	05c23423          	sd	x28,72(x4) # 48 <XLEN+0x8>
    410148b4:	00000e17          	auipc	x28,0x0
    410148b8:	044e0e13          	addi	x28,x28,68 # 410148f8 <excp_return_label_18>
    410148bc:	03c23823          	sd	x28,48(x4) # 30 <SECURE_ACCESS_PROBABILITY+0x12>
    410148c0:	00000e13          	li	x28,0
    410148c4:	03c23c23          	sd	x28,56(x4) # 38 <SECURE_ACCESS_PROBABILITY+0x1a>
    410148c8:	00000e13          	li	x28,0
    410148cc:	07c23023          	sd	x28,96(x4) # 60 <XLEN+0x20>
    410148d0:	00000e13          	li	x28,0
    410148d4:	07c23423          	sd	x28,104(x4) # 68 <XLEN+0x28>
    410148d8:	00000e13          	li	x28,0
    410148dc:	07c23823          	sd	x28,112(x4) # 70 <XLEN+0x30>
    410148e0:	00000793          	li	x15,0

00000000410148e4 <fault_label_18>:
    410148e4:	6007ad73          	csrrs	x26,hstatus,x15
    410148e8:	4164ee37          	lui	x28,0x4164e
    410148ec:	008e0e1b          	addiw	x28,x28,8 # 4164e008 <failed_addr>
    410148f0:	000e3683          	ld	x13,0(x28)
    410148f4:	00068067          	jr	x13

00000000410148f8 <excp_return_label_18>:
    410148f8:	0e7de237          	lui	x4,0xe7de
    410148fc:	01600e13          	li	x28,22
    41014900:	05c23823          	sd	x28,80(x4) # e7de050 <check_excp_expected_cause>
    41014904:	00000e17          	auipc	x28,0x0
    41014908:	048e0e13          	addi	x28,x28,72 # 4101494c <fault_label_19>
    4101490c:	03c23023          	sd	x28,32(x4) # 20 <SECURE_ACCESS_PROBABILITY+0x2>
    41014910:	00000e13          	li	x28,0
    41014914:	05c23023          	sd	x28,64(x4) # 40 <XLEN>
    41014918:	00000e13          	li	x28,0
    4101491c:	05c23423          	sd	x28,72(x4) # 48 <XLEN+0x8>
    41014920:	00000e17          	auipc	x28,0x0
    41014924:	040e0e13          	addi	x28,x28,64 # 41014960 <excp_return_label_19>
    41014928:	03c23823          	sd	x28,48(x4) # 30 <SECURE_ACCESS_PROBABILITY+0x12>
    4101492c:	00000e13          	li	x28,0
    41014930:	03c23c23          	sd	x28,56(x4) # 38 <SECURE_ACCESS_PROBABILITY+0x1a>
    41014934:	00000e13          	li	x28,0
    41014938:	07c23023          	sd	x28,96(x4) # 60 <XLEN+0x20>
    4101493c:	00000e13          	li	x28,0
    41014940:	07c23423          	sd	x28,104(x4) # 68 <XLEN+0x28>
    41014944:	00000e13          	li	x28,0
    41014948:	07c23823          	sd	x28,112(x4) # 70 <XLEN+0x30>

000000004101494c <fault_label_19>:
    4101494c:	60049df3          	csrrw	x27,hstatus,x9
    41014950:	4164e5b7          	lui	x11,0x4164e
    41014954:	0085859b          	addiw	x11,x11,8 # 4164e008 <failed_addr>
    41014958:	0005b983          	ld	x19,0(x11)
    4101495c:	00098067          	jr	x19

0000000041014960 <excp_return_label_19>:
    41014960:	0e7de237          	lui	x4,0xe7de
    41014964:	01600e13          	li	x28,22
    41014968:	05c23823          	sd	x28,80(x4) # e7de050 <check_excp_expected_cause>
    4101496c:	00000e17          	auipc	x28,0x0
    41014970:	04ce0e13          	addi	x28,x28,76 # 410149b8 <fault_label_20>
    41014974:	03c23023          	sd	x28,32(x4) # 20 <SECURE_ACCESS_PROBABILITY+0x2>
    41014978:	00000e13          	li	x28,0
    4101497c:	05c23023          	sd	x28,64(x4) # 40 <XLEN>
    41014980:	00000e13          	li	x28,0
    41014984:	05c23423          	sd	x28,72(x4) # 48 <XLEN+0x8>
    41014988:	00000e17          	auipc	x28,0x0
    4101498c:	044e0e13          	addi	x28,x28,68 # 410149cc <excp_return_label_20>
    41014990:	03c23823          	sd	x28,48(x4) # 30 <SECURE_ACCESS_PROBABILITY+0x12>
    41014994:	00000e13          	li	x28,0
    41014998:	03c23c23          	sd	x28,56(x4) # 38 <SECURE_ACCESS_PROBABILITY+0x1a>
    4101499c:	00000e13          	li	x28,0
    410149a0:	07c23023          	sd	x28,96(x4) # 60 <XLEN+0x20>
    410149a4:	00000e13          	li	x28,0
    410149a8:	07c23423          	sd	x28,104(x4) # 68 <XLEN+0x28>
    410149ac:	00000e13          	li	x28,0
    410149b0:	07c23823          	sd	x28,112(x4) # 70 <XLEN+0x30>
    410149b4:	00000f13          	li	x30,0

00000000410149b8 <fault_label_20>:
    410149b8:	602f28f3          	csrrs	x17,hedeleg,x30
    410149bc:	4164e7b7          	lui	x15,0x4164e
    410149c0:	0087879b          	addiw	x15,x15,8 # 4164e008 <failed_addr>
    410149c4:	0007bd03          	ld	x26,0(x15)
    410149c8:	000d0067          	jr	x26

00000000410149cc <excp_return_label_20>:
    410149cc:	0e7de237          	lui	x4,0xe7de
    410149d0:	01600e13          	li	x28,22
    410149d4:	05c23823          	sd	x28,80(x4) # e7de050 <check_excp_expected_cause>
    410149d8:	00000e17          	auipc	x28,0x0
    410149dc:	048e0e13          	addi	x28,x28,72 # 41014a20 <fault_label_21>
    410149e0:	03c23023          	sd	x28,32(x4) # 20 <SECURE_ACCESS_PROBABILITY+0x2>
    410149e4:	00000e13          	li	x28,0
    410149e8:	05c23023          	sd	x28,64(x4) # 40 <XLEN>
    410149ec:	00000e13          	li	x28,0
    410149f0:	05c23423          	sd	x28,72(x4) # 48 <XLEN+0x8>
    410149f4:	00000e17          	auipc	x28,0x0
    410149f8:	040e0e13          	addi	x28,x28,64 # 41014a34 <excp_return_label_21>
    410149fc:	03c23823          	sd	x28,48(x4) # 30 <SECURE_ACCESS_PROBABILITY+0x12>
    41014a00:	00000e13          	li	x28,0
    41014a04:	03c23c23          	sd	x28,56(x4) # 38 <SECURE_ACCESS_PROBABILITY+0x1a>
    41014a08:	00000e13          	li	x28,0
    41014a0c:	07c23023          	sd	x28,96(x4) # 60 <XLEN+0x20>
    41014a10:	00000e13          	li	x28,0
    41014a14:	07c23423          	sd	x28,104(x4) # 68 <XLEN+0x28>
    41014a18:	00000e13          	li	x28,0
    41014a1c:	07c23823          	sd	x28,112(x4) # 70 <XLEN+0x30>

0000000041014a20 <fault_label_21>:
    41014a20:	60249ff3          	csrrw	x31,hedeleg,x9
    41014a24:	4164e8b7          	lui	x17,0x4164e
    41014a28:	0088889b          	addiw	x17,x17,8 # 4164e008 <failed_addr>
    41014a2c:	0008b503          	ld	x10,0(x17)
    41014a30:	00050067          	jr	x10

0000000041014a34 <excp_return_label_21>:
    41014a34:	0e7de237          	lui	x4,0xe7de
    41014a38:	01600e13          	li	x28,22
    41014a3c:	05c23823          	sd	x28,80(x4) # e7de050 <check_excp_expected_cause>
    41014a40:	00000e17          	auipc	x28,0x0
    41014a44:	04ce0e13          	addi	x28,x28,76 # 41014a8c <fault_label_22>
    41014a48:	03c23023          	sd	x28,32(x4) # 20 <SECURE_ACCESS_PROBABILITY+0x2>
    41014a4c:	00000e13          	li	x28,0
    41014a50:	05c23023          	sd	x28,64(x4) # 40 <XLEN>
    41014a54:	00000e13          	li	x28,0
    41014a58:	05c23423          	sd	x28,72(x4) # 48 <XLEN+0x8>
    41014a5c:	00000e17          	auipc	x28,0x0
    41014a60:	044e0e13          	addi	x28,x28,68 # 41014aa0 <excp_return_label_22>
    41014a64:	03c23823          	sd	x28,48(x4) # 30 <SECURE_ACCESS_PROBABILITY+0x12>
    41014a68:	00000e13          	li	x28,0
    41014a6c:	03c23c23          	sd	x28,56(x4) # 38 <SECURE_ACCESS_PROBABILITY+0x1a>
    41014a70:	00000e13          	li	x28,0
    41014a74:	07c23023          	sd	x28,96(x4) # 60 <XLEN+0x20>
    41014a78:	00000e13          	li	x28,0
    41014a7c:	07c23423          	sd	x28,104(x4) # 68 <XLEN+0x28>
    41014a80:	00000e13          	li	x28,0
    41014a84:	07c23823          	sd	x28,112(x4) # 70 <XLEN+0x30>
    41014a88:	00000e13          	li	x28,0

0000000041014a8c <fault_label_22>:
    41014a8c:	603e2c73          	csrrs	x24,hideleg,x28
    41014a90:	4164e7b7          	lui	x15,0x4164e
    41014a94:	0087879b          	addiw	x15,x15,8 # 4164e008 <failed_addr>
    41014a98:	0007bc03          	ld	x24,0(x15)
    41014a9c:	000c0067          	jr	x24

0000000041014aa0 <excp_return_label_22>:
    41014aa0:	0e7de237          	lui	x4,0xe7de
    41014aa4:	01600e13          	li	x28,22
    41014aa8:	05c23823          	sd	x28,80(x4) # e7de050 <check_excp_expected_cause>
    41014aac:	00000e17          	auipc	x28,0x0
    41014ab0:	048e0e13          	addi	x28,x28,72 # 41014af4 <fault_label_23>
    41014ab4:	03c23023          	sd	x28,32(x4) # 20 <SECURE_ACCESS_PROBABILITY+0x2>
    41014ab8:	00000e13          	li	x28,0
    41014abc:	05c23023          	sd	x28,64(x4) # 40 <XLEN>
    41014ac0:	00000e13          	li	x28,0
    41014ac4:	05c23423          	sd	x28,72(x4) # 48 <XLEN+0x8>
    41014ac8:	00000e17          	auipc	x28,0x0
    41014acc:	040e0e13          	addi	x28,x28,64 # 41014b08 <excp_return_label_23>
    41014ad0:	03c23823          	sd	x28,48(x4) # 30 <SECURE_ACCESS_PROBABILITY+0x12>
    41014ad4:	00000e13          	li	x28,0
    41014ad8:	03c23c23          	sd	x28,56(x4) # 38 <SECURE_ACCESS_PROBABILITY+0x1a>
    41014adc:	00000e13          	li	x28,0
    41014ae0:	07c23023          	sd	x28,96(x4) # 60 <XLEN+0x20>
    41014ae4:	00000e13          	li	x28,0
    41014ae8:	07c23423          	sd	x28,104(x4) # 68 <XLEN+0x28>
    41014aec:	00000e13          	li	x28,0
    41014af0:	07c23823          	sd	x28,112(x4) # 70 <XLEN+0x30>

0000000041014af4 <fault_label_23>:
    41014af4:	60349f73          	csrrw	x30,hideleg,x9
    41014af8:	4164ec37          	lui	x24,0x4164e
    41014afc:	008c0c1b          	addiw	x24,x24,8 # 4164e008 <failed_addr>
    41014b00:	000c3d83          	ld	x27,0(x24)
    41014b04:	000d8067          	jr	x27

0000000041014b08 <excp_return_label_23>:
    41014b08:	0e7de237          	lui	x4,0xe7de
    41014b0c:	01600e13          	li	x28,22
    41014b10:	05c23823          	sd	x28,80(x4) # e7de050 <check_excp_expected_cause>
    41014b14:	00000e17          	auipc	x28,0x0
    41014b18:	04ce0e13          	addi	x28,x28,76 # 41014b60 <fault_label_24>
    41014b1c:	03c23023          	sd	x28,32(x4) # 20 <SECURE_ACCESS_PROBABILITY+0x2>
    41014b20:	00000e13          	li	x28,0
    41014b24:	05c23023          	sd	x28,64(x4) # 40 <XLEN>
    41014b28:	00000e13          	li	x28,0
    41014b2c:	05c23423          	sd	x28,72(x4) # 48 <XLEN+0x8>
    41014b30:	00000e17          	auipc	x28,0x0
    41014b34:	044e0e13          	addi	x28,x28,68 # 41014b74 <excp_return_label_24>
    41014b38:	03c23823          	sd	x28,48(x4) # 30 <SECURE_ACCESS_PROBABILITY+0x12>
    41014b3c:	00000e13          	li	x28,0
    41014b40:	03c23c23          	sd	x28,56(x4) # 38 <SECURE_ACCESS_PROBABILITY+0x1a>
    41014b44:	00000e13          	li	x28,0
    41014b48:	07c23023          	sd	x28,96(x4) # 60 <XLEN+0x20>
    41014b4c:	00000e13          	li	x28,0
    41014b50:	07c23423          	sd	x28,104(x4) # 68 <XLEN+0x28>
    41014b54:	00000e13          	li	x28,0
    41014b58:	07c23823          	sd	x28,112(x4) # 70 <XLEN+0x30>
    41014b5c:	00000993          	li	x19,0

0000000041014b60 <fault_label_24>:
    41014b60:	6459af73          	csrrs	x30,hvip,x19
    41014b64:	4164eeb7          	lui	x29,0x4164e
    41014b68:	008e8e9b          	addiw	x29,x29,8 # 4164e008 <failed_addr>
    41014b6c:	000eb383          	ld	x7,0(x29)
    41014b70:	00038067          	jr	x7

0000000041014b74 <excp_return_label_24>:
    41014b74:	0e7de237          	lui	x4,0xe7de
    41014b78:	01600e13          	li	x28,22
    41014b7c:	05c23823          	sd	x28,80(x4) # e7de050 <check_excp_expected_cause>
    41014b80:	00000e17          	auipc	x28,0x0
    41014b84:	048e0e13          	addi	x28,x28,72 # 41014bc8 <fault_label_25>
    41014b88:	03c23023          	sd	x28,32(x4) # 20 <SECURE_ACCESS_PROBABILITY+0x2>
    41014b8c:	00000e13          	li	x28,0
    41014b90:	05c23023          	sd	x28,64(x4) # 40 <XLEN>
    41014b94:	00000e13          	li	x28,0
    41014b98:	05c23423          	sd	x28,72(x4) # 48 <XLEN+0x8>
    41014b9c:	00000e17          	auipc	x28,0x0
    41014ba0:	040e0e13          	addi	x28,x28,64 # 41014bdc <excp_return_label_25>
    41014ba4:	03c23823          	sd	x28,48(x4) # 30 <SECURE_ACCESS_PROBABILITY+0x12>
    41014ba8:	00000e13          	li	x28,0
    41014bac:	03c23c23          	sd	x28,56(x4) # 38 <SECURE_ACCESS_PROBABILITY+0x1a>
    41014bb0:	00000e13          	li	x28,0
    41014bb4:	07c23023          	sd	x28,96(x4) # 60 <XLEN+0x20>
    41014bb8:	00000e13          	li	x28,0
    41014bbc:	07c23423          	sd	x28,104(x4) # 68 <XLEN+0x28>
    41014bc0:	00000e13          	li	x28,0
    41014bc4:	07c23823          	sd	x28,112(x4) # 70 <XLEN+0x30>

0000000041014bc8 <fault_label_25>:
    41014bc8:	64549f73          	csrrw	x30,hvip,x9
    41014bcc:	4164ea37          	lui	x20,0x4164e
    41014bd0:	008a0a1b          	addiw	x20,x20,8 # 4164e008 <failed_addr>
    41014bd4:	000a3d83          	ld	x27,0(x20)
    41014bd8:	000d8067          	jr	x27

0000000041014bdc <excp_return_label_25>:
    41014bdc:	0e7de237          	lui	x4,0xe7de
    41014be0:	01600e13          	li	x28,22
    41014be4:	05c23823          	sd	x28,80(x4) # e7de050 <check_excp_expected_cause>
    41014be8:	00000e17          	auipc	x28,0x0
    41014bec:	04ce0e13          	addi	x28,x28,76 # 41014c34 <fault_label_26>
    41014bf0:	03c23023          	sd	x28,32(x4) # 20 <SECURE_ACCESS_PROBABILITY+0x2>
    41014bf4:	00000e13          	li	x28,0
    41014bf8:	05c23023          	sd	x28,64(x4) # 40 <XLEN>
    41014bfc:	00000e13          	li	x28,0
    41014c00:	05c23423          	sd	x28,72(x4) # 48 <XLEN+0x8>
    41014c04:	00000e17          	auipc	x28,0x0
    41014c08:	044e0e13          	addi	x28,x28,68 # 41014c48 <excp_return_label_26>
    41014c0c:	03c23823          	sd	x28,48(x4) # 30 <SECURE_ACCESS_PROBABILITY+0x12>
    41014c10:	00000e13          	li	x28,0
    41014c14:	03c23c23          	sd	x28,56(x4) # 38 <SECURE_ACCESS_PROBABILITY+0x1a>
    41014c18:	00000e13          	li	x28,0
    41014c1c:	07c23023          	sd	x28,96(x4) # 60 <XLEN+0x20>
    41014c20:	00000e13          	li	x28,0
    41014c24:	07c23423          	sd	x28,104(x4) # 68 <XLEN+0x28>
    41014c28:	00000e13          	li	x28,0
    41014c2c:	07c23823          	sd	x28,112(x4) # 70 <XLEN+0x30>
    41014c30:	00000a93          	li	x21,0

0000000041014c34 <fault_label_26>:
    41014c34:	644aaaf3          	csrrs	x21,hip,x21
    41014c38:	4164ee37          	lui	x28,0x4164e
    41014c3c:	008e0e1b          	addiw	x28,x28,8 # 4164e008 <failed_addr>
    41014c40:	000e3683          	ld	x13,0(x28)
    41014c44:	00068067          	jr	x13

0000000041014c48 <excp_return_label_26>:
    41014c48:	0e7de237          	lui	x4,0xe7de
    41014c4c:	01600e13          	li	x28,22
    41014c50:	05c23823          	sd	x28,80(x4) # e7de050 <check_excp_expected_cause>
    41014c54:	00000e17          	auipc	x28,0x0
    41014c58:	048e0e13          	addi	x28,x28,72 # 41014c9c <fault_label_27>
    41014c5c:	03c23023          	sd	x28,32(x4) # 20 <SECURE_ACCESS_PROBABILITY+0x2>
    41014c60:	00000e13          	li	x28,0
    41014c64:	05c23023          	sd	x28,64(x4) # 40 <XLEN>
    41014c68:	00000e13          	li	x28,0
    41014c6c:	05c23423          	sd	x28,72(x4) # 48 <XLEN+0x8>
    41014c70:	00000e17          	auipc	x28,0x0
    41014c74:	040e0e13          	addi	x28,x28,64 # 41014cb0 <excp_return_label_27>
    41014c78:	03c23823          	sd	x28,48(x4) # 30 <SECURE_ACCESS_PROBABILITY+0x12>
    41014c7c:	00000e13          	li	x28,0
    41014c80:	03c23c23          	sd	x28,56(x4) # 38 <SECURE_ACCESS_PROBABILITY+0x1a>
    41014c84:	00000e13          	li	x28,0
    41014c88:	07c23023          	sd	x28,96(x4) # 60 <XLEN+0x20>
    41014c8c:	00000e13          	li	x28,0
    41014c90:	07c23423          	sd	x28,104(x4) # 68 <XLEN+0x28>
    41014c94:	00000e13          	li	x28,0
    41014c98:	07c23823          	sd	x28,112(x4) # 70 <XLEN+0x30>

0000000041014c9c <fault_label_27>:
    41014c9c:	644495f3          	csrrw	x11,hip,x9
    41014ca0:	4164ee37          	lui	x28,0x4164e
    41014ca4:	008e0e1b          	addiw	x28,x28,8 # 4164e008 <failed_addr>
    41014ca8:	000e3e83          	ld	x29,0(x28)
    41014cac:	000e8067          	jr	x29

0000000041014cb0 <excp_return_label_27>:
    41014cb0:	0e7de237          	lui	x4,0xe7de
    41014cb4:	01600e13          	li	x28,22
    41014cb8:	05c23823          	sd	x28,80(x4) # e7de050 <check_excp_expected_cause>
    41014cbc:	00000e17          	auipc	x28,0x0
    41014cc0:	04ce0e13          	addi	x28,x28,76 # 41014d08 <fault_label_28>
    41014cc4:	03c23023          	sd	x28,32(x4) # 20 <SECURE_ACCESS_PROBABILITY+0x2>
    41014cc8:	00000e13          	li	x28,0
    41014ccc:	05c23023          	sd	x28,64(x4) # 40 <XLEN>
    41014cd0:	00000e13          	li	x28,0
    41014cd4:	05c23423          	sd	x28,72(x4) # 48 <XLEN+0x8>
    41014cd8:	00000e17          	auipc	x28,0x0
    41014cdc:	044e0e13          	addi	x28,x28,68 # 41014d1c <excp_return_label_28>
    41014ce0:	03c23823          	sd	x28,48(x4) # 30 <SECURE_ACCESS_PROBABILITY+0x12>
    41014ce4:	00000e13          	li	x28,0
    41014ce8:	03c23c23          	sd	x28,56(x4) # 38 <SECURE_ACCESS_PROBABILITY+0x1a>
    41014cec:	00000e13          	li	x28,0
    41014cf0:	07c23023          	sd	x28,96(x4) # 60 <XLEN+0x20>
    41014cf4:	00000e13          	li	x28,0
    41014cf8:	07c23423          	sd	x28,104(x4) # 68 <XLEN+0x28>
    41014cfc:	00000e13          	li	x28,0
    41014d00:	07c23823          	sd	x28,112(x4) # 70 <XLEN+0x30>
    41014d04:	00000f13          	li	x30,0

0000000041014d08 <fault_label_28>:
    41014d08:	604f23f3          	csrrs	x7,hie,x30
    41014d0c:	4164ea37          	lui	x20,0x4164e
    41014d10:	008a0a1b          	addiw	x20,x20,8 # 4164e008 <failed_addr>
    41014d14:	000a3e03          	ld	x28,0(x20)
    41014d18:	000e0067          	jr	x28

0000000041014d1c <excp_return_label_28>:
    41014d1c:	0e7de237          	lui	x4,0xe7de
    41014d20:	01600e13          	li	x28,22
    41014d24:	05c23823          	sd	x28,80(x4) # e7de050 <check_excp_expected_cause>
    41014d28:	00000e17          	auipc	x28,0x0
    41014d2c:	048e0e13          	addi	x28,x28,72 # 41014d70 <fault_label_29>
    41014d30:	03c23023          	sd	x28,32(x4) # 20 <SECURE_ACCESS_PROBABILITY+0x2>
    41014d34:	00000e13          	li	x28,0
    41014d38:	05c23023          	sd	x28,64(x4) # 40 <XLEN>
    41014d3c:	00000e13          	li	x28,0
    41014d40:	05c23423          	sd	x28,72(x4) # 48 <XLEN+0x8>
    41014d44:	00000e17          	auipc	x28,0x0
    41014d48:	040e0e13          	addi	x28,x28,64 # 41014d84 <excp_return_label_29>
    41014d4c:	03c23823          	sd	x28,48(x4) # 30 <SECURE_ACCESS_PROBABILITY+0x12>
    41014d50:	00000e13          	li	x28,0
    41014d54:	03c23c23          	sd	x28,56(x4) # 38 <SECURE_ACCESS_PROBABILITY+0x1a>
    41014d58:	00000e13          	li	x28,0
    41014d5c:	07c23023          	sd	x28,96(x4) # 60 <XLEN+0x20>
    41014d60:	00000e13          	li	x28,0
    41014d64:	07c23423          	sd	x28,104(x4) # 68 <XLEN+0x28>
    41014d68:	00000e13          	li	x28,0
    41014d6c:	07c23823          	sd	x28,112(x4) # 70 <XLEN+0x30>

0000000041014d70 <fault_label_29>:
    41014d70:	604495f3          	csrrw	x11,hie,x9
    41014d74:	4164e6b7          	lui	x13,0x4164e
    41014d78:	0086869b          	addiw	x13,x13,8 # 4164e008 <failed_addr>
    41014d7c:	0006b783          	ld	x15,0(x13)
    41014d80:	00078067          	jr	x15

0000000041014d84 <excp_return_label_29>:
    41014d84:	0e7de237          	lui	x4,0xe7de
    41014d88:	01600e13          	li	x28,22
    41014d8c:	05c23823          	sd	x28,80(x4) # e7de050 <check_excp_expected_cause>
    41014d90:	00000e17          	auipc	x28,0x0
    41014d94:	04ce0e13          	addi	x28,x28,76 # 41014ddc <fault_label_30>
    41014d98:	03c23023          	sd	x28,32(x4) # 20 <SECURE_ACCESS_PROBABILITY+0x2>
    41014d9c:	00000e13          	li	x28,0
    41014da0:	05c23023          	sd	x28,64(x4) # 40 <XLEN>
    41014da4:	00000e13          	li	x28,0
    41014da8:	05c23423          	sd	x28,72(x4) # 48 <XLEN+0x8>
    41014dac:	00000e17          	auipc	x28,0x0
    41014db0:	044e0e13          	addi	x28,x28,68 # 41014df0 <excp_return_label_30>
    41014db4:	03c23823          	sd	x28,48(x4) # 30 <SECURE_ACCESS_PROBABILITY+0x12>
    41014db8:	00000e13          	li	x28,0
    41014dbc:	03c23c23          	sd	x28,56(x4) # 38 <SECURE_ACCESS_PROBABILITY+0x1a>
    41014dc0:	00000e13          	li	x28,0
    41014dc4:	07c23023          	sd	x28,96(x4) # 60 <XLEN+0x20>
    41014dc8:	00000e13          	li	x28,0
    41014dcc:	07c23423          	sd	x28,104(x4) # 68 <XLEN+0x28>
    41014dd0:	00000e13          	li	x28,0
    41014dd4:	07c23823          	sd	x28,112(x4) # 70 <XLEN+0x30>
    41014dd8:	00000d13          	li	x26,0

0000000041014ddc <fault_label_30>:
    41014ddc:	607d27f3          	csrrs	x15,hgeie,x26
    41014de0:	4164ecb7          	lui	x25,0x4164e
    41014de4:	008c8c9b          	addiw	x25,x25,8 # 4164e008 <failed_addr>
    41014de8:	000cbe83          	ld	x29,0(x25)
    41014dec:	000e8067          	jr	x29

0000000041014df0 <excp_return_label_30>:
    41014df0:	0e7de237          	lui	x4,0xe7de
    41014df4:	01600e13          	li	x28,22
    41014df8:	05c23823          	sd	x28,80(x4) # e7de050 <check_excp_expected_cause>
    41014dfc:	00000e17          	auipc	x28,0x0
    41014e00:	048e0e13          	addi	x28,x28,72 # 41014e44 <fault_label_31>
    41014e04:	03c23023          	sd	x28,32(x4) # 20 <SECURE_ACCESS_PROBABILITY+0x2>
    41014e08:	00000e13          	li	x28,0
    41014e0c:	05c23023          	sd	x28,64(x4) # 40 <XLEN>
    41014e10:	00000e13          	li	x28,0
    41014e14:	05c23423          	sd	x28,72(x4) # 48 <XLEN+0x8>
    41014e18:	00000e17          	auipc	x28,0x0
    41014e1c:	040e0e13          	addi	x28,x28,64 # 41014e58 <excp_return_label_31>
    41014e20:	03c23823          	sd	x28,48(x4) # 30 <SECURE_ACCESS_PROBABILITY+0x12>
    41014e24:	00000e13          	li	x28,0
    41014e28:	03c23c23          	sd	x28,56(x4) # 38 <SECURE_ACCESS_PROBABILITY+0x1a>
    41014e2c:	00000e13          	li	x28,0
    41014e30:	07c23023          	sd	x28,96(x4) # 60 <XLEN+0x20>
    41014e34:	00000e13          	li	x28,0
    41014e38:	07c23423          	sd	x28,104(x4) # 68 <XLEN+0x28>
    41014e3c:	00000e13          	li	x28,0
    41014e40:	07c23823          	sd	x28,112(x4) # 70 <XLEN+0x30>

0000000041014e44 <fault_label_31>:
    41014e44:	607493f3          	csrrw	x7,hgeie,x9
    41014e48:	4164ec37          	lui	x24,0x4164e
    41014e4c:	008c0c1b          	addiw	x24,x24,8 # 4164e008 <failed_addr>
    41014e50:	000c3c83          	ld	x25,0(x24)
    41014e54:	000c8067          	jr	x25

0000000041014e58 <excp_return_label_31>:
    41014e58:	0e7de237          	lui	x4,0xe7de
    41014e5c:	01600e13          	li	x28,22
    41014e60:	05c23823          	sd	x28,80(x4) # e7de050 <check_excp_expected_cause>
    41014e64:	00000e17          	auipc	x28,0x0
    41014e68:	04ce0e13          	addi	x28,x28,76 # 41014eb0 <fault_label_32>
    41014e6c:	03c23023          	sd	x28,32(x4) # 20 <SECURE_ACCESS_PROBABILITY+0x2>
    41014e70:	00000e13          	li	x28,0
    41014e74:	05c23023          	sd	x28,64(x4) # 40 <XLEN>
    41014e78:	00000e13          	li	x28,0
    41014e7c:	05c23423          	sd	x28,72(x4) # 48 <XLEN+0x8>
    41014e80:	00000e17          	auipc	x28,0x0
    41014e84:	044e0e13          	addi	x28,x28,68 # 41014ec4 <excp_return_label_32>
    41014e88:	03c23823          	sd	x28,48(x4) # 30 <SECURE_ACCESS_PROBABILITY+0x12>
    41014e8c:	00000e13          	li	x28,0
    41014e90:	03c23c23          	sd	x28,56(x4) # 38 <SECURE_ACCESS_PROBABILITY+0x1a>
    41014e94:	00000e13          	li	x28,0
    41014e98:	07c23023          	sd	x28,96(x4) # 60 <XLEN+0x20>
    41014e9c:	00000e13          	li	x28,0
    41014ea0:	07c23423          	sd	x28,104(x4) # 68 <XLEN+0x28>
    41014ea4:	00000e13          	li	x28,0
    41014ea8:	07c23823          	sd	x28,112(x4) # 70 <XLEN+0x30>
    41014eac:	00000d13          	li	x26,0

0000000041014eb0 <fault_label_32>:
    41014eb0:	60ad2b73          	csrrs	x22,henvcfg,x26
    41014eb4:	4164e9b7          	lui	x19,0x4164e
    41014eb8:	0089899b          	addiw	x19,x19,8 # 4164e008 <failed_addr>
    41014ebc:	0009bb03          	ld	x22,0(x19)
    41014ec0:	000b0067          	jr	x22

0000000041014ec4 <excp_return_label_32>:
    41014ec4:	0e7de237          	lui	x4,0xe7de
    41014ec8:	01600e13          	li	x28,22
    41014ecc:	05c23823          	sd	x28,80(x4) # e7de050 <check_excp_expected_cause>
    41014ed0:	00000e17          	auipc	x28,0x0
    41014ed4:	048e0e13          	addi	x28,x28,72 # 41014f18 <fault_label_33>
    41014ed8:	03c23023          	sd	x28,32(x4) # 20 <SECURE_ACCESS_PROBABILITY+0x2>
    41014edc:	00000e13          	li	x28,0
    41014ee0:	05c23023          	sd	x28,64(x4) # 40 <XLEN>
    41014ee4:	00000e13          	li	x28,0
    41014ee8:	05c23423          	sd	x28,72(x4) # 48 <XLEN+0x8>
    41014eec:	00000e17          	auipc	x28,0x0
    41014ef0:	040e0e13          	addi	x28,x28,64 # 41014f2c <excp_return_label_33>
    41014ef4:	03c23823          	sd	x28,48(x4) # 30 <SECURE_ACCESS_PROBABILITY+0x12>
    41014ef8:	00000e13          	li	x28,0
    41014efc:	03c23c23          	sd	x28,56(x4) # 38 <SECURE_ACCESS_PROBABILITY+0x1a>
    41014f00:	00000e13          	li	x28,0
    41014f04:	07c23023          	sd	x28,96(x4) # 60 <XLEN+0x20>
    41014f08:	00000e13          	li	x28,0
    41014f0c:	07c23423          	sd	x28,104(x4) # 68 <XLEN+0x28>
    41014f10:	00000e13          	li	x28,0
    41014f14:	07c23823          	sd	x28,112(x4) # 70 <XLEN+0x30>

0000000041014f18 <fault_label_33>:
    41014f18:	60a49773          	csrrw	x14,henvcfg,x9
    41014f1c:	4164efb7          	lui	x31,0x4164e
    41014f20:	008f8f9b          	addiw	x31,x31,8 # 4164e008 <failed_addr>
    41014f24:	000fb703          	ld	x14,0(x31)
    41014f28:	00070067          	jr	x14

0000000041014f2c <excp_return_label_33>:
    41014f2c:	0e7de237          	lui	x4,0xe7de
    41014f30:	01600e13          	li	x28,22
    41014f34:	05c23823          	sd	x28,80(x4) # e7de050 <check_excp_expected_cause>
    41014f38:	00000e17          	auipc	x28,0x0
    41014f3c:	04ce0e13          	addi	x28,x28,76 # 41014f84 <fault_label_34>
    41014f40:	03c23023          	sd	x28,32(x4) # 20 <SECURE_ACCESS_PROBABILITY+0x2>
    41014f44:	00000e13          	li	x28,0
    41014f48:	05c23023          	sd	x28,64(x4) # 40 <XLEN>
    41014f4c:	00000e13          	li	x28,0
    41014f50:	05c23423          	sd	x28,72(x4) # 48 <XLEN+0x8>
    41014f54:	00000e17          	auipc	x28,0x0
    41014f58:	044e0e13          	addi	x28,x28,68 # 41014f98 <excp_return_label_34>
    41014f5c:	03c23823          	sd	x28,48(x4) # 30 <SECURE_ACCESS_PROBABILITY+0x12>
    41014f60:	00000e13          	li	x28,0
    41014f64:	03c23c23          	sd	x28,56(x4) # 38 <SECURE_ACCESS_PROBABILITY+0x1a>
    41014f68:	00000e13          	li	x28,0
    41014f6c:	07c23023          	sd	x28,96(x4) # 60 <XLEN+0x20>
    41014f70:	00000e13          	li	x28,0
    41014f74:	07c23423          	sd	x28,104(x4) # 68 <XLEN+0x28>
    41014f78:	00000e13          	li	x28,0
    41014f7c:	07c23823          	sd	x28,112(x4) # 70 <XLEN+0x30>
    41014f80:	00000613          	li	x12,0

0000000041014f84 <fault_label_34>:
    41014f84:	60662bf3          	csrrs	x23,hcounteren,x12
    41014f88:	4164ed37          	lui	x26,0x4164e
    41014f8c:	008d0d1b          	addiw	x26,x26,8 # 4164e008 <failed_addr>
    41014f90:	000d3f83          	ld	x31,0(x26)
    41014f94:	000f8067          	jr	x31

0000000041014f98 <excp_return_label_34>:
    41014f98:	0e7de237          	lui	x4,0xe7de
    41014f9c:	01600e13          	li	x28,22
    41014fa0:	05c23823          	sd	x28,80(x4) # e7de050 <check_excp_expected_cause>
    41014fa4:	00000e17          	auipc	x28,0x0
    41014fa8:	048e0e13          	addi	x28,x28,72 # 41014fec <fault_label_35>
    41014fac:	03c23023          	sd	x28,32(x4) # 20 <SECURE_ACCESS_PROBABILITY+0x2>
    41014fb0:	00000e13          	li	x28,0
    41014fb4:	05c23023          	sd	x28,64(x4) # 40 <XLEN>
    41014fb8:	00000e13          	li	x28,0
    41014fbc:	05c23423          	sd	x28,72(x4) # 48 <XLEN+0x8>
    41014fc0:	00000e17          	auipc	x28,0x0
    41014fc4:	040e0e13          	addi	x28,x28,64 # 41015000 <excp_return_label_35>
    41014fc8:	03c23823          	sd	x28,48(x4) # 30 <SECURE_ACCESS_PROBABILITY+0x12>
    41014fcc:	00000e13          	li	x28,0
    41014fd0:	03c23c23          	sd	x28,56(x4) # 38 <SECURE_ACCESS_PROBABILITY+0x1a>
    41014fd4:	00000e13          	li	x28,0
    41014fd8:	07c23023          	sd	x28,96(x4) # 60 <XLEN+0x20>
    41014fdc:	00000e13          	li	x28,0
    41014fe0:	07c23423          	sd	x28,104(x4) # 68 <XLEN+0x28>
    41014fe4:	00000e13          	li	x28,0
    41014fe8:	07c23823          	sd	x28,112(x4) # 70 <XLEN+0x30>

0000000041014fec <fault_label_35>:
    41014fec:	60649473          	csrrw	x8,hcounteren,x9
    41014ff0:	4164ea37          	lui	x20,0x4164e
    41014ff4:	008a0a1b          	addiw	x20,x20,8 # 4164e008 <failed_addr>
    41014ff8:	000a3703          	ld	x14,0(x20)
    41014ffc:	00070067          	jr	x14

0000000041015000 <excp_return_label_35>:
    41015000:	0e7de237          	lui	x4,0xe7de
    41015004:	01600e13          	li	x28,22
    41015008:	05c23823          	sd	x28,80(x4) # e7de050 <check_excp_expected_cause>
    4101500c:	00000e17          	auipc	x28,0x0
    41015010:	04ce0e13          	addi	x28,x28,76 # 41015058 <fault_label_36>
    41015014:	03c23023          	sd	x28,32(x4) # 20 <SECURE_ACCESS_PROBABILITY+0x2>
    41015018:	00000e13          	li	x28,0
    4101501c:	05c23023          	sd	x28,64(x4) # 40 <XLEN>
    41015020:	00000e13          	li	x28,0
    41015024:	05c23423          	sd	x28,72(x4) # 48 <XLEN+0x8>
    41015028:	00000e17          	auipc	x28,0x0
    4101502c:	044e0e13          	addi	x28,x28,68 # 4101506c <excp_return_label_36>
    41015030:	03c23823          	sd	x28,48(x4) # 30 <SECURE_ACCESS_PROBABILITY+0x12>
    41015034:	00000e13          	li	x28,0
    41015038:	03c23c23          	sd	x28,56(x4) # 38 <SECURE_ACCESS_PROBABILITY+0x1a>
    4101503c:	00000e13          	li	x28,0
    41015040:	07c23023          	sd	x28,96(x4) # 60 <XLEN+0x20>
    41015044:	00000e13          	li	x28,0
    41015048:	07c23423          	sd	x28,104(x4) # 68 <XLEN+0x28>
    4101504c:	00000e13          	li	x28,0
    41015050:	07c23823          	sd	x28,112(x4) # 70 <XLEN+0x30>
    41015054:	00000f13          	li	x30,0

0000000041015058 <fault_label_36>:
    41015058:	605f2473          	csrrs	x8,htimedelta,x30
    4101505c:	4164e8b7          	lui	x17,0x4164e
    41015060:	0088889b          	addiw	x17,x17,8 # 4164e008 <failed_addr>
    41015064:	0008b883          	ld	x17,0(x17)
    41015068:	00088067          	jr	x17

000000004101506c <excp_return_label_36>:
    4101506c:	0e7de237          	lui	x4,0xe7de
    41015070:	01600e13          	li	x28,22
    41015074:	05c23823          	sd	x28,80(x4) # e7de050 <check_excp_expected_cause>
    41015078:	00000e17          	auipc	x28,0x0
    4101507c:	048e0e13          	addi	x28,x28,72 # 410150c0 <fault_label_37>
    41015080:	03c23023          	sd	x28,32(x4) # 20 <SECURE_ACCESS_PROBABILITY+0x2>
    41015084:	00000e13          	li	x28,0
    41015088:	05c23023          	sd	x28,64(x4) # 40 <XLEN>
    4101508c:	00000e13          	li	x28,0
    41015090:	05c23423          	sd	x28,72(x4) # 48 <XLEN+0x8>
    41015094:	00000e17          	auipc	x28,0x0
    41015098:	040e0e13          	addi	x28,x28,64 # 410150d4 <excp_return_label_37>
    4101509c:	03c23823          	sd	x28,48(x4) # 30 <SECURE_ACCESS_PROBABILITY+0x12>
    410150a0:	00000e13          	li	x28,0
    410150a4:	03c23c23          	sd	x28,56(x4) # 38 <SECURE_ACCESS_PROBABILITY+0x1a>
    410150a8:	00000e13          	li	x28,0
    410150ac:	07c23023          	sd	x28,96(x4) # 60 <XLEN+0x20>
    410150b0:	00000e13          	li	x28,0
    410150b4:	07c23423          	sd	x28,104(x4) # 68 <XLEN+0x28>
    410150b8:	00000e13          	li	x28,0
    410150bc:	07c23823          	sd	x28,112(x4) # 70 <XLEN+0x30>

00000000410150c0 <fault_label_37>:
    410150c0:	60549673          	csrrw	x12,htimedelta,x9
    410150c4:	4164edb7          	lui	x27,0x4164e
    410150c8:	008d8d9b          	addiw	x27,x27,8 # 4164e008 <failed_addr>
    410150cc:	000db783          	ld	x15,0(x27)
    410150d0:	00078067          	jr	x15

00000000410150d4 <excp_return_label_37>:
    410150d4:	0e7de237          	lui	x4,0xe7de
    410150d8:	01600e13          	li	x28,22
    410150dc:	05c23823          	sd	x28,80(x4) # e7de050 <check_excp_expected_cause>
    410150e0:	00000e17          	auipc	x28,0x0
    410150e4:	04ce0e13          	addi	x28,x28,76 # 4101512c <fault_label_38>
    410150e8:	03c23023          	sd	x28,32(x4) # 20 <SECURE_ACCESS_PROBABILITY+0x2>
    410150ec:	00000e13          	li	x28,0
    410150f0:	05c23023          	sd	x28,64(x4) # 40 <XLEN>
    410150f4:	00000e13          	li	x28,0
    410150f8:	05c23423          	sd	x28,72(x4) # 48 <XLEN+0x8>
    410150fc:	00000e17          	auipc	x28,0x0
    41015100:	044e0e13          	addi	x28,x28,68 # 41015140 <excp_return_label_38>
    41015104:	03c23823          	sd	x28,48(x4) # 30 <SECURE_ACCESS_PROBABILITY+0x12>
    41015108:	00000e13          	li	x28,0
    4101510c:	03c23c23          	sd	x28,56(x4) # 38 <SECURE_ACCESS_PROBABILITY+0x1a>
    41015110:	00000e13          	li	x28,0
    41015114:	07c23023          	sd	x28,96(x4) # 60 <XLEN+0x20>
    41015118:	00000e13          	li	x28,0
    4101511c:	07c23423          	sd	x28,104(x4) # 68 <XLEN+0x28>
    41015120:	00000e13          	li	x28,0
    41015124:	07c23823          	sd	x28,112(x4) # 70 <XLEN+0x30>
    41015128:	00000693          	li	x13,0

000000004101512c <fault_label_38>:
    4101512c:	6436a5f3          	csrrs	x11,htval,x13
    41015130:	4164e937          	lui	x18,0x4164e
    41015134:	0089091b          	addiw	x18,x18,8 # 4164e008 <failed_addr>
    41015138:	00093f83          	ld	x31,0(x18)
    4101513c:	000f8067          	jr	x31

0000000041015140 <excp_return_label_38>:
    41015140:	0e7de237          	lui	x4,0xe7de
    41015144:	01600e13          	li	x28,22
    41015148:	05c23823          	sd	x28,80(x4) # e7de050 <check_excp_expected_cause>
    4101514c:	00000e17          	auipc	x28,0x0
    41015150:	048e0e13          	addi	x28,x28,72 # 41015194 <fault_label_39>
    41015154:	03c23023          	sd	x28,32(x4) # 20 <SECURE_ACCESS_PROBABILITY+0x2>
    41015158:	00000e13          	li	x28,0
    4101515c:	05c23023          	sd	x28,64(x4) # 40 <XLEN>
    41015160:	00000e13          	li	x28,0
    41015164:	05c23423          	sd	x28,72(x4) # 48 <XLEN+0x8>
    41015168:	00000e17          	auipc	x28,0x0
    4101516c:	040e0e13          	addi	x28,x28,64 # 410151a8 <excp_return_label_39>
    41015170:	03c23823          	sd	x28,48(x4) # 30 <SECURE_ACCESS_PROBABILITY+0x12>
    41015174:	00000e13          	li	x28,0
    41015178:	03c23c23          	sd	x28,56(x4) # 38 <SECURE_ACCESS_PROBABILITY+0x1a>
    4101517c:	00000e13          	li	x28,0
    41015180:	07c23023          	sd	x28,96(x4) # 60 <XLEN+0x20>
    41015184:	00000e13          	li	x28,0
    41015188:	07c23423          	sd	x28,104(x4) # 68 <XLEN+0x28>
    4101518c:	00000e13          	li	x28,0
    41015190:	07c23823          	sd	x28,112(x4) # 70 <XLEN+0x30>

0000000041015194 <fault_label_39>:
    41015194:	643495f3          	csrrw	x11,htval,x9
    41015198:	4164e5b7          	lui	x11,0x4164e
    4101519c:	0085859b          	addiw	x11,x11,8 # 4164e008 <failed_addr>
    410151a0:	0005b303          	ld	x6,0(x11)
    410151a4:	00030067          	jr	x6

00000000410151a8 <excp_return_label_39>:
    410151a8:	0e7de237          	lui	x4,0xe7de
    410151ac:	01600e13          	li	x28,22
    410151b0:	05c23823          	sd	x28,80(x4) # e7de050 <check_excp_expected_cause>
    410151b4:	00000e17          	auipc	x28,0x0
    410151b8:	04ce0e13          	addi	x28,x28,76 # 41015200 <fault_label_40>
    410151bc:	03c23023          	sd	x28,32(x4) # 20 <SECURE_ACCESS_PROBABILITY+0x2>
    410151c0:	00000e13          	li	x28,0
    410151c4:	05c23023          	sd	x28,64(x4) # 40 <XLEN>
    410151c8:	00000e13          	li	x28,0
    410151cc:	05c23423          	sd	x28,72(x4) # 48 <XLEN+0x8>
    410151d0:	00000e17          	auipc	x28,0x0
    410151d4:	044e0e13          	addi	x28,x28,68 # 41015214 <excp_return_label_40>
    410151d8:	03c23823          	sd	x28,48(x4) # 30 <SECURE_ACCESS_PROBABILITY+0x12>
    410151dc:	00000e13          	li	x28,0
    410151e0:	03c23c23          	sd	x28,56(x4) # 38 <SECURE_ACCESS_PROBABILITY+0x1a>
    410151e4:	00000e13          	li	x28,0
    410151e8:	07c23023          	sd	x28,96(x4) # 60 <XLEN+0x20>
    410151ec:	00000e13          	li	x28,0
    410151f0:	07c23423          	sd	x28,104(x4) # 68 <XLEN+0x28>
    410151f4:	00000e13          	li	x28,0
    410151f8:	07c23823          	sd	x28,112(x4) # 70 <XLEN+0x30>
    410151fc:	00000513          	li	x10,0

0000000041015200 <fault_label_40>:
    41015200:	64a52a73          	csrrs	x20,htinst,x10
    41015204:	4164e737          	lui	x14,0x4164e
    41015208:	0087071b          	addiw	x14,x14,8 # 4164e008 <failed_addr>
    4101520c:	00073c03          	ld	x24,0(x14)
    41015210:	000c0067          	jr	x24

0000000041015214 <excp_return_label_40>:
    41015214:	0e7de237          	lui	x4,0xe7de
    41015218:	01600e13          	li	x28,22
    4101521c:	05c23823          	sd	x28,80(x4) # e7de050 <check_excp_expected_cause>
    41015220:	00000e17          	auipc	x28,0x0
    41015224:	048e0e13          	addi	x28,x28,72 # 41015268 <fault_label_41>
    41015228:	03c23023          	sd	x28,32(x4) # 20 <SECURE_ACCESS_PROBABILITY+0x2>
    4101522c:	00000e13          	li	x28,0
    41015230:	05c23023          	sd	x28,64(x4) # 40 <XLEN>
    41015234:	00000e13          	li	x28,0
    41015238:	05c23423          	sd	x28,72(x4) # 48 <XLEN+0x8>
    4101523c:	00000e17          	auipc	x28,0x0
    41015240:	040e0e13          	addi	x28,x28,64 # 4101527c <excp_return_label_41>
    41015244:	03c23823          	sd	x28,48(x4) # 30 <SECURE_ACCESS_PROBABILITY+0x12>
    41015248:	00000e13          	li	x28,0
    4101524c:	03c23c23          	sd	x28,56(x4) # 38 <SECURE_ACCESS_PROBABILITY+0x1a>
    41015250:	00000e13          	li	x28,0
    41015254:	07c23023          	sd	x28,96(x4) # 60 <XLEN+0x20>
    41015258:	00000e13          	li	x28,0
    4101525c:	07c23423          	sd	x28,104(x4) # 68 <XLEN+0x28>
    41015260:	00000e13          	li	x28,0
    41015264:	07c23823          	sd	x28,112(x4) # 70 <XLEN+0x30>

0000000041015268 <fault_label_41>:
    41015268:	64a49b73          	csrrw	x22,htinst,x9
    4101526c:	4164ea37          	lui	x20,0x4164e
    41015270:	008a0a1b          	addiw	x20,x20,8 # 4164e008 <failed_addr>
    41015274:	000a3803          	ld	x16,0(x20)
    41015278:	00080067          	jr	x16

000000004101527c <excp_return_label_41>:
    4101527c:	0e7de237          	lui	x4,0xe7de
    41015280:	01600e13          	li	x28,22
    41015284:	05c23823          	sd	x28,80(x4) # e7de050 <check_excp_expected_cause>
    41015288:	00000e17          	auipc	x28,0x0
    4101528c:	04ce0e13          	addi	x28,x28,76 # 410152d4 <fault_label_42>
    41015290:	03c23023          	sd	x28,32(x4) # 20 <SECURE_ACCESS_PROBABILITY+0x2>
    41015294:	00000e13          	li	x28,0
    41015298:	05c23023          	sd	x28,64(x4) # 40 <XLEN>
    4101529c:	00000e13          	li	x28,0
    410152a0:	05c23423          	sd	x28,72(x4) # 48 <XLEN+0x8>
    410152a4:	00000e17          	auipc	x28,0x0
    410152a8:	044e0e13          	addi	x28,x28,68 # 410152e8 <excp_return_label_42>
    410152ac:	03c23823          	sd	x28,48(x4) # 30 <SECURE_ACCESS_PROBABILITY+0x12>
    410152b0:	00000e13          	li	x28,0
    410152b4:	03c23c23          	sd	x28,56(x4) # 38 <SECURE_ACCESS_PROBABILITY+0x1a>
    410152b8:	00000e13          	li	x28,0
    410152bc:	07c23023          	sd	x28,96(x4) # 60 <XLEN+0x20>
    410152c0:	00000e13          	li	x28,0
    410152c4:	07c23423          	sd	x28,104(x4) # 68 <XLEN+0x28>
    410152c8:	00000e13          	li	x28,0
    410152cc:	07c23823          	sd	x28,112(x4) # 70 <XLEN+0x30>
    410152d0:	00000e93          	li	x29,0

00000000410152d4 <fault_label_42>:
    410152d4:	680eacf3          	csrrs	x25,hgatp,x29
    410152d8:	4164e3b7          	lui	x7,0x4164e
    410152dc:	0083839b          	addiw	x7,x7,8 # 4164e008 <failed_addr>
    410152e0:	0003ba83          	ld	x21,0(x7)
    410152e4:	000a8067          	jr	x21

00000000410152e8 <excp_return_label_42>:
    410152e8:	0e7de237          	lui	x4,0xe7de
    410152ec:	01600e13          	li	x28,22
    410152f0:	05c23823          	sd	x28,80(x4) # e7de050 <check_excp_expected_cause>
    410152f4:	00000e17          	auipc	x28,0x0
    410152f8:	048e0e13          	addi	x28,x28,72 # 4101533c <fault_label_43>
    410152fc:	03c23023          	sd	x28,32(x4) # 20 <SECURE_ACCESS_PROBABILITY+0x2>
    41015300:	00000e13          	li	x28,0
    41015304:	05c23023          	sd	x28,64(x4) # 40 <XLEN>
    41015308:	00000e13          	li	x28,0
    4101530c:	05c23423          	sd	x28,72(x4) # 48 <XLEN+0x8>
    41015310:	00000e17          	auipc	x28,0x0
    41015314:	040e0e13          	addi	x28,x28,64 # 41015350 <excp_return_label_43>
    41015318:	03c23823          	sd	x28,48(x4) # 30 <SECURE_ACCESS_PROBABILITY+0x12>
    4101531c:	00000e13          	li	x28,0
    41015320:	03c23c23          	sd	x28,56(x4) # 38 <SECURE_ACCESS_PROBABILITY+0x1a>
    41015324:	00000e13          	li	x28,0
    41015328:	07c23023          	sd	x28,96(x4) # 60 <XLEN+0x20>
    4101532c:	00000e13          	li	x28,0
    41015330:	07c23423          	sd	x28,104(x4) # 68 <XLEN+0x28>
    41015334:	00000e13          	li	x28,0
    41015338:	07c23823          	sd	x28,112(x4) # 70 <XLEN+0x30>

000000004101533c <fault_label_43>:
    4101533c:	680499f3          	csrrw	x19,hgatp,x9
    41015340:	4164eab7          	lui	x21,0x4164e
    41015344:	008a8a9b          	addiw	x21,x21,8 # 4164e008 <failed_addr>
    41015348:	000abe03          	ld	x28,0(x21)
    4101534c:	000e0067          	jr	x28

0000000041015350 <excp_return_label_43>:
    41015350:	0e7de237          	lui	x4,0xe7de
    41015354:	01600e13          	li	x28,22
    41015358:	05c23823          	sd	x28,80(x4) # e7de050 <check_excp_expected_cause>
    4101535c:	00000e17          	auipc	x28,0x0
    41015360:	04ce0e13          	addi	x28,x28,76 # 410153a8 <fault_label_44>
    41015364:	03c23023          	sd	x28,32(x4) # 20 <SECURE_ACCESS_PROBABILITY+0x2>
    41015368:	00000e13          	li	x28,0
    4101536c:	05c23023          	sd	x28,64(x4) # 40 <XLEN>
    41015370:	00000e13          	li	x28,0
    41015374:	05c23423          	sd	x28,72(x4) # 48 <XLEN+0x8>
    41015378:	00000e17          	auipc	x28,0x0
    4101537c:	044e0e13          	addi	x28,x28,68 # 410153bc <excp_return_label_44>
    41015380:	03c23823          	sd	x28,48(x4) # 30 <SECURE_ACCESS_PROBABILITY+0x12>
    41015384:	00000e13          	li	x28,0
    41015388:	03c23c23          	sd	x28,56(x4) # 38 <SECURE_ACCESS_PROBABILITY+0x1a>
    4101538c:	00000e13          	li	x28,0
    41015390:	07c23023          	sd	x28,96(x4) # 60 <XLEN+0x20>
    41015394:	00000e13          	li	x28,0
    41015398:	07c23423          	sd	x28,104(x4) # 68 <XLEN+0x28>
    4101539c:	00000e13          	li	x28,0
    410153a0:	07c23823          	sd	x28,112(x4) # 70 <XLEN+0x30>
    410153a4:	00000593          	li	x11,0

00000000410153a8 <fault_label_44>:
    410153a8:	6a85a6f3          	csrrs	x13,hcontext,x11
    410153ac:	4164e8b7          	lui	x17,0x4164e
    410153b0:	0088889b          	addiw	x17,x17,8 # 4164e008 <failed_addr>
    410153b4:	0008bd83          	ld	x27,0(x17)
    410153b8:	000d8067          	jr	x27

00000000410153bc <excp_return_label_44>:
    410153bc:	0e7de237          	lui	x4,0xe7de
    410153c0:	01600e13          	li	x28,22
    410153c4:	05c23823          	sd	x28,80(x4) # e7de050 <check_excp_expected_cause>
    410153c8:	00000e17          	auipc	x28,0x0
    410153cc:	048e0e13          	addi	x28,x28,72 # 41015410 <fault_label_45>
    410153d0:	03c23023          	sd	x28,32(x4) # 20 <SECURE_ACCESS_PROBABILITY+0x2>
    410153d4:	00000e13          	li	x28,0
    410153d8:	05c23023          	sd	x28,64(x4) # 40 <XLEN>
    410153dc:	00000e13          	li	x28,0
    410153e0:	05c23423          	sd	x28,72(x4) # 48 <XLEN+0x8>
    410153e4:	00000e17          	auipc	x28,0x0
    410153e8:	040e0e13          	addi	x28,x28,64 # 41015424 <excp_return_label_45>
    410153ec:	03c23823          	sd	x28,48(x4) # 30 <SECURE_ACCESS_PROBABILITY+0x12>
    410153f0:	00000e13          	li	x28,0
    410153f4:	03c23c23          	sd	x28,56(x4) # 38 <SECURE_ACCESS_PROBABILITY+0x1a>
    410153f8:	00000e13          	li	x28,0
    410153fc:	07c23023          	sd	x28,96(x4) # 60 <XLEN+0x20>
    41015400:	00000e13          	li	x28,0
    41015404:	07c23423          	sd	x28,104(x4) # 68 <XLEN+0x28>
    41015408:	00000e13          	li	x28,0
    4101540c:	07c23823          	sd	x28,112(x4) # 70 <XLEN+0x30>

0000000041015410 <fault_label_45>:
    41015410:	6a8498f3          	csrrw	x17,hcontext,x9
    41015414:	4164e7b7          	lui	x15,0x4164e
    41015418:	0087879b          	addiw	x15,x15,8 # 4164e008 <failed_addr>
    4101541c:	0007b383          	ld	x7,0(x15)
    41015420:	00038067          	jr	x7

0000000041015424 <excp_return_label_45>:
    41015424:	0e7de237          	lui	x4,0xe7de
    41015428:	01600e13          	li	x28,22
    4101542c:	05c23823          	sd	x28,80(x4) # e7de050 <check_excp_expected_cause>
    41015430:	00000e17          	auipc	x28,0x0
    41015434:	048e0e13          	addi	x28,x28,72 # 41015478 <fault_label_46>
    41015438:	03c23023          	sd	x28,32(x4) # 20 <SECURE_ACCESS_PROBABILITY+0x2>
    4101543c:	00000e13          	li	x28,0
    41015440:	05c23023          	sd	x28,64(x4) # 40 <XLEN>
    41015444:	00000e13          	li	x28,0
    41015448:	05c23423          	sd	x28,72(x4) # 48 <XLEN+0x8>
    4101544c:	00000e17          	auipc	x28,0x0
    41015450:	044e0e13          	addi	x28,x28,68 # 41015490 <excp_return_label_46>
    41015454:	03c23823          	sd	x28,48(x4) # 30 <SECURE_ACCESS_PROBABILITY+0x12>
    41015458:	00000e13          	li	x28,0
    4101545c:	03c23c23          	sd	x28,56(x4) # 38 <SECURE_ACCESS_PROBABILITY+0x1a>
    41015460:	00000e13          	li	x28,0
    41015464:	07c23023          	sd	x28,96(x4) # 60 <XLEN+0x20>
    41015468:	00000e13          	li	x28,0
    4101546c:	07c23423          	sd	x28,104(x4) # 68 <XLEN+0x28>
    41015470:	00000e13          	li	x28,0
    41015474:	07c23823          	sd	x28,112(x4) # 70 <XLEN+0x30>

0000000041015478 <fault_label_46>:
    41015478:	e12023f3          	csrr	x7,hgeip
    4101547c:	00038493          	mv	x9,x7
    41015480:	4164ebb7          	lui	x23,0x4164e
    41015484:	008b8b9b          	addiw	x23,x23,8 # 4164e008 <failed_addr>
    41015488:	000bb803          	ld	x16,0(x23)
    4101548c:	00080067          	jr	x16

0000000041015490 <excp_return_label_46>:
    41015490:	00170137          	lui	x2,0x170
    41015494:	00013383          	ld	x7,0(x2) # 170000 <tp_csr_storage>
    41015498:	4164efb7          	lui	x31,0x4164e
    4101549c:	0b0f8f9b          	addiw	x31,x31,176 # 4164e0b0 <machine_csr_jump_table_flags>
    410154a0:	00400f13          	li	x30,4
    410154a4:	01efb023          	sd	x30,0(x31)
    410154a8:	000f0fb7          	lui	x31,0xf0
    410154ac:	001f8f9b          	addiw	x31,x31,1 # f0001 <SID_HEXCEP_09_sfence_vma_vtvm1_vs_stack+0x5c001>
    410154b0:	00cf9f93          	slli	x31,x31,0xc
    410154b4:	005f8f93          	addi	x31,x31,5
    410154b8:	00000073          	ecall

00000000410154bc <SID_HEXCEP_05_passed>:
    410154bc:	00f00f9b          	addiw	x31,x0,15
    410154c0:	01cf9f93          	slli	x31,x31,0x1c
    410154c4:	001f8f93          	addi	x31,x31,1
    410154c8:	00000073          	ecall

00000000410154cc <SID_HEXCEP_07_vs_mode>:
    410154cc:	00170137          	lui	x2,0x170
    410154d0:	4164efb7          	lui	x31,0x4164e
    410154d4:	0b8f8f9b          	addiw	x31,x31,184 # 4164e0b8 <super_csr_jump_table_flags>
    410154d8:	00500f13          	li	x30,5
    410154dc:	01efb023          	sd	x30,0(x31)
    410154e0:	000f0fb7          	lui	x31,0xf0
    410154e4:	001f8f9b          	addiw	x31,x31,1 # f0001 <SID_HEXCEP_09_sfence_vma_vtvm1_vs_stack+0x5c001>
    410154e8:	00cf9f93          	slli	x31,x31,0xc
    410154ec:	006f8f93          	addi	x31,x31,6
    410154f0:	00000073          	ecall
    410154f4:	00713023          	sd	x7,0(x2) # 170000 <tp_csr_storage>
    410154f8:	4164efb7          	lui	x31,0x4164e
    410154fc:	0b0f8f9b          	addiw	x31,x31,176 # 4164e0b0 <machine_csr_jump_table_flags>
    41015500:	00600f13          	li	x30,6
    41015504:	01efb023          	sd	x30,0(x31)
    41015508:	000f0fb7          	lui	x31,0xf0
    4101550c:	001f8f9b          	addiw	x31,x31,1 # f0001 <SID_HEXCEP_09_sfence_vma_vtvm1_vs_stack+0x5c001>
    41015510:	00cf9f93          	slli	x31,x31,0xc
    41015514:	005f8f93          	addi	x31,x31,5
    41015518:	00000073          	ecall
    4101551c:	00713423          	sd	x7,8(x2)
    41015520:	009e4137          	lui	x2,0x9e4
    41015524:	000012b7          	lui	x5,0x1
    41015528:	00510133          	add	x2,x2,x5
    4101552c:	ff017113          	andi	x2,x2,-16
    41015530:	0010039b          	addiw	x7,x0,1
    41015534:	02039393          	slli	x7,x7,0x20
    41015538:	fff38393          	addi	x7,x7,-1
    4101553c:	4164efb7          	lui	x31,0x4164e
    41015540:	0b0f8f9b          	addiw	x31,x31,176 # 4164e0b0 <machine_csr_jump_table_flags>
    41015544:	00700f13          	li	x30,7
    41015548:	01efb023          	sd	x30,0(x31)
    4101554c:	000f0fb7          	lui	x31,0xf0
    41015550:	001f8f9b          	addiw	x31,x31,1 # f0001 <SID_HEXCEP_09_sfence_vma_vtvm1_vs_stack+0x5c001>
    41015554:	00cf9f93          	slli	x31,x31,0xc
    41015558:	005f8f93          	addi	x31,x31,5
    4101555c:	00000073          	ecall
    41015560:	0010039b          	addiw	x7,x0,1
    41015564:	02039393          	slli	x7,x7,0x20
    41015568:	fff38393          	addi	x7,x7,-1
    4101556c:	4164efb7          	lui	x31,0x4164e
    41015570:	0b8f8f9b          	addiw	x31,x31,184 # 4164e0b8 <super_csr_jump_table_flags>
    41015574:	00800f13          	li	x30,8
    41015578:	01efb023          	sd	x30,0(x31)
    4101557c:	000f0fb7          	lui	x31,0xf0
    41015580:	001f8f9b          	addiw	x31,x31,1 # f0001 <SID_HEXCEP_09_sfence_vma_vtvm1_vs_stack+0x5c001>
    41015584:	00cf9f93          	slli	x31,x31,0xc
    41015588:	006f8f93          	addi	x31,x31,6
    4101558c:	00000073          	ecall
    41015590:	0e7de237          	lui	x4,0xe7de
    41015594:	01600e13          	li	x28,22
    41015598:	05c23823          	sd	x28,80(x4) # e7de050 <check_excp_expected_cause>
    4101559c:	00000e17          	auipc	x28,0x0
    410155a0:	048e0e13          	addi	x28,x28,72 # 410155e4 <fault_label_47>
    410155a4:	03c23023          	sd	x28,32(x4) # 20 <SECURE_ACCESS_PROBABILITY+0x2>
    410155a8:	00000e13          	li	x28,0
    410155ac:	05c23023          	sd	x28,64(x4) # 40 <XLEN>
    410155b0:	00000e13          	li	x28,0
    410155b4:	05c23423          	sd	x28,72(x4) # 48 <XLEN+0x8>
    410155b8:	00000e17          	auipc	x28,0x0
    410155bc:	040e0e13          	addi	x28,x28,64 # 410155f8 <excp_return_label_47>
    410155c0:	03c23823          	sd	x28,48(x4) # 30 <SECURE_ACCESS_PROBABILITY+0x12>
    410155c4:	00000e13          	li	x28,0
    410155c8:	03c23c23          	sd	x28,56(x4) # 38 <SECURE_ACCESS_PROBABILITY+0x1a>
    410155cc:	00000e13          	li	x28,0
    410155d0:	07c23023          	sd	x28,96(x4) # 60 <XLEN+0x20>
    410155d4:	00000e13          	li	x28,0
    410155d8:	07c23423          	sd	x28,104(x4) # 68 <XLEN+0x28>
    410155dc:	00000e13          	li	x28,0
    410155e0:	07c23823          	sd	x28,112(x4) # 70 <XLEN+0x30>

00000000410155e4 <fault_label_47>:
    410155e4:	c0002cf3          	rdcycle	x25
    410155e8:	4164e437          	lui	x8,0x4164e
    410155ec:	0084041b          	addiw	x8,x8,8 # 4164e008 <failed_addr>
    410155f0:	00043403          	ld	x8,0(x8)
    410155f4:	00040067          	jr	x8

00000000410155f8 <excp_return_label_47>:
    410155f8:	0e7de237          	lui	x4,0xe7de
    410155fc:	01600e13          	li	x28,22
    41015600:	05c23823          	sd	x28,80(x4) # e7de050 <check_excp_expected_cause>
    41015604:	00000e17          	auipc	x28,0x0
    41015608:	048e0e13          	addi	x28,x28,72 # 4101564c <fault_label_48>
    4101560c:	03c23023          	sd	x28,32(x4) # 20 <SECURE_ACCESS_PROBABILITY+0x2>
    41015610:	00000e13          	li	x28,0
    41015614:	05c23023          	sd	x28,64(x4) # 40 <XLEN>
    41015618:	00000e13          	li	x28,0
    4101561c:	05c23423          	sd	x28,72(x4) # 48 <XLEN+0x8>
    41015620:	00000e17          	auipc	x28,0x0
    41015624:	040e0e13          	addi	x28,x28,64 # 41015660 <excp_return_label_48>
    41015628:	03c23823          	sd	x28,48(x4) # 30 <SECURE_ACCESS_PROBABILITY+0x12>
    4101562c:	00000e13          	li	x28,0
    41015630:	03c23c23          	sd	x28,56(x4) # 38 <SECURE_ACCESS_PROBABILITY+0x1a>
    41015634:	00000e13          	li	x28,0
    41015638:	07c23023          	sd	x28,96(x4) # 60 <XLEN+0x20>
    4101563c:	00000e13          	li	x28,0
    41015640:	07c23423          	sd	x28,104(x4) # 68 <XLEN+0x28>
    41015644:	00000e13          	li	x28,0
    41015648:	07c23823          	sd	x28,112(x4) # 70 <XLEN+0x30>

000000004101564c <fault_label_48>:
    4101564c:	c01027f3          	rdtime	x15
    41015650:	4164e637          	lui	x12,0x4164e
    41015654:	0086061b          	addiw	x12,x12,8 # 4164e008 <failed_addr>
    41015658:	00063483          	ld	x9,0(x12)
    4101565c:	00048067          	jr	x9

0000000041015660 <excp_return_label_48>:
    41015660:	0e7de237          	lui	x4,0xe7de
    41015664:	01600e13          	li	x28,22
    41015668:	05c23823          	sd	x28,80(x4) # e7de050 <check_excp_expected_cause>
    4101566c:	00000e17          	auipc	x28,0x0
    41015670:	048e0e13          	addi	x28,x28,72 # 410156b4 <fault_label_49>
    41015674:	03c23023          	sd	x28,32(x4) # 20 <SECURE_ACCESS_PROBABILITY+0x2>
    41015678:	00000e13          	li	x28,0
    4101567c:	05c23023          	sd	x28,64(x4) # 40 <XLEN>
    41015680:	00000e13          	li	x28,0
    41015684:	05c23423          	sd	x28,72(x4) # 48 <XLEN+0x8>
    41015688:	00000e17          	auipc	x28,0x0
    4101568c:	040e0e13          	addi	x28,x28,64 # 410156c8 <excp_return_label_49>
    41015690:	03c23823          	sd	x28,48(x4) # 30 <SECURE_ACCESS_PROBABILITY+0x12>
    41015694:	00000e13          	li	x28,0
    41015698:	03c23c23          	sd	x28,56(x4) # 38 <SECURE_ACCESS_PROBABILITY+0x1a>
    4101569c:	00000e13          	li	x28,0
    410156a0:	07c23023          	sd	x28,96(x4) # 60 <XLEN+0x20>
    410156a4:	00000e13          	li	x28,0
    410156a8:	07c23423          	sd	x28,104(x4) # 68 <XLEN+0x28>
    410156ac:	00000e13          	li	x28,0
    410156b0:	07c23823          	sd	x28,112(x4) # 70 <XLEN+0x30>

00000000410156b4 <fault_label_49>:
    410156b4:	c0202373          	rdinstret	x6
    410156b8:	4164ebb7          	lui	x23,0x4164e
    410156bc:	008b8b9b          	addiw	x23,x23,8 # 4164e008 <failed_addr>
    410156c0:	000bbc83          	ld	x25,0(x23)
    410156c4:	000c8067          	jr	x25

00000000410156c8 <excp_return_label_49>:
    410156c8:	0e7de237          	lui	x4,0xe7de
    410156cc:	01600e13          	li	x28,22
    410156d0:	05c23823          	sd	x28,80(x4) # e7de050 <check_excp_expected_cause>
    410156d4:	00000e17          	auipc	x28,0x0
    410156d8:	048e0e13          	addi	x28,x28,72 # 4101571c <fault_label_50>
    410156dc:	03c23023          	sd	x28,32(x4) # 20 <SECURE_ACCESS_PROBABILITY+0x2>
    410156e0:	00000e13          	li	x28,0
    410156e4:	05c23023          	sd	x28,64(x4) # 40 <XLEN>
    410156e8:	00000e13          	li	x28,0
    410156ec:	05c23423          	sd	x28,72(x4) # 48 <XLEN+0x8>
    410156f0:	00000e17          	auipc	x28,0x0
    410156f4:	044e0e13          	addi	x28,x28,68 # 41015734 <excp_return_label_50>
    410156f8:	03c23823          	sd	x28,48(x4) # 30 <SECURE_ACCESS_PROBABILITY+0x12>
    410156fc:	00000e13          	li	x28,0
    41015700:	03c23c23          	sd	x28,56(x4) # 38 <SECURE_ACCESS_PROBABILITY+0x1a>
    41015704:	00000e13          	li	x28,0
    41015708:	07c23023          	sd	x28,96(x4) # 60 <XLEN+0x20>
    4101570c:	00000e13          	li	x28,0
    41015710:	07c23423          	sd	x28,104(x4) # 68 <XLEN+0x28>
    41015714:	00000e13          	li	x28,0
    41015718:	07c23823          	sd	x28,112(x4) # 70 <XLEN+0x30>

000000004101571c <fault_label_50>:
    4101571c:	c03023f3          	csrr	x7,hpmcounter3
    41015720:	00038613          	mv	x12,x7
    41015724:	4164ecb7          	lui	x25,0x4164e
    41015728:	008c8c9b          	addiw	x25,x25,8 # 4164e008 <failed_addr>
    4101572c:	000cb383          	ld	x7,0(x25)
    41015730:	00038067          	jr	x7

0000000041015734 <excp_return_label_50>:
    41015734:	0e7de237          	lui	x4,0xe7de
    41015738:	01600e13          	li	x28,22
    4101573c:	05c23823          	sd	x28,80(x4) # e7de050 <check_excp_expected_cause>
    41015740:	00000e17          	auipc	x28,0x0
    41015744:	048e0e13          	addi	x28,x28,72 # 41015788 <fault_label_51>
    41015748:	03c23023          	sd	x28,32(x4) # 20 <SECURE_ACCESS_PROBABILITY+0x2>
    4101574c:	00000e13          	li	x28,0
    41015750:	05c23023          	sd	x28,64(x4) # 40 <XLEN>
    41015754:	00000e13          	li	x28,0
    41015758:	05c23423          	sd	x28,72(x4) # 48 <XLEN+0x8>
    4101575c:	00000e17          	auipc	x28,0x0
    41015760:	044e0e13          	addi	x28,x28,68 # 410157a0 <excp_return_label_51>
    41015764:	03c23823          	sd	x28,48(x4) # 30 <SECURE_ACCESS_PROBABILITY+0x12>
    41015768:	00000e13          	li	x28,0
    4101576c:	03c23c23          	sd	x28,56(x4) # 38 <SECURE_ACCESS_PROBABILITY+0x1a>
    41015770:	00000e13          	li	x28,0
    41015774:	07c23023          	sd	x28,96(x4) # 60 <XLEN+0x20>
    41015778:	00000e13          	li	x28,0
    4101577c:	07c23423          	sd	x28,104(x4) # 68 <XLEN+0x28>
    41015780:	00000e13          	li	x28,0
    41015784:	07c23823          	sd	x28,112(x4) # 70 <XLEN+0x30>

0000000041015788 <fault_label_51>:
    41015788:	c04023f3          	csrr	x7,hpmcounter4
    4101578c:	00038713          	mv	x14,x7
    41015790:	4164eb37          	lui	x22,0x4164e
    41015794:	008b0b1b          	addiw	x22,x22,8 # 4164e008 <failed_addr>
    41015798:	000b3d03          	ld	x26,0(x22)
    4101579c:	000d0067          	jr	x26

00000000410157a0 <excp_return_label_51>:
    410157a0:	0e7de237          	lui	x4,0xe7de
    410157a4:	01600e13          	li	x28,22
    410157a8:	05c23823          	sd	x28,80(x4) # e7de050 <check_excp_expected_cause>
    410157ac:	00000e17          	auipc	x28,0x0
    410157b0:	048e0e13          	addi	x28,x28,72 # 410157f4 <fault_label_52>
    410157b4:	03c23023          	sd	x28,32(x4) # 20 <SECURE_ACCESS_PROBABILITY+0x2>
    410157b8:	00000e13          	li	x28,0
    410157bc:	05c23023          	sd	x28,64(x4) # 40 <XLEN>
    410157c0:	00000e13          	li	x28,0
    410157c4:	05c23423          	sd	x28,72(x4) # 48 <XLEN+0x8>
    410157c8:	00000e17          	auipc	x28,0x0
    410157cc:	044e0e13          	addi	x28,x28,68 # 4101580c <excp_return_label_52>
    410157d0:	03c23823          	sd	x28,48(x4) # 30 <SECURE_ACCESS_PROBABILITY+0x12>
    410157d4:	00000e13          	li	x28,0
    410157d8:	03c23c23          	sd	x28,56(x4) # 38 <SECURE_ACCESS_PROBABILITY+0x1a>
    410157dc:	00000e13          	li	x28,0
    410157e0:	07c23023          	sd	x28,96(x4) # 60 <XLEN+0x20>
    410157e4:	00000e13          	li	x28,0
    410157e8:	07c23423          	sd	x28,104(x4) # 68 <XLEN+0x28>
    410157ec:	00000e13          	li	x28,0
    410157f0:	07c23823          	sd	x28,112(x4) # 70 <XLEN+0x30>

00000000410157f4 <fault_label_52>:
    410157f4:	c05023f3          	csrr	x7,hpmcounter5
    410157f8:	00038413          	mv	x8,x7
    410157fc:	4164e537          	lui	x10,0x4164e
    41015800:	0085051b          	addiw	x10,x10,8 # 4164e008 <failed_addr>
    41015804:	00053d83          	ld	x27,0(x10)
    41015808:	000d8067          	jr	x27

000000004101580c <excp_return_label_52>:
    4101580c:	0e7de237          	lui	x4,0xe7de
    41015810:	01600e13          	li	x28,22
    41015814:	05c23823          	sd	x28,80(x4) # e7de050 <check_excp_expected_cause>
    41015818:	00000e17          	auipc	x28,0x0
    4101581c:	048e0e13          	addi	x28,x28,72 # 41015860 <fault_label_53>
    41015820:	03c23023          	sd	x28,32(x4) # 20 <SECURE_ACCESS_PROBABILITY+0x2>
    41015824:	00000e13          	li	x28,0
    41015828:	05c23023          	sd	x28,64(x4) # 40 <XLEN>
    4101582c:	00000e13          	li	x28,0
    41015830:	05c23423          	sd	x28,72(x4) # 48 <XLEN+0x8>
    41015834:	00000e17          	auipc	x28,0x0
    41015838:	044e0e13          	addi	x28,x28,68 # 41015878 <excp_return_label_53>
    4101583c:	03c23823          	sd	x28,48(x4) # 30 <SECURE_ACCESS_PROBABILITY+0x12>
    41015840:	00000e13          	li	x28,0
    41015844:	03c23c23          	sd	x28,56(x4) # 38 <SECURE_ACCESS_PROBABILITY+0x1a>
    41015848:	00000e13          	li	x28,0
    4101584c:	07c23023          	sd	x28,96(x4) # 60 <XLEN+0x20>
    41015850:	00000e13          	li	x28,0
    41015854:	07c23423          	sd	x28,104(x4) # 68 <XLEN+0x28>
    41015858:	00000e13          	li	x28,0
    4101585c:	07c23823          	sd	x28,112(x4) # 70 <XLEN+0x30>

0000000041015860 <fault_label_53>:
    41015860:	c06023f3          	csrr	x7,hpmcounter6
    41015864:	00038493          	mv	x9,x7
    41015868:	4164ecb7          	lui	x25,0x4164e
    4101586c:	008c8c9b          	addiw	x25,x25,8 # 4164e008 <failed_addr>
    41015870:	000cb483          	ld	x9,0(x25)
    41015874:	00048067          	jr	x9

0000000041015878 <excp_return_label_53>:
    41015878:	0e7de237          	lui	x4,0xe7de
    4101587c:	01600e13          	li	x28,22
    41015880:	05c23823          	sd	x28,80(x4) # e7de050 <check_excp_expected_cause>
    41015884:	00000e17          	auipc	x28,0x0
    41015888:	048e0e13          	addi	x28,x28,72 # 410158cc <fault_label_54>
    4101588c:	03c23023          	sd	x28,32(x4) # 20 <SECURE_ACCESS_PROBABILITY+0x2>
    41015890:	00000e13          	li	x28,0
    41015894:	05c23023          	sd	x28,64(x4) # 40 <XLEN>
    41015898:	00000e13          	li	x28,0
    4101589c:	05c23423          	sd	x28,72(x4) # 48 <XLEN+0x8>
    410158a0:	00000e17          	auipc	x28,0x0
    410158a4:	044e0e13          	addi	x28,x28,68 # 410158e4 <excp_return_label_54>
    410158a8:	03c23823          	sd	x28,48(x4) # 30 <SECURE_ACCESS_PROBABILITY+0x12>
    410158ac:	00000e13          	li	x28,0
    410158b0:	03c23c23          	sd	x28,56(x4) # 38 <SECURE_ACCESS_PROBABILITY+0x1a>
    410158b4:	00000e13          	li	x28,0
    410158b8:	07c23023          	sd	x28,96(x4) # 60 <XLEN+0x20>
    410158bc:	00000e13          	li	x28,0
    410158c0:	07c23423          	sd	x28,104(x4) # 68 <XLEN+0x28>
    410158c4:	00000e13          	li	x28,0
    410158c8:	07c23823          	sd	x28,112(x4) # 70 <XLEN+0x30>

00000000410158cc <fault_label_54>:
    410158cc:	c07023f3          	csrr	x7,hpmcounter7
    410158d0:	00038d13          	mv	x26,x7
    410158d4:	4164e4b7          	lui	x9,0x4164e
    410158d8:	0084849b          	addiw	x9,x9,8 # 4164e008 <failed_addr>
    410158dc:	0004b683          	ld	x13,0(x9)
    410158e0:	00068067          	jr	x13

00000000410158e4 <excp_return_label_54>:
    410158e4:	0e7de237          	lui	x4,0xe7de
    410158e8:	01600e13          	li	x28,22
    410158ec:	05c23823          	sd	x28,80(x4) # e7de050 <check_excp_expected_cause>
    410158f0:	00000e17          	auipc	x28,0x0
    410158f4:	048e0e13          	addi	x28,x28,72 # 41015938 <fault_label_55>
    410158f8:	03c23023          	sd	x28,32(x4) # 20 <SECURE_ACCESS_PROBABILITY+0x2>
    410158fc:	00000e13          	li	x28,0
    41015900:	05c23023          	sd	x28,64(x4) # 40 <XLEN>
    41015904:	00000e13          	li	x28,0
    41015908:	05c23423          	sd	x28,72(x4) # 48 <XLEN+0x8>
    4101590c:	00000e17          	auipc	x28,0x0
    41015910:	044e0e13          	addi	x28,x28,68 # 41015950 <excp_return_label_55>
    41015914:	03c23823          	sd	x28,48(x4) # 30 <SECURE_ACCESS_PROBABILITY+0x12>
    41015918:	00000e13          	li	x28,0
    4101591c:	03c23c23          	sd	x28,56(x4) # 38 <SECURE_ACCESS_PROBABILITY+0x1a>
    41015920:	00000e13          	li	x28,0
    41015924:	07c23023          	sd	x28,96(x4) # 60 <XLEN+0x20>
    41015928:	00000e13          	li	x28,0
    4101592c:	07c23423          	sd	x28,104(x4) # 68 <XLEN+0x28>
    41015930:	00000e13          	li	x28,0
    41015934:	07c23823          	sd	x28,112(x4) # 70 <XLEN+0x30>

0000000041015938 <fault_label_55>:
    41015938:	c08023f3          	csrr	x7,hpmcounter8
    4101593c:	00038e13          	mv	x28,x7
    41015940:	4164e3b7          	lui	x7,0x4164e
    41015944:	0083839b          	addiw	x7,x7,8 # 4164e008 <failed_addr>
    41015948:	0003b303          	ld	x6,0(x7)
    4101594c:	00030067          	jr	x6

0000000041015950 <excp_return_label_55>:
    41015950:	0e7de237          	lui	x4,0xe7de
    41015954:	01600e13          	li	x28,22
    41015958:	05c23823          	sd	x28,80(x4) # e7de050 <check_excp_expected_cause>
    4101595c:	00000e17          	auipc	x28,0x0
    41015960:	048e0e13          	addi	x28,x28,72 # 410159a4 <fault_label_56>
    41015964:	03c23023          	sd	x28,32(x4) # 20 <SECURE_ACCESS_PROBABILITY+0x2>
    41015968:	00000e13          	li	x28,0
    4101596c:	05c23023          	sd	x28,64(x4) # 40 <XLEN>
    41015970:	00000e13          	li	x28,0
    41015974:	05c23423          	sd	x28,72(x4) # 48 <XLEN+0x8>
    41015978:	00000e17          	auipc	x28,0x0
    4101597c:	044e0e13          	addi	x28,x28,68 # 410159bc <excp_return_label_56>
    41015980:	03c23823          	sd	x28,48(x4) # 30 <SECURE_ACCESS_PROBABILITY+0x12>
    41015984:	00000e13          	li	x28,0
    41015988:	03c23c23          	sd	x28,56(x4) # 38 <SECURE_ACCESS_PROBABILITY+0x1a>
    4101598c:	00000e13          	li	x28,0
    41015990:	07c23023          	sd	x28,96(x4) # 60 <XLEN+0x20>
    41015994:	00000e13          	li	x28,0
    41015998:	07c23423          	sd	x28,104(x4) # 68 <XLEN+0x28>
    4101599c:	00000e13          	li	x28,0
    410159a0:	07c23823          	sd	x28,112(x4) # 70 <XLEN+0x30>

00000000410159a4 <fault_label_56>:
    410159a4:	c09023f3          	csrr	x7,hpmcounter9
    410159a8:	00038c93          	mv	x25,x7
    410159ac:	4164ee37          	lui	x28,0x4164e
    410159b0:	008e0e1b          	addiw	x28,x28,8 # 4164e008 <failed_addr>
    410159b4:	000e3983          	ld	x19,0(x28)
    410159b8:	00098067          	jr	x19

00000000410159bc <excp_return_label_56>:
    410159bc:	0e7de237          	lui	x4,0xe7de
    410159c0:	01600e13          	li	x28,22
    410159c4:	05c23823          	sd	x28,80(x4) # e7de050 <check_excp_expected_cause>
    410159c8:	00000e17          	auipc	x28,0x0
    410159cc:	048e0e13          	addi	x28,x28,72 # 41015a10 <fault_label_57>
    410159d0:	03c23023          	sd	x28,32(x4) # 20 <SECURE_ACCESS_PROBABILITY+0x2>
    410159d4:	00000e13          	li	x28,0
    410159d8:	05c23023          	sd	x28,64(x4) # 40 <XLEN>
    410159dc:	00000e13          	li	x28,0
    410159e0:	05c23423          	sd	x28,72(x4) # 48 <XLEN+0x8>
    410159e4:	00000e17          	auipc	x28,0x0
    410159e8:	044e0e13          	addi	x28,x28,68 # 41015a28 <excp_return_label_57>
    410159ec:	03c23823          	sd	x28,48(x4) # 30 <SECURE_ACCESS_PROBABILITY+0x12>
    410159f0:	00000e13          	li	x28,0
    410159f4:	03c23c23          	sd	x28,56(x4) # 38 <SECURE_ACCESS_PROBABILITY+0x1a>
    410159f8:	00000e13          	li	x28,0
    410159fc:	07c23023          	sd	x28,96(x4) # 60 <XLEN+0x20>
    41015a00:	00000e13          	li	x28,0
    41015a04:	07c23423          	sd	x28,104(x4) # 68 <XLEN+0x28>
    41015a08:	00000e13          	li	x28,0
    41015a0c:	07c23823          	sd	x28,112(x4) # 70 <XLEN+0x30>

0000000041015a10 <fault_label_57>:
    41015a10:	c0a023f3          	csrr	x7,hpmcounter10
    41015a14:	00038413          	mv	x8,x7
    41015a18:	4164eeb7          	lui	x29,0x4164e
    41015a1c:	008e8e9b          	addiw	x29,x29,8 # 4164e008 <failed_addr>
    41015a20:	000eb883          	ld	x17,0(x29)
    41015a24:	00088067          	jr	x17

0000000041015a28 <excp_return_label_57>:
    41015a28:	0e7de237          	lui	x4,0xe7de
    41015a2c:	01600e13          	li	x28,22
    41015a30:	05c23823          	sd	x28,80(x4) # e7de050 <check_excp_expected_cause>
    41015a34:	00000e17          	auipc	x28,0x0
    41015a38:	048e0e13          	addi	x28,x28,72 # 41015a7c <fault_label_58>
    41015a3c:	03c23023          	sd	x28,32(x4) # 20 <SECURE_ACCESS_PROBABILITY+0x2>
    41015a40:	00000e13          	li	x28,0
    41015a44:	05c23023          	sd	x28,64(x4) # 40 <XLEN>
    41015a48:	00000e13          	li	x28,0
    41015a4c:	05c23423          	sd	x28,72(x4) # 48 <XLEN+0x8>
    41015a50:	00000e17          	auipc	x28,0x0
    41015a54:	044e0e13          	addi	x28,x28,68 # 41015a94 <excp_return_label_58>
    41015a58:	03c23823          	sd	x28,48(x4) # 30 <SECURE_ACCESS_PROBABILITY+0x12>
    41015a5c:	00000e13          	li	x28,0
    41015a60:	03c23c23          	sd	x28,56(x4) # 38 <SECURE_ACCESS_PROBABILITY+0x1a>
    41015a64:	00000e13          	li	x28,0
    41015a68:	07c23023          	sd	x28,96(x4) # 60 <XLEN+0x20>
    41015a6c:	00000e13          	li	x28,0
    41015a70:	07c23423          	sd	x28,104(x4) # 68 <XLEN+0x28>
    41015a74:	00000e13          	li	x28,0
    41015a78:	07c23823          	sd	x28,112(x4) # 70 <XLEN+0x30>

0000000041015a7c <fault_label_58>:
    41015a7c:	c0b023f3          	csrr	x7,hpmcounter11
    41015a80:	00038993          	mv	x19,x7
    41015a84:	4164e437          	lui	x8,0x4164e
    41015a88:	0084041b          	addiw	x8,x8,8 # 4164e008 <failed_addr>
    41015a8c:	00043603          	ld	x12,0(x8)
    41015a90:	00060067          	jr	x12

0000000041015a94 <excp_return_label_58>:
    41015a94:	0e7de237          	lui	x4,0xe7de
    41015a98:	01600e13          	li	x28,22
    41015a9c:	05c23823          	sd	x28,80(x4) # e7de050 <check_excp_expected_cause>
    41015aa0:	00000e17          	auipc	x28,0x0
    41015aa4:	048e0e13          	addi	x28,x28,72 # 41015ae8 <fault_label_59>
    41015aa8:	03c23023          	sd	x28,32(x4) # 20 <SECURE_ACCESS_PROBABILITY+0x2>
    41015aac:	00000e13          	li	x28,0
    41015ab0:	05c23023          	sd	x28,64(x4) # 40 <XLEN>
    41015ab4:	00000e13          	li	x28,0
    41015ab8:	05c23423          	sd	x28,72(x4) # 48 <XLEN+0x8>
    41015abc:	00000e17          	auipc	x28,0x0
    41015ac0:	044e0e13          	addi	x28,x28,68 # 41015b00 <excp_return_label_59>
    41015ac4:	03c23823          	sd	x28,48(x4) # 30 <SECURE_ACCESS_PROBABILITY+0x12>
    41015ac8:	00000e13          	li	x28,0
    41015acc:	03c23c23          	sd	x28,56(x4) # 38 <SECURE_ACCESS_PROBABILITY+0x1a>
    41015ad0:	00000e13          	li	x28,0
    41015ad4:	07c23023          	sd	x28,96(x4) # 60 <XLEN+0x20>
    41015ad8:	00000e13          	li	x28,0
    41015adc:	07c23423          	sd	x28,104(x4) # 68 <XLEN+0x28>
    41015ae0:	00000e13          	li	x28,0
    41015ae4:	07c23823          	sd	x28,112(x4) # 70 <XLEN+0x30>

0000000041015ae8 <fault_label_59>:
    41015ae8:	c0c023f3          	csrr	x7,hpmcounter12
    41015aec:	00038a13          	mv	x20,x7
    41015af0:	4164e5b7          	lui	x11,0x4164e
    41015af4:	0085859b          	addiw	x11,x11,8 # 4164e008 <failed_addr>
    41015af8:	0005b683          	ld	x13,0(x11)
    41015afc:	00068067          	jr	x13

0000000041015b00 <excp_return_label_59>:
    41015b00:	0e7de237          	lui	x4,0xe7de
    41015b04:	01600e13          	li	x28,22
    41015b08:	05c23823          	sd	x28,80(x4) # e7de050 <check_excp_expected_cause>
    41015b0c:	00000e17          	auipc	x28,0x0
    41015b10:	048e0e13          	addi	x28,x28,72 # 41015b54 <fault_label_60>
    41015b14:	03c23023          	sd	x28,32(x4) # 20 <SECURE_ACCESS_PROBABILITY+0x2>
    41015b18:	00000e13          	li	x28,0
    41015b1c:	05c23023          	sd	x28,64(x4) # 40 <XLEN>
    41015b20:	00000e13          	li	x28,0
    41015b24:	05c23423          	sd	x28,72(x4) # 48 <XLEN+0x8>
    41015b28:	00000e17          	auipc	x28,0x0
    41015b2c:	044e0e13          	addi	x28,x28,68 # 41015b6c <excp_return_label_60>
    41015b30:	03c23823          	sd	x28,48(x4) # 30 <SECURE_ACCESS_PROBABILITY+0x12>
    41015b34:	00000e13          	li	x28,0
    41015b38:	03c23c23          	sd	x28,56(x4) # 38 <SECURE_ACCESS_PROBABILITY+0x1a>
    41015b3c:	00000e13          	li	x28,0
    41015b40:	07c23023          	sd	x28,96(x4) # 60 <XLEN+0x20>
    41015b44:	00000e13          	li	x28,0
    41015b48:	07c23423          	sd	x28,104(x4) # 68 <XLEN+0x28>
    41015b4c:	00000e13          	li	x28,0
    41015b50:	07c23823          	sd	x28,112(x4) # 70 <XLEN+0x30>

0000000041015b54 <fault_label_60>:
    41015b54:	c0d023f3          	csrr	x7,hpmcounter13
    41015b58:	00038393          	mv	x7,x7
    41015b5c:	4164ef37          	lui	x30,0x4164e
    41015b60:	008f0f1b          	addiw	x30,x30,8 # 4164e008 <failed_addr>
    41015b64:	000f3e83          	ld	x29,0(x30)
    41015b68:	000e8067          	jr	x29

0000000041015b6c <excp_return_label_60>:
    41015b6c:	0e7de237          	lui	x4,0xe7de
    41015b70:	01600e13          	li	x28,22
    41015b74:	05c23823          	sd	x28,80(x4) # e7de050 <check_excp_expected_cause>
    41015b78:	00000e17          	auipc	x28,0x0
    41015b7c:	048e0e13          	addi	x28,x28,72 # 41015bc0 <fault_label_61>
    41015b80:	03c23023          	sd	x28,32(x4) # 20 <SECURE_ACCESS_PROBABILITY+0x2>
    41015b84:	00000e13          	li	x28,0
    41015b88:	05c23023          	sd	x28,64(x4) # 40 <XLEN>
    41015b8c:	00000e13          	li	x28,0
    41015b90:	05c23423          	sd	x28,72(x4) # 48 <XLEN+0x8>
    41015b94:	00000e17          	auipc	x28,0x0
    41015b98:	044e0e13          	addi	x28,x28,68 # 41015bd8 <excp_return_label_61>
    41015b9c:	03c23823          	sd	x28,48(x4) # 30 <SECURE_ACCESS_PROBABILITY+0x12>
    41015ba0:	00000e13          	li	x28,0
    41015ba4:	03c23c23          	sd	x28,56(x4) # 38 <SECURE_ACCESS_PROBABILITY+0x1a>
    41015ba8:	00000e13          	li	x28,0
    41015bac:	07c23023          	sd	x28,96(x4) # 60 <XLEN+0x20>
    41015bb0:	00000e13          	li	x28,0
    41015bb4:	07c23423          	sd	x28,104(x4) # 68 <XLEN+0x28>
    41015bb8:	00000e13          	li	x28,0
    41015bbc:	07c23823          	sd	x28,112(x4) # 70 <XLEN+0x30>

0000000041015bc0 <fault_label_61>:
    41015bc0:	c0e023f3          	csrr	x7,hpmcounter14
    41015bc4:	00038413          	mv	x8,x7
    41015bc8:	4164e3b7          	lui	x7,0x4164e
    41015bcc:	0083839b          	addiw	x7,x7,8 # 4164e008 <failed_addr>
    41015bd0:	0003b483          	ld	x9,0(x7)
    41015bd4:	00048067          	jr	x9

0000000041015bd8 <excp_return_label_61>:
    41015bd8:	0e7de237          	lui	x4,0xe7de
    41015bdc:	01600e13          	li	x28,22
    41015be0:	05c23823          	sd	x28,80(x4) # e7de050 <check_excp_expected_cause>
    41015be4:	00000e17          	auipc	x28,0x0
    41015be8:	048e0e13          	addi	x28,x28,72 # 41015c2c <fault_label_62>
    41015bec:	03c23023          	sd	x28,32(x4) # 20 <SECURE_ACCESS_PROBABILITY+0x2>
    41015bf0:	00000e13          	li	x28,0
    41015bf4:	05c23023          	sd	x28,64(x4) # 40 <XLEN>
    41015bf8:	00000e13          	li	x28,0
    41015bfc:	05c23423          	sd	x28,72(x4) # 48 <XLEN+0x8>
    41015c00:	00000e17          	auipc	x28,0x0
    41015c04:	044e0e13          	addi	x28,x28,68 # 41015c44 <excp_return_label_62>
    41015c08:	03c23823          	sd	x28,48(x4) # 30 <SECURE_ACCESS_PROBABILITY+0x12>
    41015c0c:	00000e13          	li	x28,0
    41015c10:	03c23c23          	sd	x28,56(x4) # 38 <SECURE_ACCESS_PROBABILITY+0x1a>
    41015c14:	00000e13          	li	x28,0
    41015c18:	07c23023          	sd	x28,96(x4) # 60 <XLEN+0x20>
    41015c1c:	00000e13          	li	x28,0
    41015c20:	07c23423          	sd	x28,104(x4) # 68 <XLEN+0x28>
    41015c24:	00000e13          	li	x28,0
    41015c28:	07c23823          	sd	x28,112(x4) # 70 <XLEN+0x30>

0000000041015c2c <fault_label_62>:
    41015c2c:	c0f023f3          	csrr	x7,hpmcounter15
    41015c30:	00038893          	mv	x17,x7
    41015c34:	4164e637          	lui	x12,0x4164e
    41015c38:	0086061b          	addiw	x12,x12,8 # 4164e008 <failed_addr>
    41015c3c:	00063d83          	ld	x27,0(x12)
    41015c40:	000d8067          	jr	x27

0000000041015c44 <excp_return_label_62>:
    41015c44:	0e7de237          	lui	x4,0xe7de
    41015c48:	01600e13          	li	x28,22
    41015c4c:	05c23823          	sd	x28,80(x4) # e7de050 <check_excp_expected_cause>
    41015c50:	00000e17          	auipc	x28,0x0
    41015c54:	048e0e13          	addi	x28,x28,72 # 41015c98 <fault_label_63>
    41015c58:	03c23023          	sd	x28,32(x4) # 20 <SECURE_ACCESS_PROBABILITY+0x2>
    41015c5c:	00000e13          	li	x28,0
    41015c60:	05c23023          	sd	x28,64(x4) # 40 <XLEN>
    41015c64:	00000e13          	li	x28,0
    41015c68:	05c23423          	sd	x28,72(x4) # 48 <XLEN+0x8>
    41015c6c:	00000e17          	auipc	x28,0x0
    41015c70:	044e0e13          	addi	x28,x28,68 # 41015cb0 <excp_return_label_63>
    41015c74:	03c23823          	sd	x28,48(x4) # 30 <SECURE_ACCESS_PROBABILITY+0x12>
    41015c78:	00000e13          	li	x28,0
    41015c7c:	03c23c23          	sd	x28,56(x4) # 38 <SECURE_ACCESS_PROBABILITY+0x1a>
    41015c80:	00000e13          	li	x28,0
    41015c84:	07c23023          	sd	x28,96(x4) # 60 <XLEN+0x20>
    41015c88:	00000e13          	li	x28,0
    41015c8c:	07c23423          	sd	x28,104(x4) # 68 <XLEN+0x28>
    41015c90:	00000e13          	li	x28,0
    41015c94:	07c23823          	sd	x28,112(x4) # 70 <XLEN+0x30>

0000000041015c98 <fault_label_63>:
    41015c98:	c10023f3          	csrr	x7,hpmcounter16
    41015c9c:	00038f93          	mv	x31,x7
    41015ca0:	4164e337          	lui	x6,0x4164e
    41015ca4:	0083031b          	addiw	x6,x6,8 # 4164e008 <failed_addr>
    41015ca8:	00033503          	ld	x10,0(x6)
    41015cac:	00050067          	jr	x10

0000000041015cb0 <excp_return_label_63>:
    41015cb0:	0e7de237          	lui	x4,0xe7de
    41015cb4:	01600e13          	li	x28,22
    41015cb8:	05c23823          	sd	x28,80(x4) # e7de050 <check_excp_expected_cause>
    41015cbc:	00000e17          	auipc	x28,0x0
    41015cc0:	048e0e13          	addi	x28,x28,72 # 41015d04 <fault_label_64>
    41015cc4:	03c23023          	sd	x28,32(x4) # 20 <SECURE_ACCESS_PROBABILITY+0x2>
    41015cc8:	00000e13          	li	x28,0
    41015ccc:	05c23023          	sd	x28,64(x4) # 40 <XLEN>
    41015cd0:	00000e13          	li	x28,0
    41015cd4:	05c23423          	sd	x28,72(x4) # 48 <XLEN+0x8>
    41015cd8:	00000e17          	auipc	x28,0x0
    41015cdc:	044e0e13          	addi	x28,x28,68 # 41015d1c <excp_return_label_64>
    41015ce0:	03c23823          	sd	x28,48(x4) # 30 <SECURE_ACCESS_PROBABILITY+0x12>
    41015ce4:	00000e13          	li	x28,0
    41015ce8:	03c23c23          	sd	x28,56(x4) # 38 <SECURE_ACCESS_PROBABILITY+0x1a>
    41015cec:	00000e13          	li	x28,0
    41015cf0:	07c23023          	sd	x28,96(x4) # 60 <XLEN+0x20>
    41015cf4:	00000e13          	li	x28,0
    41015cf8:	07c23423          	sd	x28,104(x4) # 68 <XLEN+0x28>
    41015cfc:	00000e13          	li	x28,0
    41015d00:	07c23823          	sd	x28,112(x4) # 70 <XLEN+0x30>

0000000041015d04 <fault_label_64>:
    41015d04:	c11023f3          	csrr	x7,hpmcounter17
    41015d08:	00038d13          	mv	x26,x7
    41015d0c:	4164e637          	lui	x12,0x4164e
    41015d10:	0086061b          	addiw	x12,x12,8 # 4164e008 <failed_addr>
    41015d14:	00063683          	ld	x13,0(x12)
    41015d18:	00068067          	jr	x13

0000000041015d1c <excp_return_label_64>:
    41015d1c:	0e7de237          	lui	x4,0xe7de
    41015d20:	01600e13          	li	x28,22
    41015d24:	05c23823          	sd	x28,80(x4) # e7de050 <check_excp_expected_cause>
    41015d28:	00000e17          	auipc	x28,0x0
    41015d2c:	048e0e13          	addi	x28,x28,72 # 41015d70 <fault_label_65>
    41015d30:	03c23023          	sd	x28,32(x4) # 20 <SECURE_ACCESS_PROBABILITY+0x2>
    41015d34:	00000e13          	li	x28,0
    41015d38:	05c23023          	sd	x28,64(x4) # 40 <XLEN>
    41015d3c:	00000e13          	li	x28,0
    41015d40:	05c23423          	sd	x28,72(x4) # 48 <XLEN+0x8>
    41015d44:	00000e17          	auipc	x28,0x0
    41015d48:	044e0e13          	addi	x28,x28,68 # 41015d88 <excp_return_label_65>
    41015d4c:	03c23823          	sd	x28,48(x4) # 30 <SECURE_ACCESS_PROBABILITY+0x12>
    41015d50:	00000e13          	li	x28,0
    41015d54:	03c23c23          	sd	x28,56(x4) # 38 <SECURE_ACCESS_PROBABILITY+0x1a>
    41015d58:	00000e13          	li	x28,0
    41015d5c:	07c23023          	sd	x28,96(x4) # 60 <XLEN+0x20>
    41015d60:	00000e13          	li	x28,0
    41015d64:	07c23423          	sd	x28,104(x4) # 68 <XLEN+0x28>
    41015d68:	00000e13          	li	x28,0
    41015d6c:	07c23823          	sd	x28,112(x4) # 70 <XLEN+0x30>

0000000041015d70 <fault_label_65>:
    41015d70:	c12023f3          	csrr	x7,hpmcounter18
    41015d74:	00038313          	mv	x6,x7
    41015d78:	4164e837          	lui	x16,0x4164e
    41015d7c:	0088081b          	addiw	x16,x16,8 # 4164e008 <failed_addr>
    41015d80:	00083683          	ld	x13,0(x16)
    41015d84:	00068067          	jr	x13

0000000041015d88 <excp_return_label_65>:
    41015d88:	0e7de237          	lui	x4,0xe7de
    41015d8c:	01600e13          	li	x28,22
    41015d90:	05c23823          	sd	x28,80(x4) # e7de050 <check_excp_expected_cause>
    41015d94:	00000e17          	auipc	x28,0x0
    41015d98:	048e0e13          	addi	x28,x28,72 # 41015ddc <fault_label_66>
    41015d9c:	03c23023          	sd	x28,32(x4) # 20 <SECURE_ACCESS_PROBABILITY+0x2>
    41015da0:	00000e13          	li	x28,0
    41015da4:	05c23023          	sd	x28,64(x4) # 40 <XLEN>
    41015da8:	00000e13          	li	x28,0
    41015dac:	05c23423          	sd	x28,72(x4) # 48 <XLEN+0x8>
    41015db0:	00000e17          	auipc	x28,0x0
    41015db4:	044e0e13          	addi	x28,x28,68 # 41015df4 <excp_return_label_66>
    41015db8:	03c23823          	sd	x28,48(x4) # 30 <SECURE_ACCESS_PROBABILITY+0x12>
    41015dbc:	00000e13          	li	x28,0
    41015dc0:	03c23c23          	sd	x28,56(x4) # 38 <SECURE_ACCESS_PROBABILITY+0x1a>
    41015dc4:	00000e13          	li	x28,0
    41015dc8:	07c23023          	sd	x28,96(x4) # 60 <XLEN+0x20>
    41015dcc:	00000e13          	li	x28,0
    41015dd0:	07c23423          	sd	x28,104(x4) # 68 <XLEN+0x28>
    41015dd4:	00000e13          	li	x28,0
    41015dd8:	07c23823          	sd	x28,112(x4) # 70 <XLEN+0x30>

0000000041015ddc <fault_label_66>:
    41015ddc:	c13023f3          	csrr	x7,hpmcounter19
    41015de0:	00038d93          	mv	x27,x7
    41015de4:	4164ebb7          	lui	x23,0x4164e
    41015de8:	008b8b9b          	addiw	x23,x23,8 # 4164e008 <failed_addr>
    41015dec:	000bb803          	ld	x16,0(x23)
    41015df0:	00080067          	jr	x16

0000000041015df4 <excp_return_label_66>:
    41015df4:	0e7de237          	lui	x4,0xe7de
    41015df8:	01600e13          	li	x28,22
    41015dfc:	05c23823          	sd	x28,80(x4) # e7de050 <check_excp_expected_cause>
    41015e00:	00000e17          	auipc	x28,0x0
    41015e04:	048e0e13          	addi	x28,x28,72 # 41015e48 <fault_label_67>
    41015e08:	03c23023          	sd	x28,32(x4) # 20 <SECURE_ACCESS_PROBABILITY+0x2>
    41015e0c:	00000e13          	li	x28,0
    41015e10:	05c23023          	sd	x28,64(x4) # 40 <XLEN>
    41015e14:	00000e13          	li	x28,0
    41015e18:	05c23423          	sd	x28,72(x4) # 48 <XLEN+0x8>
    41015e1c:	00000e17          	auipc	x28,0x0
    41015e20:	044e0e13          	addi	x28,x28,68 # 41015e60 <excp_return_label_67>
    41015e24:	03c23823          	sd	x28,48(x4) # 30 <SECURE_ACCESS_PROBABILITY+0x12>
    41015e28:	00000e13          	li	x28,0
    41015e2c:	03c23c23          	sd	x28,56(x4) # 38 <SECURE_ACCESS_PROBABILITY+0x1a>
    41015e30:	00000e13          	li	x28,0
    41015e34:	07c23023          	sd	x28,96(x4) # 60 <XLEN+0x20>
    41015e38:	00000e13          	li	x28,0
    41015e3c:	07c23423          	sd	x28,104(x4) # 68 <XLEN+0x28>
    41015e40:	00000e13          	li	x28,0
    41015e44:	07c23823          	sd	x28,112(x4) # 70 <XLEN+0x30>

0000000041015e48 <fault_label_67>:
    41015e48:	c14023f3          	csrr	x7,hpmcounter20
    41015e4c:	00038a93          	mv	x21,x7
    41015e50:	4164ea37          	lui	x20,0x4164e
    41015e54:	008a0a1b          	addiw	x20,x20,8 # 4164e008 <failed_addr>
    41015e58:	000a3c03          	ld	x24,0(x20)
    41015e5c:	000c0067          	jr	x24

0000000041015e60 <excp_return_label_67>:
    41015e60:	0e7de237          	lui	x4,0xe7de
    41015e64:	01600e13          	li	x28,22
    41015e68:	05c23823          	sd	x28,80(x4) # e7de050 <check_excp_expected_cause>
    41015e6c:	00000e17          	auipc	x28,0x0
    41015e70:	048e0e13          	addi	x28,x28,72 # 41015eb4 <fault_label_68>
    41015e74:	03c23023          	sd	x28,32(x4) # 20 <SECURE_ACCESS_PROBABILITY+0x2>
    41015e78:	00000e13          	li	x28,0
    41015e7c:	05c23023          	sd	x28,64(x4) # 40 <XLEN>
    41015e80:	00000e13          	li	x28,0
    41015e84:	05c23423          	sd	x28,72(x4) # 48 <XLEN+0x8>
    41015e88:	00000e17          	auipc	x28,0x0
    41015e8c:	044e0e13          	addi	x28,x28,68 # 41015ecc <excp_return_label_68>
    41015e90:	03c23823          	sd	x28,48(x4) # 30 <SECURE_ACCESS_PROBABILITY+0x12>
    41015e94:	00000e13          	li	x28,0
    41015e98:	03c23c23          	sd	x28,56(x4) # 38 <SECURE_ACCESS_PROBABILITY+0x1a>
    41015e9c:	00000e13          	li	x28,0
    41015ea0:	07c23023          	sd	x28,96(x4) # 60 <XLEN+0x20>
    41015ea4:	00000e13          	li	x28,0
    41015ea8:	07c23423          	sd	x28,104(x4) # 68 <XLEN+0x28>
    41015eac:	00000e13          	li	x28,0
    41015eb0:	07c23823          	sd	x28,112(x4) # 70 <XLEN+0x30>

0000000041015eb4 <fault_label_68>:
    41015eb4:	c15023f3          	csrr	x7,hpmcounter21
    41015eb8:	00038c93          	mv	x25,x7
    41015ebc:	4164e9b7          	lui	x19,0x4164e
    41015ec0:	0089899b          	addiw	x19,x19,8 # 4164e008 <failed_addr>
    41015ec4:	0009b583          	ld	x11,0(x19)
    41015ec8:	00058067          	jr	x11

0000000041015ecc <excp_return_label_68>:
    41015ecc:	0e7de237          	lui	x4,0xe7de
    41015ed0:	01600e13          	li	x28,22
    41015ed4:	05c23823          	sd	x28,80(x4) # e7de050 <check_excp_expected_cause>
    41015ed8:	00000e17          	auipc	x28,0x0
    41015edc:	048e0e13          	addi	x28,x28,72 # 41015f20 <fault_label_69>
    41015ee0:	03c23023          	sd	x28,32(x4) # 20 <SECURE_ACCESS_PROBABILITY+0x2>
    41015ee4:	00000e13          	li	x28,0
    41015ee8:	05c23023          	sd	x28,64(x4) # 40 <XLEN>
    41015eec:	00000e13          	li	x28,0
    41015ef0:	05c23423          	sd	x28,72(x4) # 48 <XLEN+0x8>
    41015ef4:	00000e17          	auipc	x28,0x0
    41015ef8:	044e0e13          	addi	x28,x28,68 # 41015f38 <excp_return_label_69>
    41015efc:	03c23823          	sd	x28,48(x4) # 30 <SECURE_ACCESS_PROBABILITY+0x12>
    41015f00:	00000e13          	li	x28,0
    41015f04:	03c23c23          	sd	x28,56(x4) # 38 <SECURE_ACCESS_PROBABILITY+0x1a>
    41015f08:	00000e13          	li	x28,0
    41015f0c:	07c23023          	sd	x28,96(x4) # 60 <XLEN+0x20>
    41015f10:	00000e13          	li	x28,0
    41015f14:	07c23423          	sd	x28,104(x4) # 68 <XLEN+0x28>
    41015f18:	00000e13          	li	x28,0
    41015f1c:	07c23823          	sd	x28,112(x4) # 70 <XLEN+0x30>

0000000041015f20 <fault_label_69>:
    41015f20:	c16023f3          	csrr	x7,hpmcounter22
    41015f24:	00038b13          	mv	x22,x7
    41015f28:	4164e6b7          	lui	x13,0x4164e
    41015f2c:	0086869b          	addiw	x13,x13,8 # 4164e008 <failed_addr>
    41015f30:	0006bc83          	ld	x25,0(x13)
    41015f34:	000c8067          	jr	x25

0000000041015f38 <excp_return_label_69>:
    41015f38:	0e7de237          	lui	x4,0xe7de
    41015f3c:	01600e13          	li	x28,22
    41015f40:	05c23823          	sd	x28,80(x4) # e7de050 <check_excp_expected_cause>
    41015f44:	00000e17          	auipc	x28,0x0
    41015f48:	048e0e13          	addi	x28,x28,72 # 41015f8c <fault_label_70>
    41015f4c:	03c23023          	sd	x28,32(x4) # 20 <SECURE_ACCESS_PROBABILITY+0x2>
    41015f50:	00000e13          	li	x28,0
    41015f54:	05c23023          	sd	x28,64(x4) # 40 <XLEN>
    41015f58:	00000e13          	li	x28,0
    41015f5c:	05c23423          	sd	x28,72(x4) # 48 <XLEN+0x8>
    41015f60:	00000e17          	auipc	x28,0x0
    41015f64:	044e0e13          	addi	x28,x28,68 # 41015fa4 <excp_return_label_70>
    41015f68:	03c23823          	sd	x28,48(x4) # 30 <SECURE_ACCESS_PROBABILITY+0x12>
    41015f6c:	00000e13          	li	x28,0
    41015f70:	03c23c23          	sd	x28,56(x4) # 38 <SECURE_ACCESS_PROBABILITY+0x1a>
    41015f74:	00000e13          	li	x28,0
    41015f78:	07c23023          	sd	x28,96(x4) # 60 <XLEN+0x20>
    41015f7c:	00000e13          	li	x28,0
    41015f80:	07c23423          	sd	x28,104(x4) # 68 <XLEN+0x28>
    41015f84:	00000e13          	li	x28,0
    41015f88:	07c23823          	sd	x28,112(x4) # 70 <XLEN+0x30>

0000000041015f8c <fault_label_70>:
    41015f8c:	c17023f3          	csrr	x7,hpmcounter23
    41015f90:	00038493          	mv	x9,x7
    41015f94:	4164eab7          	lui	x21,0x4164e
    41015f98:	008a8a9b          	addiw	x21,x21,8 # 4164e008 <failed_addr>
    41015f9c:	000abc83          	ld	x25,0(x21)
    41015fa0:	000c8067          	jr	x25

0000000041015fa4 <excp_return_label_70>:
    41015fa4:	0e7de237          	lui	x4,0xe7de
    41015fa8:	01600e13          	li	x28,22
    41015fac:	05c23823          	sd	x28,80(x4) # e7de050 <check_excp_expected_cause>
    41015fb0:	00000e17          	auipc	x28,0x0
    41015fb4:	048e0e13          	addi	x28,x28,72 # 41015ff8 <fault_label_71>
    41015fb8:	03c23023          	sd	x28,32(x4) # 20 <SECURE_ACCESS_PROBABILITY+0x2>
    41015fbc:	00000e13          	li	x28,0
    41015fc0:	05c23023          	sd	x28,64(x4) # 40 <XLEN>
    41015fc4:	00000e13          	li	x28,0
    41015fc8:	05c23423          	sd	x28,72(x4) # 48 <XLEN+0x8>
    41015fcc:	00000e17          	auipc	x28,0x0
    41015fd0:	044e0e13          	addi	x28,x28,68 # 41016010 <excp_return_label_71>
    41015fd4:	03c23823          	sd	x28,48(x4) # 30 <SECURE_ACCESS_PROBABILITY+0x12>
    41015fd8:	00000e13          	li	x28,0
    41015fdc:	03c23c23          	sd	x28,56(x4) # 38 <SECURE_ACCESS_PROBABILITY+0x1a>
    41015fe0:	00000e13          	li	x28,0
    41015fe4:	07c23023          	sd	x28,96(x4) # 60 <XLEN+0x20>
    41015fe8:	00000e13          	li	x28,0
    41015fec:	07c23423          	sd	x28,104(x4) # 68 <XLEN+0x28>
    41015ff0:	00000e13          	li	x28,0
    41015ff4:	07c23823          	sd	x28,112(x4) # 70 <XLEN+0x30>

0000000041015ff8 <fault_label_71>:
    41015ff8:	c18023f3          	csrr	x7,hpmcounter24
    41015ffc:	00038793          	mv	x15,x7
    41016000:	4164efb7          	lui	x31,0x4164e
    41016004:	008f8f9b          	addiw	x31,x31,8 # 4164e008 <failed_addr>
    41016008:	000fb503          	ld	x10,0(x31)
    4101600c:	00050067          	jr	x10

0000000041016010 <excp_return_label_71>:
    41016010:	0e7de237          	lui	x4,0xe7de
    41016014:	01600e13          	li	x28,22
    41016018:	05c23823          	sd	x28,80(x4) # e7de050 <check_excp_expected_cause>
    4101601c:	00000e17          	auipc	x28,0x0
    41016020:	048e0e13          	addi	x28,x28,72 # 41016064 <fault_label_72>
    41016024:	03c23023          	sd	x28,32(x4) # 20 <SECURE_ACCESS_PROBABILITY+0x2>
    41016028:	00000e13          	li	x28,0
    4101602c:	05c23023          	sd	x28,64(x4) # 40 <XLEN>
    41016030:	00000e13          	li	x28,0
    41016034:	05c23423          	sd	x28,72(x4) # 48 <XLEN+0x8>
    41016038:	00000e17          	auipc	x28,0x0
    4101603c:	044e0e13          	addi	x28,x28,68 # 4101607c <excp_return_label_72>
    41016040:	03c23823          	sd	x28,48(x4) # 30 <SECURE_ACCESS_PROBABILITY+0x12>
    41016044:	00000e13          	li	x28,0
    41016048:	03c23c23          	sd	x28,56(x4) # 38 <SECURE_ACCESS_PROBABILITY+0x1a>
    4101604c:	00000e13          	li	x28,0
    41016050:	07c23023          	sd	x28,96(x4) # 60 <XLEN+0x20>
    41016054:	00000e13          	li	x28,0
    41016058:	07c23423          	sd	x28,104(x4) # 68 <XLEN+0x28>
    4101605c:	00000e13          	li	x28,0
    41016060:	07c23823          	sd	x28,112(x4) # 70 <XLEN+0x30>

0000000041016064 <fault_label_72>:
    41016064:	c19023f3          	csrr	x7,hpmcounter25
    41016068:	00038793          	mv	x15,x7
    4101606c:	4164ec37          	lui	x24,0x4164e
    41016070:	008c0c1b          	addiw	x24,x24,8 # 4164e008 <failed_addr>
    41016074:	000c3e03          	ld	x28,0(x24)
    41016078:	000e0067          	jr	x28

000000004101607c <excp_return_label_72>:
    4101607c:	0e7de237          	lui	x4,0xe7de
    41016080:	01600e13          	li	x28,22
    41016084:	05c23823          	sd	x28,80(x4) # e7de050 <check_excp_expected_cause>
    41016088:	00000e17          	auipc	x28,0x0
    4101608c:	048e0e13          	addi	x28,x28,72 # 410160d0 <fault_label_73>
    41016090:	03c23023          	sd	x28,32(x4) # 20 <SECURE_ACCESS_PROBABILITY+0x2>
    41016094:	00000e13          	li	x28,0
    41016098:	05c23023          	sd	x28,64(x4) # 40 <XLEN>
    4101609c:	00000e13          	li	x28,0
    410160a0:	05c23423          	sd	x28,72(x4) # 48 <XLEN+0x8>
    410160a4:	00000e17          	auipc	x28,0x0
    410160a8:	044e0e13          	addi	x28,x28,68 # 410160e8 <excp_return_label_73>
    410160ac:	03c23823          	sd	x28,48(x4) # 30 <SECURE_ACCESS_PROBABILITY+0x12>
    410160b0:	00000e13          	li	x28,0
    410160b4:	03c23c23          	sd	x28,56(x4) # 38 <SECURE_ACCESS_PROBABILITY+0x1a>
    410160b8:	00000e13          	li	x28,0
    410160bc:	07c23023          	sd	x28,96(x4) # 60 <XLEN+0x20>
    410160c0:	00000e13          	li	x28,0
    410160c4:	07c23423          	sd	x28,104(x4) # 68 <XLEN+0x28>
    410160c8:	00000e13          	li	x28,0
    410160cc:	07c23823          	sd	x28,112(x4) # 70 <XLEN+0x30>

00000000410160d0 <fault_label_73>:
    410160d0:	c1a023f3          	csrr	x7,hpmcounter26
    410160d4:	00038313          	mv	x6,x7
    410160d8:	4164ef37          	lui	x30,0x4164e
    410160dc:	008f0f1b          	addiw	x30,x30,8 # 4164e008 <failed_addr>
    410160e0:	000f3f83          	ld	x31,0(x30)
    410160e4:	000f8067          	jr	x31

00000000410160e8 <excp_return_label_73>:
    410160e8:	0e7de237          	lui	x4,0xe7de
    410160ec:	01600e13          	li	x28,22
    410160f0:	05c23823          	sd	x28,80(x4) # e7de050 <check_excp_expected_cause>
    410160f4:	00000e17          	auipc	x28,0x0
    410160f8:	048e0e13          	addi	x28,x28,72 # 4101613c <fault_label_74>
    410160fc:	03c23023          	sd	x28,32(x4) # 20 <SECURE_ACCESS_PROBABILITY+0x2>
    41016100:	00000e13          	li	x28,0
    41016104:	05c23023          	sd	x28,64(x4) # 40 <XLEN>
    41016108:	00000e13          	li	x28,0
    4101610c:	05c23423          	sd	x28,72(x4) # 48 <XLEN+0x8>
    41016110:	00000e17          	auipc	x28,0x0
    41016114:	044e0e13          	addi	x28,x28,68 # 41016154 <excp_return_label_74>
    41016118:	03c23823          	sd	x28,48(x4) # 30 <SECURE_ACCESS_PROBABILITY+0x12>
    4101611c:	00000e13          	li	x28,0
    41016120:	03c23c23          	sd	x28,56(x4) # 38 <SECURE_ACCESS_PROBABILITY+0x1a>
    41016124:	00000e13          	li	x28,0
    41016128:	07c23023          	sd	x28,96(x4) # 60 <XLEN+0x20>
    4101612c:	00000e13          	li	x28,0
    41016130:	07c23423          	sd	x28,104(x4) # 68 <XLEN+0x28>
    41016134:	00000e13          	li	x28,0
    41016138:	07c23823          	sd	x28,112(x4) # 70 <XLEN+0x30>

000000004101613c <fault_label_74>:
    4101613c:	c1b023f3          	csrr	x7,hpmcounter27
    41016140:	00038d93          	mv	x27,x7
    41016144:	4164ec37          	lui	x24,0x4164e
    41016148:	008c0c1b          	addiw	x24,x24,8 # 4164e008 <failed_addr>
    4101614c:	000c3c03          	ld	x24,0(x24)
    41016150:	000c0067          	jr	x24

0000000041016154 <excp_return_label_74>:
    41016154:	0e7de237          	lui	x4,0xe7de
    41016158:	01600e13          	li	x28,22
    4101615c:	05c23823          	sd	x28,80(x4) # e7de050 <check_excp_expected_cause>
    41016160:	00000e17          	auipc	x28,0x0
    41016164:	048e0e13          	addi	x28,x28,72 # 410161a8 <fault_label_75>
    41016168:	03c23023          	sd	x28,32(x4) # 20 <SECURE_ACCESS_PROBABILITY+0x2>
    4101616c:	00000e13          	li	x28,0
    41016170:	05c23023          	sd	x28,64(x4) # 40 <XLEN>
    41016174:	00000e13          	li	x28,0
    41016178:	05c23423          	sd	x28,72(x4) # 48 <XLEN+0x8>
    4101617c:	00000e17          	auipc	x28,0x0
    41016180:	044e0e13          	addi	x28,x28,68 # 410161c0 <excp_return_label_75>
    41016184:	03c23823          	sd	x28,48(x4) # 30 <SECURE_ACCESS_PROBABILITY+0x12>
    41016188:	00000e13          	li	x28,0
    4101618c:	03c23c23          	sd	x28,56(x4) # 38 <SECURE_ACCESS_PROBABILITY+0x1a>
    41016190:	00000e13          	li	x28,0
    41016194:	07c23023          	sd	x28,96(x4) # 60 <XLEN+0x20>
    41016198:	00000e13          	li	x28,0
    4101619c:	07c23423          	sd	x28,104(x4) # 68 <XLEN+0x28>
    410161a0:	00000e13          	li	x28,0
    410161a4:	07c23823          	sd	x28,112(x4) # 70 <XLEN+0x30>

00000000410161a8 <fault_label_75>:
    410161a8:	c1c023f3          	csrr	x7,hpmcounter28
    410161ac:	00038393          	mv	x7,x7
    410161b0:	4164ee37          	lui	x28,0x4164e
    410161b4:	008e0e1b          	addiw	x28,x28,8 # 4164e008 <failed_addr>
    410161b8:	000e3d83          	ld	x27,0(x28)
    410161bc:	000d8067          	jr	x27

00000000410161c0 <excp_return_label_75>:
    410161c0:	0e7de237          	lui	x4,0xe7de
    410161c4:	01600e13          	li	x28,22
    410161c8:	05c23823          	sd	x28,80(x4) # e7de050 <check_excp_expected_cause>
    410161cc:	00000e17          	auipc	x28,0x0
    410161d0:	048e0e13          	addi	x28,x28,72 # 41016214 <fault_label_76>
    410161d4:	03c23023          	sd	x28,32(x4) # 20 <SECURE_ACCESS_PROBABILITY+0x2>
    410161d8:	00000e13          	li	x28,0
    410161dc:	05c23023          	sd	x28,64(x4) # 40 <XLEN>
    410161e0:	00000e13          	li	x28,0
    410161e4:	05c23423          	sd	x28,72(x4) # 48 <XLEN+0x8>
    410161e8:	00000e17          	auipc	x28,0x0
    410161ec:	044e0e13          	addi	x28,x28,68 # 4101622c <excp_return_label_76>
    410161f0:	03c23823          	sd	x28,48(x4) # 30 <SECURE_ACCESS_PROBABILITY+0x12>
    410161f4:	00000e13          	li	x28,0
    410161f8:	03c23c23          	sd	x28,56(x4) # 38 <SECURE_ACCESS_PROBABILITY+0x1a>
    410161fc:	00000e13          	li	x28,0
    41016200:	07c23023          	sd	x28,96(x4) # 60 <XLEN+0x20>
    41016204:	00000e13          	li	x28,0
    41016208:	07c23423          	sd	x28,104(x4) # 68 <XLEN+0x28>
    4101620c:	00000e13          	li	x28,0
    41016210:	07c23823          	sd	x28,112(x4) # 70 <XLEN+0x30>

0000000041016214 <fault_label_76>:
    41016214:	c1d023f3          	csrr	x7,hpmcounter29
    41016218:	00038593          	mv	x11,x7
    4101621c:	4164e837          	lui	x16,0x4164e
    41016220:	0088081b          	addiw	x16,x16,8 # 4164e008 <failed_addr>
    41016224:	00083e03          	ld	x28,0(x16)
    41016228:	000e0067          	jr	x28

000000004101622c <excp_return_label_76>:
    4101622c:	0e7de237          	lui	x4,0xe7de
    41016230:	01600e13          	li	x28,22
    41016234:	05c23823          	sd	x28,80(x4) # e7de050 <check_excp_expected_cause>
    41016238:	00000e17          	auipc	x28,0x0
    4101623c:	048e0e13          	addi	x28,x28,72 # 41016280 <fault_label_77>
    41016240:	03c23023          	sd	x28,32(x4) # 20 <SECURE_ACCESS_PROBABILITY+0x2>
    41016244:	00000e13          	li	x28,0
    41016248:	05c23023          	sd	x28,64(x4) # 40 <XLEN>
    4101624c:	00000e13          	li	x28,0
    41016250:	05c23423          	sd	x28,72(x4) # 48 <XLEN+0x8>
    41016254:	00000e17          	auipc	x28,0x0
    41016258:	044e0e13          	addi	x28,x28,68 # 41016298 <excp_return_label_77>
    4101625c:	03c23823          	sd	x28,48(x4) # 30 <SECURE_ACCESS_PROBABILITY+0x12>
    41016260:	00000e13          	li	x28,0
    41016264:	03c23c23          	sd	x28,56(x4) # 38 <SECURE_ACCESS_PROBABILITY+0x1a>
    41016268:	00000e13          	li	x28,0
    4101626c:	07c23023          	sd	x28,96(x4) # 60 <XLEN+0x20>
    41016270:	00000e13          	li	x28,0
    41016274:	07c23423          	sd	x28,104(x4) # 68 <XLEN+0x28>
    41016278:	00000e13          	li	x28,0
    4101627c:	07c23823          	sd	x28,112(x4) # 70 <XLEN+0x30>

0000000041016280 <fault_label_77>:
    41016280:	c1e023f3          	csrr	x7,hpmcounter30
    41016284:	00038a93          	mv	x21,x7
    41016288:	4164ea37          	lui	x20,0x4164e
    4101628c:	008a0a1b          	addiw	x20,x20,8 # 4164e008 <failed_addr>
    41016290:	000a3f03          	ld	x30,0(x20)
    41016294:	000f0067          	jr	x30

0000000041016298 <excp_return_label_77>:
    41016298:	0e7de237          	lui	x4,0xe7de
    4101629c:	01600e13          	li	x28,22
    410162a0:	05c23823          	sd	x28,80(x4) # e7de050 <check_excp_expected_cause>
    410162a4:	00000e17          	auipc	x28,0x0
    410162a8:	048e0e13          	addi	x28,x28,72 # 410162ec <fault_label_78>
    410162ac:	03c23023          	sd	x28,32(x4) # 20 <SECURE_ACCESS_PROBABILITY+0x2>
    410162b0:	00000e13          	li	x28,0
    410162b4:	05c23023          	sd	x28,64(x4) # 40 <XLEN>
    410162b8:	00000e13          	li	x28,0
    410162bc:	05c23423          	sd	x28,72(x4) # 48 <XLEN+0x8>
    410162c0:	00000e17          	auipc	x28,0x0
    410162c4:	044e0e13          	addi	x28,x28,68 # 41016304 <excp_return_label_78>
    410162c8:	03c23823          	sd	x28,48(x4) # 30 <SECURE_ACCESS_PROBABILITY+0x12>
    410162cc:	00000e13          	li	x28,0
    410162d0:	03c23c23          	sd	x28,56(x4) # 38 <SECURE_ACCESS_PROBABILITY+0x1a>
    410162d4:	00000e13          	li	x28,0
    410162d8:	07c23023          	sd	x28,96(x4) # 60 <XLEN+0x20>
    410162dc:	00000e13          	li	x28,0
    410162e0:	07c23423          	sd	x28,104(x4) # 68 <XLEN+0x28>
    410162e4:	00000e13          	li	x28,0
    410162e8:	07c23823          	sd	x28,112(x4) # 70 <XLEN+0x30>

00000000410162ec <fault_label_78>:
    410162ec:	c1f023f3          	csrr	x7,hpmcounter31
    410162f0:	00038f13          	mv	x30,x7
    410162f4:	4164e937          	lui	x18,0x4164e
    410162f8:	0089091b          	addiw	x18,x18,8 # 4164e008 <failed_addr>
    410162fc:	00093d03          	ld	x26,0(x18)
    41016300:	000d0067          	jr	x26

0000000041016304 <excp_return_label_78>:
    41016304:	00170137          	lui	x2,0x170
    41016308:	00013383          	ld	x7,0(x2) # 170000 <tp_csr_storage>
    4101630c:	4164efb7          	lui	x31,0x4164e
    41016310:	0b8f8f9b          	addiw	x31,x31,184 # 4164e0b8 <super_csr_jump_table_flags>
    41016314:	02600f13          	li	x30,38
    41016318:	01efb023          	sd	x30,0(x31)
    4101631c:	000f0fb7          	lui	x31,0xf0
    41016320:	001f8f9b          	addiw	x31,x31,1 # f0001 <SID_HEXCEP_09_sfence_vma_vtvm1_vs_stack+0x5c001>
    41016324:	00cf9f93          	slli	x31,x31,0xc
    41016328:	006f8f93          	addi	x31,x31,6
    4101632c:	00000073          	ecall
    41016330:	00813383          	ld	x7,8(x2)
    41016334:	4164efb7          	lui	x31,0x4164e
    41016338:	0b0f8f9b          	addiw	x31,x31,176 # 4164e0b0 <machine_csr_jump_table_flags>
    4101633c:	02700f13          	li	x30,39
    41016340:	01efb023          	sd	x30,0(x31)
    41016344:	000f0fb7          	lui	x31,0xf0
    41016348:	001f8f9b          	addiw	x31,x31,1 # f0001 <SID_HEXCEP_09_sfence_vma_vtvm1_vs_stack+0x5c001>
    4101634c:	00cf9f93          	slli	x31,x31,0xc
    41016350:	005f8f93          	addi	x31,x31,5
    41016354:	00000073          	ecall

0000000041016358 <SID_HEXCEP_07_vs_mode_passed>:
    41016358:	00f00f9b          	addiw	x31,x0,15
    4101635c:	01cf9f93          	slli	x31,x31,0x1c
    41016360:	001f8f93          	addi	x31,x31,1
    41016364:	00000073          	ecall

0000000041016368 <SID_HEXCEP_08>:
    41016368:	00790137          	lui	x2,0x790
    4101636c:	b0f1011b          	addiw	x2,x2,-1265 # 78fb0f <SID_HEXCEP_09_hinval_gvma_vs_stack+0x529b0f>
    41016370:	00c11113          	slli	x2,x2,0xc
    41016374:	000012b7          	lui	x5,0x1
    41016378:	00510133          	add	x2,x2,x5
    4101637c:	ff017113          	andi	x2,x2,-16
    41016380:	0e7de237          	lui	x4,0xe7de
    41016384:	01600e13          	li	x28,22
    41016388:	05c23823          	sd	x28,80(x4) # e7de050 <check_excp_expected_cause>
    4101638c:	00000e17          	auipc	x28,0x0
    41016390:	04ce0e13          	addi	x28,x28,76 # 410163d8 <fault_label_79>
    41016394:	03c23023          	sd	x28,32(x4) # 20 <SECURE_ACCESS_PROBABILITY+0x2>
    41016398:	00000e13          	li	x28,0
    4101639c:	05c23023          	sd	x28,64(x4) # 40 <XLEN>
    410163a0:	00000e13          	li	x28,0
    410163a4:	05c23423          	sd	x28,72(x4) # 48 <XLEN+0x8>
    410163a8:	00000e17          	auipc	x28,0x0
    410163ac:	044e0e13          	addi	x28,x28,68 # 410163ec <excp_return_label_79>
    410163b0:	03c23823          	sd	x28,48(x4) # 30 <SECURE_ACCESS_PROBABILITY+0x12>
    410163b4:	00000e13          	li	x28,0
    410163b8:	03c23c23          	sd	x28,56(x4) # 38 <SECURE_ACCESS_PROBABILITY+0x1a>
    410163bc:	00000e13          	li	x28,0
    410163c0:	07c23023          	sd	x28,96(x4) # 60 <XLEN+0x20>
    410163c4:	00000e13          	li	x28,0
    410163c8:	07c23423          	sd	x28,104(x4) # 68 <XLEN+0x28>
    410163cc:	00000e13          	li	x28,0
    410163d0:	07c23823          	sd	x28,112(x4) # 70 <XLEN+0x30>
    410163d4:	28ef05b7          	lui	x11,0x28ef0

00000000410163d8 <fault_label_79>:
    410163d8:	6005c4f3          	hlv.b	x9,(x11)
    410163dc:	4164ec37          	lui	x24,0x4164e
    410163e0:	008c0c1b          	addiw	x24,x24,8 # 4164e008 <failed_addr>
    410163e4:	000c3583          	ld	x11,0(x24)
    410163e8:	00058067          	jr	x11 # 28ef0000 <mem0>

00000000410163ec <excp_return_label_79>:
    410163ec:	0e7de237          	lui	x4,0xe7de
    410163f0:	01600e13          	li	x28,22
    410163f4:	05c23823          	sd	x28,80(x4) # e7de050 <check_excp_expected_cause>
    410163f8:	00000e17          	auipc	x28,0x0
    410163fc:	04ce0e13          	addi	x28,x28,76 # 41016444 <fault_label_80>
    41016400:	03c23023          	sd	x28,32(x4) # 20 <SECURE_ACCESS_PROBABILITY+0x2>
    41016404:	00000e13          	li	x28,0
    41016408:	05c23023          	sd	x28,64(x4) # 40 <XLEN>
    4101640c:	00000e13          	li	x28,0
    41016410:	05c23423          	sd	x28,72(x4) # 48 <XLEN+0x8>
    41016414:	00000e17          	auipc	x28,0x0
    41016418:	044e0e13          	addi	x28,x28,68 # 41016458 <excp_return_label_80>
    4101641c:	03c23823          	sd	x28,48(x4) # 30 <SECURE_ACCESS_PROBABILITY+0x12>
    41016420:	00000e13          	li	x28,0
    41016424:	03c23c23          	sd	x28,56(x4) # 38 <SECURE_ACCESS_PROBABILITY+0x1a>
    41016428:	00000e13          	li	x28,0
    4101642c:	07c23023          	sd	x28,96(x4) # 60 <XLEN+0x20>
    41016430:	00000e13          	li	x28,0
    41016434:	07c23423          	sd	x28,104(x4) # 68 <XLEN+0x28>
    41016438:	00000e13          	li	x28,0
    4101643c:	07c23823          	sd	x28,112(x4) # 70 <XLEN+0x30>
    41016440:	28ef0437          	lui	x8,0x28ef0

0000000041016444 <fault_label_80>:
    41016444:	68344873          	hlvx.wu	x16,(x8)
    41016448:	4164e637          	lui	x12,0x4164e
    4101644c:	0086061b          	addiw	x12,x12,8 # 4164e008 <failed_addr>
    41016450:	00063683          	ld	x13,0(x12)
    41016454:	00068067          	jr	x13

0000000041016458 <excp_return_label_80>:
    41016458:	0ab00513          	li	x10,171
    4101645c:	0e7de237          	lui	x4,0xe7de
    41016460:	01600e13          	li	x28,22
    41016464:	05c23823          	sd	x28,80(x4) # e7de050 <check_excp_expected_cause>
    41016468:	00000e17          	auipc	x28,0x0
    4101646c:	04ce0e13          	addi	x28,x28,76 # 410164b4 <fault_label_81>
    41016470:	03c23023          	sd	x28,32(x4) # 20 <SECURE_ACCESS_PROBABILITY+0x2>
    41016474:	00000e13          	li	x28,0
    41016478:	05c23023          	sd	x28,64(x4) # 40 <XLEN>
    4101647c:	00000e13          	li	x28,0
    41016480:	05c23423          	sd	x28,72(x4) # 48 <XLEN+0x8>
    41016484:	00000e17          	auipc	x28,0x0
    41016488:	044e0e13          	addi	x28,x28,68 # 410164c8 <excp_return_label_81>
    4101648c:	03c23823          	sd	x28,48(x4) # 30 <SECURE_ACCESS_PROBABILITY+0x12>
    41016490:	00000e13          	li	x28,0
    41016494:	03c23c23          	sd	x28,56(x4) # 38 <SECURE_ACCESS_PROBABILITY+0x1a>
    41016498:	00000e13          	li	x28,0
    4101649c:	07c23023          	sd	x28,96(x4) # 60 <XLEN+0x20>
    410164a0:	00000e13          	li	x28,0
    410164a4:	07c23423          	sd	x28,104(x4) # 68 <XLEN+0x28>
    410164a8:	00000e13          	li	x28,0
    410164ac:	07c23823          	sd	x28,112(x4) # 70 <XLEN+0x30>
    410164b0:	28ef0937          	lui	x18,0x28ef0

00000000410164b4 <fault_label_81>:
    410164b4:	6aa94073          	hsv.w	x10,(x18)
    410164b8:	4164e537          	lui	x10,0x4164e
    410164bc:	0085051b          	addiw	x10,x10,8 # 4164e008 <failed_addr>
    410164c0:	00053a83          	ld	x21,0(x10)
    410164c4:	000a8067          	jr	x21

00000000410164c8 <excp_return_label_81>:
    410164c8:	0e7de237          	lui	x4,0xe7de
    410164cc:	01600e13          	li	x28,22
    410164d0:	05c23823          	sd	x28,80(x4) # e7de050 <check_excp_expected_cause>
    410164d4:	00000e17          	auipc	x28,0x0
    410164d8:	054e0e13          	addi	x28,x28,84 # 41016528 <fault_label_82>
    410164dc:	03c23023          	sd	x28,32(x4) # 20 <SECURE_ACCESS_PROBABILITY+0x2>
    410164e0:	00000e13          	li	x28,0
    410164e4:	05c23023          	sd	x28,64(x4) # 40 <XLEN>
    410164e8:	00000e13          	li	x28,0
    410164ec:	05c23423          	sd	x28,72(x4) # 48 <XLEN+0x8>
    410164f0:	00000e17          	auipc	x28,0x0
    410164f4:	04ce0e13          	addi	x28,x28,76 # 4101653c <excp_return_label_82>
    410164f8:	03c23823          	sd	x28,48(x4) # 30 <SECURE_ACCESS_PROBABILITY+0x12>
    410164fc:	00000e13          	li	x28,0
    41016500:	03c23c23          	sd	x28,56(x4) # 38 <SECURE_ACCESS_PROBABILITY+0x1a>
    41016504:	00000e13          	li	x28,0
    41016508:	07c23023          	sd	x28,96(x4) # 60 <XLEN+0x20>
    4101650c:	00000e13          	li	x28,0
    41016510:	07c23423          	sd	x28,104(x4) # 68 <XLEN+0x28>
    41016514:	00000e13          	li	x28,0
    41016518:	07c23823          	sd	x28,112(x4) # 70 <XLEN+0x30>
    4101651c:	28ef07b7          	lui	x15,0x28ef0
    41016520:	00000b13          	li	x22,0
    41016524:	01678333          	add	x6,x15,x22

0000000041016528 <fault_label_82>:
    41016528:	22030073          	hfence.vvma	x6
    4101652c:	4164e437          	lui	x8,0x4164e
    41016530:	0084041b          	addiw	x8,x8,8 # 4164e008 <failed_addr>
    41016534:	00043a83          	ld	x21,0(x8)
    41016538:	000a8067          	jr	x21

000000004101653c <excp_return_label_82>:
    4101653c:	0e7de237          	lui	x4,0xe7de
    41016540:	01600e13          	li	x28,22
    41016544:	05c23823          	sd	x28,80(x4) # e7de050 <check_excp_expected_cause>
    41016548:	00000e17          	auipc	x28,0x0
    4101654c:	054e0e13          	addi	x28,x28,84 # 4101659c <fault_label_83>
    41016550:	03c23023          	sd	x28,32(x4) # 20 <SECURE_ACCESS_PROBABILITY+0x2>
    41016554:	00000e13          	li	x28,0
    41016558:	05c23023          	sd	x28,64(x4) # 40 <XLEN>
    4101655c:	00000e13          	li	x28,0
    41016560:	05c23423          	sd	x28,72(x4) # 48 <XLEN+0x8>
    41016564:	00000e17          	auipc	x28,0x0
    41016568:	04ce0e13          	addi	x28,x28,76 # 410165b0 <SID_HEXCEP_08_passed>
    4101656c:	03c23823          	sd	x28,48(x4) # 30 <SECURE_ACCESS_PROBABILITY+0x12>
    41016570:	00000e13          	li	x28,0
    41016574:	03c23c23          	sd	x28,56(x4) # 38 <SECURE_ACCESS_PROBABILITY+0x1a>
    41016578:	00000e13          	li	x28,0
    4101657c:	07c23023          	sd	x28,96(x4) # 60 <XLEN+0x20>
    41016580:	00000e13          	li	x28,0
    41016584:	07c23423          	sd	x28,104(x4) # 68 <XLEN+0x28>
    41016588:	00000e13          	li	x28,0
    4101658c:	07c23823          	sd	x28,112(x4) # 70 <XLEN+0x30>
    41016590:	28ef0c37          	lui	x24,0x28ef0
    41016594:	00000593          	li	x11,0
    41016598:	00bc0e33          	add	x28,x24,x11

000000004101659c <fault_label_83>:
    4101659c:	620e0073          	hfence.gvma	x28
    410165a0:	4164e537          	lui	x10,0x4164e
    410165a4:	0085051b          	addiw	x10,x10,8 # 4164e008 <failed_addr>
    410165a8:	00053403          	ld	x8,0(x10)
    410165ac:	00040067          	jr	x8

00000000410165b0 <SID_HEXCEP_08_passed>:
    410165b0:	00f00f9b          	addiw	x31,x0,15
    410165b4:	01cf9f93          	slli	x31,x31,0x1c
    410165b8:	001f8f93          	addi	x31,x31,1
    410165bc:	00000073          	ecall

00000000410165c0 <SID_HEXCEP_09_mret_in_vs_vu>:
    410165c0:	000fd137          	lui	x2,0xfd
    410165c4:	c831011b          	addiw	x2,x2,-893 # fcc83 <SID_HEXCEP_09_sfence_vma_vtvm1_vs_stack+0x68c83>
    410165c8:	00d11113          	slli	x2,x2,0xd
    410165cc:	000012b7          	lui	x5,0x1
    410165d0:	00510133          	add	x2,x2,x5
    410165d4:	ff017113          	andi	x2,x2,-16
    410165d8:	0e7de237          	lui	x4,0xe7de
    410165dc:	00200e13          	li	x28,2
    410165e0:	05c23823          	sd	x28,80(x4) # e7de050 <check_excp_expected_cause>
    410165e4:	00000e17          	auipc	x28,0x0
    410165e8:	048e0e13          	addi	x28,x28,72 # 4101662c <fault_label_84>
    410165ec:	03c23023          	sd	x28,32(x4) # 20 <SECURE_ACCESS_PROBABILITY+0x2>
    410165f0:	00000e13          	li	x28,0
    410165f4:	05c23023          	sd	x28,64(x4) # 40 <XLEN>
    410165f8:	00000e13          	li	x28,0
    410165fc:	05c23423          	sd	x28,72(x4) # 48 <XLEN+0x8>
    41016600:	00000e17          	auipc	x28,0x0
    41016604:	040e0e13          	addi	x28,x28,64 # 41016640 <SID_HEXCEP_09_mret_in_vs_vu_passed>
    41016608:	03c23823          	sd	x28,48(x4) # 30 <SECURE_ACCESS_PROBABILITY+0x12>
    4101660c:	00000e13          	li	x28,0
    41016610:	03c23c23          	sd	x28,56(x4) # 38 <SECURE_ACCESS_PROBABILITY+0x1a>
    41016614:	00000e13          	li	x28,0
    41016618:	07c23023          	sd	x28,96(x4) # 60 <XLEN+0x20>
    4101661c:	00000e13          	li	x28,0
    41016620:	07c23423          	sd	x28,104(x4) # 68 <XLEN+0x28>
    41016624:	00000e13          	li	x28,0
    41016628:	07c23823          	sd	x28,112(x4) # 70 <XLEN+0x30>

000000004101662c <fault_label_84>:
    4101662c:	30200073          	mret
    41016630:	4164e937          	lui	x18,0x4164e
    41016634:	0089091b          	addiw	x18,x18,8 # 4164e008 <failed_addr>
    41016638:	00093603          	ld	x12,0(x18)
    4101663c:	00060067          	jr	x12

0000000041016640 <SID_HEXCEP_09_mret_in_vs_vu_passed>:
    41016640:	00f00f9b          	addiw	x31,x0,15
    41016644:	01cf9f93          	slli	x31,x31,0x1c
    41016648:	001f8f93          	addi	x31,x31,1
    4101664c:	00000073          	ecall

0000000041016650 <SID_HEXCEP_09_sret_vtsr1_vs>:
    41016650:	00170137          	lui	x2,0x170
    41016654:	4164efb7          	lui	x31,0x4164e
    41016658:	0b8f8f9b          	addiw	x31,x31,184 # 4164e0b8 <super_csr_jump_table_flags>
    4101665c:	02800f13          	li	x30,40
    41016660:	01efb023          	sd	x30,0(x31)
    41016664:	000f0fb7          	lui	x31,0xf0
    41016668:	001f8f9b          	addiw	x31,x31,1 # f0001 <SID_HEXCEP_09_sfence_vma_vtvm1_vs_stack+0x5c001>
    4101666c:	00cf9f93          	slli	x31,x31,0xc
    41016670:	006f8f93          	addi	x31,x31,6
    41016674:	00000073          	ecall
    41016678:	00713023          	sd	x7,0(x2) # 170000 <tp_csr_storage>
    4101667c:	010c5137          	lui	x2,0x10c5
    41016680:	d011011b          	addiw	x2,x2,-767 # 10c4d01 <SID_HEXCEP_07_vs_mode_stack+0x6e0d01>
    41016684:	00c11113          	slli	x2,x2,0xc
    41016688:	000012b7          	lui	x5,0x1
    4101668c:	00510133          	add	x2,x2,x5
    41016690:	ff017113          	andi	x2,x2,-16
    41016694:	004003b7          	lui	x7,0x400
    41016698:	4164efb7          	lui	x31,0x4164e
    4101669c:	0b8f8f9b          	addiw	x31,x31,184 # 4164e0b8 <super_csr_jump_table_flags>
    410166a0:	02900f13          	li	x30,41
    410166a4:	01efb023          	sd	x30,0(x31)
    410166a8:	000f0fb7          	lui	x31,0xf0
    410166ac:	001f8f9b          	addiw	x31,x31,1 # f0001 <SID_HEXCEP_09_sfence_vma_vtvm1_vs_stack+0x5c001>
    410166b0:	00cf9f93          	slli	x31,x31,0xc
    410166b4:	006f8f93          	addi	x31,x31,6
    410166b8:	00000073          	ecall
    410166bc:	0e7de237          	lui	x4,0xe7de
    410166c0:	01600e13          	li	x28,22
    410166c4:	05c23823          	sd	x28,80(x4) # e7de050 <check_excp_expected_cause>
    410166c8:	00000e17          	auipc	x28,0x0
    410166cc:	048e0e13          	addi	x28,x28,72 # 41016710 <fault_label_85>
    410166d0:	03c23023          	sd	x28,32(x4) # 20 <SECURE_ACCESS_PROBABILITY+0x2>
    410166d4:	00000e13          	li	x28,0
    410166d8:	05c23023          	sd	x28,64(x4) # 40 <XLEN>
    410166dc:	00000e13          	li	x28,0
    410166e0:	05c23423          	sd	x28,72(x4) # 48 <XLEN+0x8>
    410166e4:	00000e17          	auipc	x28,0x0
    410166e8:	040e0e13          	addi	x28,x28,64 # 41016724 <excp_return_label_85>
    410166ec:	03c23823          	sd	x28,48(x4) # 30 <SECURE_ACCESS_PROBABILITY+0x12>
    410166f0:	00000e13          	li	x28,0
    410166f4:	03c23c23          	sd	x28,56(x4) # 38 <SECURE_ACCESS_PROBABILITY+0x1a>
    410166f8:	00000e13          	li	x28,0
    410166fc:	07c23023          	sd	x28,96(x4) # 60 <XLEN+0x20>
    41016700:	00000e13          	li	x28,0
    41016704:	07c23423          	sd	x28,104(x4) # 68 <XLEN+0x28>
    41016708:	00000e13          	li	x28,0
    4101670c:	07c23823          	sd	x28,112(x4) # 70 <XLEN+0x30>

0000000041016710 <fault_label_85>:
    41016710:	10200073          	sret
    41016714:	4164ee37          	lui	x28,0x4164e
    41016718:	008e0e1b          	addiw	x28,x28,8 # 4164e008 <failed_addr>
    4101671c:	000e3383          	ld	x7,0(x28)
    41016720:	00038067          	jr	x7 # 400000 <SID_HEXCEP_09_hinval_gvma_vs_stack+0x19a000>

0000000041016724 <excp_return_label_85>:
    41016724:	00170137          	lui	x2,0x170
    41016728:	00013383          	ld	x7,0(x2) # 170000 <tp_csr_storage>
    4101672c:	4164efb7          	lui	x31,0x4164e
    41016730:	0b8f8f9b          	addiw	x31,x31,184 # 4164e0b8 <super_csr_jump_table_flags>
    41016734:	02a00f13          	li	x30,42
    41016738:	01efb023          	sd	x30,0(x31)
    4101673c:	000f0fb7          	lui	x31,0xf0
    41016740:	001f8f9b          	addiw	x31,x31,1 # f0001 <SID_HEXCEP_09_sfence_vma_vtvm1_vs_stack+0x5c001>
    41016744:	00cf9f93          	slli	x31,x31,0xc
    41016748:	006f8f93          	addi	x31,x31,6
    4101674c:	00000073          	ecall

0000000041016750 <SID_HEXCEP_09_sret_vtsr1_vs_passed>:
    41016750:	00f00f9b          	addiw	x31,x0,15
    41016754:	01cf9f93          	slli	x31,x31,0x1c
    41016758:	001f8f93          	addi	x31,x31,1
    4101675c:	00000073          	ecall

0000000041016760 <SID_HEXCEP_09_sfence_vma_vtvm1_vs>:
    41016760:	00170137          	lui	x2,0x170
    41016764:	4164efb7          	lui	x31,0x4164e
    41016768:	0b8f8f9b          	addiw	x31,x31,184 # 4164e0b8 <super_csr_jump_table_flags>
    4101676c:	02800f13          	li	x30,40
    41016770:	01efb023          	sd	x30,0(x31)
    41016774:	000f0fb7          	lui	x31,0xf0
    41016778:	001f8f9b          	addiw	x31,x31,1 # f0001 <SID_HEXCEP_09_sfence_vma_vtvm1_vs_stack+0x5c001>
    4101677c:	00cf9f93          	slli	x31,x31,0xc
    41016780:	006f8f93          	addi	x31,x31,6
    41016784:	00000073          	ecall
    41016788:	00713023          	sd	x7,0(x2) # 170000 <tp_csr_storage>
    4101678c:	00094137          	lui	x2,0x94
    41016790:	000012b7          	lui	x5,0x1
    41016794:	00510133          	add	x2,x2,x5
    41016798:	ff017113          	andi	x2,x2,-16
    4101679c:	001003b7          	lui	x7,0x100
    410167a0:	4164efb7          	lui	x31,0x4164e
    410167a4:	0b8f8f9b          	addiw	x31,x31,184 # 4164e0b8 <super_csr_jump_table_flags>
    410167a8:	02900f13          	li	x30,41
    410167ac:	01efb023          	sd	x30,0(x31)
    410167b0:	000f0fb7          	lui	x31,0xf0
    410167b4:	001f8f9b          	addiw	x31,x31,1 # f0001 <SID_HEXCEP_09_sfence_vma_vtvm1_vs_stack+0x5c001>
    410167b8:	00cf9f93          	slli	x31,x31,0xc
    410167bc:	006f8f93          	addi	x31,x31,6
    410167c0:	00000073          	ecall
    410167c4:	0e7de237          	lui	x4,0xe7de
    410167c8:	01600e13          	li	x28,22
    410167cc:	05c23823          	sd	x28,80(x4) # e7de050 <check_excp_expected_cause>
    410167d0:	00000e17          	auipc	x28,0x0
    410167d4:	048e0e13          	addi	x28,x28,72 # 41016818 <fault_label_86>
    410167d8:	03c23023          	sd	x28,32(x4) # 20 <SECURE_ACCESS_PROBABILITY+0x2>
    410167dc:	00000e13          	li	x28,0
    410167e0:	05c23023          	sd	x28,64(x4) # 40 <XLEN>
    410167e4:	00000e13          	li	x28,0
    410167e8:	05c23423          	sd	x28,72(x4) # 48 <XLEN+0x8>
    410167ec:	00000e17          	auipc	x28,0x0
    410167f0:	040e0e13          	addi	x28,x28,64 # 4101682c <excp_return_label_86>
    410167f4:	03c23823          	sd	x28,48(x4) # 30 <SECURE_ACCESS_PROBABILITY+0x12>
    410167f8:	00000e13          	li	x28,0
    410167fc:	03c23c23          	sd	x28,56(x4) # 38 <SECURE_ACCESS_PROBABILITY+0x1a>
    41016800:	00000e13          	li	x28,0
    41016804:	07c23023          	sd	x28,96(x4) # 60 <XLEN+0x20>
    41016808:	00000e13          	li	x28,0
    4101680c:	07c23423          	sd	x28,104(x4) # 68 <XLEN+0x28>
    41016810:	00000e13          	li	x28,0
    41016814:	07c23823          	sd	x28,112(x4) # 70 <XLEN+0x30>

0000000041016818 <fault_label_86>:
    41016818:	12000073          	sfence.vma
    4101681c:	4164e6b7          	lui	x13,0x4164e
    41016820:	0086869b          	addiw	x13,x13,8 # 4164e008 <failed_addr>
    41016824:	0006bf83          	ld	x31,0(x13)
    41016828:	000f8067          	jr	x31

000000004101682c <excp_return_label_86>:
    4101682c:	00170137          	lui	x2,0x170
    41016830:	00013383          	ld	x7,0(x2) # 170000 <tp_csr_storage>
    41016834:	4164efb7          	lui	x31,0x4164e
    41016838:	0b8f8f9b          	addiw	x31,x31,184 # 4164e0b8 <super_csr_jump_table_flags>
    4101683c:	02a00f13          	li	x30,42
    41016840:	01efb023          	sd	x30,0(x31)
    41016844:	000f0fb7          	lui	x31,0xf0
    41016848:	001f8f9b          	addiw	x31,x31,1 # f0001 <SID_HEXCEP_09_sfence_vma_vtvm1_vs_stack+0x5c001>
    4101684c:	00cf9f93          	slli	x31,x31,0xc
    41016850:	006f8f93          	addi	x31,x31,6
    41016854:	00000073          	ecall

0000000041016858 <SID_HEXCEP_09_sfence_vma_vtvm1_vs_passed>:
    41016858:	00f00f9b          	addiw	x31,x0,15
    4101685c:	01cf9f93          	slli	x31,x31,0x1c
    41016860:	001f8f93          	addi	x31,x31,1
    41016864:	00000073          	ecall

0000000041016868 <SID_HEXCEP_09_sinval_vma_vtvm1_vs>:
    41016868:	00170137          	lui	x2,0x170
    4101686c:	4164efb7          	lui	x31,0x4164e
    41016870:	0b8f8f9b          	addiw	x31,x31,184 # 4164e0b8 <super_csr_jump_table_flags>
    41016874:	02800f13          	li	x30,40
    41016878:	01efb023          	sd	x30,0(x31)
    4101687c:	000f0fb7          	lui	x31,0xf0
    41016880:	001f8f9b          	addiw	x31,x31,1 # f0001 <SID_HEXCEP_09_sfence_vma_vtvm1_vs_stack+0x5c001>
    41016884:	00cf9f93          	slli	x31,x31,0xc
    41016888:	006f8f93          	addi	x31,x31,6
    4101688c:	00000073          	ecall
    41016890:	00713023          	sd	x7,0(x2) # 170000 <tp_csr_storage>
    41016894:	0001c137          	lui	x2,0x1c
    41016898:	000012b7          	lui	x5,0x1
    4101689c:	00510133          	add	x2,x2,x5
    410168a0:	ff017113          	andi	x2,x2,-16
    410168a4:	001003b7          	lui	x7,0x100
    410168a8:	4164efb7          	lui	x31,0x4164e
    410168ac:	0b8f8f9b          	addiw	x31,x31,184 # 4164e0b8 <super_csr_jump_table_flags>
    410168b0:	02900f13          	li	x30,41
    410168b4:	01efb023          	sd	x30,0(x31)
    410168b8:	000f0fb7          	lui	x31,0xf0
    410168bc:	001f8f9b          	addiw	x31,x31,1 # f0001 <SID_HEXCEP_09_sfence_vma_vtvm1_vs_stack+0x5c001>
    410168c0:	00cf9f93          	slli	x31,x31,0xc
    410168c4:	006f8f93          	addi	x31,x31,6
    410168c8:	00000073          	ecall
    410168cc:	0e7de237          	lui	x4,0xe7de
    410168d0:	01600e13          	li	x28,22
    410168d4:	05c23823          	sd	x28,80(x4) # e7de050 <check_excp_expected_cause>
    410168d8:	00000e17          	auipc	x28,0x0
    410168dc:	054e0e13          	addi	x28,x28,84 # 4101692c <fault_label_87>
    410168e0:	03c23023          	sd	x28,32(x4) # 20 <SECURE_ACCESS_PROBABILITY+0x2>
    410168e4:	00000e13          	li	x28,0
    410168e8:	05c23023          	sd	x28,64(x4) # 40 <XLEN>
    410168ec:	00000e13          	li	x28,0
    410168f0:	05c23423          	sd	x28,72(x4) # 48 <XLEN+0x8>
    410168f4:	00000e17          	auipc	x28,0x0
    410168f8:	04ce0e13          	addi	x28,x28,76 # 41016940 <excp_return_label_87>
    410168fc:	03c23823          	sd	x28,48(x4) # 30 <SECURE_ACCESS_PROBABILITY+0x12>
    41016900:	00000e13          	li	x28,0
    41016904:	03c23c23          	sd	x28,56(x4) # 38 <SECURE_ACCESS_PROBABILITY+0x1a>
    41016908:	00000e13          	li	x28,0
    4101690c:	07c23023          	sd	x28,96(x4) # 60 <XLEN+0x20>
    41016910:	00000e13          	li	x28,0
    41016914:	07c23423          	sd	x28,104(x4) # 68 <XLEN+0x28>
    41016918:	00000e13          	li	x28,0
    4101691c:	07c23823          	sd	x28,112(x4) # 70 <XLEN+0x30>
    41016920:	097453b7          	lui	x7,0x9745
    41016924:	00000a13          	li	x20,0
    41016928:	01438ab3          	add	x21,x7,x20

000000004101692c <fault_label_87>:
    4101692c:	160a8073          	sinval.vma	x21,x0
    41016930:	4164ecb7          	lui	x25,0x4164e
    41016934:	008c8c9b          	addiw	x25,x25,8 # 4164e008 <failed_addr>
    41016938:	000cb303          	ld	x6,0(x25)
    4101693c:	00030067          	jr	x6

0000000041016940 <excp_return_label_87>:
    41016940:	00170137          	lui	x2,0x170
    41016944:	00013383          	ld	x7,0(x2) # 170000 <tp_csr_storage>
    41016948:	4164efb7          	lui	x31,0x4164e
    4101694c:	0b8f8f9b          	addiw	x31,x31,184 # 4164e0b8 <super_csr_jump_table_flags>
    41016950:	02a00f13          	li	x30,42
    41016954:	01efb023          	sd	x30,0(x31)
    41016958:	000f0fb7          	lui	x31,0xf0
    4101695c:	001f8f9b          	addiw	x31,x31,1 # f0001 <SID_HEXCEP_09_sfence_vma_vtvm1_vs_stack+0x5c001>
    41016960:	00cf9f93          	slli	x31,x31,0xc
    41016964:	006f8f93          	addi	x31,x31,6
    41016968:	00000073          	ecall

000000004101696c <SID_HEXCEP_09_sinval_vma_vtvm1_vs_passed>:
    4101696c:	00f00f9b          	addiw	x31,x0,15
    41016970:	01cf9f93          	slli	x31,x31,0x1c
    41016974:	001f8f93          	addi	x31,x31,1
    41016978:	00000073          	ecall

000000004101697c <SID_HEXCEP_09_hinval_vvma_vs>:
    4101697c:	00058137          	lui	x2,0x58
    41016980:	000012b7          	lui	x5,0x1
    41016984:	00510133          	add	x2,x2,x5
    41016988:	ff017113          	andi	x2,x2,-16
    4101698c:	0e7de237          	lui	x4,0xe7de
    41016990:	01600e13          	li	x28,22
    41016994:	05c23823          	sd	x28,80(x4) # e7de050 <check_excp_expected_cause>
    41016998:	00000e17          	auipc	x28,0x0
    4101699c:	048e0e13          	addi	x28,x28,72 # 410169e0 <fault_label_88>
    410169a0:	03c23023          	sd	x28,32(x4) # 20 <SECURE_ACCESS_PROBABILITY+0x2>
    410169a4:	00000e13          	li	x28,0
    410169a8:	05c23023          	sd	x28,64(x4) # 40 <XLEN>
    410169ac:	00000e13          	li	x28,0
    410169b0:	05c23423          	sd	x28,72(x4) # 48 <XLEN+0x8>
    410169b4:	00000e17          	auipc	x28,0x0
    410169b8:	040e0e13          	addi	x28,x28,64 # 410169f4 <SID_HEXCEP_09_hinval_vvma_vs_passed>
    410169bc:	03c23823          	sd	x28,48(x4) # 30 <SECURE_ACCESS_PROBABILITY+0x12>
    410169c0:	00000e13          	li	x28,0
    410169c4:	03c23c23          	sd	x28,56(x4) # 38 <SECURE_ACCESS_PROBABILITY+0x1a>
    410169c8:	00000e13          	li	x28,0
    410169cc:	07c23023          	sd	x28,96(x4) # 60 <XLEN+0x20>
    410169d0:	00000e13          	li	x28,0
    410169d4:	07c23423          	sd	x28,104(x4) # 68 <XLEN+0x28>
    410169d8:	00000e13          	li	x28,0
    410169dc:	07c23823          	sd	x28,112(x4) # 70 <XLEN+0x30>

00000000410169e0 <fault_label_88>:
    410169e0:	26000073          	hinval.vvma	x0,x0
    410169e4:	4164ec37          	lui	x24,0x4164e
    410169e8:	008c0c1b          	addiw	x24,x24,8 # 4164e008 <failed_addr>
    410169ec:	000c3c83          	ld	x25,0(x24)
    410169f0:	000c8067          	jr	x25

00000000410169f4 <SID_HEXCEP_09_hinval_vvma_vs_passed>:
    410169f4:	00f00f9b          	addiw	x31,x0,15
    410169f8:	01cf9f93          	slli	x31,x31,0x1c
    410169fc:	001f8f93          	addi	x31,x31,1
    41016a00:	00000073          	ecall

0000000041016a04 <SID_HEXCEP_09_hinval_gvma_vs>:
    41016a04:	00266137          	lui	x2,0x266
    41016a08:	000012b7          	lui	x5,0x1
    41016a0c:	00510133          	add	x2,x2,x5
    41016a10:	ff017113          	andi	x2,x2,-16
    41016a14:	0e7de237          	lui	x4,0xe7de
    41016a18:	01600e13          	li	x28,22
    41016a1c:	05c23823          	sd	x28,80(x4) # e7de050 <check_excp_expected_cause>
    41016a20:	00000e17          	auipc	x28,0x0
    41016a24:	048e0e13          	addi	x28,x28,72 # 41016a68 <fault_label_89>
    41016a28:	03c23023          	sd	x28,32(x4) # 20 <SECURE_ACCESS_PROBABILITY+0x2>
    41016a2c:	00000e13          	li	x28,0
    41016a30:	05c23023          	sd	x28,64(x4) # 40 <XLEN>
    41016a34:	00000e13          	li	x28,0
    41016a38:	05c23423          	sd	x28,72(x4) # 48 <XLEN+0x8>
    41016a3c:	00000e17          	auipc	x28,0x0
    41016a40:	040e0e13          	addi	x28,x28,64 # 41016a7c <SID_HEXCEP_09_hinval_gvma_vs_passed>
    41016a44:	03c23823          	sd	x28,48(x4) # 30 <SECURE_ACCESS_PROBABILITY+0x12>
    41016a48:	00000e13          	li	x28,0
    41016a4c:	03c23c23          	sd	x28,56(x4) # 38 <SECURE_ACCESS_PROBABILITY+0x1a>
    41016a50:	00000e13          	li	x28,0
    41016a54:	07c23023          	sd	x28,96(x4) # 60 <XLEN+0x20>
    41016a58:	00000e13          	li	x28,0
    41016a5c:	07c23423          	sd	x28,104(x4) # 68 <XLEN+0x28>
    41016a60:	00000e13          	li	x28,0
    41016a64:	07c23823          	sd	x28,112(x4) # 70 <XLEN+0x30>

0000000041016a68 <fault_label_89>:
    41016a68:	66000073          	hinval.gvma	x0,x0
    41016a6c:	4164e3b7          	lui	x7,0x4164e
    41016a70:	0083839b          	addiw	x7,x7,8 # 4164e008 <failed_addr>
    41016a74:	0003ba03          	ld	x20,0(x7)
    41016a78:	000a0067          	jr	x20

0000000041016a7c <SID_HEXCEP_09_hinval_gvma_vs_passed>:
    41016a7c:	00f00f9b          	addiw	x31,x0,15
    41016a80:	01cf9f93          	slli	x31,x31,0x1c
    41016a84:	001f8f93          	addi	x31,x31,1
    41016a88:	00000073          	ecall

0000000041016a8c <SID_HEXCEP_10>:
    41016a8c:	00170137          	lui	x2,0x170
    41016a90:	4164efb7          	lui	x31,0x4164e
    41016a94:	0b8f8f9b          	addiw	x31,x31,184 # 4164e0b8 <super_csr_jump_table_flags>
    41016a98:	02800f13          	li	x30,40
    41016a9c:	01efb023          	sd	x30,0(x31)
    41016aa0:	000f0fb7          	lui	x31,0xf0
    41016aa4:	001f8f9b          	addiw	x31,x31,1 # f0001 <SID_HEXCEP_09_sfence_vma_vtvm1_vs_stack+0x5c001>
    41016aa8:	00cf9f93          	slli	x31,x31,0xc
    41016aac:	006f8f93          	addi	x31,x31,6
    41016ab0:	00000073          	ecall
    41016ab4:	00713023          	sd	x7,0(x2) # 170000 <tp_csr_storage>
    41016ab8:	00861137          	lui	x2,0x861
    41016abc:	000012b7          	lui	x5,0x1
    41016ac0:	00510133          	add	x2,x2,x5
    41016ac4:	ff017113          	andi	x2,x2,-16
    41016ac8:	001003b7          	lui	x7,0x100
    41016acc:	4164efb7          	lui	x31,0x4164e
    41016ad0:	0b8f8f9b          	addiw	x31,x31,184 # 4164e0b8 <super_csr_jump_table_flags>
    41016ad4:	02900f13          	li	x30,41
    41016ad8:	01efb023          	sd	x30,0(x31)
    41016adc:	000f0fb7          	lui	x31,0xf0
    41016ae0:	001f8f9b          	addiw	x31,x31,1 # f0001 <SID_HEXCEP_09_sfence_vma_vtvm1_vs_stack+0x5c001>
    41016ae4:	00cf9f93          	slli	x31,x31,0xc
    41016ae8:	006f8f93          	addi	x31,x31,6
    41016aec:	00000073          	ecall
    41016af0:	00000c13          	li	x24,0
    41016af4:	0e7de237          	lui	x4,0xe7de
    41016af8:	01600e13          	li	x28,22
    41016afc:	05c23823          	sd	x28,80(x4) # e7de050 <check_excp_expected_cause>
    41016b00:	00000e17          	auipc	x28,0x0
    41016b04:	048e0e13          	addi	x28,x28,72 # 41016b48 <fault_label_90>
    41016b08:	03c23023          	sd	x28,32(x4) # 20 <SECURE_ACCESS_PROBABILITY+0x2>
    41016b0c:	00000e13          	li	x28,0
    41016b10:	05c23023          	sd	x28,64(x4) # 40 <XLEN>
    41016b14:	00000e13          	li	x28,0
    41016b18:	05c23423          	sd	x28,72(x4) # 48 <XLEN+0x8>
    41016b1c:	00000e17          	auipc	x28,0x0
    41016b20:	040e0e13          	addi	x28,x28,64 # 41016b5c <excp_return_label_90>
    41016b24:	03c23823          	sd	x28,48(x4) # 30 <SECURE_ACCESS_PROBABILITY+0x12>
    41016b28:	00000e13          	li	x28,0
    41016b2c:	03c23c23          	sd	x28,56(x4) # 38 <SECURE_ACCESS_PROBABILITY+0x1a>
    41016b30:	00000e13          	li	x28,0
    41016b34:	07c23023          	sd	x28,96(x4) # 60 <XLEN+0x20>
    41016b38:	00000e13          	li	x28,0
    41016b3c:	07c23423          	sd	x28,104(x4) # 68 <XLEN+0x28>
    41016b40:	00000e13          	li	x28,0
    41016b44:	07c23823          	sd	x28,112(x4) # 70 <XLEN+0x30>

0000000041016b48 <fault_label_90>:
    41016b48:	180c2d73          	csrrs	x26,satp,x24
    41016b4c:	4164e637          	lui	x12,0x4164e
    41016b50:	0086061b          	addiw	x12,x12,8 # 4164e008 <failed_addr>
    41016b54:	00063503          	ld	x10,0(x12)
    41016b58:	00050067          	jr	x10

0000000041016b5c <excp_return_label_90>:
    41016b5c:	00170137          	lui	x2,0x170
    41016b60:	00013383          	ld	x7,0(x2) # 170000 <tp_csr_storage>
    41016b64:	4164efb7          	lui	x31,0x4164e
    41016b68:	0b8f8f9b          	addiw	x31,x31,184 # 4164e0b8 <super_csr_jump_table_flags>
    41016b6c:	02a00f13          	li	x30,42
    41016b70:	01efb023          	sd	x30,0(x31)
    41016b74:	000f0fb7          	lui	x31,0xf0
    41016b78:	001f8f9b          	addiw	x31,x31,1 # f0001 <SID_HEXCEP_09_sfence_vma_vtvm1_vs_stack+0x5c001>
    41016b7c:	00cf9f93          	slli	x31,x31,0xc
    41016b80:	006f8f93          	addi	x31,x31,6
    41016b84:	00000073          	ecall

0000000041016b88 <SID_HEXCEP_10_passed>:
    41016b88:	00f00f9b          	addiw	x31,x0,15
    41016b8c:	01cf9f93          	slli	x31,x31,0x1c
    41016b90:	001f8f93          	addi	x31,x31,1
    41016b94:	00000073          	ecall

0000000041016b98 <SID_HEXCEP_11>:
    41016b98:	0de6d137          	lui	x2,0xde6d
    41016b9c:	000012b7          	lui	x5,0x1
    41016ba0:	00510133          	add	x2,x2,x5
    41016ba4:	ff017113          	andi	x2,x2,-16
    41016ba8:	0e7de237          	lui	x4,0xe7de
    41016bac:	00200e13          	li	x28,2
    41016bb0:	05c23823          	sd	x28,80(x4) # e7de050 <check_excp_expected_cause>
    41016bb4:	00000e17          	auipc	x28,0x0
    41016bb8:	04ce0e13          	addi	x28,x28,76 # 41016c00 <fault_label_91>
    41016bbc:	03c23023          	sd	x28,32(x4) # 20 <SECURE_ACCESS_PROBABILITY+0x2>
    41016bc0:	00000e13          	li	x28,0
    41016bc4:	05c23023          	sd	x28,64(x4) # 40 <XLEN>
    41016bc8:	00000e13          	li	x28,0
    41016bcc:	05c23423          	sd	x28,72(x4) # 48 <XLEN+0x8>
    41016bd0:	00000e17          	auipc	x28,0x0
    41016bd4:	044e0e13          	addi	x28,x28,68 # 41016c14 <excp_return_label_91>
    41016bd8:	03c23823          	sd	x28,48(x4) # 30 <SECURE_ACCESS_PROBABILITY+0x12>
    41016bdc:	00000e13          	li	x28,0
    41016be0:	03c23c23          	sd	x28,56(x4) # 38 <SECURE_ACCESS_PROBABILITY+0x1a>
    41016be4:	00000e13          	li	x28,0
    41016be8:	07c23023          	sd	x28,96(x4) # 60 <XLEN+0x20>
    41016bec:	00000e13          	li	x28,0
    41016bf0:	07c23423          	sd	x28,104(x4) # 68 <XLEN+0x28>
    41016bf4:	00000e13          	li	x28,0
    41016bf8:	07c23823          	sd	x28,112(x4) # 70 <XLEN+0x30>
    41016bfc:	00000d93          	li	x27,0

0000000041016c00 <fault_label_91>:
    41016c00:	615dadf3          	csrrs	x27,htimedeltah,x27
    41016c04:	4164eab7          	lui	x21,0x4164e
    41016c08:	008a8a9b          	addiw	x21,x21,8 # 4164e008 <failed_addr>
    41016c0c:	000ab883          	ld	x17,0(x21)
    41016c10:	00088067          	jr	x17

0000000041016c14 <excp_return_label_91>:
    41016c14:	0e7de237          	lui	x4,0xe7de
    41016c18:	00200e13          	li	x28,2
    41016c1c:	05c23823          	sd	x28,80(x4) # e7de050 <check_excp_expected_cause>
    41016c20:	00000e17          	auipc	x28,0x0
    41016c24:	04ce0e13          	addi	x28,x28,76 # 41016c6c <fault_label_92>
    41016c28:	03c23023          	sd	x28,32(x4) # 20 <SECURE_ACCESS_PROBABILITY+0x2>
    41016c2c:	00000e13          	li	x28,0
    41016c30:	05c23023          	sd	x28,64(x4) # 40 <XLEN>
    41016c34:	00000e13          	li	x28,0
    41016c38:	05c23423          	sd	x28,72(x4) # 48 <XLEN+0x8>
    41016c3c:	00000e17          	auipc	x28,0x0
    41016c40:	044e0e13          	addi	x28,x28,68 # 41016c80 <excp_return_label_92>
    41016c44:	03c23823          	sd	x28,48(x4) # 30 <SECURE_ACCESS_PROBABILITY+0x12>
    41016c48:	00000e13          	li	x28,0
    41016c4c:	03c23c23          	sd	x28,56(x4) # 38 <SECURE_ACCESS_PROBABILITY+0x1a>
    41016c50:	00000e13          	li	x28,0
    41016c54:	07c23023          	sd	x28,96(x4) # 60 <XLEN+0x20>
    41016c58:	00000e13          	li	x28,0
    41016c5c:	07c23423          	sd	x28,104(x4) # 68 <XLEN+0x28>
    41016c60:	00000e13          	li	x28,0
    41016c64:	07c23823          	sd	x28,112(x4) # 70 <XLEN+0x30>
    41016c68:	00000313          	li	x6,0

0000000041016c6c <fault_label_92>:
    41016c6c:	61a32cf3          	csrrs	x25,henvcfgh,x6
    41016c70:	4164e537          	lui	x10,0x4164e
    41016c74:	0085051b          	addiw	x10,x10,8 # 4164e008 <failed_addr>
    41016c78:	00053f83          	ld	x31,0(x10)
    41016c7c:	000f8067          	jr	x31

0000000041016c80 <excp_return_label_92>:
    41016c80:	0e7de237          	lui	x4,0xe7de
    41016c84:	00200e13          	li	x28,2
    41016c88:	05c23823          	sd	x28,80(x4) # e7de050 <check_excp_expected_cause>
    41016c8c:	00000e17          	auipc	x28,0x0
    41016c90:	04ce0e13          	addi	x28,x28,76 # 41016cd8 <fault_label_93>
    41016c94:	03c23023          	sd	x28,32(x4) # 20 <SECURE_ACCESS_PROBABILITY+0x2>
    41016c98:	00000e13          	li	x28,0
    41016c9c:	05c23023          	sd	x28,64(x4) # 40 <XLEN>
    41016ca0:	00000e13          	li	x28,0
    41016ca4:	05c23423          	sd	x28,72(x4) # 48 <XLEN+0x8>
    41016ca8:	00000e17          	auipc	x28,0x0
    41016cac:	044e0e13          	addi	x28,x28,68 # 41016cec <excp_return_label_93>
    41016cb0:	03c23823          	sd	x28,48(x4) # 30 <SECURE_ACCESS_PROBABILITY+0x12>
    41016cb4:	00000e13          	li	x28,0
    41016cb8:	03c23c23          	sd	x28,56(x4) # 38 <SECURE_ACCESS_PROBABILITY+0x1a>
    41016cbc:	00000e13          	li	x28,0
    41016cc0:	07c23023          	sd	x28,96(x4) # 60 <XLEN+0x20>
    41016cc4:	00000e13          	li	x28,0
    41016cc8:	07c23423          	sd	x28,104(x4) # 68 <XLEN+0x28>
    41016ccc:	00000e13          	li	x28,0
    41016cd0:	07c23823          	sd	x28,112(x4) # 70 <XLEN+0x30>
    41016cd4:	00000a13          	li	x20,0

0000000041016cd8 <fault_label_93>:
    41016cd8:	c80a2973          	csrrs	x18,cycleh,x20
    41016cdc:	4164e537          	lui	x10,0x4164e
    41016ce0:	0085051b          	addiw	x10,x10,8 # 4164e008 <failed_addr>
    41016ce4:	00053b83          	ld	x23,0(x10)
    41016ce8:	000b8067          	jr	x23

0000000041016cec <excp_return_label_93>:
    41016cec:	0e7de237          	lui	x4,0xe7de
    41016cf0:	00200e13          	li	x28,2
    41016cf4:	05c23823          	sd	x28,80(x4) # e7de050 <check_excp_expected_cause>
    41016cf8:	00000e17          	auipc	x28,0x0
    41016cfc:	04ce0e13          	addi	x28,x28,76 # 41016d44 <fault_label_94>
    41016d00:	03c23023          	sd	x28,32(x4) # 20 <SECURE_ACCESS_PROBABILITY+0x2>
    41016d04:	00000e13          	li	x28,0
    41016d08:	05c23023          	sd	x28,64(x4) # 40 <XLEN>
    41016d0c:	00000e13          	li	x28,0
    41016d10:	05c23423          	sd	x28,72(x4) # 48 <XLEN+0x8>
    41016d14:	00000e17          	auipc	x28,0x0
    41016d18:	044e0e13          	addi	x28,x28,68 # 41016d58 <excp_return_label_94>
    41016d1c:	03c23823          	sd	x28,48(x4) # 30 <SECURE_ACCESS_PROBABILITY+0x12>
    41016d20:	00000e13          	li	x28,0
    41016d24:	03c23c23          	sd	x28,56(x4) # 38 <SECURE_ACCESS_PROBABILITY+0x1a>
    41016d28:	00000e13          	li	x28,0
    41016d2c:	07c23023          	sd	x28,96(x4) # 60 <XLEN+0x20>
    41016d30:	00000e13          	li	x28,0
    41016d34:	07c23423          	sd	x28,104(x4) # 68 <XLEN+0x28>
    41016d38:	00000e13          	li	x28,0
    41016d3c:	07c23823          	sd	x28,112(x4) # 70 <XLEN+0x30>
    41016d40:	00000993          	li	x19,0

0000000041016d44 <fault_label_94>:
    41016d44:	c819a3f3          	csrrs	x7,timeh,x19
    41016d48:	4164e937          	lui	x18,0x4164e
    41016d4c:	0089091b          	addiw	x18,x18,8 # 4164e008 <failed_addr>
    41016d50:	00093f03          	ld	x30,0(x18)
    41016d54:	000f0067          	jr	x30

0000000041016d58 <excp_return_label_94>:
    41016d58:	0e7de237          	lui	x4,0xe7de
    41016d5c:	00200e13          	li	x28,2
    41016d60:	05c23823          	sd	x28,80(x4) # e7de050 <check_excp_expected_cause>
    41016d64:	00000e17          	auipc	x28,0x0
    41016d68:	04ce0e13          	addi	x28,x28,76 # 41016db0 <fault_label_95>
    41016d6c:	03c23023          	sd	x28,32(x4) # 20 <SECURE_ACCESS_PROBABILITY+0x2>
    41016d70:	00000e13          	li	x28,0
    41016d74:	05c23023          	sd	x28,64(x4) # 40 <XLEN>
    41016d78:	00000e13          	li	x28,0
    41016d7c:	05c23423          	sd	x28,72(x4) # 48 <XLEN+0x8>
    41016d80:	00000e17          	auipc	x28,0x0
    41016d84:	044e0e13          	addi	x28,x28,68 # 41016dc4 <excp_return_label_95>
    41016d88:	03c23823          	sd	x28,48(x4) # 30 <SECURE_ACCESS_PROBABILITY+0x12>
    41016d8c:	00000e13          	li	x28,0
    41016d90:	03c23c23          	sd	x28,56(x4) # 38 <SECURE_ACCESS_PROBABILITY+0x1a>
    41016d94:	00000e13          	li	x28,0
    41016d98:	07c23023          	sd	x28,96(x4) # 60 <XLEN+0x20>
    41016d9c:	00000e13          	li	x28,0
    41016da0:	07c23423          	sd	x28,104(x4) # 68 <XLEN+0x28>
    41016da4:	00000e13          	li	x28,0
    41016da8:	07c23823          	sd	x28,112(x4) # 70 <XLEN+0x30>
    41016dac:	00000613          	li	x12,0

0000000041016db0 <fault_label_95>:
    41016db0:	c82626f3          	csrrs	x13,instreth,x12
    41016db4:	4164ee37          	lui	x28,0x4164e
    41016db8:	008e0e1b          	addiw	x28,x28,8 # 4164e008 <failed_addr>
    41016dbc:	000e3b03          	ld	x22,0(x28)
    41016dc0:	000b0067          	jr	x22

0000000041016dc4 <excp_return_label_95>:
    41016dc4:	0e7de237          	lui	x4,0xe7de
    41016dc8:	00200e13          	li	x28,2
    41016dcc:	05c23823          	sd	x28,80(x4) # e7de050 <check_excp_expected_cause>
    41016dd0:	00000e17          	auipc	x28,0x0
    41016dd4:	04ce0e13          	addi	x28,x28,76 # 41016e1c <fault_label_96>
    41016dd8:	03c23023          	sd	x28,32(x4) # 20 <SECURE_ACCESS_PROBABILITY+0x2>
    41016ddc:	00000e13          	li	x28,0
    41016de0:	05c23023          	sd	x28,64(x4) # 40 <XLEN>
    41016de4:	00000e13          	li	x28,0
    41016de8:	05c23423          	sd	x28,72(x4) # 48 <XLEN+0x8>
    41016dec:	00000e17          	auipc	x28,0x0
    41016df0:	044e0e13          	addi	x28,x28,68 # 41016e30 <SID_HEXCEP_11_passed>
    41016df4:	03c23823          	sd	x28,48(x4) # 30 <SECURE_ACCESS_PROBABILITY+0x12>
    41016df8:	00000e13          	li	x28,0
    41016dfc:	03c23c23          	sd	x28,56(x4) # 38 <SECURE_ACCESS_PROBABILITY+0x1a>
    41016e00:	00000e13          	li	x28,0
    41016e04:	07c23023          	sd	x28,96(x4) # 60 <XLEN+0x20>
    41016e08:	00000e13          	li	x28,0
    41016e0c:	07c23423          	sd	x28,104(x4) # 68 <XLEN+0x28>
    41016e10:	00000e13          	li	x28,0
    41016e14:	07c23823          	sd	x28,112(x4) # 70 <XLEN+0x30>
    41016e18:	00000e13          	li	x28,0

0000000041016e1c <fault_label_96>:
    41016e1c:	c83e2f73          	csrrs	x30,hpmcounter3h,x28
    41016e20:	4164e437          	lui	x8,0x4164e
    41016e24:	0084041b          	addiw	x8,x8,8 # 4164e008 <failed_addr>
    41016e28:	00043403          	ld	x8,0(x8)
    41016e2c:	00040067          	jr	x8

0000000041016e30 <SID_HEXCEP_11_passed>:
    41016e30:	00f00f9b          	addiw	x31,x0,15
    41016e34:	01cf9f93          	slli	x31,x31,0x1c
    41016e38:	001f8f93          	addi	x31,x31,1
    41016e3c:	00000073          	ecall

0000000041016e40 <SID_HEXCEP_16_fs0_both>:
    41016e40:	00170137          	lui	x2,0x170
    41016e44:	100023f3          	csrr	x7,sstatus
    41016e48:	00713023          	sd	x7,0(x2) # 170000 <tp_csr_storage>
    41016e4c:	4164efb7          	lui	x31,0x4164e
    41016e50:	0b0f8f9b          	addiw	x31,x31,176 # 4164e0b0 <machine_csr_jump_table_flags>
    41016e54:	03500f13          	li	x30,53
    41016e58:	01efb023          	sd	x30,0(x31)
    41016e5c:	000f0fb7          	lui	x31,0xf0
    41016e60:	001f8f9b          	addiw	x31,x31,1 # f0001 <SID_HEXCEP_09_sfence_vma_vtvm1_vs_stack+0x5c001>
    41016e64:	00cf9f93          	slli	x31,x31,0xc
    41016e68:	005f8f93          	addi	x31,x31,5
    41016e6c:	00000073          	ecall
    41016e70:	00713423          	sd	x7,8(x2)
    41016e74:	06f59137          	lui	x2,0x6f59
    41016e78:	000012b7          	lui	x5,0x1
    41016e7c:	00510133          	add	x2,x2,x5
    41016e80:	ff017113          	andi	x2,x2,-16
    41016e84:	00006ab7          	lui	x21,0x6
    41016e88:	00000d93          	li	x27,0
    41016e8c:	000f0fb7          	lui	x31,0xf0
    41016e90:	001f8f9b          	addiw	x31,x31,1 # f0001 <SID_HEXCEP_09_sfence_vma_vtvm1_vs_stack+0x5c001>
    41016e94:	00cf9f93          	slli	x31,x31,0xc
    41016e98:	002f8f93          	addi	x31,x31,2
    41016e9c:	00000073          	ecall
    41016ea0:	000063b7          	lui	x7,0x6
    41016ea4:	1003ba73          	csrrc	x20,sstatus,x7
    41016ea8:	0e7de237          	lui	x4,0xe7de
    41016eac:	00200e13          	li	x28,2
    41016eb0:	05c23823          	sd	x28,80(x4) # e7de050 <check_excp_expected_cause>
    41016eb4:	00000e17          	auipc	x28,0x0
    41016eb8:	048e0e13          	addi	x28,x28,72 # 41016efc <fault_label_97>
    41016ebc:	03c23023          	sd	x28,32(x4) # 20 <SECURE_ACCESS_PROBABILITY+0x2>
    41016ec0:	00000e13          	li	x28,0
    41016ec4:	05c23023          	sd	x28,64(x4) # 40 <XLEN>
    41016ec8:	00000e13          	li	x28,0
    41016ecc:	05c23423          	sd	x28,72(x4) # 48 <XLEN+0x8>
    41016ed0:	00000e17          	auipc	x28,0x0
    41016ed4:	040e0e13          	addi	x28,x28,64 # 41016f10 <excp_return_label_97>
    41016ed8:	03c23823          	sd	x28,48(x4) # 30 <SECURE_ACCESS_PROBABILITY+0x12>
    41016edc:	00000e13          	li	x28,0
    41016ee0:	03c23c23          	sd	x28,56(x4) # 38 <SECURE_ACCESS_PROBABILITY+0x1a>
    41016ee4:	00000e13          	li	x28,0
    41016ee8:	07c23023          	sd	x28,96(x4) # 60 <XLEN+0x20>
    41016eec:	00000e13          	li	x28,0
    41016ef0:	07c23423          	sd	x28,104(x4) # 68 <XLEN+0x28>
    41016ef4:	00000e13          	li	x28,0
    41016ef8:	07c23823          	sd	x28,112(x4) # 70 <XLEN+0x30>

0000000041016efc <fault_label_97>:
    41016efc:	02007053          	fadd.d	f0,f0,f0
    41016f00:	4164eeb7          	lui	x29,0x4164e
    41016f04:	008e8e9b          	addiw	x29,x29,8 # 4164e008 <failed_addr>
    41016f08:	000ebc03          	ld	x24,0(x29)
    41016f0c:	000c0067          	jr	x24

0000000041016f10 <excp_return_label_97>:
    41016f10:	00170137          	lui	x2,0x170
    41016f14:	00013383          	ld	x7,0(x2) # 170000 <tp_csr_storage>
    41016f18:	100393f3          	csrrw	x7,sstatus,x7
    41016f1c:	00813383          	ld	x7,8(x2)
    41016f20:	4164efb7          	lui	x31,0x4164e
    41016f24:	0b0f8f9b          	addiw	x31,x31,176 # 4164e0b0 <machine_csr_jump_table_flags>
    41016f28:	03700f13          	li	x30,55
    41016f2c:	01efb023          	sd	x30,0(x31)
    41016f30:	000f0fb7          	lui	x31,0xf0
    41016f34:	001f8f9b          	addiw	x31,x31,1 # f0001 <SID_HEXCEP_09_sfence_vma_vtvm1_vs_stack+0x5c001>
    41016f38:	00cf9f93          	slli	x31,x31,0xc
    41016f3c:	005f8f93          	addi	x31,x31,5
    41016f40:	00000073          	ecall

0000000041016f44 <SID_HEXCEP_16_fs0_both_passed>:
    41016f44:	00f00f9b          	addiw	x31,x0,15
    41016f48:	01cf9f93          	slli	x31,x31,0x1c
    41016f4c:	001f8f93          	addi	x31,x31,1
    41016f50:	00000073          	ecall

0000000041016f54 <SID_HEXCEP_16_vsstatus_fs0>:
    41016f54:	00170137          	lui	x2,0x170
    41016f58:	100023f3          	csrr	x7,sstatus
    41016f5c:	00713023          	sd	x7,0(x2) # 170000 <tp_csr_storage>
    41016f60:	4164efb7          	lui	x31,0x4164e
    41016f64:	0b0f8f9b          	addiw	x31,x31,176 # 4164e0b0 <machine_csr_jump_table_flags>
    41016f68:	03500f13          	li	x30,53
    41016f6c:	01efb023          	sd	x30,0(x31)
    41016f70:	000f0fb7          	lui	x31,0xf0
    41016f74:	001f8f9b          	addiw	x31,x31,1 # f0001 <SID_HEXCEP_09_sfence_vma_vtvm1_vs_stack+0x5c001>
    41016f78:	00cf9f93          	slli	x31,x31,0xc
    41016f7c:	005f8f93          	addi	x31,x31,5
    41016f80:	00000073          	ecall
    41016f84:	00713423          	sd	x7,8(x2)
    41016f88:	00041137          	lui	x2,0x41
    41016f8c:	000012b7          	lui	x5,0x1
    41016f90:	00510133          	add	x2,x2,x5
    41016f94:	ff017113          	andi	x2,x2,-16
    41016f98:	00002ab7          	lui	x21,0x2
    41016f9c:	00100d93          	li	x27,1
    41016fa0:	000f0fb7          	lui	x31,0xf0
    41016fa4:	001f8f9b          	addiw	x31,x31,1 # f0001 <SID_HEXCEP_09_sfence_vma_vtvm1_vs_stack+0x5c001>
    41016fa8:	00cf9f93          	slli	x31,x31,0xc
    41016fac:	002f8f93          	addi	x31,x31,2
    41016fb0:	00000073          	ecall
    41016fb4:	000063b7          	lui	x7,0x6
    41016fb8:	1003bdf3          	csrrc	x27,sstatus,x7
    41016fbc:	0e7de237          	lui	x4,0xe7de
    41016fc0:	00200e13          	li	x28,2
    41016fc4:	05c23823          	sd	x28,80(x4) # e7de050 <check_excp_expected_cause>
    41016fc8:	00000e17          	auipc	x28,0x0
    41016fcc:	048e0e13          	addi	x28,x28,72 # 41017010 <fault_label_98>
    41016fd0:	03c23023          	sd	x28,32(x4) # 20 <SECURE_ACCESS_PROBABILITY+0x2>
    41016fd4:	00000e13          	li	x28,0
    41016fd8:	05c23023          	sd	x28,64(x4) # 40 <XLEN>
    41016fdc:	00000e13          	li	x28,0
    41016fe0:	05c23423          	sd	x28,72(x4) # 48 <XLEN+0x8>
    41016fe4:	00000e17          	auipc	x28,0x0
    41016fe8:	040e0e13          	addi	x28,x28,64 # 41017024 <excp_return_label_98>
    41016fec:	03c23823          	sd	x28,48(x4) # 30 <SECURE_ACCESS_PROBABILITY+0x12>
    41016ff0:	00000e13          	li	x28,0
    41016ff4:	03c23c23          	sd	x28,56(x4) # 38 <SECURE_ACCESS_PROBABILITY+0x1a>
    41016ff8:	00000e13          	li	x28,0
    41016ffc:	07c23023          	sd	x28,96(x4) # 60 <XLEN+0x20>
    41017000:	00000e13          	li	x28,0
    41017004:	07c23423          	sd	x28,104(x4) # 68 <XLEN+0x28>
    41017008:	00000e13          	li	x28,0
    4101700c:	07c23823          	sd	x28,112(x4) # 70 <XLEN+0x30>

0000000041017010 <fault_label_98>:
    41017010:	02007053          	fadd.d	f0,f0,f0
    41017014:	4164eeb7          	lui	x29,0x4164e
    41017018:	008e8e9b          	addiw	x29,x29,8 # 4164e008 <failed_addr>
    4101701c:	000eb483          	ld	x9,0(x29)
    41017020:	00048067          	jr	x9

0000000041017024 <excp_return_label_98>:
    41017024:	00170137          	lui	x2,0x170
    41017028:	00013383          	ld	x7,0(x2) # 170000 <tp_csr_storage>
    4101702c:	100393f3          	csrrw	x7,sstatus,x7
    41017030:	00813383          	ld	x7,8(x2)
    41017034:	4164efb7          	lui	x31,0x4164e
    41017038:	0b0f8f9b          	addiw	x31,x31,176 # 4164e0b0 <machine_csr_jump_table_flags>
    4101703c:	03700f13          	li	x30,55
    41017040:	01efb023          	sd	x30,0(x31)
    41017044:	000f0fb7          	lui	x31,0xf0
    41017048:	001f8f9b          	addiw	x31,x31,1 # f0001 <SID_HEXCEP_09_sfence_vma_vtvm1_vs_stack+0x5c001>
    4101704c:	00cf9f93          	slli	x31,x31,0xc
    41017050:	005f8f93          	addi	x31,x31,5
    41017054:	00000073          	ecall

0000000041017058 <SID_HEXCEP_16_vsstatus_fs0_passed>:
    41017058:	00f00f9b          	addiw	x31,x0,15
    4101705c:	01cf9f93          	slli	x31,x31,0x1c
    41017060:	001f8f93          	addi	x31,x31,1
    41017064:	00000073          	ecall

0000000041017068 <SID_HEXCEP_16_sstatus_fs0>:
    41017068:	00170137          	lui	x2,0x170
    4101706c:	100023f3          	csrr	x7,sstatus
    41017070:	00713023          	sd	x7,0(x2) # 170000 <tp_csr_storage>
    41017074:	4164efb7          	lui	x31,0x4164e
    41017078:	0b0f8f9b          	addiw	x31,x31,176 # 4164e0b0 <machine_csr_jump_table_flags>
    4101707c:	03500f13          	li	x30,53
    41017080:	01efb023          	sd	x30,0(x31)
    41017084:	000f0fb7          	lui	x31,0xf0
    41017088:	001f8f9b          	addiw	x31,x31,1 # f0001 <SID_HEXCEP_09_sfence_vma_vtvm1_vs_stack+0x5c001>
    4101708c:	00cf9f93          	slli	x31,x31,0xc
    41017090:	005f8f93          	addi	x31,x31,5
    41017094:	00000073          	ecall
    41017098:	00713423          	sd	x7,8(x2)
    4101709c:	00aa1137          	lui	x2,0xaa1
    410170a0:	0e11011b          	addiw	x2,x2,225 # aa10e1 <SID_HEXCEP_07_vs_mode_stack+0xbd0e1>
    410170a4:	00c11113          	slli	x2,x2,0xc
    410170a8:	000012b7          	lui	x5,0x1
    410170ac:	00510133          	add	x2,x2,x5
    410170b0:	ff017113          	andi	x2,x2,-16
    410170b4:	000063b7          	lui	x7,0x6
    410170b8:	00200d93          	li	x27,2
    410170bc:	000f0fb7          	lui	x31,0xf0
    410170c0:	001f8f9b          	addiw	x31,x31,1 # f0001 <SID_HEXCEP_09_sfence_vma_vtvm1_vs_stack+0x5c001>
    410170c4:	00cf9f93          	slli	x31,x31,0xc
    410170c8:	002f8f93          	addi	x31,x31,2
    410170cc:	00000073          	ecall
    410170d0:	000023b7          	lui	x7,0x2
    410170d4:	1003a373          	csrrs	x6,sstatus,x7
    410170d8:	0e7de237          	lui	x4,0xe7de
    410170dc:	00200e13          	li	x28,2
    410170e0:	05c23823          	sd	x28,80(x4) # e7de050 <check_excp_expected_cause>
    410170e4:	00000e17          	auipc	x28,0x0
    410170e8:	048e0e13          	addi	x28,x28,72 # 4101712c <fault_label_99>
    410170ec:	03c23023          	sd	x28,32(x4) # 20 <SECURE_ACCESS_PROBABILITY+0x2>
    410170f0:	00000e13          	li	x28,0
    410170f4:	05c23023          	sd	x28,64(x4) # 40 <XLEN>
    410170f8:	00000e13          	li	x28,0
    410170fc:	05c23423          	sd	x28,72(x4) # 48 <XLEN+0x8>
    41017100:	00000e17          	auipc	x28,0x0
    41017104:	040e0e13          	addi	x28,x28,64 # 41017140 <excp_return_label_99>
    41017108:	03c23823          	sd	x28,48(x4) # 30 <SECURE_ACCESS_PROBABILITY+0x12>
    4101710c:	00000e13          	li	x28,0
    41017110:	03c23c23          	sd	x28,56(x4) # 38 <SECURE_ACCESS_PROBABILITY+0x1a>
    41017114:	00000e13          	li	x28,0
    41017118:	07c23023          	sd	x28,96(x4) # 60 <XLEN+0x20>
    4101711c:	00000e13          	li	x28,0
    41017120:	07c23423          	sd	x28,104(x4) # 68 <XLEN+0x28>
    41017124:	00000e13          	li	x28,0
    41017128:	07c23823          	sd	x28,112(x4) # 70 <XLEN+0x30>

000000004101712c <fault_label_99>:
    4101712c:	02007053          	fadd.d	f0,f0,f0
    41017130:	4164ea37          	lui	x20,0x4164e
    41017134:	008a0a1b          	addiw	x20,x20,8 # 4164e008 <failed_addr>
    41017138:	000a3903          	ld	x18,0(x20)
    4101713c:	00090067          	jr	x18

0000000041017140 <excp_return_label_99>:
    41017140:	00170137          	lui	x2,0x170
    41017144:	00013383          	ld	x7,0(x2) # 170000 <tp_csr_storage>
    41017148:	100393f3          	csrrw	x7,sstatus,x7
    4101714c:	00813383          	ld	x7,8(x2)
    41017150:	4164efb7          	lui	x31,0x4164e
    41017154:	0b0f8f9b          	addiw	x31,x31,176 # 4164e0b0 <machine_csr_jump_table_flags>
    41017158:	03700f13          	li	x30,55
    4101715c:	01efb023          	sd	x30,0(x31)
    41017160:	000f0fb7          	lui	x31,0xf0
    41017164:	001f8f9b          	addiw	x31,x31,1 # f0001 <SID_HEXCEP_09_sfence_vma_vtvm1_vs_stack+0x5c001>
    41017168:	00cf9f93          	slli	x31,x31,0xc
    4101716c:	005f8f93          	addi	x31,x31,5
    41017170:	00000073          	ecall

0000000041017174 <SID_HEXCEP_16_sstatus_fs0_passed>:
    41017174:	00f00f9b          	addiw	x31,x0,15
    41017178:	01cf9f93          	slli	x31,x31,0x1c
    4101717c:	001f8f93          	addi	x31,x31,1
    41017180:	00000073          	ecall

0000000041017184 <SID_HEXCEP_17_vs0_both>:
    41017184:	00170137          	lui	x2,0x170
    41017188:	100023f3          	csrr	x7,sstatus
    4101718c:	00713023          	sd	x7,0(x2) # 170000 <tp_csr_storage>
    41017190:	4164efb7          	lui	x31,0x4164e
    41017194:	0b0f8f9b          	addiw	x31,x31,176 # 4164e0b0 <machine_csr_jump_table_flags>
    41017198:	03500f13          	li	x30,53
    4101719c:	01efb023          	sd	x30,0(x31)
    410171a0:	000f0fb7          	lui	x31,0xf0
    410171a4:	001f8f9b          	addiw	x31,x31,1 # f0001 <SID_HEXCEP_09_sfence_vma_vtvm1_vs_stack+0x5c001>
    410171a8:	00cf9f93          	slli	x31,x31,0xc
    410171ac:	005f8f93          	addi	x31,x31,5
    410171b0:	00000073          	ecall
    410171b4:	00713423          	sd	x7,8(x2)
    410171b8:	01d0a137          	lui	x2,0x1d0a
    410171bc:	000012b7          	lui	x5,0x1
    410171c0:	00510133          	add	x2,x2,x5
    410171c4:	ff017113          	andi	x2,x2,-16
    410171c8:	60000493          	li	x9,1536
    410171cc:	00300d93          	li	x27,3
    410171d0:	000f0fb7          	lui	x31,0xf0
    410171d4:	001f8f9b          	addiw	x31,x31,1 # f0001 <SID_HEXCEP_09_sfence_vma_vtvm1_vs_stack+0x5c001>
    410171d8:	00cf9f93          	slli	x31,x31,0xc
    410171dc:	002f8f93          	addi	x31,x31,2
    410171e0:	00000073          	ecall
    410171e4:	60000393          	li	x7,1536
    410171e8:	1003b773          	csrrc	x14,sstatus,x7
    410171ec:	0e7de237          	lui	x4,0xe7de
    410171f0:	00200e13          	li	x28,2
    410171f4:	05c23823          	sd	x28,80(x4) # e7de050 <check_excp_expected_cause>
    410171f8:	00000e17          	auipc	x28,0x0
    410171fc:	048e0e13          	addi	x28,x28,72 # 41017240 <fault_label_100>
    41017200:	03c23023          	sd	x28,32(x4) # 20 <SECURE_ACCESS_PROBABILITY+0x2>
    41017204:	00000e13          	li	x28,0
    41017208:	05c23023          	sd	x28,64(x4) # 40 <XLEN>
    4101720c:	00000e13          	li	x28,0
    41017210:	05c23423          	sd	x28,72(x4) # 48 <XLEN+0x8>
    41017214:	00000e17          	auipc	x28,0x0
    41017218:	040e0e13          	addi	x28,x28,64 # 41017254 <excp_return_label_100>
    4101721c:	03c23823          	sd	x28,48(x4) # 30 <SECURE_ACCESS_PROBABILITY+0x12>
    41017220:	00000e13          	li	x28,0
    41017224:	03c23c23          	sd	x28,56(x4) # 38 <SECURE_ACCESS_PROBABILITY+0x1a>
    41017228:	00000e13          	li	x28,0
    4101722c:	07c23023          	sd	x28,96(x4) # 60 <XLEN+0x20>
    41017230:	00000e13          	li	x28,0
    41017234:	07c23423          	sd	x28,104(x4) # 68 <XLEN+0x28>
    41017238:	00000e13          	li	x28,0
    4101723c:	07c23823          	sd	x28,112(x4) # 70 <XLEN+0x30>

0000000041017240 <fault_label_100>:
    41017240:	c100f057          	vsetivli	x0,1,e32,m1,tu,mu
    41017244:	4164ec37          	lui	x24,0x4164e
    41017248:	008c0c1b          	addiw	x24,x24,8 # 4164e008 <failed_addr>
    4101724c:	000c3783          	ld	x15,0(x24)
    41017250:	00078067          	jr	x15 # 28ef0000 <mem0>

0000000041017254 <excp_return_label_100>:
    41017254:	00170137          	lui	x2,0x170
    41017258:	00013383          	ld	x7,0(x2) # 170000 <tp_csr_storage>
    4101725c:	100393f3          	csrrw	x7,sstatus,x7
    41017260:	00813383          	ld	x7,8(x2)
    41017264:	4164efb7          	lui	x31,0x4164e
    41017268:	0b0f8f9b          	addiw	x31,x31,176 # 4164e0b0 <machine_csr_jump_table_flags>
    4101726c:	03700f13          	li	x30,55
    41017270:	01efb023          	sd	x30,0(x31)
    41017274:	000f0fb7          	lui	x31,0xf0
    41017278:	001f8f9b          	addiw	x31,x31,1 # f0001 <SID_HEXCEP_09_sfence_vma_vtvm1_vs_stack+0x5c001>
    4101727c:	00cf9f93          	slli	x31,x31,0xc
    41017280:	005f8f93          	addi	x31,x31,5
    41017284:	00000073          	ecall

0000000041017288 <SID_HEXCEP_17_vs0_both_passed>:
    41017288:	00f00f9b          	addiw	x31,x0,15
    4101728c:	01cf9f93          	slli	x31,x31,0x1c
    41017290:	001f8f93          	addi	x31,x31,1
    41017294:	00000073          	ecall

0000000041017298 <SID_HEXCEP_17_vsstatus_vs0>:
    41017298:	00170137          	lui	x2,0x170
    4101729c:	100023f3          	csrr	x7,sstatus
    410172a0:	00713023          	sd	x7,0(x2) # 170000 <tp_csr_storage>
    410172a4:	4164efb7          	lui	x31,0x4164e
    410172a8:	0b0f8f9b          	addiw	x31,x31,176 # 4164e0b0 <machine_csr_jump_table_flags>
    410172ac:	03500f13          	li	x30,53
    410172b0:	01efb023          	sd	x30,0(x31)
    410172b4:	000f0fb7          	lui	x31,0xf0
    410172b8:	001f8f9b          	addiw	x31,x31,1 # f0001 <SID_HEXCEP_09_sfence_vma_vtvm1_vs_stack+0x5c001>
    410172bc:	00cf9f93          	slli	x31,x31,0xc
    410172c0:	005f8f93          	addi	x31,x31,5
    410172c4:	00000073          	ecall
    410172c8:	00713423          	sd	x7,8(x2)
    410172cc:	02a08137          	lui	x2,0x2a08
    410172d0:	caf1011b          	addiw	x2,x2,-849 # 2a07caf <SID_HEXCEP_17_vs0_both_stack+0xcfdcaf>
    410172d4:	00c11113          	slli	x2,x2,0xc
    410172d8:	000012b7          	lui	x5,0x1
    410172dc:	00510133          	add	x2,x2,x5
    410172e0:	ff017113          	andi	x2,x2,-16
    410172e4:	20000513          	li	x10,512
    410172e8:	00400d93          	li	x27,4
    410172ec:	000f0fb7          	lui	x31,0xf0
    410172f0:	001f8f9b          	addiw	x31,x31,1 # f0001 <SID_HEXCEP_09_sfence_vma_vtvm1_vs_stack+0x5c001>
    410172f4:	00cf9f93          	slli	x31,x31,0xc
    410172f8:	002f8f93          	addi	x31,x31,2
    410172fc:	00000073          	ecall
    41017300:	60000393          	li	x7,1536
    41017304:	1003b9f3          	csrrc	x19,sstatus,x7
    41017308:	0e7de237          	lui	x4,0xe7de
    4101730c:	00200e13          	li	x28,2
    41017310:	05c23823          	sd	x28,80(x4) # e7de050 <check_excp_expected_cause>
    41017314:	00000e17          	auipc	x28,0x0
    41017318:	048e0e13          	addi	x28,x28,72 # 4101735c <fault_label_101>
    4101731c:	03c23023          	sd	x28,32(x4) # 20 <SECURE_ACCESS_PROBABILITY+0x2>
    41017320:	00000e13          	li	x28,0
    41017324:	05c23023          	sd	x28,64(x4) # 40 <XLEN>
    41017328:	00000e13          	li	x28,0
    4101732c:	05c23423          	sd	x28,72(x4) # 48 <XLEN+0x8>
    41017330:	00000e17          	auipc	x28,0x0
    41017334:	040e0e13          	addi	x28,x28,64 # 41017370 <excp_return_label_101>
    41017338:	03c23823          	sd	x28,48(x4) # 30 <SECURE_ACCESS_PROBABILITY+0x12>
    4101733c:	00000e13          	li	x28,0
    41017340:	03c23c23          	sd	x28,56(x4) # 38 <SECURE_ACCESS_PROBABILITY+0x1a>
    41017344:	00000e13          	li	x28,0
    41017348:	07c23023          	sd	x28,96(x4) # 60 <XLEN+0x20>
    4101734c:	00000e13          	li	x28,0
    41017350:	07c23423          	sd	x28,104(x4) # 68 <XLEN+0x28>
    41017354:	00000e13          	li	x28,0
    41017358:	07c23823          	sd	x28,112(x4) # 70 <XLEN+0x30>

000000004101735c <fault_label_101>:
    4101735c:	c100f057          	vsetivli	x0,1,e32,m1,tu,mu
    41017360:	4164eab7          	lui	x21,0x4164e
    41017364:	008a8a9b          	addiw	x21,x21,8 # 4164e008 <failed_addr>
    41017368:	000abc83          	ld	x25,0(x21)
    4101736c:	000c8067          	jr	x25

0000000041017370 <excp_return_label_101>:
    41017370:	00170137          	lui	x2,0x170
    41017374:	00013383          	ld	x7,0(x2) # 170000 <tp_csr_storage>
    41017378:	100393f3          	csrrw	x7,sstatus,x7
    4101737c:	00813383          	ld	x7,8(x2)
    41017380:	4164efb7          	lui	x31,0x4164e
    41017384:	0b0f8f9b          	addiw	x31,x31,176 # 4164e0b0 <machine_csr_jump_table_flags>
    41017388:	03700f13          	li	x30,55
    4101738c:	01efb023          	sd	x30,0(x31)
    41017390:	000f0fb7          	lui	x31,0xf0
    41017394:	001f8f9b          	addiw	x31,x31,1 # f0001 <SID_HEXCEP_09_sfence_vma_vtvm1_vs_stack+0x5c001>
    41017398:	00cf9f93          	slli	x31,x31,0xc
    4101739c:	005f8f93          	addi	x31,x31,5
    410173a0:	00000073          	ecall

00000000410173a4 <SID_HEXCEP_17_vsstatus_vs0_passed>:
    410173a4:	00f00f9b          	addiw	x31,x0,15
    410173a8:	01cf9f93          	slli	x31,x31,0x1c
    410173ac:	001f8f93          	addi	x31,x31,1
    410173b0:	00000073          	ecall

00000000410173b4 <SID_HEXCEP_17_sstatus_vs0>:
    410173b4:	00170137          	lui	x2,0x170
    410173b8:	100023f3          	csrr	x7,sstatus
    410173bc:	00713023          	sd	x7,0(x2) # 170000 <tp_csr_storage>
    410173c0:	4164efb7          	lui	x31,0x4164e
    410173c4:	0b0f8f9b          	addiw	x31,x31,176 # 4164e0b0 <machine_csr_jump_table_flags>
    410173c8:	03500f13          	li	x30,53
    410173cc:	01efb023          	sd	x30,0(x31)
    410173d0:	000f0fb7          	lui	x31,0xf0
    410173d4:	001f8f9b          	addiw	x31,x31,1 # f0001 <SID_HEXCEP_09_sfence_vma_vtvm1_vs_stack+0x5c001>
    410173d8:	00cf9f93          	slli	x31,x31,0xc
    410173dc:	005f8f93          	addi	x31,x31,5
    410173e0:	00000073          	ecall
    410173e4:	00713423          	sd	x7,8(x2)
    410173e8:	00009137          	lui	x2,0x9
    410173ec:	000012b7          	lui	x5,0x1
    410173f0:	00510133          	add	x2,x2,x5
    410173f4:	ff017113          	andi	x2,x2,-16
    410173f8:	60000a93          	li	x21,1536
    410173fc:	00500d93          	li	x27,5
    41017400:	000f0fb7          	lui	x31,0xf0
    41017404:	001f8f9b          	addiw	x31,x31,1 # f0001 <SID_HEXCEP_09_sfence_vma_vtvm1_vs_stack+0x5c001>
    41017408:	00cf9f93          	slli	x31,x31,0xc
    4101740c:	002f8f93          	addi	x31,x31,2
    41017410:	00000073          	ecall
    41017414:	20000393          	li	x7,512
    41017418:	1003a573          	csrrs	x10,sstatus,x7
    4101741c:	0e7de237          	lui	x4,0xe7de
    41017420:	00200e13          	li	x28,2
    41017424:	05c23823          	sd	x28,80(x4) # e7de050 <check_excp_expected_cause>
    41017428:	00000e17          	auipc	x28,0x0
    4101742c:	048e0e13          	addi	x28,x28,72 # 41017470 <fault_label_102>
    41017430:	03c23023          	sd	x28,32(x4) # 20 <SECURE_ACCESS_PROBABILITY+0x2>
    41017434:	00000e13          	li	x28,0
    41017438:	05c23023          	sd	x28,64(x4) # 40 <XLEN>
    4101743c:	00000e13          	li	x28,0
    41017440:	05c23423          	sd	x28,72(x4) # 48 <XLEN+0x8>
    41017444:	00000e17          	auipc	x28,0x0
    41017448:	040e0e13          	addi	x28,x28,64 # 41017484 <excp_return_label_102>
    4101744c:	03c23823          	sd	x28,48(x4) # 30 <SECURE_ACCESS_PROBABILITY+0x12>
    41017450:	00000e13          	li	x28,0
    41017454:	03c23c23          	sd	x28,56(x4) # 38 <SECURE_ACCESS_PROBABILITY+0x1a>
    41017458:	00000e13          	li	x28,0
    4101745c:	07c23023          	sd	x28,96(x4) # 60 <XLEN+0x20>
    41017460:	00000e13          	li	x28,0
    41017464:	07c23423          	sd	x28,104(x4) # 68 <XLEN+0x28>
    41017468:	00000e13          	li	x28,0
    4101746c:	07c23823          	sd	x28,112(x4) # 70 <XLEN+0x30>

0000000041017470 <fault_label_102>:
    41017470:	c100f057          	vsetivli	x0,1,e32,m1,tu,mu
    41017474:	4164e9b7          	lui	x19,0x4164e
    41017478:	0089899b          	addiw	x19,x19,8 # 4164e008 <failed_addr>
    4101747c:	0009bb03          	ld	x22,0(x19)
    41017480:	000b0067          	jr	x22

0000000041017484 <excp_return_label_102>:
    41017484:	00170137          	lui	x2,0x170
    41017488:	00013383          	ld	x7,0(x2) # 170000 <tp_csr_storage>
    4101748c:	100393f3          	csrrw	x7,sstatus,x7
    41017490:	00813383          	ld	x7,8(x2)
    41017494:	4164efb7          	lui	x31,0x4164e
    41017498:	0b0f8f9b          	addiw	x31,x31,176 # 4164e0b0 <machine_csr_jump_table_flags>
    4101749c:	03700f13          	li	x30,55
    410174a0:	01efb023          	sd	x30,0(x31)
    410174a4:	000f0fb7          	lui	x31,0xf0
    410174a8:	001f8f9b          	addiw	x31,x31,1 # f0001 <SID_HEXCEP_09_sfence_vma_vtvm1_vs_stack+0x5c001>
    410174ac:	00cf9f93          	slli	x31,x31,0xc
    410174b0:	005f8f93          	addi	x31,x31,5
    410174b4:	00000073          	ecall

00000000410174b8 <SID_HEXCEP_17_sstatus_vs0_passed>:
    410174b8:	00f00f9b          	addiw	x31,x0,15
    410174bc:	01cf9f93          	slli	x31,x31,0x1c
    410174c0:	001f8f93          	addi	x31,x31,1
    410174c4:	00000073          	ecall

00000000410174c8 <SID_HEXCEP_19_misaligned_amo>:
    410174c8:	00170137          	lui	x2,0x170
    410174cc:	4164efb7          	lui	x31,0x4164e
    410174d0:	0b0f8f9b          	addiw	x31,x31,176 # 4164e0b0 <machine_csr_jump_table_flags>
    410174d4:	03500f13          	li	x30,53
    410174d8:	01efb023          	sd	x30,0(x31)
    410174dc:	000f0fb7          	lui	x31,0xf0
    410174e0:	001f8f9b          	addiw	x31,x31,1 # f0001 <SID_HEXCEP_09_sfence_vma_vtvm1_vs_stack+0x5c001>
    410174e4:	00cf9f93          	slli	x31,x31,0xc
    410174e8:	005f8f93          	addi	x31,x31,5
    410174ec:	00000073          	ecall
    410174f0:	00713023          	sd	x7,0(x2) # 170000 <tp_csr_storage>
    410174f4:	00829137          	lui	x2,0x829
    410174f8:	000012b7          	lui	x5,0x1
    410174fc:	00510133          	add	x2,x2,x5
    41017500:	ff017113          	andi	x2,x2,-16
    41017504:	0e7de237          	lui	x4,0xe7de
    41017508:	00700e13          	li	x28,7
    4101750c:	05c23823          	sd	x28,80(x4) # e7de050 <check_excp_expected_cause>
    41017510:	00000e17          	auipc	x28,0x0
    41017514:	058e0e13          	addi	x28,x28,88 # 41017568 <fault_label_103>
    41017518:	03c23023          	sd	x28,32(x4) # 20 <SECURE_ACCESS_PROBABILITY+0x2>
    4101751c:	00000e13          	li	x28,0
    41017520:	05c23023          	sd	x28,64(x4) # 40 <XLEN>
    41017524:	00000e13          	li	x28,0
    41017528:	05c23423          	sd	x28,72(x4) # 48 <XLEN+0x8>
    4101752c:	00000e17          	auipc	x28,0x0
    41017530:	050e0e13          	addi	x28,x28,80 # 4101757c <excp_return_label_103>
    41017534:	03c23823          	sd	x28,48(x4) # 30 <SECURE_ACCESS_PROBABILITY+0x12>
    41017538:	00000e13          	li	x28,0
    4101753c:	03c23c23          	sd	x28,56(x4) # 38 <SECURE_ACCESS_PROBABILITY+0x1a>
    41017540:	00000e13          	li	x28,0
    41017544:	07c23023          	sd	x28,96(x4) # 60 <XLEN+0x20>
    41017548:	00000e13          	li	x28,0
    4101754c:	07c23423          	sd	x28,104(x4) # 68 <XLEN+0x28>
    41017550:	00000e13          	li	x28,0
    41017554:	07c23823          	sd	x28,112(x4) # 70 <XLEN+0x30>
    41017558:	008634b7          	lui	x9,0x863
    4101755c:	00100793          	li	x15,1
    41017560:	00f48533          	add	x10,x9,x15
    41017564:	00100593          	li	x11,1

0000000041017568 <fault_label_103>:
    41017568:	00b5242f          	amoadd.w	x8,x11,(x10)
    4101756c:	4164ef37          	lui	x30,0x4164e
    41017570:	008f0f1b          	addiw	x30,x30,8 # 4164e008 <failed_addr>
    41017574:	000f3a83          	ld	x21,0(x30)
    41017578:	000a8067          	jr	x21

000000004101757c <excp_return_label_103>:
    4101757c:	0e7de237          	lui	x4,0xe7de
    41017580:	00700e13          	li	x28,7
    41017584:	05c23823          	sd	x28,80(x4) # e7de050 <check_excp_expected_cause>
    41017588:	00000e17          	auipc	x28,0x0
    4101758c:	058e0e13          	addi	x28,x28,88 # 410175e0 <fault_label_104>
    41017590:	03c23023          	sd	x28,32(x4) # 20 <SECURE_ACCESS_PROBABILITY+0x2>
    41017594:	00000e13          	li	x28,0
    41017598:	05c23023          	sd	x28,64(x4) # 40 <XLEN>
    4101759c:	00000e13          	li	x28,0
    410175a0:	05c23423          	sd	x28,72(x4) # 48 <XLEN+0x8>
    410175a4:	00000e17          	auipc	x28,0x0
    410175a8:	050e0e13          	addi	x28,x28,80 # 410175f4 <excp_return_label_104>
    410175ac:	03c23823          	sd	x28,48(x4) # 30 <SECURE_ACCESS_PROBABILITY+0x12>
    410175b0:	00000e13          	li	x28,0
    410175b4:	03c23c23          	sd	x28,56(x4) # 38 <SECURE_ACCESS_PROBABILITY+0x1a>
    410175b8:	00000e13          	li	x28,0
    410175bc:	07c23023          	sd	x28,96(x4) # 60 <XLEN+0x20>
    410175c0:	00000e13          	li	x28,0
    410175c4:	07c23423          	sd	x28,104(x4) # 68 <XLEN+0x28>
    410175c8:	00000e13          	li	x28,0
    410175cc:	07c23823          	sd	x28,112(x4) # 70 <XLEN+0x30>
    410175d0:	008637b7          	lui	x15,0x863
    410175d4:	00300c13          	li	x24,3
    410175d8:	018788b3          	add	x17,x15,x24
    410175dc:	00300a93          	li	x21,3

00000000410175e0 <fault_label_104>:
    410175e0:	0958a6af          	amoswap.w	x13,x21,(x17)
    410175e4:	4164e337          	lui	x6,0x4164e
    410175e8:	0083031b          	addiw	x6,x6,8 # 4164e008 <failed_addr>
    410175ec:	00033f03          	ld	x30,0(x6)
    410175f0:	000f0067          	jr	x30

00000000410175f4 <excp_return_label_104>:
    410175f4:	0e7de237          	lui	x4,0xe7de
    410175f8:	00700e13          	li	x28,7
    410175fc:	05c23823          	sd	x28,80(x4) # e7de050 <check_excp_expected_cause>
    41017600:	00000e17          	auipc	x28,0x0
    41017604:	058e0e13          	addi	x28,x28,88 # 41017658 <fault_label_105>
    41017608:	03c23023          	sd	x28,32(x4) # 20 <SECURE_ACCESS_PROBABILITY+0x2>
    4101760c:	00000e13          	li	x28,0
    41017610:	05c23023          	sd	x28,64(x4) # 40 <XLEN>
    41017614:	00000e13          	li	x28,0
    41017618:	05c23423          	sd	x28,72(x4) # 48 <XLEN+0x8>
    4101761c:	00000e17          	auipc	x28,0x0
    41017620:	050e0e13          	addi	x28,x28,80 # 4101766c <excp_return_label_105>
    41017624:	03c23823          	sd	x28,48(x4) # 30 <SECURE_ACCESS_PROBABILITY+0x12>
    41017628:	00000e13          	li	x28,0
    4101762c:	03c23c23          	sd	x28,56(x4) # 38 <SECURE_ACCESS_PROBABILITY+0x1a>
    41017630:	00000e13          	li	x28,0
    41017634:	07c23023          	sd	x28,96(x4) # 60 <XLEN+0x20>
    41017638:	00000e13          	li	x28,0
    4101763c:	07c23423          	sd	x28,104(x4) # 68 <XLEN+0x28>
    41017640:	00000e13          	li	x28,0
    41017644:	07c23823          	sd	x28,112(x4) # 70 <XLEN+0x30>
    41017648:	008638b7          	lui	x17,0x863
    4101764c:	00400493          	li	x9,4
    41017650:	009888b3          	add	x17,x17,x9
    41017654:	00400613          	li	x12,4

0000000041017658 <fault_label_105>:
    41017658:	00c8b4af          	amoadd.d	x9,x12,(x17)
    4101765c:	4164ef37          	lui	x30,0x4164e
    41017660:	008f0f1b          	addiw	x30,x30,8 # 4164e008 <failed_addr>
    41017664:	000f3583          	ld	x11,0(x30)
    41017668:	00058067          	jr	x11

000000004101766c <excp_return_label_105>:
    4101766c:	00170137          	lui	x2,0x170
    41017670:	00013383          	ld	x7,0(x2) # 170000 <tp_csr_storage>
    41017674:	4164efb7          	lui	x31,0x4164e
    41017678:	0b0f8f9b          	addiw	x31,x31,176 # 4164e0b0 <machine_csr_jump_table_flags>
    4101767c:	03700f13          	li	x30,55
    41017680:	01efb023          	sd	x30,0(x31)
    41017684:	000f0fb7          	lui	x31,0xf0
    41017688:	001f8f9b          	addiw	x31,x31,1 # f0001 <SID_HEXCEP_09_sfence_vma_vtvm1_vs_stack+0x5c001>
    4101768c:	00cf9f93          	slli	x31,x31,0xc
    41017690:	005f8f93          	addi	x31,x31,5
    41017694:	00000073          	ecall

0000000041017698 <SID_HEXCEP_19_misaligned_amo_passed>:
    41017698:	00f00f9b          	addiw	x31,x0,15
    4101769c:	01cf9f93          	slli	x31,x31,0x1c
    410176a0:	001f8f93          	addi	x31,x31,1
    410176a4:	00000073          	ecall

00000000410176a8 <SID_HEXCEP_19_misaligned_lr>:
    410176a8:	00170137          	lui	x2,0x170
    410176ac:	4164efb7          	lui	x31,0x4164e
    410176b0:	0b0f8f9b          	addiw	x31,x31,176 # 4164e0b0 <machine_csr_jump_table_flags>
    410176b4:	03500f13          	li	x30,53
    410176b8:	01efb023          	sd	x30,0(x31)
    410176bc:	000f0fb7          	lui	x31,0xf0
    410176c0:	001f8f9b          	addiw	x31,x31,1 # f0001 <SID_HEXCEP_09_sfence_vma_vtvm1_vs_stack+0x5c001>
    410176c4:	00cf9f93          	slli	x31,x31,0xc
    410176c8:	005f8f93          	addi	x31,x31,5
    410176cc:	00000073          	ecall
    410176d0:	00713023          	sd	x7,0(x2) # 170000 <tp_csr_storage>
    410176d4:	40e0c137          	lui	x2,0x40e0c
    410176d8:	000012b7          	lui	x5,0x1
    410176dc:	00510133          	add	x2,x2,x5
    410176e0:	ff017113          	andi	x2,x2,-16
    410176e4:	0e7de237          	lui	x4,0xe7de
    410176e8:	00500e13          	li	x28,5
    410176ec:	05c23823          	sd	x28,80(x4) # e7de050 <check_excp_expected_cause>
    410176f0:	00000e17          	auipc	x28,0x0
    410176f4:	054e0e13          	addi	x28,x28,84 # 41017744 <fault_label_106>
    410176f8:	03c23023          	sd	x28,32(x4) # 20 <SECURE_ACCESS_PROBABILITY+0x2>
    410176fc:	00000e13          	li	x28,0
    41017700:	05c23023          	sd	x28,64(x4) # 40 <XLEN>
    41017704:	00000e13          	li	x28,0
    41017708:	05c23423          	sd	x28,72(x4) # 48 <XLEN+0x8>
    4101770c:	00000e17          	auipc	x28,0x0
    41017710:	04ce0e13          	addi	x28,x28,76 # 41017758 <excp_return_label_106>
    41017714:	03c23823          	sd	x28,48(x4) # 30 <SECURE_ACCESS_PROBABILITY+0x12>
    41017718:	00000e13          	li	x28,0
    4101771c:	03c23c23          	sd	x28,56(x4) # 38 <SECURE_ACCESS_PROBABILITY+0x1a>
    41017720:	00000e13          	li	x28,0
    41017724:	07c23023          	sd	x28,96(x4) # 60 <XLEN+0x20>
    41017728:	00000e13          	li	x28,0
    4101772c:	07c23423          	sd	x28,104(x4) # 68 <XLEN+0x28>
    41017730:	00000e13          	li	x28,0
    41017734:	07c23823          	sd	x28,112(x4) # 70 <XLEN+0x30>
    41017738:	000027b7          	lui	x15,0x2
    4101773c:	00100913          	li	x18,1
    41017740:	01278b33          	add	x22,x15,x18

0000000041017744 <fault_label_106>:
    41017744:	100b252f          	lr.w	x10,(x22)
    41017748:	4164e537          	lui	x10,0x4164e
    4101774c:	0085051b          	addiw	x10,x10,8 # 4164e008 <failed_addr>
    41017750:	00053a03          	ld	x20,0(x10)
    41017754:	000a0067          	jr	x20

0000000041017758 <excp_return_label_106>:
    41017758:	0e7de237          	lui	x4,0xe7de
    4101775c:	00500e13          	li	x28,5
    41017760:	05c23823          	sd	x28,80(x4) # e7de050 <check_excp_expected_cause>
    41017764:	00000e17          	auipc	x28,0x0
    41017768:	054e0e13          	addi	x28,x28,84 # 410177b8 <fault_label_107>
    4101776c:	03c23023          	sd	x28,32(x4) # 20 <SECURE_ACCESS_PROBABILITY+0x2>
    41017770:	00000e13          	li	x28,0
    41017774:	05c23023          	sd	x28,64(x4) # 40 <XLEN>
    41017778:	00000e13          	li	x28,0
    4101777c:	05c23423          	sd	x28,72(x4) # 48 <XLEN+0x8>
    41017780:	00000e17          	auipc	x28,0x0
    41017784:	04ce0e13          	addi	x28,x28,76 # 410177cc <excp_return_label_107>
    41017788:	03c23823          	sd	x28,48(x4) # 30 <SECURE_ACCESS_PROBABILITY+0x12>
    4101778c:	00000e13          	li	x28,0
    41017790:	03c23c23          	sd	x28,56(x4) # 38 <SECURE_ACCESS_PROBABILITY+0x1a>
    41017794:	00000e13          	li	x28,0
    41017798:	07c23023          	sd	x28,96(x4) # 60 <XLEN+0x20>
    4101779c:	00000e13          	li	x28,0
    410177a0:	07c23423          	sd	x28,104(x4) # 68 <XLEN+0x28>
    410177a4:	00000e13          	li	x28,0
    410177a8:	07c23823          	sd	x28,112(x4) # 70 <XLEN+0x30>
    410177ac:	00002837          	lui	x16,0x2
    410177b0:	00400d93          	li	x27,4
    410177b4:	01b80eb3          	add	x29,x16,x27

00000000410177b8 <fault_label_107>:
    410177b8:	100ebe2f          	lr.d	x28,(x29)
    410177bc:	4164edb7          	lui	x27,0x4164e
    410177c0:	008d8d9b          	addiw	x27,x27,8 # 4164e008 <failed_addr>
    410177c4:	000dbe83          	ld	x29,0(x27)
    410177c8:	000e8067          	jr	x29

00000000410177cc <excp_return_label_107>:
    410177cc:	00170137          	lui	x2,0x170
    410177d0:	00013383          	ld	x7,0(x2) # 170000 <tp_csr_storage>
    410177d4:	4164efb7          	lui	x31,0x4164e
    410177d8:	0b0f8f9b          	addiw	x31,x31,176 # 4164e0b0 <machine_csr_jump_table_flags>
    410177dc:	03700f13          	li	x30,55
    410177e0:	01efb023          	sd	x30,0(x31)
    410177e4:	000f0fb7          	lui	x31,0xf0
    410177e8:	001f8f9b          	addiw	x31,x31,1 # f0001 <SID_HEXCEP_09_sfence_vma_vtvm1_vs_stack+0x5c001>
    410177ec:	00cf9f93          	slli	x31,x31,0xc
    410177f0:	005f8f93          	addi	x31,x31,5
    410177f4:	00000073          	ecall

00000000410177f8 <SID_HEXCEP_19_misaligned_lr_passed>:
    410177f8:	00f00f9b          	addiw	x31,x0,15
    410177fc:	01cf9f93          	slli	x31,x31,0x1c
    41017800:	001f8f93          	addi	x31,x31,1
    41017804:	00000073          	ecall

0000000041017808 <SID_HEXCEP_19_misaligned_sc>:
    41017808:	00170137          	lui	x2,0x170
    4101780c:	4164efb7          	lui	x31,0x4164e
    41017810:	0b0f8f9b          	addiw	x31,x31,176 # 4164e0b0 <machine_csr_jump_table_flags>
    41017814:	03500f13          	li	x30,53
    41017818:	01efb023          	sd	x30,0(x31)
    4101781c:	000f0fb7          	lui	x31,0xf0
    41017820:	001f8f9b          	addiw	x31,x31,1 # f0001 <SID_HEXCEP_09_sfence_vma_vtvm1_vs_stack+0x5c001>
    41017824:	00cf9f93          	slli	x31,x31,0xc
    41017828:	005f8f93          	addi	x31,x31,5
    4101782c:	00000073          	ecall
    41017830:	00713023          	sd	x7,0(x2) # 170000 <tp_csr_storage>
    41017834:	00032137          	lui	x2,0x32
    41017838:	000012b7          	lui	x5,0x1
    4101783c:	00510133          	add	x2,x2,x5
    41017840:	ff017113          	andi	x2,x2,-16
    41017844:	0e7de237          	lui	x4,0xe7de
    41017848:	00700e13          	li	x28,7
    4101784c:	05c23823          	sd	x28,80(x4) # e7de050 <check_excp_expected_cause>
    41017850:	00000e17          	auipc	x28,0x0
    41017854:	058e0e13          	addi	x28,x28,88 # 410178a8 <fault_label_108>
    41017858:	03c23023          	sd	x28,32(x4) # 20 <SECURE_ACCESS_PROBABILITY+0x2>
    4101785c:	00000e13          	li	x28,0
    41017860:	05c23023          	sd	x28,64(x4) # 40 <XLEN>
    41017864:	00000e13          	li	x28,0
    41017868:	05c23423          	sd	x28,72(x4) # 48 <XLEN+0x8>
    4101786c:	00000e17          	auipc	x28,0x0
    41017870:	050e0e13          	addi	x28,x28,80 # 410178bc <excp_return_label_108>
    41017874:	03c23823          	sd	x28,48(x4) # 30 <SECURE_ACCESS_PROBABILITY+0x12>
    41017878:	00000e13          	li	x28,0
    4101787c:	03c23c23          	sd	x28,56(x4) # 38 <SECURE_ACCESS_PROBABILITY+0x1a>
    41017880:	00000e13          	li	x28,0
    41017884:	07c23023          	sd	x28,96(x4) # 60 <XLEN+0x20>
    41017888:	00000e13          	li	x28,0
    4101788c:	07c23423          	sd	x28,104(x4) # 68 <XLEN+0x28>
    41017890:	00000e13          	li	x28,0
    41017894:	07c23823          	sd	x28,112(x4) # 70 <XLEN+0x30>
    41017898:	00027fb7          	lui	x31,0x27
    4101789c:	00100993          	li	x19,1
    410178a0:	013f8b33          	add	x22,x31,x19
    410178a4:	00100e93          	li	x29,1

00000000410178a8 <fault_label_108>:
    410178a8:	19db27af          	sc.w	x15,x29,(x22)
    410178ac:	4164ea37          	lui	x20,0x4164e
    410178b0:	008a0a1b          	addiw	x20,x20,8 # 4164e008 <failed_addr>
    410178b4:	000a3683          	ld	x13,0(x20)
    410178b8:	00068067          	jr	x13

00000000410178bc <excp_return_label_108>:
    410178bc:	0e7de237          	lui	x4,0xe7de
    410178c0:	00700e13          	li	x28,7
    410178c4:	05c23823          	sd	x28,80(x4) # e7de050 <check_excp_expected_cause>
    410178c8:	00000e17          	auipc	x28,0x0
    410178cc:	058e0e13          	addi	x28,x28,88 # 41017920 <fault_label_109>
    410178d0:	03c23023          	sd	x28,32(x4) # 20 <SECURE_ACCESS_PROBABILITY+0x2>
    410178d4:	00000e13          	li	x28,0
    410178d8:	05c23023          	sd	x28,64(x4) # 40 <XLEN>
    410178dc:	00000e13          	li	x28,0
    410178e0:	05c23423          	sd	x28,72(x4) # 48 <XLEN+0x8>
    410178e4:	00000e17          	auipc	x28,0x0
    410178e8:	050e0e13          	addi	x28,x28,80 # 41017934 <excp_return_label_109>
    410178ec:	03c23823          	sd	x28,48(x4) # 30 <SECURE_ACCESS_PROBABILITY+0x12>
    410178f0:	00000e13          	li	x28,0
    410178f4:	03c23c23          	sd	x28,56(x4) # 38 <SECURE_ACCESS_PROBABILITY+0x1a>
    410178f8:	00000e13          	li	x28,0
    410178fc:	07c23023          	sd	x28,96(x4) # 60 <XLEN+0x20>
    41017900:	00000e13          	li	x28,0
    41017904:	07c23423          	sd	x28,104(x4) # 68 <XLEN+0x28>
    41017908:	00000e13          	li	x28,0
    4101790c:	07c23823          	sd	x28,112(x4) # 70 <XLEN+0x30>
    41017910:	000275b7          	lui	x11,0x27
    41017914:	00400d93          	li	x27,4
    41017918:	01b58b33          	add	x22,x11,x27
    4101791c:	00400893          	li	x17,4

0000000041017920 <fault_label_109>:
    41017920:	191b39af          	sc.d	x19,x17,(x22)
    41017924:	4164ed37          	lui	x26,0x4164e
    41017928:	008d0d1b          	addiw	x26,x26,8 # 4164e008 <failed_addr>
    4101792c:	000d3b03          	ld	x22,0(x26)
    41017930:	000b0067          	jr	x22

0000000041017934 <excp_return_label_109>:
    41017934:	00170137          	lui	x2,0x170
    41017938:	00013383          	ld	x7,0(x2) # 170000 <tp_csr_storage>
    4101793c:	4164efb7          	lui	x31,0x4164e
    41017940:	0b0f8f9b          	addiw	x31,x31,176 # 4164e0b0 <machine_csr_jump_table_flags>
    41017944:	03700f13          	li	x30,55
    41017948:	01efb023          	sd	x30,0(x31)
    4101794c:	000f0fb7          	lui	x31,0xf0
    41017950:	001f8f9b          	addiw	x31,x31,1 # f0001 <SID_HEXCEP_09_sfence_vma_vtvm1_vs_stack+0x5c001>
    41017954:	00cf9f93          	slli	x31,x31,0xc
    41017958:	005f8f93          	addi	x31,x31,5
    4101795c:	00000073          	ecall

0000000041017960 <SID_HEXCEP_19_misaligned_sc_passed>:
    41017960:	00f00f9b          	addiw	x31,x0,15
    41017964:	01cf9f93          	slli	x31,x31,0x1c
    41017968:	001f8f93          	addi	x31,x31,1
    4101796c:	00000073          	ecall

0000000041017970 <SID_HEXCEP_19_misaligned_amo_delegated>:
    41017970:	00170137          	lui	x2,0x170
    41017974:	4164efb7          	lui	x31,0x4164e
    41017978:	0b8f8f9b          	addiw	x31,x31,184 # 4164e0b8 <super_csr_jump_table_flags>
    4101797c:	05200f13          	li	x30,82
    41017980:	01efb023          	sd	x30,0(x31)
    41017984:	000f0fb7          	lui	x31,0xf0
    41017988:	001f8f9b          	addiw	x31,x31,1 # f0001 <SID_HEXCEP_09_sfence_vma_vtvm1_vs_stack+0x5c001>
    4101798c:	00cf9f93          	slli	x31,x31,0xc
    41017990:	006f8f93          	addi	x31,x31,6
    41017994:	00000073          	ecall
    41017998:	00713023          	sd	x7,0(x2) # 170000 <tp_csr_storage>
    4101799c:	4164efb7          	lui	x31,0x4164e
    410179a0:	0b0f8f9b          	addiw	x31,x31,176 # 4164e0b0 <machine_csr_jump_table_flags>
    410179a4:	05300f13          	li	x30,83
    410179a8:	01efb023          	sd	x30,0(x31)
    410179ac:	000f0fb7          	lui	x31,0xf0
    410179b0:	001f8f9b          	addiw	x31,x31,1 # f0001 <SID_HEXCEP_09_sfence_vma_vtvm1_vs_stack+0x5c001>
    410179b4:	00cf9f93          	slli	x31,x31,0xc
    410179b8:	005f8f93          	addi	x31,x31,5
    410179bc:	00000073          	ecall
    410179c0:	00713423          	sd	x7,8(x2)
    410179c4:	4164efb7          	lui	x31,0x4164e
    410179c8:	0b0f8f9b          	addiw	x31,x31,176 # 4164e0b0 <machine_csr_jump_table_flags>
    410179cc:	03500f13          	li	x30,53
    410179d0:	01efb023          	sd	x30,0(x31)
    410179d4:	000f0fb7          	lui	x31,0xf0
    410179d8:	001f8f9b          	addiw	x31,x31,1 # f0001 <SID_HEXCEP_09_sfence_vma_vtvm1_vs_stack+0x5c001>
    410179dc:	00cf9f93          	slli	x31,x31,0xc
    410179e0:	005f8f93          	addi	x31,x31,5
    410179e4:	00000073          	ecall
    410179e8:	00713823          	sd	x7,16(x2)
    410179ec:	38058137          	lui	x2,0x38058
    410179f0:	000012b7          	lui	x5,0x1
    410179f4:	00510133          	add	x2,x2,x5
    410179f8:	ff017113          	andi	x2,x2,-16
    410179fc:	08000393          	li	x7,128
    41017a00:	4164efb7          	lui	x31,0x4164e
    41017a04:	0b0f8f9b          	addiw	x31,x31,176 # 4164e0b0 <machine_csr_jump_table_flags>
    41017a08:	05500f13          	li	x30,85
    41017a0c:	01efb023          	sd	x30,0(x31)
    41017a10:	000f0fb7          	lui	x31,0xf0
    41017a14:	001f8f9b          	addiw	x31,x31,1 # f0001 <SID_HEXCEP_09_sfence_vma_vtvm1_vs_stack+0x5c001>
    41017a18:	00cf9f93          	slli	x31,x31,0xc
    41017a1c:	005f8f93          	addi	x31,x31,5
    41017a20:	00000073          	ecall
    41017a24:	08000393          	li	x7,128
    41017a28:	4164efb7          	lui	x31,0x4164e
    41017a2c:	0b8f8f9b          	addiw	x31,x31,184 # 4164e0b8 <super_csr_jump_table_flags>
    41017a30:	05600f13          	li	x30,86
    41017a34:	01efb023          	sd	x30,0(x31)
    41017a38:	000f0fb7          	lui	x31,0xf0
    41017a3c:	001f8f9b          	addiw	x31,x31,1 # f0001 <SID_HEXCEP_09_sfence_vma_vtvm1_vs_stack+0x5c001>
    41017a40:	00cf9f93          	slli	x31,x31,0xc
    41017a44:	006f8f93          	addi	x31,x31,6
    41017a48:	00000073          	ecall
    41017a4c:	0e7de237          	lui	x4,0xe7de
    41017a50:	00700e13          	li	x28,7
    41017a54:	05c23823          	sd	x28,80(x4) # e7de050 <check_excp_expected_cause>
    41017a58:	00000e17          	auipc	x28,0x0
    41017a5c:	058e0e13          	addi	x28,x28,88 # 41017ab0 <fault_label_110>
    41017a60:	03c23023          	sd	x28,32(x4) # 20 <SECURE_ACCESS_PROBABILITY+0x2>
    41017a64:	00000e13          	li	x28,0
    41017a68:	05c23023          	sd	x28,64(x4) # 40 <XLEN>
    41017a6c:	00000e13          	li	x28,0
    41017a70:	05c23423          	sd	x28,72(x4) # 48 <XLEN+0x8>
    41017a74:	00000e17          	auipc	x28,0x0
    41017a78:	050e0e13          	addi	x28,x28,80 # 41017ac4 <excp_return_label_110>
    41017a7c:	03c23823          	sd	x28,48(x4) # 30 <SECURE_ACCESS_PROBABILITY+0x12>
    41017a80:	00000e13          	li	x28,0
    41017a84:	03c23c23          	sd	x28,56(x4) # 38 <SECURE_ACCESS_PROBABILITY+0x1a>
    41017a88:	00000e13          	li	x28,0
    41017a8c:	07c23023          	sd	x28,96(x4) # 60 <XLEN+0x20>
    41017a90:	00000e13          	li	x28,0
    41017a94:	07c23423          	sd	x28,104(x4) # 68 <XLEN+0x28>
    41017a98:	00000e13          	li	x28,0
    41017a9c:	07c23823          	sd	x28,112(x4) # 70 <XLEN+0x30>
    41017aa0:	0120be37          	lui	x28,0x120b
    41017aa4:	00100f13          	li	x30,1
    41017aa8:	01ee04b3          	add	x9,x28,x30
    41017aac:	00100d13          	li	x26,1

0000000041017ab0 <fault_label_110>:
    41017ab0:	01a4af2f          	amoadd.w	x30,x26,(x9)
    41017ab4:	4164edb7          	lui	x27,0x4164e
    41017ab8:	008d8d9b          	addiw	x27,x27,8 # 4164e008 <failed_addr>
    41017abc:	000db583          	ld	x11,0(x27)
    41017ac0:	00058067          	jr	x11 # 27000 <mem4>

0000000041017ac4 <excp_return_label_110>:
    41017ac4:	00170137          	lui	x2,0x170
    41017ac8:	00013383          	ld	x7,0(x2) # 170000 <tp_csr_storage>
    41017acc:	4164efb7          	lui	x31,0x4164e
    41017ad0:	0b8f8f9b          	addiw	x31,x31,184 # 4164e0b8 <super_csr_jump_table_flags>
    41017ad4:	05700f13          	li	x30,87
    41017ad8:	01efb023          	sd	x30,0(x31)
    41017adc:	000f0fb7          	lui	x31,0xf0
    41017ae0:	001f8f9b          	addiw	x31,x31,1 # f0001 <SID_HEXCEP_09_sfence_vma_vtvm1_vs_stack+0x5c001>
    41017ae4:	00cf9f93          	slli	x31,x31,0xc
    41017ae8:	006f8f93          	addi	x31,x31,6
    41017aec:	00000073          	ecall
    41017af0:	00813383          	ld	x7,8(x2)
    41017af4:	4164efb7          	lui	x31,0x4164e
    41017af8:	0b0f8f9b          	addiw	x31,x31,176 # 4164e0b0 <machine_csr_jump_table_flags>
    41017afc:	05800f13          	li	x30,88
    41017b00:	01efb023          	sd	x30,0(x31)
    41017b04:	000f0fb7          	lui	x31,0xf0
    41017b08:	001f8f9b          	addiw	x31,x31,1 # f0001 <SID_HEXCEP_09_sfence_vma_vtvm1_vs_stack+0x5c001>
    41017b0c:	00cf9f93          	slli	x31,x31,0xc
    41017b10:	005f8f93          	addi	x31,x31,5
    41017b14:	00000073          	ecall
    41017b18:	01013383          	ld	x7,16(x2)
    41017b1c:	4164efb7          	lui	x31,0x4164e
    41017b20:	0b0f8f9b          	addiw	x31,x31,176 # 4164e0b0 <machine_csr_jump_table_flags>
    41017b24:	03700f13          	li	x30,55
    41017b28:	01efb023          	sd	x30,0(x31)
    41017b2c:	000f0fb7          	lui	x31,0xf0
    41017b30:	001f8f9b          	addiw	x31,x31,1 # f0001 <SID_HEXCEP_09_sfence_vma_vtvm1_vs_stack+0x5c001>
    41017b34:	00cf9f93          	slli	x31,x31,0xc
    41017b38:	005f8f93          	addi	x31,x31,5
    41017b3c:	00000073          	ecall

0000000041017b40 <SID_HEXCEP_19_misaligned_amo_delegated_passed>:
    41017b40:	00f00f9b          	addiw	x31,x0,15
    41017b44:	01cf9f93          	slli	x31,x31,0x1c
    41017b48:	001f8f93          	addi	x31,x31,1
    41017b4c:	00000073          	ecall

0000000041017b50 <SID_HEXCEP_19_misaligned_lr_delegated>:
    41017b50:	00170137          	lui	x2,0x170
    41017b54:	4164efb7          	lui	x31,0x4164e
    41017b58:	0b8f8f9b          	addiw	x31,x31,184 # 4164e0b8 <super_csr_jump_table_flags>
    41017b5c:	05200f13          	li	x30,82
    41017b60:	01efb023          	sd	x30,0(x31)
    41017b64:	000f0fb7          	lui	x31,0xf0
    41017b68:	001f8f9b          	addiw	x31,x31,1 # f0001 <SID_HEXCEP_09_sfence_vma_vtvm1_vs_stack+0x5c001>
    41017b6c:	00cf9f93          	slli	x31,x31,0xc
    41017b70:	006f8f93          	addi	x31,x31,6
    41017b74:	00000073          	ecall
    41017b78:	00713023          	sd	x7,0(x2) # 170000 <tp_csr_storage>
    41017b7c:	4164efb7          	lui	x31,0x4164e
    41017b80:	0b0f8f9b          	addiw	x31,x31,176 # 4164e0b0 <machine_csr_jump_table_flags>
    41017b84:	05300f13          	li	x30,83
    41017b88:	01efb023          	sd	x30,0(x31)
    41017b8c:	000f0fb7          	lui	x31,0xf0
    41017b90:	001f8f9b          	addiw	x31,x31,1 # f0001 <SID_HEXCEP_09_sfence_vma_vtvm1_vs_stack+0x5c001>
    41017b94:	00cf9f93          	slli	x31,x31,0xc
    41017b98:	005f8f93          	addi	x31,x31,5
    41017b9c:	00000073          	ecall
    41017ba0:	00713423          	sd	x7,8(x2)
    41017ba4:	4164efb7          	lui	x31,0x4164e
    41017ba8:	0b0f8f9b          	addiw	x31,x31,176 # 4164e0b0 <machine_csr_jump_table_flags>
    41017bac:	03500f13          	li	x30,53
    41017bb0:	01efb023          	sd	x30,0(x31)
    41017bb4:	000f0fb7          	lui	x31,0xf0
    41017bb8:	001f8f9b          	addiw	x31,x31,1 # f0001 <SID_HEXCEP_09_sfence_vma_vtvm1_vs_stack+0x5c001>
    41017bbc:	00cf9f93          	slli	x31,x31,0xc
    41017bc0:	005f8f93          	addi	x31,x31,5
    41017bc4:	00000073          	ecall
    41017bc8:	00713823          	sd	x7,16(x2)
    41017bcc:	001d2137          	lui	x2,0x1d2
    41017bd0:	11f1011b          	addiw	x2,x2,287 # 1d211f <tp_csr_storage+0x6211f>
    41017bd4:	00c11113          	slli	x2,x2,0xc
    41017bd8:	000012b7          	lui	x5,0x1
    41017bdc:	00510133          	add	x2,x2,x5
    41017be0:	ff017113          	andi	x2,x2,-16
    41017be4:	02000393          	li	x7,32
    41017be8:	4164efb7          	lui	x31,0x4164e
    41017bec:	0b0f8f9b          	addiw	x31,x31,176 # 4164e0b0 <machine_csr_jump_table_flags>
    41017bf0:	05500f13          	li	x30,85
    41017bf4:	01efb023          	sd	x30,0(x31)
    41017bf8:	000f0fb7          	lui	x31,0xf0
    41017bfc:	001f8f9b          	addiw	x31,x31,1 # f0001 <SID_HEXCEP_09_sfence_vma_vtvm1_vs_stack+0x5c001>
    41017c00:	00cf9f93          	slli	x31,x31,0xc
    41017c04:	005f8f93          	addi	x31,x31,5
    41017c08:	00000073          	ecall
    41017c0c:	02000393          	li	x7,32
    41017c10:	4164efb7          	lui	x31,0x4164e
    41017c14:	0b8f8f9b          	addiw	x31,x31,184 # 4164e0b8 <super_csr_jump_table_flags>
    41017c18:	05600f13          	li	x30,86
    41017c1c:	01efb023          	sd	x30,0(x31)
    41017c20:	000f0fb7          	lui	x31,0xf0
    41017c24:	001f8f9b          	addiw	x31,x31,1 # f0001 <SID_HEXCEP_09_sfence_vma_vtvm1_vs_stack+0x5c001>
    41017c28:	00cf9f93          	slli	x31,x31,0xc
    41017c2c:	006f8f93          	addi	x31,x31,6
    41017c30:	00000073          	ecall
    41017c34:	0e7de237          	lui	x4,0xe7de
    41017c38:	00500e13          	li	x28,5
    41017c3c:	05c23823          	sd	x28,80(x4) # e7de050 <check_excp_expected_cause>
    41017c40:	00000e17          	auipc	x28,0x0
    41017c44:	05ce0e13          	addi	x28,x28,92 # 41017c9c <fault_label_111>
    41017c48:	03c23023          	sd	x28,32(x4) # 20 <SECURE_ACCESS_PROBABILITY+0x2>
    41017c4c:	00000e13          	li	x28,0
    41017c50:	05c23023          	sd	x28,64(x4) # 40 <XLEN>
    41017c54:	00000e13          	li	x28,0
    41017c58:	05c23423          	sd	x28,72(x4) # 48 <XLEN+0x8>
    41017c5c:	00000e17          	auipc	x28,0x0
    41017c60:	054e0e13          	addi	x28,x28,84 # 41017cb0 <excp_return_label_111>
    41017c64:	03c23823          	sd	x28,48(x4) # 30 <SECURE_ACCESS_PROBABILITY+0x12>
    41017c68:	00000e13          	li	x28,0
    41017c6c:	03c23c23          	sd	x28,56(x4) # 38 <SECURE_ACCESS_PROBABILITY+0x1a>
    41017c70:	00000e13          	li	x28,0
    41017c74:	07c23023          	sd	x28,96(x4) # 60 <XLEN+0x20>
    41017c78:	00000e13          	li	x28,0
    41017c7c:	07c23423          	sd	x28,104(x4) # 68 <XLEN+0x28>
    41017c80:	00000e13          	li	x28,0
    41017c84:	07c23823          	sd	x28,112(x4) # 70 <XLEN+0x30>
    41017c88:	0036d4b7          	lui	x9,0x36d
    41017c8c:	9bb4849b          	addiw	x9,x9,-1605 # 36c9bb <SID_HEXCEP_09_hinval_gvma_vs_stack+0x1069bb>
    41017c90:	00c49493          	slli	x9,x9,0xc
    41017c94:	00100993          	li	x19,1
    41017c98:	013486b3          	add	x13,x9,x19

0000000041017c9c <fault_label_111>:
    41017c9c:	1006adaf          	lr.w	x27,(x13)
    41017ca0:	4164e637          	lui	x12,0x4164e
    41017ca4:	0086061b          	addiw	x12,x12,8 # 4164e008 <failed_addr>
    41017ca8:	00063603          	ld	x12,0(x12)
    41017cac:	00060067          	jr	x12

0000000041017cb0 <excp_return_label_111>:
    41017cb0:	00170137          	lui	x2,0x170
    41017cb4:	00013383          	ld	x7,0(x2) # 170000 <tp_csr_storage>
    41017cb8:	4164efb7          	lui	x31,0x4164e
    41017cbc:	0b8f8f9b          	addiw	x31,x31,184 # 4164e0b8 <super_csr_jump_table_flags>
    41017cc0:	05700f13          	li	x30,87
    41017cc4:	01efb023          	sd	x30,0(x31)
    41017cc8:	000f0fb7          	lui	x31,0xf0
    41017ccc:	001f8f9b          	addiw	x31,x31,1 # f0001 <SID_HEXCEP_09_sfence_vma_vtvm1_vs_stack+0x5c001>
    41017cd0:	00cf9f93          	slli	x31,x31,0xc
    41017cd4:	006f8f93          	addi	x31,x31,6
    41017cd8:	00000073          	ecall
    41017cdc:	00813383          	ld	x7,8(x2)
    41017ce0:	4164efb7          	lui	x31,0x4164e
    41017ce4:	0b0f8f9b          	addiw	x31,x31,176 # 4164e0b0 <machine_csr_jump_table_flags>
    41017ce8:	05800f13          	li	x30,88
    41017cec:	01efb023          	sd	x30,0(x31)
    41017cf0:	000f0fb7          	lui	x31,0xf0
    41017cf4:	001f8f9b          	addiw	x31,x31,1 # f0001 <SID_HEXCEP_09_sfence_vma_vtvm1_vs_stack+0x5c001>
    41017cf8:	00cf9f93          	slli	x31,x31,0xc
    41017cfc:	005f8f93          	addi	x31,x31,5
    41017d00:	00000073          	ecall
    41017d04:	01013383          	ld	x7,16(x2)
    41017d08:	4164efb7          	lui	x31,0x4164e
    41017d0c:	0b0f8f9b          	addiw	x31,x31,176 # 4164e0b0 <machine_csr_jump_table_flags>
    41017d10:	03700f13          	li	x30,55
    41017d14:	01efb023          	sd	x30,0(x31)
    41017d18:	000f0fb7          	lui	x31,0xf0
    41017d1c:	001f8f9b          	addiw	x31,x31,1 # f0001 <SID_HEXCEP_09_sfence_vma_vtvm1_vs_stack+0x5c001>
    41017d20:	00cf9f93          	slli	x31,x31,0xc
    41017d24:	005f8f93          	addi	x31,x31,5
    41017d28:	00000073          	ecall

0000000041017d2c <SID_HEXCEP_19_misaligned_lr_delegated_passed>:
    41017d2c:	00f00f9b          	addiw	x31,x0,15
    41017d30:	01cf9f93          	slli	x31,x31,0x1c
    41017d34:	001f8f93          	addi	x31,x31,1
    41017d38:	00000073          	ecall

0000000041017d3c <SID_HEXCEP_19_misaligned_sc_delegated>:
    41017d3c:	00170137          	lui	x2,0x170
    41017d40:	4164efb7          	lui	x31,0x4164e
    41017d44:	0b8f8f9b          	addiw	x31,x31,184 # 4164e0b8 <super_csr_jump_table_flags>
    41017d48:	05200f13          	li	x30,82
    41017d4c:	01efb023          	sd	x30,0(x31)
    41017d50:	000f0fb7          	lui	x31,0xf0
    41017d54:	001f8f9b          	addiw	x31,x31,1 # f0001 <SID_HEXCEP_09_sfence_vma_vtvm1_vs_stack+0x5c001>
    41017d58:	00cf9f93          	slli	x31,x31,0xc
    41017d5c:	006f8f93          	addi	x31,x31,6
    41017d60:	00000073          	ecall
    41017d64:	00713023          	sd	x7,0(x2) # 170000 <tp_csr_storage>
    41017d68:	4164efb7          	lui	x31,0x4164e
    41017d6c:	0b0f8f9b          	addiw	x31,x31,176 # 4164e0b0 <machine_csr_jump_table_flags>
    41017d70:	05300f13          	li	x30,83
    41017d74:	01efb023          	sd	x30,0(x31)
    41017d78:	000f0fb7          	lui	x31,0xf0
    41017d7c:	001f8f9b          	addiw	x31,x31,1 # f0001 <SID_HEXCEP_09_sfence_vma_vtvm1_vs_stack+0x5c001>
    41017d80:	00cf9f93          	slli	x31,x31,0xc
    41017d84:	005f8f93          	addi	x31,x31,5
    41017d88:	00000073          	ecall
    41017d8c:	00713423          	sd	x7,8(x2)
    41017d90:	4164efb7          	lui	x31,0x4164e
    41017d94:	0b0f8f9b          	addiw	x31,x31,176 # 4164e0b0 <machine_csr_jump_table_flags>
    41017d98:	03500f13          	li	x30,53
    41017d9c:	01efb023          	sd	x30,0(x31)
    41017da0:	000f0fb7          	lui	x31,0xf0
    41017da4:	001f8f9b          	addiw	x31,x31,1 # f0001 <SID_HEXCEP_09_sfence_vma_vtvm1_vs_stack+0x5c001>
    41017da8:	00cf9f93          	slli	x31,x31,0xc
    41017dac:	005f8f93          	addi	x31,x31,5
    41017db0:	00000073          	ecall
    41017db4:	00713823          	sd	x7,16(x2)
    41017db8:	0024c137          	lui	x2,0x24c
    41017dbc:	000012b7          	lui	x5,0x1
    41017dc0:	00510133          	add	x2,x2,x5
    41017dc4:	ff017113          	andi	x2,x2,-16
    41017dc8:	08000393          	li	x7,128
    41017dcc:	4164efb7          	lui	x31,0x4164e
    41017dd0:	0b0f8f9b          	addiw	x31,x31,176 # 4164e0b0 <machine_csr_jump_table_flags>
    41017dd4:	05500f13          	li	x30,85
    41017dd8:	01efb023          	sd	x30,0(x31)
    41017ddc:	000f0fb7          	lui	x31,0xf0
    41017de0:	001f8f9b          	addiw	x31,x31,1 # f0001 <SID_HEXCEP_09_sfence_vma_vtvm1_vs_stack+0x5c001>
    41017de4:	00cf9f93          	slli	x31,x31,0xc
    41017de8:	005f8f93          	addi	x31,x31,5
    41017dec:	00000073          	ecall
    41017df0:	08000393          	li	x7,128
    41017df4:	4164efb7          	lui	x31,0x4164e
    41017df8:	0b8f8f9b          	addiw	x31,x31,184 # 4164e0b8 <super_csr_jump_table_flags>
    41017dfc:	05600f13          	li	x30,86
    41017e00:	01efb023          	sd	x30,0(x31)
    41017e04:	000f0fb7          	lui	x31,0xf0
    41017e08:	001f8f9b          	addiw	x31,x31,1 # f0001 <SID_HEXCEP_09_sfence_vma_vtvm1_vs_stack+0x5c001>
    41017e0c:	00cf9f93          	slli	x31,x31,0xc
    41017e10:	006f8f93          	addi	x31,x31,6
    41017e14:	00000073          	ecall
    41017e18:	0e7de237          	lui	x4,0xe7de
    41017e1c:	00700e13          	li	x28,7
    41017e20:	05c23823          	sd	x28,80(x4) # e7de050 <check_excp_expected_cause>
    41017e24:	00000e17          	auipc	x28,0x0
    41017e28:	058e0e13          	addi	x28,x28,88 # 41017e7c <fault_label_112>
    41017e2c:	03c23023          	sd	x28,32(x4) # 20 <SECURE_ACCESS_PROBABILITY+0x2>
    41017e30:	00000e13          	li	x28,0
    41017e34:	05c23023          	sd	x28,64(x4) # 40 <XLEN>
    41017e38:	00000e13          	li	x28,0
    41017e3c:	05c23423          	sd	x28,72(x4) # 48 <XLEN+0x8>
    41017e40:	00000e17          	auipc	x28,0x0
    41017e44:	050e0e13          	addi	x28,x28,80 # 41017e90 <excp_return_label_112>
    41017e48:	03c23823          	sd	x28,48(x4) # 30 <SECURE_ACCESS_PROBABILITY+0x12>
    41017e4c:	00000e13          	li	x28,0
    41017e50:	03c23c23          	sd	x28,56(x4) # 38 <SECURE_ACCESS_PROBABILITY+0x1a>
    41017e54:	00000e13          	li	x28,0
    41017e58:	07c23023          	sd	x28,96(x4) # 60 <XLEN+0x20>
    41017e5c:	00000e13          	li	x28,0
    41017e60:	07c23423          	sd	x28,104(x4) # 68 <XLEN+0x28>
    41017e64:	00000e13          	li	x28,0
    41017e68:	07c23823          	sd	x28,112(x4) # 70 <XLEN+0x30>
    41017e6c:	00005a37          	lui	x20,0x5
    41017e70:	00100493          	li	x9,1
    41017e74:	009a04b3          	add	x9,x20,x9
    41017e78:	00100513          	li	x10,1

0000000041017e7c <fault_label_112>:
    41017e7c:	18a4afaf          	sc.w	x31,x10,(x9)
    41017e80:	4164efb7          	lui	x31,0x4164e
    41017e84:	008f8f9b          	addiw	x31,x31,8 # 4164e008 <failed_addr>
    41017e88:	000fbf03          	ld	x30,0(x31)
    41017e8c:	000f0067          	jr	x30

0000000041017e90 <excp_return_label_112>:
    41017e90:	00170137          	lui	x2,0x170
    41017e94:	00013383          	ld	x7,0(x2) # 170000 <tp_csr_storage>
    41017e98:	4164efb7          	lui	x31,0x4164e
    41017e9c:	0b8f8f9b          	addiw	x31,x31,184 # 4164e0b8 <super_csr_jump_table_flags>
    41017ea0:	05700f13          	li	x30,87
    41017ea4:	01efb023          	sd	x30,0(x31)
    41017ea8:	000f0fb7          	lui	x31,0xf0
    41017eac:	001f8f9b          	addiw	x31,x31,1 # f0001 <SID_HEXCEP_09_sfence_vma_vtvm1_vs_stack+0x5c001>
    41017eb0:	00cf9f93          	slli	x31,x31,0xc
    41017eb4:	006f8f93          	addi	x31,x31,6
    41017eb8:	00000073          	ecall
    41017ebc:	00813383          	ld	x7,8(x2)
    41017ec0:	4164efb7          	lui	x31,0x4164e
    41017ec4:	0b0f8f9b          	addiw	x31,x31,176 # 4164e0b0 <machine_csr_jump_table_flags>
    41017ec8:	05800f13          	li	x30,88
    41017ecc:	01efb023          	sd	x30,0(x31)
    41017ed0:	000f0fb7          	lui	x31,0xf0
    41017ed4:	001f8f9b          	addiw	x31,x31,1 # f0001 <SID_HEXCEP_09_sfence_vma_vtvm1_vs_stack+0x5c001>
    41017ed8:	00cf9f93          	slli	x31,x31,0xc
    41017edc:	005f8f93          	addi	x31,x31,5
    41017ee0:	00000073          	ecall
    41017ee4:	01013383          	ld	x7,16(x2)
    41017ee8:	4164efb7          	lui	x31,0x4164e
    41017eec:	0b0f8f9b          	addiw	x31,x31,176 # 4164e0b0 <machine_csr_jump_table_flags>
    41017ef0:	03700f13          	li	x30,55
    41017ef4:	01efb023          	sd	x30,0(x31)
    41017ef8:	000f0fb7          	lui	x31,0xf0
    41017efc:	001f8f9b          	addiw	x31,x31,1 # f0001 <SID_HEXCEP_09_sfence_vma_vtvm1_vs_stack+0x5c001>
    41017f00:	00cf9f93          	slli	x31,x31,0xc
    41017f04:	005f8f93          	addi	x31,x31,5
    41017f08:	00000073          	ecall

0000000041017f0c <SID_HEXCEP_19_misaligned_sc_delegated_passed>:
    41017f0c:	00f00f9b          	addiw	x31,x0,15
    41017f10:	01cf9f93          	slli	x31,x31,0x1c
    41017f14:	001f8f93          	addi	x31,x31,1
    41017f18:	00000073          	ecall

0000000041017f1c <test_cleanup>:
    41017f1c:	00f00f9b          	addiw	x31,x0,15
    41017f20:	01cf9f93          	slli	x31,x31,0x1c
    41017f24:	001f8f93          	addi	x31,x31,1
    41017f28:	00000073          	ecall

0000000041017f2c <local_test_failed>:
    41017f2c:	00f00f9b          	addiw	x31,x0,15
    41017f30:	01cf9f93          	slli	x31,x31,0x1c
    41017f34:	002f8f93          	addi	x31,x31,2
    41017f38:	00000073          	ecall

Disassembly of section .code_super_0:

0000000041094000 <supervisor_block_0_4bdfb98f-0x34>:
    41094000:	00000f93          	li	x31,0
    41094004:	03fd8863          	beq	x27,x31,41094034 <supervisor_block_0_4bdfb98f>
    41094008:	00100f93          	li	x31,1
    4109400c:	03fd8863          	beq	x27,x31,4109403c <supervisor_block_1_4bdfb98f>
    41094010:	00200f93          	li	x31,2
    41094014:	03fd8863          	beq	x27,x31,41094044 <supervisor_block_2_4bdfb98f>
    41094018:	00300f93          	li	x31,3
    4109401c:	03fd8863          	beq	x27,x31,4109404c <supervisor_block_3_4bdfb98f>
    41094020:	00400f93          	li	x31,4
    41094024:	03fd8863          	beq	x27,x31,41094054 <supervisor_block_4_4bdfb98f>
    41094028:	00500f93          	li	x31,5
    4109402c:	03fd8863          	beq	x27,x31,4109405c <supervisor_block_5_4bdfb98f>
    41094030:	0340006f          	j	41094064 <end_supervisor_code_4bdfb98f>

0000000041094034 <supervisor_block_0_4bdfb98f>:
    41094034:	100ab3f3          	csrrc	x7,sstatus,x21
    41094038:	02c0006f          	j	41094064 <end_supervisor_code_4bdfb98f>

000000004109403c <supervisor_block_1_4bdfb98f>:
    4109403c:	100aa673          	csrrs	x12,sstatus,x21
    41094040:	0240006f          	j	41094064 <end_supervisor_code_4bdfb98f>

0000000041094044 <supervisor_block_2_4bdfb98f>:
    41094044:	1003b873          	csrrc	x16,sstatus,x7
    41094048:	01c0006f          	j	41094064 <end_supervisor_code_4bdfb98f>

000000004109404c <supervisor_block_3_4bdfb98f>:
    4109404c:	1004b773          	csrrc	x14,sstatus,x9
    41094050:	0140006f          	j	41094064 <end_supervisor_code_4bdfb98f>

0000000041094054 <supervisor_block_4_4bdfb98f>:
    41094054:	10052cf3          	csrrs	x25,sstatus,x10
    41094058:	00c0006f          	j	41094064 <end_supervisor_code_4bdfb98f>

000000004109405c <supervisor_block_5_4bdfb98f>:
    4109405c:	100ab573          	csrrc	x10,sstatus,x21
    41094060:	0040006f          	j	41094064 <end_supervisor_code_4bdfb98f>

0000000041094064 <end_supervisor_code_4bdfb98f>:
    41094064:	000f0fb7          	lui	x31,0xf0
    41094068:	001f8f9b          	addiw	x31,x31,1 # f0001 <SID_HEXCEP_09_sfence_vma_vtvm1_vs_stack+0x5c001>
    4109406c:	00cf9f93          	slli	x31,x31,0xc
    41094070:	004f8f93          	addi	x31,x31,4
    41094074:	00000073          	ecall

Disassembly of section .csr_machine_0:

0000000041214000 <csr_access_mstatus_machine_key_4_write-0x80>:
    41214000:	43bf2fb7          	lui	x31,0x43bf2
    41214004:	0b0f8f9b          	addiw	x31,x31,176 # 43bf20b0 <machine_csr_jump_table_flags_pa>
    41214008:	000fbf83          	ld	x31,0(x31)
    4121400c:	00400293          	li	x5,4
    41214010:	065f8863          	beq	x31,x5,41214080 <csr_access_mstatus_machine_key_4_write>
    41214014:	00100293          	li	x5,1
    41214018:	065f8863          	beq	x31,x5,41214088 <csr_access_mstatus_machine_key_1_read>
    4121401c:	05a00293          	li	x5,90
    41214020:	065f8863          	beq	x31,x5,41214090 <csr_access_mstatus_machine_key_90_set>
    41214024:	00200293          	li	x5,2
    41214028:	065f8863          	beq	x31,x5,41214098 <csr_access_mstatus_machine_key_2_clear>
    4121402c:	02700293          	li	x5,39
    41214030:	065f8863          	beq	x31,x5,412140a0 <csr_access_mcounteren_machine_key_39_write>
    41214034:	00600293          	li	x5,6
    41214038:	065f8863          	beq	x31,x5,412140a8 <csr_access_mcounteren_machine_key_6_read>
    4121403c:	00700293          	li	x5,7
    41214040:	065f8863          	beq	x31,x5,412140b0 <csr_access_mcounteren_machine_key_7_set>
    41214044:	03700293          	li	x5,55
    41214048:	065f8863          	beq	x31,x5,412140b8 <csr_access_sstatus_supervisor_key_55_write>
    4121404c:	03500293          	li	x5,53
    41214050:	065f8863          	beq	x31,x5,412140c0 <csr_access_sstatus_supervisor_key_53_read>
    41214054:	05800293          	li	x5,88
    41214058:	065f8863          	beq	x31,x5,412140c8 <csr_access_medeleg_machine_key_88_write>
    4121405c:	05300293          	li	x5,83
    41214060:	065f8863          	beq	x31,x5,412140d0 <csr_access_medeleg_machine_key_83_read>
    41214064:	05500293          	li	x5,85
    41214068:	065f8863          	beq	x31,x5,412140d8 <csr_access_medeleg_machine_key_85_set>
    4121406c:	05d00293          	li	x5,93
    41214070:	065f8863          	beq	x31,x5,412140e0 <csr_access_mtvec_machine_key_93_set>
    41214074:	05c00293          	li	x5,92
    41214078:	065f8863          	beq	x31,x5,412140e8 <csr_access_mtvec_machine_key_92_clear>
    4121407c:	0740006f          	j	412140f0 <end_machine_label>

0000000041214080 <csr_access_mstatus_machine_key_4_write>:
    41214080:	30039073          	csrw	mstatus,x7
    41214084:	06c0006f          	j	412140f0 <end_machine_label>

0000000041214088 <csr_access_mstatus_machine_key_1_read>:
    41214088:	300023f3          	csrr	x7,mstatus
    4121408c:	0640006f          	j	412140f0 <end_machine_label>

0000000041214090 <csr_access_mstatus_machine_key_90_set>:
    41214090:	3003a073          	csrs	mstatus,x7
    41214094:	05c0006f          	j	412140f0 <end_machine_label>

0000000041214098 <csr_access_mstatus_machine_key_2_clear>:
    41214098:	3003b073          	csrc	mstatus,x7
    4121409c:	0540006f          	j	412140f0 <end_machine_label>

00000000412140a0 <csr_access_mcounteren_machine_key_39_write>:
    412140a0:	30639073          	csrw	mcounteren,x7
    412140a4:	04c0006f          	j	412140f0 <end_machine_label>

00000000412140a8 <csr_access_mcounteren_machine_key_6_read>:
    412140a8:	306023f3          	csrr	x7,mcounteren
    412140ac:	0440006f          	j	412140f0 <end_machine_label>

00000000412140b0 <csr_access_mcounteren_machine_key_7_set>:
    412140b0:	3063a073          	csrs	mcounteren,x7
    412140b4:	03c0006f          	j	412140f0 <end_machine_label>

00000000412140b8 <csr_access_sstatus_supervisor_key_55_write>:
    412140b8:	10039073          	csrw	sstatus,x7
    412140bc:	0340006f          	j	412140f0 <end_machine_label>

00000000412140c0 <csr_access_sstatus_supervisor_key_53_read>:
    412140c0:	100023f3          	csrr	x7,sstatus
    412140c4:	02c0006f          	j	412140f0 <end_machine_label>

00000000412140c8 <csr_access_medeleg_machine_key_88_write>:
    412140c8:	30239073          	csrw	medeleg,x7
    412140cc:	0240006f          	j	412140f0 <end_machine_label>

00000000412140d0 <csr_access_medeleg_machine_key_83_read>:
    412140d0:	302023f3          	csrr	x7,medeleg
    412140d4:	01c0006f          	j	412140f0 <end_machine_label>

00000000412140d8 <csr_access_medeleg_machine_key_85_set>:
    412140d8:	3023a073          	csrs	medeleg,x7
    412140dc:	0140006f          	j	412140f0 <end_machine_label>

00000000412140e0 <csr_access_mtvec_machine_key_93_set>:
    412140e0:	3053a073          	csrs	mtvec,x7
    412140e4:	00c0006f          	j	412140f0 <end_machine_label>

00000000412140e8 <csr_access_mtvec_machine_key_92_clear>:
    412140e8:	3053b073          	csrc	mtvec,x7
    412140ec:	0040006f          	j	412140f0 <end_machine_label>

00000000412140f0 <end_machine_label>:
    412140f0:	000f0fb7          	lui	x31,0xf0
    412140f4:	001f8f9b          	addiw	x31,x31,1 # f0001 <SID_HEXCEP_09_sfence_vma_vtvm1_vs_stack+0x5c001>
    412140f8:	00cf9f93          	slli	x31,x31,0xc
    412140fc:	004f8f93          	addi	x31,x31,4
    41214100:	00000073          	ecall

Disassembly of section .csr_super_0:

0000000041215000 <csr_access_hgeip_supervisor_key_3_read-0x178>:
    41215000:	4164efb7          	lui	x31,0x4164e
    41215004:	0b8f8f9b          	addiw	x31,x31,184 # 4164e0b8 <super_csr_jump_table_flags>
    41215008:	000fbf83          	ld	x31,0(x31)
    4121500c:	00300293          	li	x5,3
    41215010:	165f8463          	beq	x31,x5,41215178 <csr_access_hgeip_supervisor_key_3_read>
    41215014:	00500293          	li	x5,5
    41215018:	165f8863          	beq	x31,x5,41215188 <csr_access_hcounteren_supervisor_key_5_read>
    4121501c:	02600293          	li	x5,38
    41215020:	165f8063          	beq	x31,x5,41215180 <csr_access_hcounteren_supervisor_key_38_write>
    41215024:	00800293          	li	x5,8
    41215028:	165f8463          	beq	x31,x5,41215190 <csr_access_hcounteren_supervisor_key_8_clear>
    4121502c:	00900293          	li	x5,9
    41215030:	165f8463          	beq	x31,x5,41215198 <csr_access_hpmcounter3_supervisor_key_9_read>
    41215034:	00a00293          	li	x5,10
    41215038:	165f8463          	beq	x31,x5,412151a0 <csr_access_hpmcounter4_supervisor_key_10_read>
    4121503c:	00b00293          	li	x5,11
    41215040:	165f8463          	beq	x31,x5,412151a8 <csr_access_hpmcounter5_supervisor_key_11_read>
    41215044:	00c00293          	li	x5,12
    41215048:	165f8463          	beq	x31,x5,412151b0 <csr_access_hpmcounter6_supervisor_key_12_read>
    4121504c:	00d00293          	li	x5,13
    41215050:	165f8463          	beq	x31,x5,412151b8 <csr_access_hpmcounter7_supervisor_key_13_read>
    41215054:	00e00293          	li	x5,14
    41215058:	165f8463          	beq	x31,x5,412151c0 <csr_access_hpmcounter8_supervisor_key_14_read>
    4121505c:	00f00293          	li	x5,15
    41215060:	165f8463          	beq	x31,x5,412151c8 <csr_access_hpmcounter9_supervisor_key_15_read>
    41215064:	01000293          	li	x5,16
    41215068:	165f8463          	beq	x31,x5,412151d0 <csr_access_hpmcounter10_supervisor_key_16_read>
    4121506c:	01100293          	li	x5,17
    41215070:	165f8463          	beq	x31,x5,412151d8 <csr_access_hpmcounter11_supervisor_key_17_read>
    41215074:	01200293          	li	x5,18
    41215078:	165f8463          	beq	x31,x5,412151e0 <csr_access_hpmcounter12_supervisor_key_18_read>
    4121507c:	01300293          	li	x5,19
    41215080:	165f8463          	beq	x31,x5,412151e8 <csr_access_hpmcounter13_supervisor_key_19_read>
    41215084:	01400293          	li	x5,20
    41215088:	165f8463          	beq	x31,x5,412151f0 <csr_access_hpmcounter14_supervisor_key_20_read>
    4121508c:	01500293          	li	x5,21
    41215090:	165f8463          	beq	x31,x5,412151f8 <csr_access_hpmcounter15_supervisor_key_21_read>
    41215094:	01600293          	li	x5,22
    41215098:	165f8463          	beq	x31,x5,41215200 <csr_access_hpmcounter16_supervisor_key_22_read>
    4121509c:	01700293          	li	x5,23
    412150a0:	165f8463          	beq	x31,x5,41215208 <csr_access_hpmcounter17_supervisor_key_23_read>
    412150a4:	01800293          	li	x5,24
    412150a8:	165f8463          	beq	x31,x5,41215210 <csr_access_hpmcounter18_supervisor_key_24_read>
    412150ac:	01900293          	li	x5,25
    412150b0:	165f8463          	beq	x31,x5,41215218 <csr_access_hpmcounter19_supervisor_key_25_read>
    412150b4:	01a00293          	li	x5,26
    412150b8:	165f8463          	beq	x31,x5,41215220 <csr_access_hpmcounter20_supervisor_key_26_read>
    412150bc:	01b00293          	li	x5,27
    412150c0:	165f8463          	beq	x31,x5,41215228 <csr_access_hpmcounter21_supervisor_key_27_read>
    412150c4:	01c00293          	li	x5,28
    412150c8:	165f8463          	beq	x31,x5,41215230 <csr_access_hpmcounter22_supervisor_key_28_read>
    412150cc:	01d00293          	li	x5,29
    412150d0:	165f8463          	beq	x31,x5,41215238 <csr_access_hpmcounter23_supervisor_key_29_read>
    412150d4:	01e00293          	li	x5,30
    412150d8:	165f8463          	beq	x31,x5,41215240 <csr_access_hpmcounter24_supervisor_key_30_read>
    412150dc:	01f00293          	li	x5,31
    412150e0:	165f8463          	beq	x31,x5,41215248 <csr_access_hpmcounter25_supervisor_key_31_read>
    412150e4:	02000293          	li	x5,32
    412150e8:	165f8463          	beq	x31,x5,41215250 <csr_access_hpmcounter26_supervisor_key_32_read>
    412150ec:	02100293          	li	x5,33
    412150f0:	165f8463          	beq	x31,x5,41215258 <csr_access_hpmcounter27_supervisor_key_33_read>
    412150f4:	02200293          	li	x5,34
    412150f8:	165f8463          	beq	x31,x5,41215260 <csr_access_hpmcounter28_supervisor_key_34_read>
    412150fc:	02300293          	li	x5,35
    41215100:	165f8463          	beq	x31,x5,41215268 <csr_access_hpmcounter29_supervisor_key_35_read>
    41215104:	02400293          	li	x5,36
    41215108:	165f8463          	beq	x31,x5,41215270 <csr_access_hpmcounter30_supervisor_key_36_read>
    4121510c:	02500293          	li	x5,37
    41215110:	165f8463          	beq	x31,x5,41215278 <csr_access_hpmcounter31_supervisor_key_37_read>
    41215114:	02800293          	li	x5,40
    41215118:	165f8863          	beq	x31,x5,41215288 <csr_access_hstatus_supervisor_key_40_read>
    4121511c:	02a00293          	li	x5,42
    41215120:	165f8063          	beq	x31,x5,41215280 <csr_access_hstatus_supervisor_key_42_write>
    41215124:	02900293          	li	x5,41
    41215128:	165f8463          	beq	x31,x5,41215290 <csr_access_hstatus_supervisor_key_41_set>
    4121512c:	03400293          	li	x5,52
    41215130:	165f8863          	beq	x31,x5,412152a0 <csr_access_sstatus_supervisor_key_52_read>
    41215134:	03600293          	li	x5,54
    41215138:	165f8063          	beq	x31,x5,41215298 <csr_access_sstatus_supervisor_key_54_write>
    4121513c:	05b00293          	li	x5,91
    41215140:	165f8463          	beq	x31,x5,412152a8 <csr_access_sstatus_supervisor_key_91_set>
    41215144:	05900293          	li	x5,89
    41215148:	165f8463          	beq	x31,x5,412152b0 <csr_access_sstatus_supervisor_key_89_clear>
    4121514c:	05200293          	li	x5,82
    41215150:	165f8863          	beq	x31,x5,412152c0 <csr_access_hedeleg_supervisor_key_82_read>
    41215154:	05700293          	li	x5,87
    41215158:	165f8063          	beq	x31,x5,412152b8 <csr_access_hedeleg_supervisor_key_87_write>
    4121515c:	05600293          	li	x5,86
    41215160:	165f8463          	beq	x31,x5,412152c8 <csr_access_hedeleg_supervisor_key_86_set>
    41215164:	05f00293          	li	x5,95
    41215168:	165f8463          	beq	x31,x5,412152d0 <csr_access_stvec_supervisor_key_95_set>
    4121516c:	05e00293          	li	x5,94
    41215170:	165f8463          	beq	x31,x5,412152d8 <csr_access_stvec_supervisor_key_94_clear>
    41215174:	16c0006f          	j	412152e0 <end_super_label>

0000000041215178 <csr_access_hgeip_supervisor_key_3_read>:
    41215178:	e12023f3          	csrr	x7,hgeip
    4121517c:	1640006f          	j	412152e0 <end_super_label>

0000000041215180 <csr_access_hcounteren_supervisor_key_38_write>:
    41215180:	60639073          	csrw	hcounteren,x7
    41215184:	15c0006f          	j	412152e0 <end_super_label>

0000000041215188 <csr_access_hcounteren_supervisor_key_5_read>:
    41215188:	606023f3          	csrr	x7,hcounteren
    4121518c:	1540006f          	j	412152e0 <end_super_label>

0000000041215190 <csr_access_hcounteren_supervisor_key_8_clear>:
    41215190:	6063b073          	csrc	hcounteren,x7
    41215194:	14c0006f          	j	412152e0 <end_super_label>

0000000041215198 <csr_access_hpmcounter3_supervisor_key_9_read>:
    41215198:	c03023f3          	csrr	x7,hpmcounter3
    4121519c:	1440006f          	j	412152e0 <end_super_label>

00000000412151a0 <csr_access_hpmcounter4_supervisor_key_10_read>:
    412151a0:	c04023f3          	csrr	x7,hpmcounter4
    412151a4:	13c0006f          	j	412152e0 <end_super_label>

00000000412151a8 <csr_access_hpmcounter5_supervisor_key_11_read>:
    412151a8:	c05023f3          	csrr	x7,hpmcounter5
    412151ac:	1340006f          	j	412152e0 <end_super_label>

00000000412151b0 <csr_access_hpmcounter6_supervisor_key_12_read>:
    412151b0:	c06023f3          	csrr	x7,hpmcounter6
    412151b4:	12c0006f          	j	412152e0 <end_super_label>

00000000412151b8 <csr_access_hpmcounter7_supervisor_key_13_read>:
    412151b8:	c07023f3          	csrr	x7,hpmcounter7
    412151bc:	1240006f          	j	412152e0 <end_super_label>

00000000412151c0 <csr_access_hpmcounter8_supervisor_key_14_read>:
    412151c0:	c08023f3          	csrr	x7,hpmcounter8
    412151c4:	11c0006f          	j	412152e0 <end_super_label>

00000000412151c8 <csr_access_hpmcounter9_supervisor_key_15_read>:
    412151c8:	c09023f3          	csrr	x7,hpmcounter9
    412151cc:	1140006f          	j	412152e0 <end_super_label>

00000000412151d0 <csr_access_hpmcounter10_supervisor_key_16_read>:
    412151d0:	c0a023f3          	csrr	x7,hpmcounter10
    412151d4:	10c0006f          	j	412152e0 <end_super_label>

00000000412151d8 <csr_access_hpmcounter11_supervisor_key_17_read>:
    412151d8:	c0b023f3          	csrr	x7,hpmcounter11
    412151dc:	1040006f          	j	412152e0 <end_super_label>

00000000412151e0 <csr_access_hpmcounter12_supervisor_key_18_read>:
    412151e0:	c0c023f3          	csrr	x7,hpmcounter12
    412151e4:	0fc0006f          	j	412152e0 <end_super_label>

00000000412151e8 <csr_access_hpmcounter13_supervisor_key_19_read>:
    412151e8:	c0d023f3          	csrr	x7,hpmcounter13
    412151ec:	0f40006f          	j	412152e0 <end_super_label>

00000000412151f0 <csr_access_hpmcounter14_supervisor_key_20_read>:
    412151f0:	c0e023f3          	csrr	x7,hpmcounter14
    412151f4:	0ec0006f          	j	412152e0 <end_super_label>

00000000412151f8 <csr_access_hpmcounter15_supervisor_key_21_read>:
    412151f8:	c0f023f3          	csrr	x7,hpmcounter15
    412151fc:	0e40006f          	j	412152e0 <end_super_label>

0000000041215200 <csr_access_hpmcounter16_supervisor_key_22_read>:
    41215200:	c10023f3          	csrr	x7,hpmcounter16
    41215204:	0dc0006f          	j	412152e0 <end_super_label>

0000000041215208 <csr_access_hpmcounter17_supervisor_key_23_read>:
    41215208:	c11023f3          	csrr	x7,hpmcounter17
    4121520c:	0d40006f          	j	412152e0 <end_super_label>

0000000041215210 <csr_access_hpmcounter18_supervisor_key_24_read>:
    41215210:	c12023f3          	csrr	x7,hpmcounter18
    41215214:	0cc0006f          	j	412152e0 <end_super_label>

0000000041215218 <csr_access_hpmcounter19_supervisor_key_25_read>:
    41215218:	c13023f3          	csrr	x7,hpmcounter19
    4121521c:	0c40006f          	j	412152e0 <end_super_label>

0000000041215220 <csr_access_hpmcounter20_supervisor_key_26_read>:
    41215220:	c14023f3          	csrr	x7,hpmcounter20
    41215224:	0bc0006f          	j	412152e0 <end_super_label>

0000000041215228 <csr_access_hpmcounter21_supervisor_key_27_read>:
    41215228:	c15023f3          	csrr	x7,hpmcounter21
    4121522c:	0b40006f          	j	412152e0 <end_super_label>

0000000041215230 <csr_access_hpmcounter22_supervisor_key_28_read>:
    41215230:	c16023f3          	csrr	x7,hpmcounter22
    41215234:	0ac0006f          	j	412152e0 <end_super_label>

0000000041215238 <csr_access_hpmcounter23_supervisor_key_29_read>:
    41215238:	c17023f3          	csrr	x7,hpmcounter23
    4121523c:	0a40006f          	j	412152e0 <end_super_label>

0000000041215240 <csr_access_hpmcounter24_supervisor_key_30_read>:
    41215240:	c18023f3          	csrr	x7,hpmcounter24
    41215244:	09c0006f          	j	412152e0 <end_super_label>

0000000041215248 <csr_access_hpmcounter25_supervisor_key_31_read>:
    41215248:	c19023f3          	csrr	x7,hpmcounter25
    4121524c:	0940006f          	j	412152e0 <end_super_label>

0000000041215250 <csr_access_hpmcounter26_supervisor_key_32_read>:
    41215250:	c1a023f3          	csrr	x7,hpmcounter26
    41215254:	08c0006f          	j	412152e0 <end_super_label>

0000000041215258 <csr_access_hpmcounter27_supervisor_key_33_read>:
    41215258:	c1b023f3          	csrr	x7,hpmcounter27
    4121525c:	0840006f          	j	412152e0 <end_super_label>

0000000041215260 <csr_access_hpmcounter28_supervisor_key_34_read>:
    41215260:	c1c023f3          	csrr	x7,hpmcounter28
    41215264:	07c0006f          	j	412152e0 <end_super_label>

0000000041215268 <csr_access_hpmcounter29_supervisor_key_35_read>:
    41215268:	c1d023f3          	csrr	x7,hpmcounter29
    4121526c:	0740006f          	j	412152e0 <end_super_label>

0000000041215270 <csr_access_hpmcounter30_supervisor_key_36_read>:
    41215270:	c1e023f3          	csrr	x7,hpmcounter30
    41215274:	06c0006f          	j	412152e0 <end_super_label>

0000000041215278 <csr_access_hpmcounter31_supervisor_key_37_read>:
    41215278:	c1f023f3          	csrr	x7,hpmcounter31
    4121527c:	0640006f          	j	412152e0 <end_super_label>

0000000041215280 <csr_access_hstatus_supervisor_key_42_write>:
    41215280:	60039073          	csrw	hstatus,x7
    41215284:	05c0006f          	j	412152e0 <end_super_label>

0000000041215288 <csr_access_hstatus_supervisor_key_40_read>:
    41215288:	600023f3          	csrr	x7,hstatus
    4121528c:	0540006f          	j	412152e0 <end_super_label>

0000000041215290 <csr_access_hstatus_supervisor_key_41_set>:
    41215290:	6003a073          	csrs	hstatus,x7
    41215294:	04c0006f          	j	412152e0 <end_super_label>

0000000041215298 <csr_access_sstatus_supervisor_key_54_write>:
    41215298:	10039073          	csrw	sstatus,x7
    4121529c:	0440006f          	j	412152e0 <end_super_label>

00000000412152a0 <csr_access_sstatus_supervisor_key_52_read>:
    412152a0:	100023f3          	csrr	x7,sstatus
    412152a4:	03c0006f          	j	412152e0 <end_super_label>

00000000412152a8 <csr_access_sstatus_supervisor_key_91_set>:
    412152a8:	1003a073          	csrs	sstatus,x7
    412152ac:	0340006f          	j	412152e0 <end_super_label>

00000000412152b0 <csr_access_sstatus_supervisor_key_89_clear>:
    412152b0:	1003b073          	csrc	sstatus,x7
    412152b4:	02c0006f          	j	412152e0 <end_super_label>

00000000412152b8 <csr_access_hedeleg_supervisor_key_87_write>:
    412152b8:	60239073          	csrw	hedeleg,x7
    412152bc:	0240006f          	j	412152e0 <end_super_label>

00000000412152c0 <csr_access_hedeleg_supervisor_key_82_read>:
    412152c0:	602023f3          	csrr	x7,hedeleg
    412152c4:	01c0006f          	j	412152e0 <end_super_label>

00000000412152c8 <csr_access_hedeleg_supervisor_key_86_set>:
    412152c8:	6023a073          	csrs	hedeleg,x7
    412152cc:	0140006f          	j	412152e0 <end_super_label>

00000000412152d0 <csr_access_stvec_supervisor_key_95_set>:
    412152d0:	1053a073          	csrs	stvec,x7
    412152d4:	00c0006f          	j	412152e0 <end_super_label>

00000000412152d8 <csr_access_stvec_supervisor_key_94_clear>:
    412152d8:	1053b073          	csrc	stvec,x7
    412152dc:	0040006f          	j	412152e0 <end_super_label>

00000000412152e0 <end_super_label>:
    412152e0:	000f0fb7          	lui	x31,0xf0
    412152e4:	001f8f9b          	addiw	x31,x31,1 # f0001 <SID_HEXCEP_09_sfence_vma_vtvm1_vs_stack+0x5c001>
    412152e8:	00cf9f93          	slli	x31,x31,0xc
    412152ec:	004f8f93          	addi	x31,x31,4
    412152f0:	00000073          	ecall

Disassembly of section .os_data:

000000004164e000 <passed_addr_ptr>:
    4164e000:	4070                	.insn	2, 0x4070
    4164e002:	4101                	.insn	2, 0x4101
    4164e004:	0000                	.insn	2, 0x0000
	...

000000004164e008 <failed_addr_ptr>:
    4164e008:	4080                	.insn	2, 0x4080
    4164e00a:	4101                	.insn	2, 0x4101
    4164e00c:	0000                	.insn	2, 0x0000
	...

000000004164e010 <end_test_addr_ptr>:
    4164e010:	4090                	.insn	2, 0x4090
    4164e012:	4101                	.insn	2, 0x4101
    4164e014:	0000                	.insn	2, 0x0000
	...

000000004164e018 <os_passed_addr_ptr>:
    4164e018:	0850                	.insn	2, 0x0850
    4164e01a:	4100                	.insn	2, 0x4100
    4164e01c:	0000                	.insn	2, 0x0000
	...

000000004164e020 <os_failed_addr_ptr>:
    4164e020:	0860                	.insn	2, 0x0860
    4164e022:	4100                	.insn	2, 0x4100
    4164e024:	0000                	.insn	2, 0x0000
	...

000000004164e028 <os_end_test_addr_ptr>:
    4164e028:	086c                	.insn	2, 0x086c
    4164e02a:	4100                	.insn	2, 0x4100
    4164e02c:	0000                	.insn	2, 0x0000
	...

000000004164e030 <rvcp_prefix_str_data>:
    4164e030:	5652                	.insn	2, 0x5652
    4164e032:	203a5043          	fmadd.s	f0,f20,f3,f4,unknown
    4164e036:	6554                	.insn	2, 0x6554
    4164e038:	46207473          	csrrci	x8,0x462,0
    4164e03c:	6c69                	.insn	2, 0x6c69
    4164e03e:	2065                	.insn	2, 0x2065
	...

000000004164e041 <rvcp_testname_str_data>:
    4164e041:	7074                	.insn	2, 0x7074
    4164e043:	685f 7079 7265      	.insn	6, 0x72657079685f
    4164e049:	6976                	.insn	2, 0x6976
    4164e04b:	5f726f73          	csrrsi	x30,0x5f7,4
    4164e04f:	7865                	.insn	2, 0x7865
    4164e051:	74706563          	bltu	x0,x7,4164e79b <num_hard_fails_mem+0x6bb>
    4164e055:	6f69                	.insn	2, 0x6f69
    4164e057:	736e                	.insn	2, 0x736e
    4164e059:	325f        	.insn	6, 0x53415000325f

000000004164e05c <rvcp_passed_str_data>:
    4164e05c:	4150                	.insn	2, 0x4150
    4164e05e:	44455353          	fround.h	f6,f10,unknown
	...

000000004164e063 <rvcp_failed_str_data>:
    4164e063:	4146                	.insn	2, 0x4146
    4164e065:	4c49                	.insn	2, 0x4c49
    4164e067:	4445                	.insn	2, 0x4445
	...

000000004164e06a <rvcp_space_str_data>:
    4164e06a:	0020                	.insn	2, 0x0020

000000004164e06c <rvcp_newline_str_data>:
    4164e06c:	000a                	.insn	2, 0x000a
	...

000000004164e070 <excp_ignored_count_mem>:
	...

000000004164e078 <machine_flags_mem>:
	...

000000004164e080 <user_flags_mem>:
	...

000000004164e088 <super_flags_mem>:
	...

000000004164e090 <machine_area_mem>:
	...

000000004164e098 <user_area_mem>:
	...

000000004164e0a0 <super_area_mem>:
	...

000000004164e0a8 <zero_data_mem>:
	...

000000004164e0b0 <machine_csr_jump_table_flags_mem>:
	...

000000004164e0b8 <super_csr_jump_table_flags_mem>:
	...

000000004164e0c0 <pte_access_flags_mem>:
	...

000000004164e0d8 <num_harts_ended_mem>:
	...

000000004164e0e0 <num_hard_fails_mem>:
	...

Disassembly of section .hart_context:

000000000e7de000 <hart_context_0>:
 e7de000:	0000                	.insn	2, 0x0000
 e7de002:	00000003          	lb	x0,0(x0) # 0 <ALL_4KB_PAGES>
	...
 e7de016:	0000                	.insn	2, 0x0000
 e7de018:	0001                	.insn	2, 0x0001
 e7de01a:	0000                	.insn	2, 0x0000
 e7de01c:	0000                	.insn	2, 0x0000
 e7de01e:	0000                	.insn	2, 0x0000
 e7de020:	ffff                	.insn	2, 0xffff
 e7de022:	ffff                	.insn	2, 0xffff
 e7de024:	ffff                	.insn	2, 0xffff
 e7de026:	ffff                	.insn	2, 0xffff
 e7de028:	ffff                	.insn	2, 0xffff
 e7de02a:	ffff                	.insn	2, 0xffff
 e7de02c:	ffff                	.insn	2, 0xffff
 e7de02e:	ffff                	.insn	2, 0xffff
 e7de030:	ffff                	.insn	2, 0xffff
 e7de032:	ffff                	.insn	2, 0xffff
 e7de034:	ffff                	.insn	2, 0xffff
 e7de036:	ffff                	.insn	2, 0xffff
	...
 e7de050:	00ff 0000 0000 0000 	.insn	10, 0x00ff00000000000000ff
 e7de058:	00ff 
	...
 e7de176:	0000                	.insn	2, 0x0000
 e7de178:	ffff                	.insn	2, 0xffff
 e7de17a:	ffff                	.insn	2, 0xffff
 e7de17c:	ffff                	.insn	2, 0xffff
 e7de17e:	ffff                	.insn	2, 0xffff
	...
 e7de188:	ffff                	.insn	2, 0xffff
 e7de18a:	ffff                	.insn	2, 0xffff
	...

Disassembly of section .hart_stack_0:

000000000002f000 <hart_stack_0>:
	...

Disassembly of section .io_htif:

0000000041040000 <tohost>:
	...

0000000041040040 <fromhost>:
	...

Disassembly of section .mem0:

0000000028ef0000 <.mem0>:
    28ef0000:	c0de                	.insn	2, 0xc0de
    28ef0002:	c001                	.insn	2, 0xc001
    28ef0004:	0000                	.insn	2, 0x0000
	...

Disassembly of section .mem1:

0000000009745000 <.mem1>:
 9745000:	c0de                	.insn	2, 0xc0de
 9745002:	c001                	.insn	2, 0xc001
 9745004:	0000                	.insn	2, 0x0000
	...

Disassembly of section .mem2:

0000000000863000 <.mem2>:
  863000:	c0de                	.insn	2, 0xc0de
  863002:	c001                	.insn	2, 0xc001
  863004:	0000                	.insn	2, 0x0000
	...

Disassembly of section .mem3:

0000000000002000 <.mem3>:
    2000:	c0de                	.insn	2, 0xc0de
    2002:	c001                	.insn	2, 0xc001
    2004:	0000                	.insn	2, 0x0000
	...

Disassembly of section .mem4:

0000000000027000 <.mem4>:
   27000:	c0de                	.insn	2, 0xc0de
   27002:	c001                	.insn	2, 0xc001
   27004:	0000                	.insn	2, 0x0000
	...

Disassembly of section .mem5:

000000000120b000 <.mem5>:
 120b000:	c0de                	.insn	2, 0xc0de
 120b002:	c001                	.insn	2, 0xc001
 120b004:	0000                	.insn	2, 0x0000
	...

Disassembly of section .mem6:

000000036c9bb000 <.mem6>:
   36c9bb000:	c0de                	.insn	2, 0xc0de
   36c9bb002:	c001                	.insn	2, 0xc001
   36c9bb004:	0000                	.insn	2, 0x0000
	...

Disassembly of section .mem7:

0000000000005000 <.mem7>:
    5000:	c0de                	.insn	2, 0xc0de
    5002:	c001                	.insn	2, 0xc001
    5004:	0000                	.insn	2, 0x0000
	...

Disassembly of section .tp_csr_storage:

0000000000170000 <.tp_csr_storage>:
  170000:	c0de                	.insn	2, 0xc0de
  170002:	c001                	.insn	2, 0xc001
  170004:	0000                	.insn	2, 0x0000
	...

Disassembly of section .SID_HEXCEP_05_stack:

000000000ec3d000 <.SID_HEXCEP_05_stack>:
 ec3d000:	c0de                	.insn	2, 0xc0de
 ec3d002:	c001                	.insn	2, 0xc001
 ec3d004:	0000                	.insn	2, 0x0000
	...

Disassembly of section .SID_HEXCEP_07_vs_mode_stack:

00000000009e4000 <.SID_HEXCEP_07_vs_mode_stack>:
  9e4000:	c0de                	.insn	2, 0xc0de
  9e4002:	c001                	.insn	2, 0xc001
  9e4004:	0000                	.insn	2, 0x0000
	...

Disassembly of section .SID_HEXCEP_08_stack:

000000078fb0f000 <.SID_HEXCEP_08_stack>:
   78fb0f000:	c0de                	.insn	2, 0xc0de
   78fb0f002:	c001                	.insn	2, 0xc001
   78fb0f004:	0000                	.insn	2, 0x0000
	...

Disassembly of section .SID_HEXCEP_09_mret_in_vs_vu_stack:

00000001f9906000 <.SID_HEXCEP_09_mret_in_vs_vu_stack>:
   1f9906000:	c0de                	.insn	2, 0xc0de
   1f9906002:	c001                	.insn	2, 0xc001
   1f9906004:	0000                	.insn	2, 0x0000
	...

Disassembly of section .SID_HEXCEP_09_sret_vtsr1_vs_stack:

00000010c4d01000 <.SID_HEXCEP_09_sret_vtsr1_vs_stack>:
  10c4d01000:	c0de                	.insn	2, 0xc0de
  10c4d01002:	c001                	.insn	2, 0xc001
  10c4d01004:	0000                	.insn	2, 0x0000
	...

Disassembly of section .SID_HEXCEP_09_sfence_vma_vtvm1_vs_stack:

0000000000094000 <.SID_HEXCEP_09_sfence_vma_vtvm1_vs_stack>:
   94000:	c0de                	.insn	2, 0xc0de
   94002:	c001                	.insn	2, 0xc001
   94004:	0000                	.insn	2, 0x0000
	...

Disassembly of section .SID_HEXCEP_09_sinval_vma_vtvm1_vs_stack:

000000000001c000 <.SID_HEXCEP_09_sinval_vma_vtvm1_vs_stack>:
   1c000:	c0de                	.insn	2, 0xc0de
   1c002:	c001                	.insn	2, 0xc001
   1c004:	0000                	.insn	2, 0x0000
	...

Disassembly of section .SID_HEXCEP_09_hinval_vvma_vs_stack:

0000000000058000 <.SID_HEXCEP_09_hinval_vvma_vs_stack>:
   58000:	c0de                	.insn	2, 0xc0de
   58002:	c001                	.insn	2, 0xc001
   58004:	0000                	.insn	2, 0x0000
	...

Disassembly of section .SID_HEXCEP_09_hinval_gvma_vs_stack:

0000000000266000 <.SID_HEXCEP_09_hinval_gvma_vs_stack>:
  266000:	c0de                	.insn	2, 0xc0de
  266002:	c001                	.insn	2, 0xc001
  266004:	0000                	.insn	2, 0x0000
	...

Disassembly of section .SID_HEXCEP_10_stack:

0000000000861000 <.SID_HEXCEP_10_stack>:
  861000:	c0de                	.insn	2, 0xc0de
  861002:	c001                	.insn	2, 0xc001
  861004:	0000                	.insn	2, 0x0000
	...

Disassembly of section .SID_HEXCEP_11_stack:

000000000de6d000 <.SID_HEXCEP_11_stack>:
 de6d000:	c0de                	.insn	2, 0xc0de
 de6d002:	c001                	.insn	2, 0xc001
 de6d004:	0000                	.insn	2, 0x0000
	...

Disassembly of section .SID_HEXCEP_16_fs0_both_stack:

0000000006f59000 <.SID_HEXCEP_16_fs0_both_stack>:
 6f59000:	c0de                	.insn	2, 0xc0de
 6f59002:	c001                	.insn	2, 0xc001
 6f59004:	0000                	.insn	2, 0x0000
	...

Disassembly of section .SID_HEXCEP_16_vsstatus_fs0_stack:

0000000000041000 <.SID_HEXCEP_16_vsstatus_fs0_stack>:
   41000:	c0de                	.insn	2, 0xc0de
   41002:	c001                	.insn	2, 0xc001
   41004:	0000                	.insn	2, 0x0000
	...

Disassembly of section .SID_HEXCEP_16_sstatus_fs0_stack:

0000000aa10e1000 <.SID_HEXCEP_16_sstatus_fs0_stack>:
   aa10e1000:	c0de                	.insn	2, 0xc0de
   aa10e1002:	c001                	.insn	2, 0xc001
   aa10e1004:	0000                	.insn	2, 0x0000
	...

Disassembly of section .SID_HEXCEP_17_vs0_both_stack:

0000000001d0a000 <.SID_HEXCEP_17_vs0_both_stack>:
 1d0a000:	c0de                	.insn	2, 0xc0de
 1d0a002:	c001                	.insn	2, 0xc001
 1d0a004:	0000                	.insn	2, 0x0000
	...

Disassembly of section .SID_HEXCEP_17_vsstatus_vs0_stack:

0000002a07caf000 <.SID_HEXCEP_17_vsstatus_vs0_stack>:
  2a07caf000:	c0de                	.insn	2, 0xc0de
  2a07caf002:	c001                	.insn	2, 0xc001
  2a07caf004:	0000                	.insn	2, 0x0000
	...

Disassembly of section .SID_HEXCEP_17_sstatus_vs0_stack:

0000000000009000 <.SID_HEXCEP_17_sstatus_vs0_stack>:
    9000:	c0de                	.insn	2, 0xc0de
    9002:	c001                	.insn	2, 0xc001
    9004:	0000                	.insn	2, 0x0000
	...

Disassembly of section .SID_HEXCEP_19_misaligned_amo_stack:

0000000000829000 <.SID_HEXCEP_19_misaligned_amo_stack>:
  829000:	c0de                	.insn	2, 0xc0de
  829002:	c001                	.insn	2, 0xc001
  829004:	0000                	.insn	2, 0x0000
	...

Disassembly of section .SID_HEXCEP_19_misaligned_lr_stack:

0000000040e0c000 <.SID_HEXCEP_19_misaligned_lr_stack>:
    40e0c000:	c0de                	.insn	2, 0xc0de
    40e0c002:	c001                	.insn	2, 0xc001
    40e0c004:	0000                	.insn	2, 0x0000
	...

Disassembly of section .SID_HEXCEP_19_misaligned_sc_stack:

0000000000032000 <.SID_HEXCEP_19_misaligned_sc_stack>:
   32000:	c0de                	.insn	2, 0xc0de
   32002:	c001                	.insn	2, 0xc001
   32004:	0000                	.insn	2, 0x0000
	...

Disassembly of section .SID_HEXCEP_19_misaligned_amo_delegated_stack:

0000000038058000 <.SID_HEXCEP_19_misaligned_amo_delegated_stack>:
    38058000:	c0de                	.insn	2, 0xc0de
    38058002:	c001                	.insn	2, 0xc001
    38058004:	0000                	.insn	2, 0x0000
	...

Disassembly of section .SID_HEXCEP_19_misaligned_lr_delegated_stack:

00000001d211f000 <.SID_HEXCEP_19_misaligned_lr_delegated_stack>:
   1d211f000:	c0de                	.insn	2, 0xc0de
   1d211f002:	c001                	.insn	2, 0xc001
   1d211f004:	0000                	.insn	2, 0x0000
	...

Disassembly of section .SID_HEXCEP_19_misaligned_sc_delegated_stack:

000000000024c000 <.SID_HEXCEP_19_misaligned_sc_delegated_stack>:
  24c000:	c0de                	.insn	2, 0xc0de
  24c002:	c001                	.insn	2, 0xc001
  24c004:	0000                	.insn	2, 0x0000
	...

Disassembly of section .__pagetable_map_os_0x00000000425ac000:

00000000425ac000 <__pagetable_map_os_0x00000000425ac000>:
    425ac000:	8001                	.insn	2, 0x8001
    425ac002:	10cd                	.insn	2, 0x10cd
    425ac004:	0000                	.insn	2, 0x0000
    425ac006:	0000                	.insn	2, 0x0000
    425ac008:	4801                	.insn	2, 0x4801
    425ac00a:	10e9                	.insn	2, 0x10e9
	...
    425ac038:	3c01                	.insn	2, 0x3c01
    425ac03a:	106d                	.insn	2, 0x106d
	...
    425ac068:	a001                	.insn	2, 0xa001
    425ac06a:	000010db          	.insn	4, 0x10db
	...
    425ac0ee:	0000                	.insn	2, 0x0000
    425ac0f0:	9001                	.insn	2, 0x9001
    425ac0f2:	000010cf          	fnmadd.s	f1,f0,f0,f0,rtz
	...
    425ac14e:	0000                	.insn	2, 0x0000
    425ac150:	e401                	.insn	2, 0xe401
    425ac152:	1121                	.insn	2, 0x1121
	...
    425ac218:	2001                	.insn	2, 0x2001
    425ac21a:	10f4                	.insn	2, 0x10f4
	...
    425ac540:	dc01                	.insn	2, 0xdc01
    425ac542:	10df 0000 0000      	.insn	6, 0x10df

Disassembly of section .__pagetable_map_os_0x0000000043a52000:

0000000043a52000 <__pagetable_map_os_0x0000000043a52000>:
	...
    43a52038:	a401                	.insn	2, 0xa401
    43a5203a:	104c                	.insn	2, 0x104c
    43a5203c:	0000                	.insn	2, 0x0000
    43a5203e:	0000                	.insn	2, 0x0000
    43a52040:	2c01                	.insn	2, 0x2c01
    43a52042:	107a                	.insn	2, 0x107a
    43a52044:	0000                	.insn	2, 0x0000
    43a52046:	0000                	.insn	2, 0x0000
    43a52048:	2001                	.insn	2, 0x2001
    43a5204a:	1094                	.insn	2, 0x1094
	...
    43a52058:	9c01                	.insn	2, 0x9c01
    43a5205a:	000010db          	.insn	4, 0x10db
	...
    43a5208e:	0000                	.insn	2, 0x0000
    43a52090:	ac01                	.insn	2, 0xac01
    43a52092:	000010db          	.insn	4, 0x10db
	...

Disassembly of section .__pagetable_map_os_0x0000000041e8b000:

0000000041e8b000 <__pagetable_map_os_0x0000000041e8b000>:
	...
    41e8b080:	104040cf          	fnmadd.s	f1,f0,f4,f2,rmm
    41e8b084:	0000                	.insn	2, 0x0000
    41e8b086:	0000                	.insn	2, 0x0000
    41e8b088:	104044cf          	fnmadd.s	f9,f0,f4,f2,rmm
    41e8b08c:	0000                	.insn	2, 0x0000
    41e8b08e:	0000                	.insn	2, 0x0000
    41e8b090:	104048cf          	fnmadd.s	f17,f0,f4,f2,rmm
    41e8b094:	0000                	.insn	2, 0x0000
    41e8b096:	0000                	.insn	2, 0x0000
    41e8b098:	10404ccf          	fnmadd.s	f25,f0,f4,f2,rmm
    41e8b09c:	0000                	.insn	2, 0x0000
    41e8b09e:	0000                	.insn	2, 0x0000
    41e8b0a0:	10b800cf          	fnmadd.s	f1,f16,f11,f2,rne
    41e8b0a4:	0000                	.insn	2, 0x0000
    41e8b0a6:	0000                	.insn	2, 0x0000
    41e8b0a8:	10b804cf          	fnmadd.s	f9,f16,f11,f2,rne
    41e8b0ac:	0000                	.insn	2, 0x0000
    41e8b0ae:	0000                	.insn	2, 0x0000
    41e8b0b0:	10b808cf          	fnmadd.s	f17,f16,f11,f2,rne
    41e8b0b4:	0000                	.insn	2, 0x0000
    41e8b0b6:	0000                	.insn	2, 0x0000
    41e8b0b8:	10b80ccf          	fnmadd.s	f25,f16,f11,f2,rne
    41e8b0bc:	0000                	.insn	2, 0x0000
    41e8b0be:	0000                	.insn	2, 0x0000
    41e8b0c0:	10b810cf          	fnmadd.s	f1,f16,f11,f2,rtz
    41e8b0c4:	0000                	.insn	2, 0x0000
    41e8b0c6:	0000                	.insn	2, 0x0000
    41e8b0c8:	10b814cf          	fnmadd.s	f9,f16,f11,f2,rtz
    41e8b0cc:	0000                	.insn	2, 0x0000
    41e8b0ce:	0000                	.insn	2, 0x0000
    41e8b0d0:	10b818cf          	fnmadd.s	f17,f16,f11,f2,rtz
    41e8b0d4:	0000                	.insn	2, 0x0000
    41e8b0d6:	0000                	.insn	2, 0x0000
    41e8b0d8:	10b81ccf          	fnmadd.s	f25,f16,f11,f2,rtz
    41e8b0dc:	0000                	.insn	2, 0x0000
    41e8b0de:	0000                	.insn	2, 0x0000
    41e8b0e0:	10b820cf          	fnmadd.s	f1,f16,f11,f2,rdn
    41e8b0e4:	0000                	.insn	2, 0x0000
    41e8b0e6:	0000                	.insn	2, 0x0000
    41e8b0e8:	10b824cf          	fnmadd.s	f9,f16,f11,f2,rdn
    41e8b0ec:	0000                	.insn	2, 0x0000
    41e8b0ee:	0000                	.insn	2, 0x0000
    41e8b0f0:	10b828cf          	fnmadd.s	f17,f16,f11,f2,rdn
    41e8b0f4:	0000                	.insn	2, 0x0000
    41e8b0f6:	0000                	.insn	2, 0x0000
    41e8b0f8:	10b82ccf          	fnmadd.s	f25,f16,f11,f2,rdn
    41e8b0fc:	0000                	.insn	2, 0x0000
    41e8b0fe:	0000                	.insn	2, 0x0000
    41e8b100:	10b830cf          	fnmadd.s	f1,f16,f11,f2,rup
    41e8b104:	0000                	.insn	2, 0x0000
    41e8b106:	0000                	.insn	2, 0x0000
    41e8b108:	10b834cf          	fnmadd.s	f9,f16,f11,f2,rup
    41e8b10c:	0000                	.insn	2, 0x0000
    41e8b10e:	0000                	.insn	2, 0x0000
    41e8b110:	10b838cf          	fnmadd.s	f17,f16,f11,f2,rup
    41e8b114:	0000                	.insn	2, 0x0000
    41e8b116:	0000                	.insn	2, 0x0000
    41e8b118:	10b83ccf          	fnmadd.s	f25,f16,f11,f2,rup
    41e8b11c:	0000                	.insn	2, 0x0000
    41e8b11e:	0000                	.insn	2, 0x0000
    41e8b120:	10b840cf          	fnmadd.s	f1,f16,f11,f2,rmm
    41e8b124:	0000                	.insn	2, 0x0000
    41e8b126:	0000                	.insn	2, 0x0000
    41e8b128:	10b844cf          	fnmadd.s	f9,f16,f11,f2,rmm
    41e8b12c:	0000                	.insn	2, 0x0000
    41e8b12e:	0000                	.insn	2, 0x0000
    41e8b130:	10b848cf          	fnmadd.s	f17,f16,f11,f2,rmm
    41e8b134:	0000                	.insn	2, 0x0000
    41e8b136:	0000                	.insn	2, 0x0000
    41e8b138:	10b84ccf          	fnmadd.s	f25,f16,f11,f2,rmm
    41e8b13c:	0000                	.insn	2, 0x0000
    41e8b13e:	0000                	.insn	2, 0x0000
    41e8b140:	10b850cf          	fnmadd.s	f1,f16,f11,f2,unknown
    41e8b144:	0000                	.insn	2, 0x0000
    41e8b146:	0000                	.insn	2, 0x0000
    41e8b148:	10b854cf          	fnmadd.s	f9,f16,f11,f2,unknown
    41e8b14c:	0000                	.insn	2, 0x0000
    41e8b14e:	0000                	.insn	2, 0x0000
    41e8b150:	10b858cf          	fnmadd.s	f17,f16,f11,f2,unknown
    41e8b154:	0000                	.insn	2, 0x0000
    41e8b156:	0000                	.insn	2, 0x0000
    41e8b158:	10b85ccf          	fnmadd.s	f25,f16,f11,f2,unknown
    41e8b15c:	0000                	.insn	2, 0x0000
    41e8b15e:	0000                	.insn	2, 0x0000
    41e8b160:	10b860cf          	fnmadd.s	f1,f16,f11,f2,unknown
    41e8b164:	0000                	.insn	2, 0x0000
    41e8b166:	0000                	.insn	2, 0x0000
    41e8b168:	10b864cf          	fnmadd.s	f9,f16,f11,f2,unknown
    41e8b16c:	0000                	.insn	2, 0x0000
    41e8b16e:	0000                	.insn	2, 0x0000
    41e8b170:	10b868cf          	fnmadd.s	f17,f16,f11,f2,unknown
    41e8b174:	0000                	.insn	2, 0x0000
    41e8b176:	0000                	.insn	2, 0x0000
    41e8b178:	10b86ccf          	fnmadd.s	f25,f16,f11,f2,unknown
    41e8b17c:	0000                	.insn	2, 0x0000
    41e8b17e:	0000                	.insn	2, 0x0000
    41e8b180:	10b870cf          	fnmadd.s	f1,f16,f11,f2
    41e8b184:	0000                	.insn	2, 0x0000
    41e8b186:	0000                	.insn	2, 0x0000
    41e8b188:	10b874cf          	fnmadd.s	f9,f16,f11,f2
    41e8b18c:	0000                	.insn	2, 0x0000
    41e8b18e:	0000                	.insn	2, 0x0000
    41e8b190:	10b878cf          	fnmadd.s	f17,f16,f11,f2
    41e8b194:	0000                	.insn	2, 0x0000
    41e8b196:	0000                	.insn	2, 0x0000
    41e8b198:	10b87ccf          	fnmadd.s	f25,f16,f11,f2
    41e8b19c:	0000                	.insn	2, 0x0000
    41e8b19e:	0000                	.insn	2, 0x0000
    41e8b1a0:	10b880cf          	fnmadd.s	f1,f17,f11,f2,rne
    41e8b1a4:	0000                	.insn	2, 0x0000
    41e8b1a6:	0000                	.insn	2, 0x0000
    41e8b1a8:	10b884cf          	fnmadd.s	f9,f17,f11,f2,rne
    41e8b1ac:	0000                	.insn	2, 0x0000
    41e8b1ae:	0000                	.insn	2, 0x0000
    41e8b1b0:	10b888cf          	fnmadd.s	f17,f17,f11,f2,rne
    41e8b1b4:	0000                	.insn	2, 0x0000
    41e8b1b6:	0000                	.insn	2, 0x0000
    41e8b1b8:	10b88ccf          	fnmadd.s	f25,f17,f11,f2,rne
    41e8b1bc:	0000                	.insn	2, 0x0000
    41e8b1be:	0000                	.insn	2, 0x0000
    41e8b1c0:	10b890cf          	fnmadd.s	f1,f17,f11,f2,rtz
    41e8b1c4:	0000                	.insn	2, 0x0000
    41e8b1c6:	0000                	.insn	2, 0x0000
    41e8b1c8:	10b894cf          	fnmadd.s	f9,f17,f11,f2,rtz
    41e8b1cc:	0000                	.insn	2, 0x0000
    41e8b1ce:	0000                	.insn	2, 0x0000
    41e8b1d0:	10b898cf          	fnmadd.s	f17,f17,f11,f2,rtz
    41e8b1d4:	0000                	.insn	2, 0x0000
    41e8b1d6:	0000                	.insn	2, 0x0000
    41e8b1d8:	10b89ccf          	fnmadd.s	f25,f17,f11,f2,rtz
    41e8b1dc:	0000                	.insn	2, 0x0000
    41e8b1de:	0000                	.insn	2, 0x0000
    41e8b1e0:	10b8a0cf          	fnmadd.s	f1,f17,f11,f2,rdn
    41e8b1e4:	0000                	.insn	2, 0x0000
    41e8b1e6:	0000                	.insn	2, 0x0000
    41e8b1e8:	10b8a4cf          	fnmadd.s	f9,f17,f11,f2,rdn
    41e8b1ec:	0000                	.insn	2, 0x0000
    41e8b1ee:	0000                	.insn	2, 0x0000
    41e8b1f0:	10b8a8cf          	fnmadd.s	f17,f17,f11,f2,rdn
    41e8b1f4:	0000                	.insn	2, 0x0000
    41e8b1f6:	0000                	.insn	2, 0x0000
    41e8b1f8:	10b8accf          	fnmadd.s	f25,f17,f11,f2,rdn
    41e8b1fc:	0000                	.insn	2, 0x0000
    41e8b1fe:	0000                	.insn	2, 0x0000
    41e8b200:	104100cf          	fnmadd.s	f1,f2,f4,f2,rne
    41e8b204:	0000                	.insn	2, 0x0000
    41e8b206:	0000                	.insn	2, 0x0000
    41e8b208:	10b8b4cf          	fnmadd.s	f9,f17,f11,f2,rup
    41e8b20c:	0000                	.insn	2, 0x0000
    41e8b20e:	0000                	.insn	2, 0x0000
    41e8b210:	10b8b8cf          	fnmadd.s	f17,f17,f11,f2,rup
    41e8b214:	0000                	.insn	2, 0x0000
    41e8b216:	0000                	.insn	2, 0x0000
    41e8b218:	10b8bccf          	fnmadd.s	f25,f17,f11,f2,rup
    41e8b21c:	0000                	.insn	2, 0x0000
    41e8b21e:	0000                	.insn	2, 0x0000
    41e8b220:	10b8c0cf          	fnmadd.s	f1,f17,f11,f2,rmm
    41e8b224:	0000                	.insn	2, 0x0000
    41e8b226:	0000                	.insn	2, 0x0000
    41e8b228:	10b8c4cf          	fnmadd.s	f9,f17,f11,f2,rmm
    41e8b22c:	0000                	.insn	2, 0x0000
    41e8b22e:	0000                	.insn	2, 0x0000
    41e8b230:	10b8c8cf          	fnmadd.s	f17,f17,f11,f2,rmm
    41e8b234:	0000                	.insn	2, 0x0000
    41e8b236:	0000                	.insn	2, 0x0000
    41e8b238:	10b8cccf          	fnmadd.s	f25,f17,f11,f2,rmm
    41e8b23c:	0000                	.insn	2, 0x0000
    41e8b23e:	0000                	.insn	2, 0x0000
    41e8b240:	10b8d0cf          	fnmadd.s	f1,f17,f11,f2,unknown
    41e8b244:	0000                	.insn	2, 0x0000
    41e8b246:	0000                	.insn	2, 0x0000
    41e8b248:	10b8d4cf          	fnmadd.s	f9,f17,f11,f2,unknown
    41e8b24c:	0000                	.insn	2, 0x0000
    41e8b24e:	0000                	.insn	2, 0x0000
    41e8b250:	10b8d8cf          	fnmadd.s	f17,f17,f11,f2,unknown
    41e8b254:	0000                	.insn	2, 0x0000
    41e8b256:	0000                	.insn	2, 0x0000
    41e8b258:	10b8dccf          	fnmadd.s	f25,f17,f11,f2,unknown
    41e8b25c:	0000                	.insn	2, 0x0000
    41e8b25e:	0000                	.insn	2, 0x0000
    41e8b260:	10b8e0cf          	fnmadd.s	f1,f17,f11,f2,unknown
    41e8b264:	0000                	.insn	2, 0x0000
    41e8b266:	0000                	.insn	2, 0x0000
    41e8b268:	10b8e4cf          	fnmadd.s	f9,f17,f11,f2,unknown
    41e8b26c:	0000                	.insn	2, 0x0000
    41e8b26e:	0000                	.insn	2, 0x0000
    41e8b270:	10b8e8cf          	fnmadd.s	f17,f17,f11,f2,unknown
    41e8b274:	0000                	.insn	2, 0x0000
    41e8b276:	0000                	.insn	2, 0x0000
    41e8b278:	10b8eccf          	fnmadd.s	f25,f17,f11,f2,unknown
    41e8b27c:	0000                	.insn	2, 0x0000
    41e8b27e:	0000                	.insn	2, 0x0000
    41e8b280:	10b8f0cf          	fnmadd.s	f1,f17,f11,f2
    41e8b284:	0000                	.insn	2, 0x0000
    41e8b286:	0000                	.insn	2, 0x0000
    41e8b288:	10b8f4cf          	fnmadd.s	f9,f17,f11,f2
    41e8b28c:	0000                	.insn	2, 0x0000
    41e8b28e:	0000                	.insn	2, 0x0000
    41e8b290:	10b8f8cf          	fnmadd.s	f17,f17,f11,f2
    41e8b294:	0000                	.insn	2, 0x0000
    41e8b296:	0000                	.insn	2, 0x0000
    41e8b298:	10b8fccf          	fnmadd.s	f25,f17,f11,f2
    41e8b29c:	0000                	.insn	2, 0x0000
    41e8b29e:	0000                	.insn	2, 0x0000
    41e8b2a0:	10b900cf          	fnmadd.s	f1,f18,f11,f2,rne
    41e8b2a4:	0000                	.insn	2, 0x0000
    41e8b2a6:	0000                	.insn	2, 0x0000
    41e8b2a8:	10b904cf          	fnmadd.s	f9,f18,f11,f2,rne
    41e8b2ac:	0000                	.insn	2, 0x0000
    41e8b2ae:	0000                	.insn	2, 0x0000
    41e8b2b0:	10b908cf          	fnmadd.s	f17,f18,f11,f2,rne
    41e8b2b4:	0000                	.insn	2, 0x0000
    41e8b2b6:	0000                	.insn	2, 0x0000
    41e8b2b8:	10b90ccf          	fnmadd.s	f25,f18,f11,f2,rne
    41e8b2bc:	0000                	.insn	2, 0x0000
    41e8b2be:	0000                	.insn	2, 0x0000
    41e8b2c0:	10b910cf          	fnmadd.s	f1,f18,f11,f2,rtz
    41e8b2c4:	0000                	.insn	2, 0x0000
    41e8b2c6:	0000                	.insn	2, 0x0000
    41e8b2c8:	10b914cf          	fnmadd.s	f9,f18,f11,f2,rtz
    41e8b2cc:	0000                	.insn	2, 0x0000
    41e8b2ce:	0000                	.insn	2, 0x0000
    41e8b2d0:	10b918cf          	fnmadd.s	f17,f18,f11,f2,rtz
    41e8b2d4:	0000                	.insn	2, 0x0000
    41e8b2d6:	0000                	.insn	2, 0x0000
    41e8b2d8:	10b91ccf          	fnmadd.s	f25,f18,f11,f2,rtz
    41e8b2dc:	0000                	.insn	2, 0x0000
    41e8b2de:	0000                	.insn	2, 0x0000
    41e8b2e0:	10b920cf          	fnmadd.s	f1,f18,f11,f2,rdn
    41e8b2e4:	0000                	.insn	2, 0x0000
    41e8b2e6:	0000                	.insn	2, 0x0000
    41e8b2e8:	10b924cf          	fnmadd.s	f9,f18,f11,f2,rdn
    41e8b2ec:	0000                	.insn	2, 0x0000
    41e8b2ee:	0000                	.insn	2, 0x0000
    41e8b2f0:	10b928cf          	fnmadd.s	f17,f18,f11,f2,rdn
    41e8b2f4:	0000                	.insn	2, 0x0000
    41e8b2f6:	0000                	.insn	2, 0x0000
    41e8b2f8:	10b92ccf          	fnmadd.s	f25,f18,f11,f2,rdn
    41e8b2fc:	0000                	.insn	2, 0x0000
    41e8b2fe:	0000                	.insn	2, 0x0000
    41e8b300:	10b930cf          	fnmadd.s	f1,f18,f11,f2,rup
    41e8b304:	0000                	.insn	2, 0x0000
    41e8b306:	0000                	.insn	2, 0x0000
    41e8b308:	10b934cf          	fnmadd.s	f9,f18,f11,f2,rup
    41e8b30c:	0000                	.insn	2, 0x0000
    41e8b30e:	0000                	.insn	2, 0x0000
    41e8b310:	10b938cf          	fnmadd.s	f17,f18,f11,f2,rup
    41e8b314:	0000                	.insn	2, 0x0000
    41e8b316:	0000                	.insn	2, 0x0000
    41e8b318:	10b93ccf          	fnmadd.s	f25,f18,f11,f2,rup
    41e8b31c:	0000                	.insn	2, 0x0000
    41e8b31e:	0000                	.insn	2, 0x0000
    41e8b320:	10b940cf          	fnmadd.s	f1,f18,f11,f2,rmm
    41e8b324:	0000                	.insn	2, 0x0000
    41e8b326:	0000                	.insn	2, 0x0000
    41e8b328:	10b944cf          	fnmadd.s	f9,f18,f11,f2,rmm
    41e8b32c:	0000                	.insn	2, 0x0000
    41e8b32e:	0000                	.insn	2, 0x0000
    41e8b330:	10b948cf          	fnmadd.s	f17,f18,f11,f2,rmm
    41e8b334:	0000                	.insn	2, 0x0000
    41e8b336:	0000                	.insn	2, 0x0000
    41e8b338:	10b94ccf          	fnmadd.s	f25,f18,f11,f2,rmm
    41e8b33c:	0000                	.insn	2, 0x0000
    41e8b33e:	0000                	.insn	2, 0x0000
    41e8b340:	10b950cf          	fnmadd.s	f1,f18,f11,f2,unknown
    41e8b344:	0000                	.insn	2, 0x0000
    41e8b346:	0000                	.insn	2, 0x0000
    41e8b348:	10b954cf          	fnmadd.s	f9,f18,f11,f2,unknown
    41e8b34c:	0000                	.insn	2, 0x0000
    41e8b34e:	0000                	.insn	2, 0x0000
    41e8b350:	10b958cf          	fnmadd.s	f17,f18,f11,f2,unknown
    41e8b354:	0000                	.insn	2, 0x0000
    41e8b356:	0000                	.insn	2, 0x0000
    41e8b358:	10b95ccf          	fnmadd.s	f25,f18,f11,f2,unknown
    41e8b35c:	0000                	.insn	2, 0x0000
    41e8b35e:	0000                	.insn	2, 0x0000
    41e8b360:	10b960cf          	fnmadd.s	f1,f18,f11,f2,unknown
    41e8b364:	0000                	.insn	2, 0x0000
    41e8b366:	0000                	.insn	2, 0x0000
    41e8b368:	10b964cf          	fnmadd.s	f9,f18,f11,f2,unknown
    41e8b36c:	0000                	.insn	2, 0x0000
    41e8b36e:	0000                	.insn	2, 0x0000
    41e8b370:	10b968cf          	fnmadd.s	f17,f18,f11,f2,unknown
    41e8b374:	0000                	.insn	2, 0x0000
    41e8b376:	0000                	.insn	2, 0x0000
    41e8b378:	10b96ccf          	fnmadd.s	f25,f18,f11,f2,unknown
    41e8b37c:	0000                	.insn	2, 0x0000
    41e8b37e:	0000                	.insn	2, 0x0000
    41e8b380:	10b970cf          	fnmadd.s	f1,f18,f11,f2
    41e8b384:	0000                	.insn	2, 0x0000
    41e8b386:	0000                	.insn	2, 0x0000
    41e8b388:	10b974cf          	fnmadd.s	f9,f18,f11,f2
    41e8b38c:	0000                	.insn	2, 0x0000
    41e8b38e:	0000                	.insn	2, 0x0000
    41e8b390:	10b978cf          	fnmadd.s	f17,f18,f11,f2
    41e8b394:	0000                	.insn	2, 0x0000
    41e8b396:	0000                	.insn	2, 0x0000
    41e8b398:	10b97ccf          	fnmadd.s	f25,f18,f11,f2
    41e8b39c:	0000                	.insn	2, 0x0000
    41e8b39e:	0000                	.insn	2, 0x0000
    41e8b3a0:	10b980cf          	fnmadd.s	f1,f19,f11,f2,rne
    41e8b3a4:	0000                	.insn	2, 0x0000
    41e8b3a6:	0000                	.insn	2, 0x0000
    41e8b3a8:	10b984cf          	fnmadd.s	f9,f19,f11,f2,rne
    41e8b3ac:	0000                	.insn	2, 0x0000
    41e8b3ae:	0000                	.insn	2, 0x0000
    41e8b3b0:	10b988cf          	fnmadd.s	f17,f19,f11,f2,rne
    41e8b3b4:	0000                	.insn	2, 0x0000
    41e8b3b6:	0000                	.insn	2, 0x0000
    41e8b3b8:	10b98ccf          	fnmadd.s	f25,f19,f11,f2,rne
    41e8b3bc:	0000                	.insn	2, 0x0000
    41e8b3be:	0000                	.insn	2, 0x0000
    41e8b3c0:	10b990cf          	fnmadd.s	f1,f19,f11,f2,rtz
    41e8b3c4:	0000                	.insn	2, 0x0000
    41e8b3c6:	0000                	.insn	2, 0x0000
    41e8b3c8:	10b994cf          	fnmadd.s	f9,f19,f11,f2,rtz
    41e8b3cc:	0000                	.insn	2, 0x0000
    41e8b3ce:	0000                	.insn	2, 0x0000
    41e8b3d0:	10b998cf          	fnmadd.s	f17,f19,f11,f2,rtz
    41e8b3d4:	0000                	.insn	2, 0x0000
    41e8b3d6:	0000                	.insn	2, 0x0000
    41e8b3d8:	10b99ccf          	fnmadd.s	f25,f19,f11,f2,rtz
    41e8b3dc:	0000                	.insn	2, 0x0000
    41e8b3de:	0000                	.insn	2, 0x0000
    41e8b3e0:	10b9a0cf          	fnmadd.s	f1,f19,f11,f2,rdn
    41e8b3e4:	0000                	.insn	2, 0x0000
    41e8b3e6:	0000                	.insn	2, 0x0000
    41e8b3e8:	10b9a4cf          	fnmadd.s	f9,f19,f11,f2,rdn
    41e8b3ec:	0000                	.insn	2, 0x0000
    41e8b3ee:	0000                	.insn	2, 0x0000
    41e8b3f0:	10b9a8cf          	fnmadd.s	f17,f19,f11,f2,rdn
    41e8b3f4:	0000                	.insn	2, 0x0000
    41e8b3f6:	0000                	.insn	2, 0x0000
    41e8b3f8:	10b9accf          	fnmadd.s	f25,f19,f11,f2,rdn
    41e8b3fc:	0000                	.insn	2, 0x0000
    41e8b3fe:	0000                	.insn	2, 0x0000
    41e8b400:	10b9b0cf          	fnmadd.s	f1,f19,f11,f2,rup
    41e8b404:	0000                	.insn	2, 0x0000
    41e8b406:	0000                	.insn	2, 0x0000
    41e8b408:	10b9b4cf          	fnmadd.s	f9,f19,f11,f2,rup
    41e8b40c:	0000                	.insn	2, 0x0000
    41e8b40e:	0000                	.insn	2, 0x0000
    41e8b410:	10b9b8cf          	fnmadd.s	f17,f19,f11,f2,rup
    41e8b414:	0000                	.insn	2, 0x0000
    41e8b416:	0000                	.insn	2, 0x0000
    41e8b418:	10b9bccf          	fnmadd.s	f25,f19,f11,f2,rup
    41e8b41c:	0000                	.insn	2, 0x0000
    41e8b41e:	0000                	.insn	2, 0x0000
    41e8b420:	10b9c0cf          	fnmadd.s	f1,f19,f11,f2,rmm
    41e8b424:	0000                	.insn	2, 0x0000
    41e8b426:	0000                	.insn	2, 0x0000
    41e8b428:	10b9c4cf          	fnmadd.s	f9,f19,f11,f2,rmm
    41e8b42c:	0000                	.insn	2, 0x0000
    41e8b42e:	0000                	.insn	2, 0x0000
    41e8b430:	10b9c8cf          	fnmadd.s	f17,f19,f11,f2,rmm
    41e8b434:	0000                	.insn	2, 0x0000
    41e8b436:	0000                	.insn	2, 0x0000
    41e8b438:	10b9cccf          	fnmadd.s	f25,f19,f11,f2,rmm
    41e8b43c:	0000                	.insn	2, 0x0000
    41e8b43e:	0000                	.insn	2, 0x0000
    41e8b440:	10b9d0cf          	fnmadd.s	f1,f19,f11,f2,unknown
    41e8b444:	0000                	.insn	2, 0x0000
    41e8b446:	0000                	.insn	2, 0x0000
    41e8b448:	10b9d4cf          	fnmadd.s	f9,f19,f11,f2,unknown
    41e8b44c:	0000                	.insn	2, 0x0000
    41e8b44e:	0000                	.insn	2, 0x0000
    41e8b450:	10b9d8cf          	fnmadd.s	f17,f19,f11,f2,unknown
    41e8b454:	0000                	.insn	2, 0x0000
    41e8b456:	0000                	.insn	2, 0x0000
    41e8b458:	10b9dccf          	fnmadd.s	f25,f19,f11,f2,unknown
    41e8b45c:	0000                	.insn	2, 0x0000
    41e8b45e:	0000                	.insn	2, 0x0000
    41e8b460:	10b9e0cf          	fnmadd.s	f1,f19,f11,f2,unknown
    41e8b464:	0000                	.insn	2, 0x0000
    41e8b466:	0000                	.insn	2, 0x0000
    41e8b468:	10b9e4cf          	fnmadd.s	f9,f19,f11,f2,unknown
    41e8b46c:	0000                	.insn	2, 0x0000
    41e8b46e:	0000                	.insn	2, 0x0000
    41e8b470:	10b9e8cf          	fnmadd.s	f17,f19,f11,f2,unknown
    41e8b474:	0000                	.insn	2, 0x0000
    41e8b476:	0000                	.insn	2, 0x0000
    41e8b478:	10b9eccf          	fnmadd.s	f25,f19,f11,f2,unknown
    41e8b47c:	0000                	.insn	2, 0x0000
    41e8b47e:	0000                	.insn	2, 0x0000
    41e8b480:	10b9f0cf          	fnmadd.s	f1,f19,f11,f2
    41e8b484:	0000                	.insn	2, 0x0000
    41e8b486:	0000                	.insn	2, 0x0000
    41e8b488:	10b9f4cf          	fnmadd.s	f9,f19,f11,f2
    41e8b48c:	0000                	.insn	2, 0x0000
    41e8b48e:	0000                	.insn	2, 0x0000
    41e8b490:	10b9f8cf          	fnmadd.s	f17,f19,f11,f2
    41e8b494:	0000                	.insn	2, 0x0000
    41e8b496:	0000                	.insn	2, 0x0000
    41e8b498:	10b9fccf          	fnmadd.s	f25,f19,f11,f2
    41e8b49c:	0000                	.insn	2, 0x0000
    41e8b49e:	0000                	.insn	2, 0x0000
    41e8b4a0:	10ba00cf          	fnmadd.s	f1,f20,f11,f2,rne
    41e8b4a4:	0000                	.insn	2, 0x0000
    41e8b4a6:	0000                	.insn	2, 0x0000
    41e8b4a8:	10ba04cf          	fnmadd.s	f9,f20,f11,f2,rne
    41e8b4ac:	0000                	.insn	2, 0x0000
    41e8b4ae:	0000                	.insn	2, 0x0000
    41e8b4b0:	10ba08cf          	fnmadd.s	f17,f20,f11,f2,rne
    41e8b4b4:	0000                	.insn	2, 0x0000
    41e8b4b6:	0000                	.insn	2, 0x0000
    41e8b4b8:	10ba0ccf          	fnmadd.s	f25,f20,f11,f2,rne
    41e8b4bc:	0000                	.insn	2, 0x0000
    41e8b4be:	0000                	.insn	2, 0x0000
    41e8b4c0:	10ba10cf          	fnmadd.s	f1,f20,f11,f2,rtz
    41e8b4c4:	0000                	.insn	2, 0x0000
    41e8b4c6:	0000                	.insn	2, 0x0000
    41e8b4c8:	10ba14cf          	fnmadd.s	f9,f20,f11,f2,rtz
    41e8b4cc:	0000                	.insn	2, 0x0000
    41e8b4ce:	0000                	.insn	2, 0x0000
    41e8b4d0:	10ba18cf          	fnmadd.s	f17,f20,f11,f2,rtz
    41e8b4d4:	0000                	.insn	2, 0x0000
    41e8b4d6:	0000                	.insn	2, 0x0000
    41e8b4d8:	10ba1ccf          	fnmadd.s	f25,f20,f11,f2,rtz
    41e8b4dc:	0000                	.insn	2, 0x0000
    41e8b4de:	0000                	.insn	2, 0x0000
    41e8b4e0:	10ba20cf          	fnmadd.s	f1,f20,f11,f2,rdn
    41e8b4e4:	0000                	.insn	2, 0x0000
    41e8b4e6:	0000                	.insn	2, 0x0000
    41e8b4e8:	10ba24cf          	fnmadd.s	f9,f20,f11,f2,rdn
    41e8b4ec:	0000                	.insn	2, 0x0000
    41e8b4ee:	0000                	.insn	2, 0x0000
    41e8b4f0:	10ba28cf          	fnmadd.s	f17,f20,f11,f2,rdn
    41e8b4f4:	0000                	.insn	2, 0x0000
    41e8b4f6:	0000                	.insn	2, 0x0000
    41e8b4f8:	10ba2ccf          	fnmadd.s	f25,f20,f11,f2,rdn
    41e8b4fc:	0000                	.insn	2, 0x0000
    41e8b4fe:	0000                	.insn	2, 0x0000
    41e8b500:	10ba30cf          	fnmadd.s	f1,f20,f11,f2,rup
    41e8b504:	0000                	.insn	2, 0x0000
    41e8b506:	0000                	.insn	2, 0x0000
    41e8b508:	10ba34cf          	fnmadd.s	f9,f20,f11,f2,rup
    41e8b50c:	0000                	.insn	2, 0x0000
    41e8b50e:	0000                	.insn	2, 0x0000
    41e8b510:	10ba38cf          	fnmadd.s	f17,f20,f11,f2,rup
    41e8b514:	0000                	.insn	2, 0x0000
    41e8b516:	0000                	.insn	2, 0x0000
    41e8b518:	10ba3ccf          	fnmadd.s	f25,f20,f11,f2,rup
    41e8b51c:	0000                	.insn	2, 0x0000
    41e8b51e:	0000                	.insn	2, 0x0000
    41e8b520:	10ba40cf          	fnmadd.s	f1,f20,f11,f2,rmm
    41e8b524:	0000                	.insn	2, 0x0000
    41e8b526:	0000                	.insn	2, 0x0000
    41e8b528:	10ba44cf          	fnmadd.s	f9,f20,f11,f2,rmm
    41e8b52c:	0000                	.insn	2, 0x0000
    41e8b52e:	0000                	.insn	2, 0x0000
    41e8b530:	10ba48cf          	fnmadd.s	f17,f20,f11,f2,rmm
    41e8b534:	0000                	.insn	2, 0x0000
    41e8b536:	0000                	.insn	2, 0x0000
    41e8b538:	10ba4ccf          	fnmadd.s	f25,f20,f11,f2,rmm
    41e8b53c:	0000                	.insn	2, 0x0000
    41e8b53e:	0000                	.insn	2, 0x0000
    41e8b540:	10ba50cf          	fnmadd.s	f1,f20,f11,f2,unknown
    41e8b544:	0000                	.insn	2, 0x0000
    41e8b546:	0000                	.insn	2, 0x0000
    41e8b548:	10ba54cf          	fnmadd.s	f9,f20,f11,f2,unknown
    41e8b54c:	0000                	.insn	2, 0x0000
    41e8b54e:	0000                	.insn	2, 0x0000
    41e8b550:	10ba58cf          	fnmadd.s	f17,f20,f11,f2,unknown
    41e8b554:	0000                	.insn	2, 0x0000
    41e8b556:	0000                	.insn	2, 0x0000
    41e8b558:	10ba5ccf          	fnmadd.s	f25,f20,f11,f2,unknown
    41e8b55c:	0000                	.insn	2, 0x0000
    41e8b55e:	0000                	.insn	2, 0x0000
    41e8b560:	10ba60cf          	fnmadd.s	f1,f20,f11,f2,unknown
    41e8b564:	0000                	.insn	2, 0x0000
    41e8b566:	0000                	.insn	2, 0x0000
    41e8b568:	10ba64cf          	fnmadd.s	f9,f20,f11,f2,unknown
    41e8b56c:	0000                	.insn	2, 0x0000
    41e8b56e:	0000                	.insn	2, 0x0000
    41e8b570:	10ba68cf          	fnmadd.s	f17,f20,f11,f2,unknown
    41e8b574:	0000                	.insn	2, 0x0000
    41e8b576:	0000                	.insn	2, 0x0000
    41e8b578:	10ba6ccf          	fnmadd.s	f25,f20,f11,f2,unknown
    41e8b57c:	0000                	.insn	2, 0x0000
    41e8b57e:	0000                	.insn	2, 0x0000
    41e8b580:	10ba70cf          	fnmadd.s	f1,f20,f11,f2
    41e8b584:	0000                	.insn	2, 0x0000
    41e8b586:	0000                	.insn	2, 0x0000
    41e8b588:	10ba74cf          	fnmadd.s	f9,f20,f11,f2
    41e8b58c:	0000                	.insn	2, 0x0000
    41e8b58e:	0000                	.insn	2, 0x0000
    41e8b590:	10ba78cf          	fnmadd.s	f17,f20,f11,f2
    41e8b594:	0000                	.insn	2, 0x0000
    41e8b596:	0000                	.insn	2, 0x0000
    41e8b598:	10ba7ccf          	fnmadd.s	f25,f20,f11,f2
    41e8b59c:	0000                	.insn	2, 0x0000
    41e8b59e:	0000                	.insn	2, 0x0000
    41e8b5a0:	10ba80cf          	fnmadd.s	f1,f21,f11,f2,rne
    41e8b5a4:	0000                	.insn	2, 0x0000
    41e8b5a6:	0000                	.insn	2, 0x0000
    41e8b5a8:	10ba84cf          	fnmadd.s	f9,f21,f11,f2,rne
    41e8b5ac:	0000                	.insn	2, 0x0000
    41e8b5ae:	0000                	.insn	2, 0x0000
    41e8b5b0:	10ba88cf          	fnmadd.s	f17,f21,f11,f2,rne
    41e8b5b4:	0000                	.insn	2, 0x0000
    41e8b5b6:	0000                	.insn	2, 0x0000
    41e8b5b8:	10ba8ccf          	fnmadd.s	f25,f21,f11,f2,rne
    41e8b5bc:	0000                	.insn	2, 0x0000
    41e8b5be:	0000                	.insn	2, 0x0000
    41e8b5c0:	10ba90cf          	fnmadd.s	f1,f21,f11,f2,rtz
    41e8b5c4:	0000                	.insn	2, 0x0000
    41e8b5c6:	0000                	.insn	2, 0x0000
    41e8b5c8:	10ba94cf          	fnmadd.s	f9,f21,f11,f2,rtz
    41e8b5cc:	0000                	.insn	2, 0x0000
    41e8b5ce:	0000                	.insn	2, 0x0000
    41e8b5d0:	10ba98cf          	fnmadd.s	f17,f21,f11,f2,rtz
    41e8b5d4:	0000                	.insn	2, 0x0000
    41e8b5d6:	0000                	.insn	2, 0x0000
    41e8b5d8:	10ba9ccf          	fnmadd.s	f25,f21,f11,f2,rtz
    41e8b5dc:	0000                	.insn	2, 0x0000
    41e8b5de:	0000                	.insn	2, 0x0000
    41e8b5e0:	10baa0cf          	fnmadd.s	f1,f21,f11,f2,rdn
    41e8b5e4:	0000                	.insn	2, 0x0000
    41e8b5e6:	0000                	.insn	2, 0x0000
    41e8b5e8:	10baa4cf          	fnmadd.s	f9,f21,f11,f2,rdn
    41e8b5ec:	0000                	.insn	2, 0x0000
    41e8b5ee:	0000                	.insn	2, 0x0000
    41e8b5f0:	10baa8cf          	fnmadd.s	f17,f21,f11,f2,rdn
    41e8b5f4:	0000                	.insn	2, 0x0000
    41e8b5f6:	0000                	.insn	2, 0x0000
    41e8b5f8:	10baaccf          	fnmadd.s	f25,f21,f11,f2,rdn
    41e8b5fc:	0000                	.insn	2, 0x0000
    41e8b5fe:	0000                	.insn	2, 0x0000
    41e8b600:	10bab0cf          	fnmadd.s	f1,f21,f11,f2,rup
    41e8b604:	0000                	.insn	2, 0x0000
    41e8b606:	0000                	.insn	2, 0x0000
    41e8b608:	10bab4cf          	fnmadd.s	f9,f21,f11,f2,rup
    41e8b60c:	0000                	.insn	2, 0x0000
    41e8b60e:	0000                	.insn	2, 0x0000
    41e8b610:	10bab8cf          	fnmadd.s	f17,f21,f11,f2,rup
    41e8b614:	0000                	.insn	2, 0x0000
    41e8b616:	0000                	.insn	2, 0x0000
    41e8b618:	10babccf          	fnmadd.s	f25,f21,f11,f2,rup
    41e8b61c:	0000                	.insn	2, 0x0000
    41e8b61e:	0000                	.insn	2, 0x0000
    41e8b620:	10bac0cf          	fnmadd.s	f1,f21,f11,f2,rmm
    41e8b624:	0000                	.insn	2, 0x0000
    41e8b626:	0000                	.insn	2, 0x0000
    41e8b628:	10bac4cf          	fnmadd.s	f9,f21,f11,f2,rmm
    41e8b62c:	0000                	.insn	2, 0x0000
    41e8b62e:	0000                	.insn	2, 0x0000
    41e8b630:	10bac8cf          	fnmadd.s	f17,f21,f11,f2,rmm
    41e8b634:	0000                	.insn	2, 0x0000
    41e8b636:	0000                	.insn	2, 0x0000
    41e8b638:	10bacccf          	fnmadd.s	f25,f21,f11,f2,rmm
    41e8b63c:	0000                	.insn	2, 0x0000
    41e8b63e:	0000                	.insn	2, 0x0000
    41e8b640:	10bad0cf          	fnmadd.s	f1,f21,f11,f2,unknown
    41e8b644:	0000                	.insn	2, 0x0000
    41e8b646:	0000                	.insn	2, 0x0000
    41e8b648:	10bad4cf          	fnmadd.s	f9,f21,f11,f2,unknown
    41e8b64c:	0000                	.insn	2, 0x0000
    41e8b64e:	0000                	.insn	2, 0x0000
    41e8b650:	10bad8cf          	fnmadd.s	f17,f21,f11,f2,unknown
    41e8b654:	0000                	.insn	2, 0x0000
    41e8b656:	0000                	.insn	2, 0x0000
    41e8b658:	10badccf          	fnmadd.s	f25,f21,f11,f2,unknown
    41e8b65c:	0000                	.insn	2, 0x0000
    41e8b65e:	0000                	.insn	2, 0x0000
    41e8b660:	10bae0cf          	fnmadd.s	f1,f21,f11,f2,unknown
    41e8b664:	0000                	.insn	2, 0x0000
    41e8b666:	0000                	.insn	2, 0x0000
    41e8b668:	10bae4cf          	fnmadd.s	f9,f21,f11,f2,unknown
    41e8b66c:	0000                	.insn	2, 0x0000
    41e8b66e:	0000                	.insn	2, 0x0000
    41e8b670:	10bae8cf          	fnmadd.s	f17,f21,f11,f2,unknown
    41e8b674:	0000                	.insn	2, 0x0000
    41e8b676:	0000                	.insn	2, 0x0000
    41e8b678:	10baeccf          	fnmadd.s	f25,f21,f11,f2,unknown
    41e8b67c:	0000                	.insn	2, 0x0000
    41e8b67e:	0000                	.insn	2, 0x0000
    41e8b680:	10baf0cf          	fnmadd.s	f1,f21,f11,f2
    41e8b684:	0000                	.insn	2, 0x0000
    41e8b686:	0000                	.insn	2, 0x0000
    41e8b688:	10baf4cf          	fnmadd.s	f9,f21,f11,f2
    41e8b68c:	0000                	.insn	2, 0x0000
    41e8b68e:	0000                	.insn	2, 0x0000
    41e8b690:	10baf8cf          	fnmadd.s	f17,f21,f11,f2
    41e8b694:	0000                	.insn	2, 0x0000
    41e8b696:	0000                	.insn	2, 0x0000
    41e8b698:	10bafccf          	fnmadd.s	f25,f21,f11,f2
    41e8b69c:	0000                	.insn	2, 0x0000
    41e8b69e:	0000                	.insn	2, 0x0000
    41e8b6a0:	10bb00cf          	fnmadd.s	f1,f22,f11,f2,rne
    41e8b6a4:	0000                	.insn	2, 0x0000
    41e8b6a6:	0000                	.insn	2, 0x0000
    41e8b6a8:	10bb04cf          	fnmadd.s	f9,f22,f11,f2,rne
    41e8b6ac:	0000                	.insn	2, 0x0000
    41e8b6ae:	0000                	.insn	2, 0x0000
    41e8b6b0:	10bb08cf          	fnmadd.s	f17,f22,f11,f2,rne
    41e8b6b4:	0000                	.insn	2, 0x0000
    41e8b6b6:	0000                	.insn	2, 0x0000
    41e8b6b8:	10bb0ccf          	fnmadd.s	f25,f22,f11,f2,rne
    41e8b6bc:	0000                	.insn	2, 0x0000
    41e8b6be:	0000                	.insn	2, 0x0000
    41e8b6c0:	10bb10cf          	fnmadd.s	f1,f22,f11,f2,rtz
    41e8b6c4:	0000                	.insn	2, 0x0000
    41e8b6c6:	0000                	.insn	2, 0x0000
    41e8b6c8:	10bb14cf          	fnmadd.s	f9,f22,f11,f2,rtz
    41e8b6cc:	0000                	.insn	2, 0x0000
    41e8b6ce:	0000                	.insn	2, 0x0000
    41e8b6d0:	10bb18cf          	fnmadd.s	f17,f22,f11,f2,rtz
    41e8b6d4:	0000                	.insn	2, 0x0000
    41e8b6d6:	0000                	.insn	2, 0x0000
    41e8b6d8:	10bb1ccf          	fnmadd.s	f25,f22,f11,f2,rtz
    41e8b6dc:	0000                	.insn	2, 0x0000
    41e8b6de:	0000                	.insn	2, 0x0000
    41e8b6e0:	10bb20cf          	fnmadd.s	f1,f22,f11,f2,rdn
    41e8b6e4:	0000                	.insn	2, 0x0000
    41e8b6e6:	0000                	.insn	2, 0x0000
    41e8b6e8:	10bb24cf          	fnmadd.s	f9,f22,f11,f2,rdn
    41e8b6ec:	0000                	.insn	2, 0x0000
    41e8b6ee:	0000                	.insn	2, 0x0000
    41e8b6f0:	10bb28cf          	fnmadd.s	f17,f22,f11,f2,rdn
    41e8b6f4:	0000                	.insn	2, 0x0000
    41e8b6f6:	0000                	.insn	2, 0x0000
    41e8b6f8:	10bb2ccf          	fnmadd.s	f25,f22,f11,f2,rdn
    41e8b6fc:	0000                	.insn	2, 0x0000
    41e8b6fe:	0000                	.insn	2, 0x0000
    41e8b700:	10bb30cf          	fnmadd.s	f1,f22,f11,f2,rup
    41e8b704:	0000                	.insn	2, 0x0000
    41e8b706:	0000                	.insn	2, 0x0000
    41e8b708:	10bb34cf          	fnmadd.s	f9,f22,f11,f2,rup
    41e8b70c:	0000                	.insn	2, 0x0000
    41e8b70e:	0000                	.insn	2, 0x0000
    41e8b710:	10bb38cf          	fnmadd.s	f17,f22,f11,f2,rup
    41e8b714:	0000                	.insn	2, 0x0000
    41e8b716:	0000                	.insn	2, 0x0000
    41e8b718:	10bb3ccf          	fnmadd.s	f25,f22,f11,f2,rup
    41e8b71c:	0000                	.insn	2, 0x0000
    41e8b71e:	0000                	.insn	2, 0x0000
    41e8b720:	10bb40cf          	fnmadd.s	f1,f22,f11,f2,rmm
    41e8b724:	0000                	.insn	2, 0x0000
    41e8b726:	0000                	.insn	2, 0x0000
    41e8b728:	10bb44cf          	fnmadd.s	f9,f22,f11,f2,rmm
    41e8b72c:	0000                	.insn	2, 0x0000
    41e8b72e:	0000                	.insn	2, 0x0000
    41e8b730:	10bb48cf          	fnmadd.s	f17,f22,f11,f2,rmm
    41e8b734:	0000                	.insn	2, 0x0000
    41e8b736:	0000                	.insn	2, 0x0000
    41e8b738:	10bb4ccf          	fnmadd.s	f25,f22,f11,f2,rmm
    41e8b73c:	0000                	.insn	2, 0x0000
    41e8b73e:	0000                	.insn	2, 0x0000
    41e8b740:	10bb50cf          	fnmadd.s	f1,f22,f11,f2,unknown
    41e8b744:	0000                	.insn	2, 0x0000
    41e8b746:	0000                	.insn	2, 0x0000
    41e8b748:	10bb54cf          	fnmadd.s	f9,f22,f11,f2,unknown
    41e8b74c:	0000                	.insn	2, 0x0000
    41e8b74e:	0000                	.insn	2, 0x0000
    41e8b750:	10bb58cf          	fnmadd.s	f17,f22,f11,f2,unknown
    41e8b754:	0000                	.insn	2, 0x0000
    41e8b756:	0000                	.insn	2, 0x0000
    41e8b758:	10bb5ccf          	fnmadd.s	f25,f22,f11,f2,unknown
    41e8b75c:	0000                	.insn	2, 0x0000
    41e8b75e:	0000                	.insn	2, 0x0000
    41e8b760:	10bb60cf          	fnmadd.s	f1,f22,f11,f2,unknown
    41e8b764:	0000                	.insn	2, 0x0000
    41e8b766:	0000                	.insn	2, 0x0000
    41e8b768:	10bb64cf          	fnmadd.s	f9,f22,f11,f2,unknown
    41e8b76c:	0000                	.insn	2, 0x0000
    41e8b76e:	0000                	.insn	2, 0x0000
    41e8b770:	10bb68cf          	fnmadd.s	f17,f22,f11,f2,unknown
    41e8b774:	0000                	.insn	2, 0x0000
    41e8b776:	0000                	.insn	2, 0x0000
    41e8b778:	10bb6ccf          	fnmadd.s	f25,f22,f11,f2,unknown
    41e8b77c:	0000                	.insn	2, 0x0000
    41e8b77e:	0000                	.insn	2, 0x0000
    41e8b780:	10bb70cf          	fnmadd.s	f1,f22,f11,f2
    41e8b784:	0000                	.insn	2, 0x0000
    41e8b786:	0000                	.insn	2, 0x0000
    41e8b788:	10bb74cf          	fnmadd.s	f9,f22,f11,f2
    41e8b78c:	0000                	.insn	2, 0x0000
    41e8b78e:	0000                	.insn	2, 0x0000
    41e8b790:	10bb78cf          	fnmadd.s	f17,f22,f11,f2
    41e8b794:	0000                	.insn	2, 0x0000
    41e8b796:	0000                	.insn	2, 0x0000
    41e8b798:	10bb7ccf          	fnmadd.s	f25,f22,f11,f2
    41e8b79c:	0000                	.insn	2, 0x0000
    41e8b79e:	0000                	.insn	2, 0x0000
    41e8b7a0:	10bb80cf          	fnmadd.s	f1,f23,f11,f2,rne
    41e8b7a4:	0000                	.insn	2, 0x0000
    41e8b7a6:	0000                	.insn	2, 0x0000
    41e8b7a8:	10bb84cf          	fnmadd.s	f9,f23,f11,f2,rne
    41e8b7ac:	0000                	.insn	2, 0x0000
    41e8b7ae:	0000                	.insn	2, 0x0000
    41e8b7b0:	10bb88cf          	fnmadd.s	f17,f23,f11,f2,rne
    41e8b7b4:	0000                	.insn	2, 0x0000
    41e8b7b6:	0000                	.insn	2, 0x0000
    41e8b7b8:	10bb8ccf          	fnmadd.s	f25,f23,f11,f2,rne
    41e8b7bc:	0000                	.insn	2, 0x0000
    41e8b7be:	0000                	.insn	2, 0x0000
    41e8b7c0:	10bb90cf          	fnmadd.s	f1,f23,f11,f2,rtz
    41e8b7c4:	0000                	.insn	2, 0x0000
    41e8b7c6:	0000                	.insn	2, 0x0000
    41e8b7c8:	10bb94cf          	fnmadd.s	f9,f23,f11,f2,rtz
    41e8b7cc:	0000                	.insn	2, 0x0000
    41e8b7ce:	0000                	.insn	2, 0x0000
    41e8b7d0:	10bb98cf          	fnmadd.s	f17,f23,f11,f2,rtz
    41e8b7d4:	0000                	.insn	2, 0x0000
    41e8b7d6:	0000                	.insn	2, 0x0000
    41e8b7d8:	10bb9ccf          	fnmadd.s	f25,f23,f11,f2,rtz
    41e8b7dc:	0000                	.insn	2, 0x0000
    41e8b7de:	0000                	.insn	2, 0x0000
    41e8b7e0:	10bba0cf          	fnmadd.s	f1,f23,f11,f2,rdn
    41e8b7e4:	0000                	.insn	2, 0x0000
    41e8b7e6:	0000                	.insn	2, 0x0000
    41e8b7e8:	10bba4cf          	fnmadd.s	f9,f23,f11,f2,rdn
    41e8b7ec:	0000                	.insn	2, 0x0000
    41e8b7ee:	0000                	.insn	2, 0x0000
    41e8b7f0:	10bba8cf          	fnmadd.s	f17,f23,f11,f2,rdn
    41e8b7f4:	0000                	.insn	2, 0x0000
    41e8b7f6:	0000                	.insn	2, 0x0000
    41e8b7f8:	10bbaccf          	fnmadd.s	f25,f23,f11,f2,rdn
    41e8b7fc:	0000                	.insn	2, 0x0000
    41e8b7fe:	0000                	.insn	2, 0x0000
    41e8b800:	10bbb0cf          	fnmadd.s	f1,f23,f11,f2,rup
    41e8b804:	0000                	.insn	2, 0x0000
    41e8b806:	0000                	.insn	2, 0x0000
    41e8b808:	10bbb4cf          	fnmadd.s	f9,f23,f11,f2,rup
    41e8b80c:	0000                	.insn	2, 0x0000
    41e8b80e:	0000                	.insn	2, 0x0000
    41e8b810:	10bbb8cf          	fnmadd.s	f17,f23,f11,f2,rup
    41e8b814:	0000                	.insn	2, 0x0000
    41e8b816:	0000                	.insn	2, 0x0000
    41e8b818:	10bbbccf          	fnmadd.s	f25,f23,f11,f2,rup
    41e8b81c:	0000                	.insn	2, 0x0000
    41e8b81e:	0000                	.insn	2, 0x0000
    41e8b820:	10bbc0cf          	fnmadd.s	f1,f23,f11,f2,rmm
    41e8b824:	0000                	.insn	2, 0x0000
    41e8b826:	0000                	.insn	2, 0x0000
    41e8b828:	10bbc4cf          	fnmadd.s	f9,f23,f11,f2,rmm
    41e8b82c:	0000                	.insn	2, 0x0000
    41e8b82e:	0000                	.insn	2, 0x0000
    41e8b830:	10bbc8cf          	fnmadd.s	f17,f23,f11,f2,rmm
    41e8b834:	0000                	.insn	2, 0x0000
    41e8b836:	0000                	.insn	2, 0x0000
    41e8b838:	10bbcccf          	fnmadd.s	f25,f23,f11,f2,rmm
    41e8b83c:	0000                	.insn	2, 0x0000
    41e8b83e:	0000                	.insn	2, 0x0000
    41e8b840:	10bbd0cf          	fnmadd.s	f1,f23,f11,f2,unknown
    41e8b844:	0000                	.insn	2, 0x0000
    41e8b846:	0000                	.insn	2, 0x0000
    41e8b848:	10bbd4cf          	fnmadd.s	f9,f23,f11,f2,unknown
    41e8b84c:	0000                	.insn	2, 0x0000
    41e8b84e:	0000                	.insn	2, 0x0000
    41e8b850:	10bbd8cf          	fnmadd.s	f17,f23,f11,f2,unknown
    41e8b854:	0000                	.insn	2, 0x0000
    41e8b856:	0000                	.insn	2, 0x0000
    41e8b858:	10bbdccf          	fnmadd.s	f25,f23,f11,f2,unknown
    41e8b85c:	0000                	.insn	2, 0x0000
    41e8b85e:	0000                	.insn	2, 0x0000
    41e8b860:	10bbe0cf          	fnmadd.s	f1,f23,f11,f2,unknown
    41e8b864:	0000                	.insn	2, 0x0000
    41e8b866:	0000                	.insn	2, 0x0000
    41e8b868:	10bbe4cf          	fnmadd.s	f9,f23,f11,f2,unknown
    41e8b86c:	0000                	.insn	2, 0x0000
    41e8b86e:	0000                	.insn	2, 0x0000
    41e8b870:	10bbe8cf          	fnmadd.s	f17,f23,f11,f2,unknown
    41e8b874:	0000                	.insn	2, 0x0000
    41e8b876:	0000                	.insn	2, 0x0000
    41e8b878:	10bbeccf          	fnmadd.s	f25,f23,f11,f2,unknown
    41e8b87c:	0000                	.insn	2, 0x0000
    41e8b87e:	0000                	.insn	2, 0x0000
    41e8b880:	10bbf0cf          	fnmadd.s	f1,f23,f11,f2
    41e8b884:	0000                	.insn	2, 0x0000
    41e8b886:	0000                	.insn	2, 0x0000
    41e8b888:	10bbf4cf          	fnmadd.s	f9,f23,f11,f2
    41e8b88c:	0000                	.insn	2, 0x0000
    41e8b88e:	0000                	.insn	2, 0x0000
    41e8b890:	10bbf8cf          	fnmadd.s	f17,f23,f11,f2
    41e8b894:	0000                	.insn	2, 0x0000
    41e8b896:	0000                	.insn	2, 0x0000
    41e8b898:	10bbfccf          	fnmadd.s	f25,f23,f11,f2
    41e8b89c:	0000                	.insn	2, 0x0000
    41e8b89e:	0000                	.insn	2, 0x0000
    41e8b8a0:	00df 10bc 0000      	.insn	6, 0x10bc00df
    41e8b8a6:	0000                	.insn	2, 0x0000
    41e8b8a8:	04df 10bc 0000      	.insn	6, 0x10bc04df
    41e8b8ae:	0000                	.insn	2, 0x0000
    41e8b8b0:	08df 10bc 0000      	.insn	6, 0x10bc08df
    41e8b8b6:	0000                	.insn	2, 0x0000
    41e8b8b8:	0cdf 10bc 0000      	.insn	6, 0x10bc0cdf
    41e8b8be:	0000                	.insn	2, 0x0000
    41e8b8c0:	10df 10bc 0000      	.insn	6, 0x10bc10df
    41e8b8c6:	0000                	.insn	2, 0x0000
    41e8b8c8:	14df 10bc 0000      	.insn	6, 0x10bc14df
    41e8b8ce:	0000                	.insn	2, 0x0000
    41e8b8d0:	18df 10bc 0000      	.insn	6, 0x10bc18df
    41e8b8d6:	0000                	.insn	2, 0x0000
    41e8b8d8:	1cdf 10bc 0000      	.insn	6, 0x10bc1cdf
    41e8b8de:	0000                	.insn	2, 0x0000
    41e8b8e0:	20df 10bc 0000      	.insn	6, 0x10bc20df
    41e8b8e6:	0000                	.insn	2, 0x0000
    41e8b8e8:	24df 10bc 0000      	.insn	6, 0x10bc24df
    41e8b8ee:	0000                	.insn	2, 0x0000
    41e8b8f0:	28df 10bc 0000      	.insn	6, 0x10bc28df
    41e8b8f6:	0000                	.insn	2, 0x0000
    41e8b8f8:	2cdf 10bc 0000      	.insn	6, 0x10bc2cdf
    41e8b8fe:	0000                	.insn	2, 0x0000
    41e8b900:	30df 10bc 0000      	.insn	6, 0x10bc30df
    41e8b906:	0000                	.insn	2, 0x0000
    41e8b908:	34df 10bc 0000      	.insn	6, 0x10bc34df
    41e8b90e:	0000                	.insn	2, 0x0000
    41e8b910:	38df 10bc 0000      	.insn	6, 0x10bc38df
    41e8b916:	0000                	.insn	2, 0x0000
    41e8b918:	3cdf 10bc 0000      	.insn	6, 0x10bc3cdf
    41e8b91e:	0000                	.insn	2, 0x0000
    41e8b920:	40df 10bc 0000      	.insn	6, 0x10bc40df
    41e8b926:	0000                	.insn	2, 0x0000
    41e8b928:	44df 10bc 0000      	.insn	6, 0x10bc44df
    41e8b92e:	0000                	.insn	2, 0x0000
    41e8b930:	48df 10bc 0000      	.insn	6, 0x10bc48df
    41e8b936:	0000                	.insn	2, 0x0000
    41e8b938:	4cdf 10bc 0000      	.insn	6, 0x10bc4cdf
    41e8b93e:	0000                	.insn	2, 0x0000
    41e8b940:	50df 10bc 0000      	.insn	6, 0x10bc50df
    41e8b946:	0000                	.insn	2, 0x0000
    41e8b948:	54df 10bc 0000      	.insn	6, 0x10bc54df
    41e8b94e:	0000                	.insn	2, 0x0000
    41e8b950:	58df 10bc 0000      	.insn	6, 0x10bc58df
    41e8b956:	0000                	.insn	2, 0x0000
    41e8b958:	5cdf 10bc 0000      	.insn	6, 0x10bc5cdf
    41e8b95e:	0000                	.insn	2, 0x0000
    41e8b960:	60df 10bc 0000      	.insn	6, 0x10bc60df
    41e8b966:	0000                	.insn	2, 0x0000
    41e8b968:	64df 10bc 0000      	.insn	6, 0x10bc64df
    41e8b96e:	0000                	.insn	2, 0x0000
    41e8b970:	68df 10bc 0000      	.insn	6, 0x10bc68df
    41e8b976:	0000                	.insn	2, 0x0000
    41e8b978:	6cdf 10bc 0000      	.insn	6, 0x10bc6cdf
    41e8b97e:	0000                	.insn	2, 0x0000
    41e8b980:	70df 10bc 0000      	.insn	6, 0x10bc70df
    41e8b986:	0000                	.insn	2, 0x0000
    41e8b988:	74df 10bc 0000      	.insn	6, 0x10bc74df
    41e8b98e:	0000                	.insn	2, 0x0000
    41e8b990:	78df 10bc 0000      	.insn	6, 0x10bc78df
    41e8b996:	0000                	.insn	2, 0x0000
    41e8b998:	7cdf 10bc 0000      	.insn	6, 0x10bc7cdf
    41e8b99e:	0000                	.insn	2, 0x0000
    41e8b9a0:	80df 10bc 0000      	.insn	6, 0x10bc80df
    41e8b9a6:	0000                	.insn	2, 0x0000
    41e8b9a8:	84df 10bc 0000      	.insn	6, 0x10bc84df
    41e8b9ae:	0000                	.insn	2, 0x0000
    41e8b9b0:	88df 10bc 0000      	.insn	6, 0x10bc88df
    41e8b9b6:	0000                	.insn	2, 0x0000
    41e8b9b8:	8cdf 10bc 0000      	.insn	6, 0x10bc8cdf
    41e8b9be:	0000                	.insn	2, 0x0000
    41e8b9c0:	90df 10bc 0000      	.insn	6, 0x10bc90df
    41e8b9c6:	0000                	.insn	2, 0x0000
    41e8b9c8:	94df 10bc 0000      	.insn	6, 0x10bc94df
    41e8b9ce:	0000                	.insn	2, 0x0000
    41e8b9d0:	98df 10bc 0000      	.insn	6, 0x10bc98df
    41e8b9d6:	0000                	.insn	2, 0x0000
    41e8b9d8:	9cdf 10bc 0000      	.insn	6, 0x10bc9cdf
    41e8b9de:	0000                	.insn	2, 0x0000
    41e8b9e0:	a0df 10bc 0000      	.insn	6, 0x10bca0df
    41e8b9e6:	0000                	.insn	2, 0x0000
    41e8b9e8:	a4df 10bc 0000      	.insn	6, 0x10bca4df
    41e8b9ee:	0000                	.insn	2, 0x0000
    41e8b9f0:	a8df 10bc 0000      	.insn	6, 0x10bca8df
    41e8b9f6:	0000                	.insn	2, 0x0000
    41e8b9f8:	acdf 10bc 0000      	.insn	6, 0x10bcacdf
    41e8b9fe:	0000                	.insn	2, 0x0000
    41e8ba00:	b0df 10bc 0000      	.insn	6, 0x10bcb0df
    41e8ba06:	0000                	.insn	2, 0x0000
    41e8ba08:	b4df 10bc 0000      	.insn	6, 0x10bcb4df
    41e8ba0e:	0000                	.insn	2, 0x0000
    41e8ba10:	b8df 10bc 0000      	.insn	6, 0x10bcb8df
    41e8ba16:	0000                	.insn	2, 0x0000
    41e8ba18:	bcdf 10bc 0000      	.insn	6, 0x10bcbcdf
    41e8ba1e:	0000                	.insn	2, 0x0000
    41e8ba20:	c0df 10bc 0000      	.insn	6, 0x10bcc0df
    41e8ba26:	0000                	.insn	2, 0x0000
    41e8ba28:	c4df 10bc 0000      	.insn	6, 0x10bcc4df
    41e8ba2e:	0000                	.insn	2, 0x0000
    41e8ba30:	c8df 10bc 0000      	.insn	6, 0x10bcc8df
    41e8ba36:	0000                	.insn	2, 0x0000
    41e8ba38:	ccdf 10bc 0000      	.insn	6, 0x10bcccdf
    41e8ba3e:	0000                	.insn	2, 0x0000
    41e8ba40:	d0df 10bc 0000      	.insn	6, 0x10bcd0df
    41e8ba46:	0000                	.insn	2, 0x0000
    41e8ba48:	d4df 10bc 0000      	.insn	6, 0x10bcd4df
    41e8ba4e:	0000                	.insn	2, 0x0000
    41e8ba50:	d8df 10bc 0000      	.insn	6, 0x10bcd8df
    41e8ba56:	0000                	.insn	2, 0x0000
    41e8ba58:	dcdf 10bc 0000      	.insn	6, 0x10bcdcdf
    41e8ba5e:	0000                	.insn	2, 0x0000
    41e8ba60:	e0df 10bc 0000      	.insn	6, 0x10bce0df
    41e8ba66:	0000                	.insn	2, 0x0000
    41e8ba68:	e4df 10bc 0000      	.insn	6, 0x10bce4df
    41e8ba6e:	0000                	.insn	2, 0x0000
    41e8ba70:	e8df 10bc 0000      	.insn	6, 0x10bce8df
    41e8ba76:	0000                	.insn	2, 0x0000
    41e8ba78:	ecdf 10bc 0000      	.insn	6, 0x10bcecdf
    41e8ba7e:	0000                	.insn	2, 0x0000
    41e8ba80:	f0df 10bc 0000      	.insn	6, 0x10bcf0df
    41e8ba86:	0000                	.insn	2, 0x0000
    41e8ba88:	f4df 10bc 0000      	.insn	6, 0x10bcf4df
    41e8ba8e:	0000                	.insn	2, 0x0000
    41e8ba90:	f8df 10bc 0000      	.insn	6, 0x10bcf8df
    41e8ba96:	0000                	.insn	2, 0x0000
    41e8ba98:	fcdf 10bc 0000      	.insn	6, 0x10bcfcdf
    41e8ba9e:	0000                	.insn	2, 0x0000
    41e8baa0:	00df 10bd 0000      	.insn	6, 0x10bd00df
    41e8baa6:	0000                	.insn	2, 0x0000
    41e8baa8:	04df 10bd 0000      	.insn	6, 0x10bd04df
    41e8baae:	0000                	.insn	2, 0x0000
    41e8bab0:	08df 10bd 0000      	.insn	6, 0x10bd08df
    41e8bab6:	0000                	.insn	2, 0x0000
    41e8bab8:	0cdf 10bd 0000      	.insn	6, 0x10bd0cdf
    41e8babe:	0000                	.insn	2, 0x0000
    41e8bac0:	10df 10bd 0000      	.insn	6, 0x10bd10df
    41e8bac6:	0000                	.insn	2, 0x0000
    41e8bac8:	14df 10bd 0000      	.insn	6, 0x10bd14df
    41e8bace:	0000                	.insn	2, 0x0000
    41e8bad0:	18df 10bd 0000      	.insn	6, 0x10bd18df
    41e8bad6:	0000                	.insn	2, 0x0000
    41e8bad8:	1cdf 10bd 0000      	.insn	6, 0x10bd1cdf
    41e8bade:	0000                	.insn	2, 0x0000
    41e8bae0:	20df 10bd 0000      	.insn	6, 0x10bd20df
    41e8bae6:	0000                	.insn	2, 0x0000
    41e8bae8:	24df 10bd 0000      	.insn	6, 0x10bd24df
    41e8baee:	0000                	.insn	2, 0x0000
    41e8baf0:	28df 10bd 0000      	.insn	6, 0x10bd28df
    41e8baf6:	0000                	.insn	2, 0x0000
    41e8baf8:	2cdf 10bd 0000      	.insn	6, 0x10bd2cdf
    41e8bafe:	0000                	.insn	2, 0x0000
    41e8bb00:	30df 10bd 0000      	.insn	6, 0x10bd30df
    41e8bb06:	0000                	.insn	2, 0x0000
    41e8bb08:	34df 10bd 0000      	.insn	6, 0x10bd34df
    41e8bb0e:	0000                	.insn	2, 0x0000
    41e8bb10:	38df 10bd 0000      	.insn	6, 0x10bd38df
    41e8bb16:	0000                	.insn	2, 0x0000
    41e8bb18:	3cdf 10bd 0000      	.insn	6, 0x10bd3cdf
    41e8bb1e:	0000                	.insn	2, 0x0000
    41e8bb20:	40df 10bd 0000      	.insn	6, 0x10bd40df
    41e8bb26:	0000                	.insn	2, 0x0000
    41e8bb28:	44df 10bd 0000      	.insn	6, 0x10bd44df
    41e8bb2e:	0000                	.insn	2, 0x0000
    41e8bb30:	48df 10bd 0000      	.insn	6, 0x10bd48df
    41e8bb36:	0000                	.insn	2, 0x0000
    41e8bb38:	4cdf 10bd 0000      	.insn	6, 0x10bd4cdf
    41e8bb3e:	0000                	.insn	2, 0x0000
    41e8bb40:	50df 10bd 0000      	.insn	6, 0x10bd50df
    41e8bb46:	0000                	.insn	2, 0x0000
    41e8bb48:	54df 10bd 0000      	.insn	6, 0x10bd54df
    41e8bb4e:	0000                	.insn	2, 0x0000
    41e8bb50:	58df 10bd 0000      	.insn	6, 0x10bd58df
    41e8bb56:	0000                	.insn	2, 0x0000
    41e8bb58:	5cdf 10bd 0000      	.insn	6, 0x10bd5cdf
    41e8bb5e:	0000                	.insn	2, 0x0000
    41e8bb60:	60df 10bd 0000      	.insn	6, 0x10bd60df
    41e8bb66:	0000                	.insn	2, 0x0000
    41e8bb68:	64df 10bd 0000      	.insn	6, 0x10bd64df
    41e8bb6e:	0000                	.insn	2, 0x0000
    41e8bb70:	68df 10bd 0000      	.insn	6, 0x10bd68df
    41e8bb76:	0000                	.insn	2, 0x0000
    41e8bb78:	6cdf 10bd 0000      	.insn	6, 0x10bd6cdf
    41e8bb7e:	0000                	.insn	2, 0x0000
    41e8bb80:	70df 10bd 0000      	.insn	6, 0x10bd70df
    41e8bb86:	0000                	.insn	2, 0x0000
    41e8bb88:	74df 10bd 0000      	.insn	6, 0x10bd74df
    41e8bb8e:	0000                	.insn	2, 0x0000
    41e8bb90:	78df 10bd 0000      	.insn	6, 0x10bd78df
    41e8bb96:	0000                	.insn	2, 0x0000
    41e8bb98:	7cdf 10bd 0000      	.insn	6, 0x10bd7cdf
    41e8bb9e:	0000                	.insn	2, 0x0000
    41e8bba0:	80df 10bd 0000      	.insn	6, 0x10bd80df
    41e8bba6:	0000                	.insn	2, 0x0000
    41e8bba8:	84df 10bd 0000      	.insn	6, 0x10bd84df
    41e8bbae:	0000                	.insn	2, 0x0000
    41e8bbb0:	88df 10bd 0000      	.insn	6, 0x10bd88df
    41e8bbb6:	0000                	.insn	2, 0x0000
    41e8bbb8:	8cdf 10bd 0000      	.insn	6, 0x10bd8cdf
    41e8bbbe:	0000                	.insn	2, 0x0000
    41e8bbc0:	90df 10bd 0000      	.insn	6, 0x10bd90df
    41e8bbc6:	0000                	.insn	2, 0x0000
    41e8bbc8:	94df 10bd 0000      	.insn	6, 0x10bd94df
    41e8bbce:	0000                	.insn	2, 0x0000
    41e8bbd0:	98df 10bd 0000      	.insn	6, 0x10bd98df
    41e8bbd6:	0000                	.insn	2, 0x0000
    41e8bbd8:	9cdf 10bd 0000      	.insn	6, 0x10bd9cdf
    41e8bbde:	0000                	.insn	2, 0x0000
    41e8bbe0:	a0df 10bd 0000      	.insn	6, 0x10bda0df
    41e8bbe6:	0000                	.insn	2, 0x0000
    41e8bbe8:	a4df 10bd 0000      	.insn	6, 0x10bda4df
    41e8bbee:	0000                	.insn	2, 0x0000
    41e8bbf0:	a8df 10bd 0000      	.insn	6, 0x10bda8df
    41e8bbf6:	0000                	.insn	2, 0x0000
    41e8bbf8:	acdf 10bd 0000      	.insn	6, 0x10bdacdf
    41e8bbfe:	0000                	.insn	2, 0x0000
    41e8bc00:	b0df 10bd 0000      	.insn	6, 0x10bdb0df
    41e8bc06:	0000                	.insn	2, 0x0000
    41e8bc08:	b4df 10bd 0000      	.insn	6, 0x10bdb4df
    41e8bc0e:	0000                	.insn	2, 0x0000
    41e8bc10:	b8df 10bd 0000      	.insn	6, 0x10bdb8df
    41e8bc16:	0000                	.insn	2, 0x0000
    41e8bc18:	bcdf 10bd 0000      	.insn	6, 0x10bdbcdf
    41e8bc1e:	0000                	.insn	2, 0x0000
    41e8bc20:	c0df 10bd 0000      	.insn	6, 0x10bdc0df
    41e8bc26:	0000                	.insn	2, 0x0000
    41e8bc28:	c4df 10bd 0000      	.insn	6, 0x10bdc4df
    41e8bc2e:	0000                	.insn	2, 0x0000
    41e8bc30:	c8df 10bd 0000      	.insn	6, 0x10bdc8df
    41e8bc36:	0000                	.insn	2, 0x0000
    41e8bc38:	ccdf 10bd 0000      	.insn	6, 0x10bdccdf
    41e8bc3e:	0000                	.insn	2, 0x0000
    41e8bc40:	d0df 10bd 0000      	.insn	6, 0x10bdd0df
    41e8bc46:	0000                	.insn	2, 0x0000
    41e8bc48:	d4df 10bd 0000      	.insn	6, 0x10bdd4df
    41e8bc4e:	0000                	.insn	2, 0x0000
    41e8bc50:	d8df 10bd 0000      	.insn	6, 0x10bdd8df
    41e8bc56:	0000                	.insn	2, 0x0000
    41e8bc58:	dcdf 10bd 0000      	.insn	6, 0x10bddcdf
    41e8bc5e:	0000                	.insn	2, 0x0000
    41e8bc60:	e0df 10bd 0000      	.insn	6, 0x10bde0df
    41e8bc66:	0000                	.insn	2, 0x0000
    41e8bc68:	e4df 10bd 0000      	.insn	6, 0x10bde4df
    41e8bc6e:	0000                	.insn	2, 0x0000
    41e8bc70:	e8df 10bd 0000      	.insn	6, 0x10bde8df
    41e8bc76:	0000                	.insn	2, 0x0000
    41e8bc78:	ecdf 10bd 0000      	.insn	6, 0x10bdecdf
    41e8bc7e:	0000                	.insn	2, 0x0000
    41e8bc80:	f0df 10bd 0000      	.insn	6, 0x10bdf0df
    41e8bc86:	0000                	.insn	2, 0x0000
    41e8bc88:	f4df 10bd 0000      	.insn	6, 0x10bdf4df
    41e8bc8e:	0000                	.insn	2, 0x0000
    41e8bc90:	f8df 10bd 0000      	.insn	6, 0x10bdf8df
    41e8bc96:	0000                	.insn	2, 0x0000
    41e8bc98:	fcdf 10bd 0000      	.insn	6, 0x10bdfcdf
	...

Disassembly of section .__pagetable_map_os_0x0000000042508000:

0000000042508000 <__pagetable_map_os_0x0000000042508000>:
	...
    425080a8:	10c004cf          	fnmadd.s	f9,f0,f12,f2,rne
    425080ac:	0000                	.insn	2, 0x0000
	...

Disassembly of section .__pagetable_map_os_0x00000000436e7000:

00000000436e7000 <__pagetable_map_os_0x00000000436e7000>:
	...
    436e7270:	10efc8cf          	fnmadd.s	f17,f31,f14,f2,rmm
    436e7274:	0000                	.insn	2, 0x0000
    436e7276:	0000                	.insn	2, 0x0000
    436e7278:	10efcccf          	fnmadd.s	f25,f31,f14,f2,rmm
    436e727c:	0000                	.insn	2, 0x0000
	...

Disassembly of section .__pagetable_map_os_0x00000000436eb000:

00000000436eb000 <__pagetable_map_os_0x00000000436eb000>:
	...
    436ebd60:	1096b0cf          	fnmadd.s	f1,f13,f9,f2,rup
    436ebd64:	0000                	.insn	2, 0x0000
	...

Disassembly of section .__pagetable_map_os_0x0000000041329000:

0000000041329000 <__pagetable_map_os_0x0000000041329000>:
	...
    41329060:	1050ecc7          	fmsub.s	f25,f1,f5,f2,unknown
    41329064:	0000                	.insn	2, 0x0000
	...

Disassembly of section .__pagetable_map_os_0x0000000043360000:

0000000043360000 <__pagetable_map_os_0x0000000043360000>:
    43360000:	2801                	.insn	2, 0x2801
    43360002:	000010ef          	jal	43361002 <__pagetable_map_os_0x0000000043361000+0x2>
    43360006:	0000                	.insn	2, 0x0000
    43360008:	b401                	.insn	2, 0xb401
    4336000a:	000010eb          	.insn	4, 0x10eb
	...
    4336001e:	0000                	.insn	2, 0x0000
    43360020:	d001                	.insn	2, 0xd001
    43360022:	000010db          	.insn	4, 0x10db
	...
    43360046:	0000                	.insn	2, 0x0000
    43360048:	f401                	.insn	2, 0xf401
    4336004a:	10cd                	.insn	2, 0x10cd
	...
    43360070:	2001                	.insn	2, 0x2001
    43360072:	000010e7          	.insn	4, 0x10e7
	...
    433601b6:	0000                	.insn	2, 0x0000
    433601b8:	e001                	.insn	2, 0xe001
    433601ba:	000010cf          	fnmadd.s	f1,f0,f0,f0,rtz
	...
    43360256:	0000                	.insn	2, 0x0000
    43360258:	b001                	.insn	2, 0xb001
    4336025a:	000010db          	.insn	4, 0x10db
	...
    43360376:	0000                	.insn	2, 0x0000
    43360378:	e001                	.insn	2, 0xe001
    4336037a:	1060                	.insn	2, 0x1060
	...
    43360398:	7001                	.insn	2, 0x7001
    4336039a:	10dd                	.insn	2, 0x10dd
	...
    433603b0:	ac01                	.insn	2, 0xac01
    433603b2:	00001093          	slli	x1,x0,0x0
	...
    43360a36:	0000                	.insn	2, 0x0000
    43360a38:	b401                	.insn	2, 0xb401
    43360a3a:	1079                	.insn	2, 0x1079
	...
    43360e00:	7801                	.insn	2, 0x7801
    43360e02:	10d5                	.insn	2, 0x10d5
    43360e04:	0000                	.insn	2, 0x0000
	...

Disassembly of section .__pagetable_map_os_0x0000000043bca000:

0000000043bca000 <__pagetable_map_os_0x0000000043bca000>:
	...
    43bca010:	107a20c7          	fmsub.s	f1,f20,f7,f2,rdn
	...
    43bca028:	10dba4c7          	fmsub.s	f9,f23,f13,f2,rdn
	...
    43bca048:	10db98c7          	fmsub.s	f17,f23,f13,f2,rtz
	...
    43bca0e0:	10cfacc7          	fmsub.s	f25,f31,f12,f2,rdn
	...
    43bca138:	107a48c7          	fmsub.s	f17,f20,f7,f2,rmm
	...
    43bca178:	10d064cf          	fnmadd.s	f9,f0,f13,f2,unknown
	...
    43bca190:	107a3cc7          	fmsub.s	f25,f20,f7,f2,rup
	...
    43bca1d0:	10d570cf          	fnmadd.s	f1,f10,f13,f2
    43bca1d4:	0000                	.insn	2, 0x0000
    43bca1d6:	0000                	.insn	2, 0x0000
    43bca1d8:	10d574cf          	fnmadd.s	f9,f10,f13,f2
	...
    43bca208:	107a24c7          	fmsub.s	f9,f20,f7,f2,rdn
	...
    43bca2c0:	10df44c7          	fmsub.s	f9,f30,f13,f2,rmm
	...
    43bca4a0:	10f74cc7          	fmsub.s	f25,f14,f15,f2,rmm
	...
    43bcab80:	1060e4c7          	fmsub.s	f9,f1,f6,f2,unknown
    43bcab84:	0000                	.insn	2, 0x0000
	...

Disassembly of section .__pagetable_map_os_0x000000004375c000:

000000004375c000 <__pagetable_map_os_0x000000004375c000>:
	...
    4375cef0:	10d56ccf          	fnmadd.s	f25,f10,f13,f2,unknown
    4375cef4:	0000                	.insn	2, 0x0000
	...

Disassembly of section .__pagetable_map_os_0x0000000041e6d000:

0000000041e6d000 <__pagetable_map_os_0x0000000041e6d000>:
	...
    41e6d780:	10dbb4c7          	fmsub.s	f9,f23,f13,f2,rup
    41e6d784:	0000                	.insn	2, 0x0000
	...

Disassembly of section .__pagetable_map_os_0x00000000436ec000:

00000000436ec000 <__pagetable_map_os_0x00000000436ec000>:
	...
    436eca28:	109268c7          	fmsub.s	f17,f4,f9,f2,unknown
    436eca2c:	0000                	.insn	2, 0x0000
	...

Disassembly of section .__pagetable_map_os_0x00000000436f4000:

00000000436f4000 <__pagetable_map_os_0x00000000436f4000>:
	...
    436f4148:	10dbc0c7          	fmsub.s	f1,f23,f13,f2,rmm
	...
    436f4308:	111088c7          	fmsub.s	f17,f1,f17,f2,rne
	...
    436f4318:	10e894c7          	fmsub.s	f9,f17,f14,f2,rtz
	...
    436f4f20:	10dbd8c7          	fmsub.s	f17,f23,f13,f2,unknown
    436f4f24:	0000                	.insn	2, 0x0000
	...

Disassembly of section .__pagetable_map_os_0x000000004337d000:

000000004337d000 <__pagetable_map_os_0x000000004337d000>:
	...
    4337d058:	10db8cc7          	fmsub.s	f25,f23,f13,f2,rne
    4337d05c:	0000                	.insn	2, 0x0000
	...

Disassembly of section .__pagetable_map_os_0x00000000424eb000:

00000000424eb000 <__pagetable_map_os_0x00000000424eb000>:
	...
    424eb1e8:	10db90c7          	fmsub.s	f1,f23,f13,f2,rtz
    424eb1ec:	0000                	.insn	2, 0x0000
	...

Disassembly of section .__pagetable_map_os_0x0000000043aed000:

0000000043aed000 <__pagetable_map_os_0x0000000043aed000>:
	...
    43aed260:	10db94c7          	fmsub.s	f9,f23,f13,f2,rtz
	...
    43aed330:	10ee88c7          	fmsub.s	f17,f29,f14,f2,rne
    43aed334:	0000                	.insn	2, 0x0000
	...

Disassembly of section .__pagetable_map_os_0x0000000041838000:

0000000041838000 <__pagetable_map_os_0x0000000041838000>:
	...
    41838368:	10fd24c7          	fmsub.s	f9,f26,f15,f2,rdn
    4183836c:	0000                	.insn	2, 0x0000
	...

Disassembly of section .__pagetable_map_os_0x00000000433f8000:

00000000433f8000 <__pagetable_map_os_0x00000000433f8000>:
	...
    433f8ac8:	10ef78c7          	fmsub.s	f17,f30,f14,f2
    433f8acc:	0000                	.insn	2, 0x0000
	...

Disassembly of section .__pagetable_map_os_0x00000000439c8000:

00000000439c8000 <__pagetable_map_os_0x00000000439c8000>:
	...
    439c8850:	10eaecc7          	fmsub.s	f25,f21,f14,f2,unknown
    439c8854:	0000                	.insn	2, 0x0000
	...

Disassembly of section .__pagetable_map_os_0x000000004355e000:

000000004355e000 <__pagetable_map_os_0x000000004355e000>:
	...
    4355e2c0:	107a40c7          	fmsub.s	f1,f20,f7,f2,rmm
    4355e2c4:	0000                	.insn	2, 0x0000
	...

Disassembly of section .__pagetable_map_os_0x00000000436e8000:

00000000436e8000 <__pagetable_map_os_0x00000000436e8000>:
	...
    436e8b20:	8401                	.insn	2, 0x8401
    436e8b22:	10cd                	.insn	2, 0x10cd
    436e8b24:	0000                	.insn	2, 0x0000
	...

Disassembly of section .__pagetable_map_os_0x0000000043361000:

0000000043361000 <__pagetable_map_os_0x0000000043361000>:
	...
    43361dd8:	10cadcc7          	fmsub.s	f25,f21,f12,f2,unknown
    43361ddc:	0000                	.insn	2, 0x0000
	...

Disassembly of section .__pagetable_map_os_0x00000000433e4000:

00000000433e4000 <__pagetable_map_os_0x00000000433e4000>:
	...
    433e43e8:	8401                	.insn	2, 0x8401
    433e43ea:	0000108f          	.insn	4, 0x108f
	...

Disassembly of section .__pagetable_map_os_0x00000000423e1000:

00000000423e1000 <__pagetable_map_os_0x00000000423e1000>:
	...
    423e1878:	107a34c7          	fmsub.s	f9,f20,f7,f2,rup
    423e187c:	0000                	.insn	2, 0x0000
	...

Disassembly of section .__pagetable_map_os_0x0000000041b4f000:

0000000041b4f000 <__pagetable_map_os_0x0000000041b4f000>:
	...
    41b4f480:	dc01                	.insn	2, 0xdc01
    41b4f482:	10e8                	.insn	2, 0x10e8
	...
    41b4fe60:	7c01                	.insn	2, 0x7c01
    41b4fe62:	10a1                	.insn	2, 0x10a1
    41b4fe64:	0000                	.insn	2, 0x0000
	...

Disassembly of section .__pagetable_map_os_0x000000004285f000:

000000004285f000 <__pagetable_map_os_0x000000004285f000>:
	...
    4285f830:	10e898c7          	fmsub.s	f17,f17,f14,f2,rtz
    4285f834:	0000                	.insn	2, 0x0000
	...

Disassembly of section .__pagetable_map_os_0x0000000043a37000:

0000000043a37000 <__pagetable_map_os_0x0000000043a37000>:
	...
    43a378f8:	106d40c7          	fmsub.s	f1,f26,f6,f2,rmm
    43a378fc:	0000                	.insn	2, 0x0000
	...

Disassembly of section .__pagetable_map_os_0x0000000043d08000:

0000000043d08000 <__pagetable_map_os_0x0000000043d08000>:
	...
    43d08130:	9801                	.insn	2, 0x9801
    43d08132:	0000109b          	slliw	x1,x0,0x0
	...

Disassembly of section .__pagetable_map_os_0x00000000426e6000:

00000000426e6000 <__pagetable_map_os_0x00000000426e6000>:
	...
    426e6808:	107a28c7          	fmsub.s	f17,f20,f7,f2,rdn
    426e680c:	0000                	.insn	2, 0x0000
	...

Disassembly of section .__pagetable_map_os_0x0000000044879000:

0000000044879000 <__pagetable_map_os_0x0000000044879000>:
	...
    44879840:	f401                	.insn	2, 0xf401
    44879842:	10e2                	.insn	2, 0x10e2
    44879844:	0000                	.insn	2, 0x0000
	...

Disassembly of section .__pagetable_map_os_0x00000000438bd000:

00000000438bd000 <__pagetable_map_os_0x00000000438bd000>:
	...
    438bd708:	109428c7          	fmsub.s	f17,f8,f9,f2,rdn
    438bd70c:	0000                	.insn	2, 0x0000
	...

Disassembly of section .__pagetable_map_os_0x00000000437f7000:

00000000437f7000 <__pagetable_map_os_0x00000000437f7000>:
	...
    437f71f0:	6c01                	.insn	2, 0x6c01
    437f71f2:	10f5                	.insn	2, 0x10f5
    437f71f4:	0000                	.insn	2, 0x0000
	...

Disassembly of section .__pagetable_map_os_0x0000000043d5b000:

0000000043d5b000 <__pagetable_map_os_0x0000000043d5b000>:
	...
    43d5b578:	10d018c7          	fmsub.s	f17,f0,f13,f2,rtz
    43d5b57c:	0000                	.insn	2, 0x0000
	...

Disassembly of section .riscv.attributes:

0000000000000000 <.riscv.attributes>:
   0:	1841                	.insn	2, 0x1841
   2:	0002                	.insn	2, 0x0002
   4:	7200                	.insn	2, 0x7200
   6:	7369                	.insn	2, 0x7369
   8:	01007663          	bgeu	x0,x16,14 <INSTRUCTION_GUEST_PAGE_FAULT>
   c:	020e                	.insn	2, 0x020e
   e:	0000                	.insn	2, 0x0000
  10:	7205                	.insn	2, 0x7205
  12:	3676                	.insn	2, 0x3676
  14:	6934                	.insn	2, 0x6934
  16:	7032                	.insn	2, 0x7032
  18:	5f31                	.insn	2, 0x5f31
  1a:	326d                	.insn	2, 0x326d
  1c:	3070                	.insn	2, 0x3070
  1e:	615f 7032 5f31      	.insn	6, 0x5f317032615f
  24:	3266                	.insn	2, 0x3266
  26:	3270                	.insn	2, 0x3270
  28:	645f 7032 5f32      	.insn	6, 0x5f327032645f
  2e:	30703263          	.insn	4, 0x30703263
  32:	625f 7031 5f30      	.insn	6, 0x5f307031625f
  38:	3176                	.insn	2, 0x3176
  3a:	3070                	.insn	2, 0x3070
  3c:	685f 7031 5f30      	.insn	6, 0x5f307031685f
  42:	697a                	.insn	2, 0x697a
  44:	6d6f6263          	bltu	x30,x22,708 <XLEN+0x6c8>
  48:	7031                	.insn	2, 0x7031
  4a:	5f30                	.insn	2, 0x5f30
  4c:	697a                	.insn	2, 0x697a
  4e:	706f6263          	bltu	x30,x6,752 <XLEN+0x712>
  52:	7031                	.insn	2, 0x7031
  54:	5f30                	.insn	2, 0x5f30
  56:	697a                	.insn	2, 0x697a
  58:	7a6f6263          	bltu	x30,x6,7fc <XLEN+0x7bc>
  5c:	7031                	.insn	2, 0x7031
  5e:	5f30                	.insn	2, 0x5f30
  60:	697a                	.insn	2, 0x697a
  62:	646e6f63          	bltu	x28,x6,6c0 <XLEN+0x680>
  66:	7031                	.insn	2, 0x7031
  68:	5f30                	.insn	2, 0x5f30
  6a:	697a                	.insn	2, 0x697a
  6c:	32727363          	bgeu	x4,x7,392 <XLEN+0x352>
  70:	3070                	.insn	2, 0x3070
  72:	7a5f 6669 6e65      	.insn	6, 0x6e6566697a5f
  78:	32696563          	bltu	x18,x6,3a2 <XLEN+0x362>
  7c:	3070                	.insn	2, 0x3070
  7e:	7a5f 6869 6e69      	.insn	6, 0x6e6968697a5f
  84:	7074                	.insn	2, 0x7074
  86:	7561                	.insn	2, 0x7561
  88:	70326573          	csrrsi	x10,0x703,4
  8c:	5f30                	.insn	2, 0x5f30
  8e:	6d7a                	.insn	2, 0x6d7a
  90:	756d                	.insn	2, 0x756d
  92:	316c                	.insn	2, 0x316c
  94:	3070                	.insn	2, 0x3070
  96:	7a5f 6161 6f6d      	.insn	6, 0x6f6d61617a5f
  9c:	7031                	.insn	2, 0x7031
  9e:	5f30                	.insn	2, 0x5f30
  a0:	617a                	.insn	2, 0x617a
  a2:	726c                	.insn	2, 0x726c
  a4:	70316373          	csrrsi	x6,0x703,2
  a8:	5f30                	.insn	2, 0x5f30
  aa:	617a                	.insn	2, 0x617a
  ac:	31737277          	.insn	4, 0x31737277
  b0:	3070                	.insn	2, 0x3070
  b2:	7a5f 6166 7031      	.insn	6, 0x703161667a5f
  b8:	5f30                	.insn	2, 0x5f30
  ba:	667a                	.insn	2, 0x667a
  bc:	6662                	.insn	2, 0x6662
  be:	696d                	.insn	2, 0x696d
  c0:	316e                	.insn	2, 0x316e
  c2:	3070                	.insn	2, 0x3070
  c4:	7a5f 6866 7031      	.insn	6, 0x703168667a5f
  ca:	5f30                	.insn	2, 0x5f30
  cc:	667a                	.insn	2, 0x667a
  ce:	6d68                	.insn	2, 0x6d68
  d0:	6e69                	.insn	2, 0x6e69
  d2:	7031                	.insn	2, 0x7031
  d4:	5f30                	.insn	2, 0x5f30
  d6:	637a                	.insn	2, 0x637a
  d8:	3161                	.insn	2, 0x3161
  da:	3070                	.insn	2, 0x3070
  dc:	7a5f 6463 7031      	.insn	6, 0x703164637a5f
  e2:	5f30                	.insn	2, 0x5f30
  e4:	627a                	.insn	2, 0x627a
  e6:	3161                	.insn	2, 0x3161
  e8:	3070                	.insn	2, 0x3070
  ea:	7a5f 6262 7031      	.insn	6, 0x703162627a5f
  f0:	5f30                	.insn	2, 0x5f30
  f2:	627a                	.insn	2, 0x627a
  f4:	30703163          	.insn	4, 0x30703163
  f8:	7a5f 6b62 3162      	.insn	6, 0x31626b627a5f
  fe:	3070                	.insn	2, 0x3070
 100:	7a5f 6b62 3163      	.insn	6, 0x31636b627a5f
 106:	3070                	.insn	2, 0x3070
 108:	7a5f 6b62 3178      	.insn	6, 0x31786b627a5f
 10e:	3070                	.insn	2, 0x3070
 110:	7a5f 7362 7031      	.insn	6, 0x703173627a5f
 116:	5f30                	.insn	2, 0x5f30
 118:	6b7a                	.insn	2, 0x6b7a
 11a:	7031                	.insn	2, 0x7031
 11c:	5f30                	.insn	2, 0x5f30
 11e:	6b7a                	.insn	2, 0x6b7a
 120:	316e                	.insn	2, 0x316e
 122:	3070                	.insn	2, 0x3070
 124:	7a5f 6e6b 3164      	.insn	6, 0x31646e6b7a5f
 12a:	3070                	.insn	2, 0x3070
 12c:	7a5f 6e6b 3165      	.insn	6, 0x31656e6b7a5f
 132:	3070                	.insn	2, 0x3070
 134:	7a5f 6e6b 3168      	.insn	6, 0x31686e6b7a5f
 13a:	3070                	.insn	2, 0x3070
 13c:	7a5f 726b 7031      	.insn	6, 0x7031726b7a5f
 142:	5f30                	.insn	2, 0x5f30
 144:	6b7a                	.insn	2, 0x6b7a
 146:	3174                	.insn	2, 0x3174
 148:	3070                	.insn	2, 0x3070
 14a:	7a5f 6276 3162      	.insn	6, 0x316262767a5f
 150:	3070                	.insn	2, 0x3070
 152:	7a5f 6276 3163      	.insn	6, 0x316362767a5f
 158:	3070                	.insn	2, 0x3070
 15a:	7a5f 6576 3233      	.insn	6, 0x323365767a5f
 160:	3166                	.insn	2, 0x3166
 162:	3070                	.insn	2, 0x3070
 164:	7a5f 6576 3233      	.insn	6, 0x323365767a5f
 16a:	3178                	.insn	2, 0x3178
 16c:	3070                	.insn	2, 0x3070
 16e:	7a5f 6576 3436      	.insn	6, 0x343665767a5f
 174:	3164                	.insn	2, 0x3164
 176:	3070                	.insn	2, 0x3070
 178:	7a5f 6576 3436      	.insn	6, 0x343665767a5f
 17e:	3166                	.insn	2, 0x3166
 180:	3070                	.insn	2, 0x3070
 182:	7a5f 6576 3436      	.insn	6, 0x343665767a5f
 188:	3178                	.insn	2, 0x3178
 18a:	3070                	.insn	2, 0x3070
 18c:	7a5f 6676 6662      	.insn	6, 0x666266767a5f
 192:	696d                	.insn	2, 0x696d
 194:	316e                	.insn	2, 0x316e
 196:	3070                	.insn	2, 0x3070
 198:	7a5f 6676 6662      	.insn	6, 0x666266767a5f
 19e:	31616d77          	.insn	4, 0x31616d77
 1a2:	3070                	.insn	2, 0x3070
 1a4:	7a5f 6b76 3162      	.insn	6, 0x31626b767a5f
 1aa:	3070                	.insn	2, 0x3070
 1ac:	7a5f 6b76 3167      	.insn	6, 0x31676b767a5f
 1b2:	3070                	.insn	2, 0x3070
 1b4:	7a5f 6b76 316e      	.insn	6, 0x316e6b767a5f
 1ba:	3070                	.insn	2, 0x3070
 1bc:	7a5f 6b76 636e      	.insn	6, 0x636e6b767a5f
 1c2:	7031                	.insn	2, 0x7031
 1c4:	5f30                	.insn	2, 0x5f30
 1c6:	767a                	.insn	2, 0x767a
 1c8:	64656e6b          	.insn	4, 0x64656e6b
 1cc:	7031                	.insn	2, 0x7031
 1ce:	5f30                	.insn	2, 0x5f30
 1d0:	767a                	.insn	2, 0x767a
 1d2:	31676e6b          	.insn	4, 0x31676e6b
 1d6:	3070                	.insn	2, 0x3070
 1d8:	7a5f 6b76 686e      	.insn	6, 0x686e6b767a5f
 1de:	3162                	.insn	2, 0x3162
 1e0:	3070                	.insn	2, 0x3070
 1e2:	7a5f 6b76 3174      	.insn	6, 0x31746b767a5f
 1e8:	3070                	.insn	2, 0x3070
 1ea:	7a5f 6c76 3231      	.insn	6, 0x32316c767a5f
 1f0:	6238                	.insn	2, 0x6238
 1f2:	7031                	.insn	2, 0x7031
 1f4:	5f30                	.insn	2, 0x5f30
 1f6:	767a                	.insn	2, 0x767a
 1f8:	336c                	.insn	2, 0x336c
 1fa:	6232                	.insn	2, 0x6232
 1fc:	7031                	.insn	2, 0x7031
 1fe:	5f30                	.insn	2, 0x5f30
 200:	767a                	.insn	2, 0x767a
 202:	366c                	.insn	2, 0x366c
 204:	6234                	.insn	2, 0x6234
 206:	7031                	.insn	2, 0x7031
 208:	5f30                	.insn	2, 0x5f30
 20a:	6e697673          	csrrci	x12,0x6e6,18
 20e:	6176                	.insn	2, 0x6176
 210:	316c                	.insn	2, 0x316c
 212:	3070                	.insn	2, 0x3070
 214:	0800                	.insn	2, 0x0800
 216:	0a01                	.insn	2, 0x0a01
 218:	0b                	.byte	0x0b
