
/home/abdullah/RiescueC/riescue/10x_R/zicbom_zicboz_zicbop_zic64b/testsuite/zicbom_zicboz_zicbop_zic64b/user_sv39/tp_zicbom_zicboz_zicbop_zic64b_1:     file format elf64-littleriscv


Disassembly of section .runtime:

0000000041000000 <_start>:
    41000000:	00000093          	li	x1,0
    41000004:	00000113          	li	x2,0
    41000008:	00000193          	li	x3,0
    4100000c:	00000213          	li	x4,0
    41000010:	00000293          	li	x5,0
    41000014:	00000313          	li	x6,0
    41000018:	00000393          	li	x7,0
    4100001c:	00000413          	li	x8,0
    41000020:	00000493          	li	x9,0
    41000024:	00000513          	li	x10,0
    41000028:	00000593          	li	x11,0
    4100002c:	00000613          	li	x12,0
    41000030:	00000693          	li	x13,0
    41000034:	00000713          	li	x14,0
    41000038:	00000793          	li	x15,0
    4100003c:	00000813          	li	x16,0
    41000040:	00000893          	li	x17,0
    41000044:	00000913          	li	x18,0
    41000048:	00000993          	li	x19,0
    4100004c:	00000a13          	li	x20,0
    41000050:	00000a93          	li	x21,0
    41000054:	00000b13          	li	x22,0
    41000058:	00000b93          	li	x23,0
    4100005c:	00000c13          	li	x24,0
    41000060:	00000c93          	li	x25,0
    41000064:	00000d13          	li	x26,0
    41000068:	00000d93          	li	x27,0
    4100006c:	00000e13          	li	x28,0
    41000070:	00000e93          	li	x29,0
    41000074:	00000f13          	li	x30,0
    41000078:	00000f93          	li	x31,0

000000004100007c <loader__load_panic_address>:
    4100007c:	00001297          	auipc	x5,0x1
    41000080:	9e828293          	addi	x5,x5,-1560 # 41000a64 <eot__failed>
    41000084:	30529073          	csrw	mtvec,x5

0000000041000088 <loader__initialize_runtime>:
    41000088:	00000293          	li	x5,0
    4100008c:	3012a2f3          	csrrs	x5,misa,x5

0000000041000090 <loader__set_mstatus>:
    41000090:	000402b7          	lui	x5,0x40
    41000094:	00a2829b          	addiw	x5,x5,10 # 4000a <pma_region_0_size+0xa>
    41000098:	3002a2f3          	csrrs	x5,mstatus,x5
    4100009c:	4294b237          	lui	x4,0x4294b
    410000a0:	34021073          	csrw	mscratch,x4

00000000410000a4 <loader__setup_menvcfg>:
    410000a4:	00000297          	auipc	x5,0x0
    410000a8:	4a828293          	addi	x5,x5,1192 # 4100054c <trap_handler_m__trap_entry>
    410000ac:	30529073          	csrw	mtvec,x5

00000000410000b0 <loader__enable_paging>:
    410000b0:	fff800b7          	lui	x1,0xfff80
    410000b4:	0850809b          	addiw	x1,x1,133 # fffffffffff80085 <mem3+0x35e4fc4085>
    410000b8:	01f09093          	slli	x1,x1,0x1f
    410000bc:	02108093          	addi	x1,x1,33
    410000c0:	00d09093          	slli	x1,x1,0xd
    410000c4:	2ae08093          	addi	x1,x1,686
    410000c8:	18009073          	csrw	satp,x1

00000000410000cc <loader__done>:
    410000cc:	1c10006f          	j	41000a8c <scheduler__init>

00000000410000d0 <loader__panic>:
    410000d0:	1950006f          	j	41000a64 <eot__failed>

00000000410000d4 <syscalls__syscall_check_schedule_next_test>:
    410000d4:	00f0029b          	addiw	x5,x0,15
    410000d8:	01c29293          	slli	x5,x5,0x1c
    410000dc:	00128293          	addi	x5,x5,1
    410000e0:	01f29a63          	bne	x5,x31,410000f4 <syscalls__syscall_check_fail_test>
    410000e4:	00000317          	auipc	x6,0x0
    410000e8:	46830313          	addi	x6,x6,1128 # 4100054c <trap_handler_m__trap_entry>
    410000ec:	30531073          	csrw	mtvec,x6
    410000f0:	6a00006f          	j	41000790 <enter_scheduler>

00000000410000f4 <syscalls__syscall_check_fail_test>:
    410000f4:	00f0029b          	addiw	x5,x0,15
    410000f8:	01c29293          	slli	x5,x5,0x1c
    410000fc:	00228293          	addi	x5,x5,2
    41000100:	01f29a63          	bne	x5,x31,41000114 <syscalls__syscall_check_end_test_without_failure>
    41000104:	00000317          	auipc	x6,0x0
    41000108:	44830313          	addi	x6,x6,1096 # 4100054c <trap_handler_m__trap_entry>
    4100010c:	30531073          	csrw	mtvec,x6
    41000110:	6b00006f          	j	410007c0 <test_failed>

0000000041000114 <syscalls__syscall_check_end_test_without_failure>:
    41000114:	00f0029b          	addiw	x5,x0,15
    41000118:	01c29293          	slli	x5,x5,0x1c
    4100011c:	00328293          	addi	x5,x5,3
    41000120:	01f29a63          	bne	x5,x31,41000134 <syscalls__syscall_check_switch_machine_mode>
    41000124:	00000317          	auipc	x6,0x0
    41000128:	42830313          	addi	x6,x6,1064 # 4100054c <trap_handler_m__trap_entry>
    4100012c:	30531073          	csrw	mtvec,x6
    41000130:	69c0006f          	j	410007cc <os_end_test>

0000000041000134 <syscalls__syscall_check_switch_machine_mode>:
    41000134:	000f02b7          	lui	x5,0xf0
    41000138:	0012829b          	addiw	x5,x5,1 # f0001 <mem0+0x5c001>
    4100013c:	00c29293          	slli	x5,x5,0xc
    41000140:	00128293          	addi	x5,x5,1
    41000144:	0a5f8463          	beq	x31,x5,410001ec <syscalls__os_fn_f0001001>

0000000041000148 <syscalls__syscall_check_switch_super_mode>:
    41000148:	000f02b7          	lui	x5,0xf0
    4100014c:	0012829b          	addiw	x5,x5,1 # f0001 <mem0+0x5c001>
    41000150:	00c29293          	slli	x5,x5,0xc
    41000154:	00228293          	addi	x5,x5,2
    41000158:	0c5f8063          	beq	x31,x5,41000218 <syscalls__os_fn_f0001002>

000000004100015c <syscalls__syscall_check_switch_user_mode>:
    4100015c:	000f02b7          	lui	x5,0xf0
    41000160:	0012829b          	addiw	x5,x5,1 # f0001 <mem0+0x5c001>
    41000164:	00c29293          	slli	x5,x5,0xc
    41000168:	00328293          	addi	x5,x5,3
    4100016c:	0c5f8e63          	beq	x31,x5,41000248 <syscalls__os_fn_f0001003>

0000000041000170 <syscalls__syscall_check_switch_test_mode>:
    41000170:	000f02b7          	lui	x5,0xf0
    41000174:	0012829b          	addiw	x5,x5,1 # f0001 <mem0+0x5c001>
    41000178:	00c29293          	slli	x5,x5,0xc
    4100017c:	00428293          	addi	x5,x5,4
    41000180:	0c5f8863          	beq	x31,x5,41000250 <syscalls__os_fn_f0001004>

0000000041000184 <syscalls__syscall_machine_csr_rw>:
    41000184:	000f02b7          	lui	x5,0xf0
    41000188:	0012829b          	addiw	x5,x5,1 # f0001 <mem0+0x5c001>
    4100018c:	00c29293          	slli	x5,x5,0xc
    41000190:	00528293          	addi	x5,x5,5
    41000194:	0e5f8263          	beq	x31,x5,41000278 <syscalls__os_fn_f0001005>

0000000041000198 <syscalls__syscall_supervisor_csr_rw>:
    41000198:	000f02b7          	lui	x5,0xf0
    4100019c:	0012829b          	addiw	x5,x5,1 # f0001 <mem0+0x5c001>
    410001a0:	00c29293          	slli	x5,x5,0xc
    410001a4:	00628293          	addi	x5,x5,6
    410001a8:	0e5f8e63          	beq	x31,x5,410002a4 <syscalls__os_fn_f0001006>

00000000410001ac <syscalls__syscall_machine_pte_read>:
    410001ac:	000f02b7          	lui	x5,0xf0
    410001b0:	0012829b          	addiw	x5,x5,1 # f0001 <mem0+0x5c001>
    410001b4:	00c29293          	slli	x5,x5,0xc
    410001b8:	00728293          	addi	x5,x5,7
    410001bc:	105f8c63          	beq	x31,x5,410002d4 <syscalls__os_fn_f0001007>

00000000410001c0 <syscalls__syscall_machine_pte_write>:
    410001c0:	000f02b7          	lui	x5,0xf0
    410001c4:	0012829b          	addiw	x5,x5,1 # f0001 <mem0+0x5c001>
    410001c8:	00c29293          	slli	x5,x5,0xc
    410001cc:	00828293          	addi	x5,x5,8
    410001d0:	1e5f8863          	beq	x31,x5,410003c0 <syscalls__os_fn_f0001008>

00000000410001d4 <syscalls__syscall_check_get_hart_context>:
    410001d4:	000782b7          	lui	x5,0x78
    410001d8:	0012829b          	addiw	x5,x5,1 # 78001 <SID_ZICBO_001_stack+0x13001>
    410001dc:	00d29293          	slli	x5,x5,0xd
    410001e0:	00128293          	addi	x5,x5,1
    410001e4:	2c5f8463          	beq	x31,x5,410004ac <syscalls__os_get_hart_context>
    410001e8:	4c00006f          	j	410006a8 <trap_handler_m__check_exception_label>

00000000410001ec <syscalls__os_fn_f0001001>:
    410001ec:	000022b7          	lui	x5,0x2
    410001f0:	8002829b          	addiw	x5,x5,-2048 # 1800 <pma_region_1_size+0x800>
    410001f4:	3002b073          	csrc	mstatus,x5
    410001f8:	000022b7          	lui	x5,0x2
    410001fc:	8002829b          	addiw	x5,x5,-2048 # 1800 <pma_region_1_size+0x800>
    41000200:	3002a073          	csrs	mstatus,x5
    41000204:	0010029b          	addiw	x5,x0,1
    41000208:	02729293          	slli	x5,x5,0x27
    4100020c:	3002b073          	csrc	mstatus,x5
    41000210:	411952b7          	lui	x5,0x41195
    41000214:	2a80006f          	j	410004bc <syscalls__ret_from_os_fn>

0000000041000218 <syscalls__os_fn_f0001002>:
    41000218:	000022b7          	lui	x5,0x2
    4100021c:	8002829b          	addiw	x5,x5,-2048 # 1800 <pma_region_1_size+0x800>
    41000220:	3002b073          	csrc	mstatus,x5
    41000224:	000012b7          	lui	x5,0x1
    41000228:	8002829b          	addiw	x5,x5,-2048 # 800 <XLEN+0x7c0>
    4100022c:	3002a073          	csrs	mstatus,x5
    41000230:	0010029b          	addiw	x5,x0,1
    41000234:	02729293          	slli	x5,x5,0x27
    41000238:	3002b073          	csrc	mstatus,x5
    4100023c:	12000073          	sfence.vma
    41000240:	410952b7          	lui	x5,0x41095
    41000244:	2780006f          	j	410004bc <syscalls__ret_from_os_fn>

0000000041000248 <syscalls__os_fn_f0001003>:
    41000248:	411152b7          	lui	x5,0x41115
    4100024c:	2700006f          	j	410004bc <syscalls__ret_from_os_fn>

0000000041000250 <syscalls__os_fn_f0001004>:
    41000250:	000022b7          	lui	x5,0x2
    41000254:	8002829b          	addiw	x5,x5,-2048 # 1800 <pma_region_1_size+0x800>
    41000258:	3002b073          	csrc	mstatus,x5
    4100025c:	00000293          	li	x5,0
    41000260:	3002a073          	csrs	mstatus,x5
    41000264:	0010029b          	addiw	x5,x0,1
    41000268:	02729293          	slli	x5,x5,0x27
    4100026c:	3002b073          	csrc	mstatus,x5
    41000270:	17823283          	ld	x5,376(x4) # 4294b178 <__section_hart_context+0x178>
    41000274:	2480006f          	j	410004bc <syscalls__ret_from_os_fn>

0000000041000278 <syscalls__os_fn_f0001005>:
    41000278:	000022b7          	lui	x5,0x2
    4100027c:	8002829b          	addiw	x5,x5,-2048 # 1800 <pma_region_1_size+0x800>
    41000280:	3002b073          	csrc	mstatus,x5
    41000284:	000022b7          	lui	x5,0x2
    41000288:	8002829b          	addiw	x5,x5,-2048 # 1800 <pma_region_1_size+0x800>
    4100028c:	3002a073          	csrs	mstatus,x5
    41000290:	0010029b          	addiw	x5,x0,1
    41000294:	02729293          	slli	x5,x5,0x27
    41000298:	3002b073          	csrc	mstatus,x5
    4100029c:	412152b7          	lui	x5,0x41215
    410002a0:	21c0006f          	j	410004bc <syscalls__ret_from_os_fn>

00000000410002a4 <syscalls__os_fn_f0001006>:
    410002a4:	000022b7          	lui	x5,0x2
    410002a8:	8002829b          	addiw	x5,x5,-2048 # 1800 <pma_region_1_size+0x800>
    410002ac:	3002b073          	csrc	mstatus,x5
    410002b0:	000012b7          	lui	x5,0x1
    410002b4:	8002829b          	addiw	x5,x5,-2048 # 800 <XLEN+0x7c0>
    410002b8:	3002a073          	csrs	mstatus,x5
    410002bc:	0010029b          	addiw	x5,x0,1
    410002c0:	02729293          	slli	x5,x5,0x27
    410002c4:	3002b073          	csrc	mstatus,x5
    410002c8:	12000073          	sfence.vma
    410002cc:	412162b7          	lui	x5,0x41216
    410002d0:	1ec0006f          	j	410004bc <syscalls__ret_from_os_fn>

00000000410002d4 <syscalls__os_fn_f0001007>:
    410002d4:	44b34fb7          	lui	x31,0x44b34
    410002d8:	0c8f8f9b          	addiw	x31,x31,200 # 44b340c8 <pte_access_flags_pa>
    410002dc:	000fbf83          	ld	x31,0(x31)
    410002e0:	44b342b7          	lui	x5,0x44b34
    410002e4:	0d02829b          	addiw	x5,x5,208 # 44b340d0 <pte_access_flags_pa+0x8>
    410002e8:	0002b283          	ld	x5,0(x5)
    410002ec:	44b34e37          	lui	x28,0x44b34
    410002f0:	0d8e0e1b          	addiw	x28,x28,216 # 44b340d8 <pte_access_flags_pa+0x10>
    410002f4:	000e3e03          	ld	x28,0(x28)

00000000410002f8 <syscalls__pte_walk_check_glevel_without_gstage_read>:
    410002f8:	fff00f93          	li	x31,-1
    410002fc:	0dfe1063          	bne	x28,x31,410003bc <syscalls__pte_walk_fail_read>
    41000300:	18002373          	csrr	x6,satp
    41000304:	03c35e93          	srli	x29,x6,0x3c
    41000308:	01431313          	slli	x6,x6,0x14
    4100030c:	01435313          	srli	x6,x6,0x14
    41000310:	00c31313          	slli	x6,x6,0xc
    41000314:	ff8e8e93          	addi	x29,x29,-8
    41000318:	003e9f13          	slli	x30,x29,0x3
    4100031c:	01df0eb3          	add	x29,x30,x29
    41000320:	01ee8e93          	addi	x29,x29,30
    41000324:	00000f13          	li	x30,0

0000000041000328 <syscalls__pte_walk_loop_read>:
    41000328:	44b34fb7          	lui	x31,0x44b34
    4100032c:	0c8f8f9b          	addiw	x31,x31,200 # 44b340c8 <pte_access_flags_pa>
    41000330:	000fbf83          	ld	x31,0(x31)
    41000334:	01dfdfb3          	srl	x31,x31,x29
    41000338:	1fffff93          	andi	x31,x31,511
    4100033c:	003f9f93          	slli	x31,x31,0x3
    41000340:	01f30333          	add	x6,x6,x31
    41000344:	005f0e63          	beq	x30,x5,41000360 <syscalls__pte_walk_done_read>
    41000348:	00033f83          	ld	x31,0(x6)
    4100034c:	00afdf93          	srli	x31,x31,0xa
    41000350:	00cf9313          	slli	x6,x31,0xc
    41000354:	001f0f13          	addi	x30,x30,1
    41000358:	ff7e8e93          	addi	x29,x29,-9
    4100035c:	fcdff06f          	j	41000328 <syscalls__pte_walk_loop_read>

0000000041000360 <syscalls__pte_walk_done_read>:
    41000360:	fff00f93          	li	x31,-1
    41000364:	05fe0263          	beq	x28,x31,410003a8 <syscalls__pte_walk_final_read>

0000000041000368 <syscalls__pte_walk_gstage_read>:
    41000368:	44b34fb7          	lui	x31,0x44b34
    4100036c:	0c8f8f9b          	addiw	x31,x31,200 # 44b340c8 <pte_access_flags_pa>
    41000370:	006fb023          	sd	x6,0(x31)
    41000374:	000e0293          	mv	x5,x28
    41000378:	fff00e13          	li	x28,-1
    4100037c:	68002373          	csrr	x6,hgatp
    41000380:	03c35e93          	srli	x29,x6,0x3c
    41000384:	01431313          	slli	x6,x6,0x14
    41000388:	01435313          	srli	x6,x6,0x14
    4100038c:	00c31313          	slli	x6,x6,0xc
    41000390:	ff8e8e93          	addi	x29,x29,-8
    41000394:	003e9f13          	slli	x30,x29,0x3
    41000398:	01df0eb3          	add	x29,x30,x29
    4100039c:	01ee8e93          	addi	x29,x29,30
    410003a0:	00000f13          	li	x30,0
    410003a4:	f85ff06f          	j	41000328 <syscalls__pte_walk_loop_read>

00000000410003a8 <syscalls__pte_walk_final_read>:
    410003a8:	00033383          	ld	x7,0(x6)
    410003ac:	341022f3          	csrr	x5,mepc
    410003b0:	00428293          	addi	x5,x5,4
    410003b4:	16523c23          	sd	x5,376(x4) # 178 <XLEN+0x138>
    410003b8:	e99ff06f          	j	41000250 <syscalls__os_fn_f0001004>

00000000410003bc <syscalls__pte_walk_fail_read>:
    410003bc:	4040006f          	j	410007c0 <test_failed>

00000000410003c0 <syscalls__os_fn_f0001008>:
    410003c0:	44b34fb7          	lui	x31,0x44b34
    410003c4:	0c8f8f9b          	addiw	x31,x31,200 # 44b340c8 <pte_access_flags_pa>
    410003c8:	000fbf83          	ld	x31,0(x31)
    410003cc:	44b342b7          	lui	x5,0x44b34
    410003d0:	0d02829b          	addiw	x5,x5,208 # 44b340d0 <pte_access_flags_pa+0x8>
    410003d4:	0002b283          	ld	x5,0(x5)
    410003d8:	44b34e37          	lui	x28,0x44b34
    410003dc:	0d8e0e1b          	addiw	x28,x28,216 # 44b340d8 <pte_access_flags_pa+0x10>
    410003e0:	000e3e03          	ld	x28,0(x28)

00000000410003e4 <syscalls__pte_walk_check_glevel_without_gstage_write>:
    410003e4:	fff00f93          	li	x31,-1
    410003e8:	0dfe1063          	bne	x28,x31,410004a8 <syscalls__pte_walk_fail_write>
    410003ec:	18002373          	csrr	x6,satp
    410003f0:	03c35e93          	srli	x29,x6,0x3c
    410003f4:	01431313          	slli	x6,x6,0x14
    410003f8:	01435313          	srli	x6,x6,0x14
    410003fc:	00c31313          	slli	x6,x6,0xc
    41000400:	ff8e8e93          	addi	x29,x29,-8
    41000404:	003e9f13          	slli	x30,x29,0x3
    41000408:	01df0eb3          	add	x29,x30,x29
    4100040c:	01ee8e93          	addi	x29,x29,30
    41000410:	00000f13          	li	x30,0

0000000041000414 <syscalls__pte_walk_loop_write>:
    41000414:	44b34fb7          	lui	x31,0x44b34
    41000418:	0c8f8f9b          	addiw	x31,x31,200 # 44b340c8 <pte_access_flags_pa>
    4100041c:	000fbf83          	ld	x31,0(x31)
    41000420:	01dfdfb3          	srl	x31,x31,x29
    41000424:	1fffff93          	andi	x31,x31,511
    41000428:	003f9f93          	slli	x31,x31,0x3
    4100042c:	01f30333          	add	x6,x6,x31
    41000430:	005f0e63          	beq	x30,x5,4100044c <syscalls__pte_walk_done_write>
    41000434:	00033f83          	ld	x31,0(x6)
    41000438:	00afdf93          	srli	x31,x31,0xa
    4100043c:	00cf9313          	slli	x6,x31,0xc
    41000440:	001f0f13          	addi	x30,x30,1
    41000444:	ff7e8e93          	addi	x29,x29,-9
    41000448:	fcdff06f          	j	41000414 <syscalls__pte_walk_loop_write>

000000004100044c <syscalls__pte_walk_done_write>:
    4100044c:	fff00f93          	li	x31,-1
    41000450:	05fe0263          	beq	x28,x31,41000494 <syscalls__pte_walk_final_write>

0000000041000454 <syscalls__pte_walk_gstage_write>:
    41000454:	44b34fb7          	lui	x31,0x44b34
    41000458:	0c8f8f9b          	addiw	x31,x31,200 # 44b340c8 <pte_access_flags_pa>
    4100045c:	006fb023          	sd	x6,0(x31)
    41000460:	000e0293          	mv	x5,x28
    41000464:	fff00e13          	li	x28,-1
    41000468:	68002373          	csrr	x6,hgatp
    4100046c:	03c35e93          	srli	x29,x6,0x3c
    41000470:	01431313          	slli	x6,x6,0x14
    41000474:	01435313          	srli	x6,x6,0x14
    41000478:	00c31313          	slli	x6,x6,0xc
    4100047c:	ff8e8e93          	addi	x29,x29,-8
    41000480:	003e9f13          	slli	x30,x29,0x3
    41000484:	01df0eb3          	add	x29,x30,x29
    41000488:	01ee8e93          	addi	x29,x29,30
    4100048c:	00000f13          	li	x30,0
    41000490:	f85ff06f          	j	41000414 <syscalls__pte_walk_loop_write>

0000000041000494 <syscalls__pte_walk_final_write>:
    41000494:	00733023          	sd	x7,0(x6)
    41000498:	341022f3          	csrr	x5,mepc
    4100049c:	00428293          	addi	x5,x5,4
    410004a0:	16523c23          	sd	x5,376(x4) # 178 <XLEN+0x138>
    410004a4:	dadff06f          	j	41000250 <syscalls__os_fn_f0001004>

00000000410004a8 <syscalls__pte_walk_fail_write>:
    410004a8:	3180006f          	j	410007c0 <test_failed>

00000000410004ac <syscalls__os_get_hart_context>:
    410004ac:	14002573          	csrr	x10,sscratch
    410004b0:	341022f3          	csrr	x5,mepc
    410004b4:	00428293          	addi	x5,x5,4
    410004b8:	0040006f          	j	410004bc <syscalls__ret_from_os_fn>

00000000410004bc <syscalls__ret_from_os_fn>:
    410004bc:	34102373          	csrr	x6,mepc
    410004c0:	00430313          	addi	x6,x6,4
    410004c4:	16623c23          	sd	x6,376(x4) # 178 <XLEN+0x138>
    410004c8:	34129073          	csrw	mepc,x5
    410004cc:	fff00f93          	li	x31,-1
    410004d0:	2a40006f          	j	41000774 <trap_handler_m__skip_xepc_write>

00000000410004d4 <trap_handler_m__invalid_interrupt>:
    410004d4:	2ec0006f          	j	410007c0 <test_failed>

00000000410004d8 <trap_handler_m__clear_all_interrupts>:
    410004d8:	34401073          	csrw	mip,x0
    410004dc:	30200073          	mret

00000000410004e0 <trap_handler_m___CLEAR_SSI>:
    410004e0:	00200293          	li	x5,2
    410004e4:	3442b073          	csrc	mip,x5
    410004e8:	30200073          	mret

00000000410004ec <trap_handler_m___CLEAR_MSI>:
    410004ec:	00800293          	li	x5,8
    410004f0:	3442b073          	csrc	mip,x5
    410004f4:	30200073          	mret

00000000410004f8 <trap_handler_m___CLEAR_STI>:
    410004f8:	02000293          	li	x5,32
    410004fc:	3442b073          	csrc	mip,x5
    41000500:	30200073          	mret

0000000041000504 <trap_handler_m___CLEAR_MTI>:
    41000504:	08000293          	li	x5,128
    41000508:	3442b073          	csrc	mip,x5
    4100050c:	30200073          	mret

0000000041000510 <trap_handler_m___CLEAR_SEI>:
    41000510:	20000293          	li	x5,512
    41000514:	3442b073          	csrc	mip,x5
    41000518:	30200073          	mret

000000004100051c <trap_handler_m___CLEAR_MEI>:
    4100051c:	000012b7          	lui	x5,0x1
    41000520:	8002829b          	addiw	x5,x5,-2048 # 800 <XLEN+0x7c0>
    41000524:	3442b073          	csrc	mip,x5
    41000528:	30200073          	mret

000000004100052c <trap_handler_m___CLEAR_COI>:
    4100052c:	000022b7          	lui	x5,0x2
    41000530:	3442b073          	csrc	mip,x5
    41000534:	30200073          	mret

0000000041000538 <trap_handler_m__clear_highest_priority_interrupt>:
    41000538:	344022f3          	csrr	x5,mip
    4100053c:	40500333          	neg	x6,x5
    41000540:	0062f2b3          	and	x5,x5,x6
    41000544:	3442b073          	csrc	mip,x5
    41000548:	30200073          	mret

000000004100054c <trap_handler_m__trap_entry>:
    4100054c:	0fc0006f          	j	41000648 <trap_handler_m__trap_handler>

0000000041000550 <trap_handler_m__interrupt_vector_table>:
    41000550:	f91ff06f          	j	410004e0 <trap_handler_m___CLEAR_SSI>
    41000554:	f81ff06f          	j	410004d4 <trap_handler_m__invalid_interrupt>
    41000558:	f95ff06f          	j	410004ec <trap_handler_m___CLEAR_MSI>
    4100055c:	f79ff06f          	j	410004d4 <trap_handler_m__invalid_interrupt>
    41000560:	f99ff06f          	j	410004f8 <trap_handler_m___CLEAR_STI>
    41000564:	f71ff06f          	j	410004d4 <trap_handler_m__invalid_interrupt>
    41000568:	f9dff06f          	j	41000504 <trap_handler_m___CLEAR_MTI>
    4100056c:	f69ff06f          	j	410004d4 <trap_handler_m__invalid_interrupt>
    41000570:	fa1ff06f          	j	41000510 <trap_handler_m___CLEAR_SEI>
    41000574:	f61ff06f          	j	410004d4 <trap_handler_m__invalid_interrupt>
    41000578:	fa5ff06f          	j	4100051c <trap_handler_m___CLEAR_MEI>
    4100057c:	f59ff06f          	j	410004d4 <trap_handler_m__invalid_interrupt>
    41000580:	fadff06f          	j	4100052c <trap_handler_m___CLEAR_COI>
    41000584:	f51ff06f          	j	410004d4 <trap_handler_m__invalid_interrupt>
    41000588:	f4dff06f          	j	410004d4 <trap_handler_m__invalid_interrupt>
    4100058c:	fadff06f          	j	41000538 <trap_handler_m__clear_highest_priority_interrupt>
    41000590:	fa9ff06f          	j	41000538 <trap_handler_m__clear_highest_priority_interrupt>
    41000594:	fa5ff06f          	j	41000538 <trap_handler_m__clear_highest_priority_interrupt>
    41000598:	fa1ff06f          	j	41000538 <trap_handler_m__clear_highest_priority_interrupt>
    4100059c:	f9dff06f          	j	41000538 <trap_handler_m__clear_highest_priority_interrupt>
    410005a0:	f99ff06f          	j	41000538 <trap_handler_m__clear_highest_priority_interrupt>
    410005a4:	f95ff06f          	j	41000538 <trap_handler_m__clear_highest_priority_interrupt>
    410005a8:	f91ff06f          	j	41000538 <trap_handler_m__clear_highest_priority_interrupt>
    410005ac:	f8dff06f          	j	41000538 <trap_handler_m__clear_highest_priority_interrupt>
    410005b0:	f89ff06f          	j	41000538 <trap_handler_m__clear_highest_priority_interrupt>
    410005b4:	f85ff06f          	j	41000538 <trap_handler_m__clear_highest_priority_interrupt>
    410005b8:	f81ff06f          	j	41000538 <trap_handler_m__clear_highest_priority_interrupt>
    410005bc:	f7dff06f          	j	41000538 <trap_handler_m__clear_highest_priority_interrupt>
    410005c0:	f79ff06f          	j	41000538 <trap_handler_m__clear_highest_priority_interrupt>
    410005c4:	f75ff06f          	j	41000538 <trap_handler_m__clear_highest_priority_interrupt>
    410005c8:	f71ff06f          	j	41000538 <trap_handler_m__clear_highest_priority_interrupt>
    410005cc:	f6dff06f          	j	41000538 <trap_handler_m__clear_highest_priority_interrupt>
    410005d0:	f69ff06f          	j	41000538 <trap_handler_m__clear_highest_priority_interrupt>
    410005d4:	f65ff06f          	j	41000538 <trap_handler_m__clear_highest_priority_interrupt>
    410005d8:	f61ff06f          	j	41000538 <trap_handler_m__clear_highest_priority_interrupt>
    410005dc:	f5dff06f          	j	41000538 <trap_handler_m__clear_highest_priority_interrupt>
    410005e0:	f59ff06f          	j	41000538 <trap_handler_m__clear_highest_priority_interrupt>
    410005e4:	f55ff06f          	j	41000538 <trap_handler_m__clear_highest_priority_interrupt>
    410005e8:	f51ff06f          	j	41000538 <trap_handler_m__clear_highest_priority_interrupt>
    410005ec:	f4dff06f          	j	41000538 <trap_handler_m__clear_highest_priority_interrupt>
    410005f0:	f49ff06f          	j	41000538 <trap_handler_m__clear_highest_priority_interrupt>
    410005f4:	f45ff06f          	j	41000538 <trap_handler_m__clear_highest_priority_interrupt>
    410005f8:	f41ff06f          	j	41000538 <trap_handler_m__clear_highest_priority_interrupt>
    410005fc:	f3dff06f          	j	41000538 <trap_handler_m__clear_highest_priority_interrupt>
    41000600:	f39ff06f          	j	41000538 <trap_handler_m__clear_highest_priority_interrupt>
    41000604:	f35ff06f          	j	41000538 <trap_handler_m__clear_highest_priority_interrupt>
    41000608:	f31ff06f          	j	41000538 <trap_handler_m__clear_highest_priority_interrupt>
    4100060c:	f2dff06f          	j	41000538 <trap_handler_m__clear_highest_priority_interrupt>
    41000610:	f29ff06f          	j	41000538 <trap_handler_m__clear_highest_priority_interrupt>
    41000614:	f25ff06f          	j	41000538 <trap_handler_m__clear_highest_priority_interrupt>
    41000618:	f21ff06f          	j	41000538 <trap_handler_m__clear_highest_priority_interrupt>
    4100061c:	f1dff06f          	j	41000538 <trap_handler_m__clear_highest_priority_interrupt>
    41000620:	f19ff06f          	j	41000538 <trap_handler_m__clear_highest_priority_interrupt>
    41000624:	f15ff06f          	j	41000538 <trap_handler_m__clear_highest_priority_interrupt>
    41000628:	f11ff06f          	j	41000538 <trap_handler_m__clear_highest_priority_interrupt>
    4100062c:	f0dff06f          	j	41000538 <trap_handler_m__clear_highest_priority_interrupt>
    41000630:	f09ff06f          	j	41000538 <trap_handler_m__clear_highest_priority_interrupt>
    41000634:	f05ff06f          	j	41000538 <trap_handler_m__clear_highest_priority_interrupt>
    41000638:	f01ff06f          	j	41000538 <trap_handler_m__clear_highest_priority_interrupt>
    4100063c:	efdff06f          	j	41000538 <trap_handler_m__clear_highest_priority_interrupt>
    41000640:	ef9ff06f          	j	41000538 <trap_handler_m__clear_highest_priority_interrupt>
    41000644:	ef5ff06f          	j	41000538 <trap_handler_m__clear_highest_priority_interrupt>

0000000041000648 <trap_handler_m__trap_handler>:
    41000648:	342022f3          	csrr	x5,mcause
    4100064c:	fff0031b          	addiw	x6,x0,-1
    41000650:	03f31313          	slli	x6,x6,0x3f
    41000654:	00537333          	and	x6,x6,x5
    41000658:	02030263          	beqz	x6,4100067c <trap_handler_m__exception_path>

000000004100065c <trap_handler_m__interrupt_handler>:
    4100065c:	fff0031b          	addiw	x6,x0,-1
    41000660:	03f31313          	slli	x6,x6,0x3f
    41000664:	0062c2b3          	xor	x5,x5,x6
    41000668:	00000317          	auipc	x6,0x0
    4100066c:	ee430313          	addi	x6,x6,-284 # 4100054c <trap_handler_m__trap_entry>
    41000670:	00229293          	slli	x5,x5,0x2
    41000674:	005302b3          	add	x5,x6,x5
    41000678:	00028067          	jr	x5 # 2000 <hart_context>

000000004100067c <trap_handler_m__exception_path>:
    4100067c:	34021273          	csrrw	x4,mscratch,x4
    41000680:	00000297          	auipc	x5,0x0
    41000684:	10828293          	addi	x5,x5,264 # 41000788 <trap_handler_m__trap_panic>
    41000688:	30529073          	csrw	mtvec,x5
    4100068c:	0040006f          	j	41000690 <trap_handler_m__excp_entry>

0000000041000690 <trap_handler_m__excp_entry>:
    41000690:	34202373          	csrr	x6,mcause
    41000694:	00800293          	li	x5,8
    41000698:	00534863          	blt	x6,x5,410006a8 <trap_handler_m__check_exception_label>
    4100069c:	00b00293          	li	x5,11
    410006a0:	0062c463          	blt	x5,x6,410006a8 <trap_handler_m__check_exception_label>
    410006a4:	a31ff06f          	j	410000d4 <syscalls__syscall_check_schedule_next_test>

00000000410006a8 <trap_handler_m__check_exception_label>:
    410006a8:	04623c23          	sd	x6,88(x4) # 58 <XLEN+0x18>
    410006ac:	341022f3          	csrr	x5,mepc
    410006b0:	02523423          	sd	x5,40(x4) # 28 <SECURE_ACCESS_PROBABILITY+0xa>
    410006b4:	01820283          	lb	x5,24(x4) # 18 <STORE_GUEST_PAGE_FAULT+0x1>
    410006b8:	00029863          	bnez	x5,410006c8 <trap_handler_m__check_excp>
    410006bc:	00128293          	addi	x5,x5,1
    410006c0:	00520c23          	sb	x5,24(x4) # 18 <STORE_GUEST_PAGE_FAULT+0x1>
    410006c4:	0980006f          	j	4100075c <trap_handler_m__ecall_from_machine>

00000000410006c8 <trap_handler_m__check_excp>:
    410006c8:	06823283          	ld	x5,104(x4) # 68 <XLEN+0x28>
    410006cc:	06023423          	sd	x0,104(x4) # 68 <XLEN+0x28>
    410006d0:	00028663          	beqz	x5,410006dc <trap_handler_m__skip_mode_check>
    410006d4:	00100393          	li	x7,1
    410006d8:	0e729463          	bne	x5,x7,410007c0 <test_failed>

00000000410006dc <trap_handler_m__skip_mode_check>:
    410006dc:	05023283          	ld	x5,80(x4) # 50 <XLEN+0x10>
    410006e0:	04023823          	sd	x0,80(x4) # 50 <XLEN+0x10>
    410006e4:	0c531e63          	bne	x6,x5,410007c0 <test_failed>
    410006e8:	03823283          	ld	x5,56(x4) # 38 <SECURE_ACCESS_PROBABILITY+0x1a>
    410006ec:	02023c23          	sd	x0,56(x4) # 38 <SECURE_ACCESS_PROBABILITY+0x1a>
    410006f0:	06029463          	bnez	x5,41000758 <trap_handler_m__skip_gva_check>
    410006f4:	02023303          	ld	x6,32(x4) # 20 <SECURE_ACCESS_PROBABILITY+0x2>
    410006f8:	02023023          	sd	x0,32(x4) # 20 <SECURE_ACCESS_PROBABILITY+0x2>
    410006fc:	02823283          	ld	x5,40(x4) # 28 <SECURE_ACCESS_PROBABILITY+0xa>
    41000700:	02023423          	sd	x0,40(x4) # 28 <SECURE_ACCESS_PROBABILITY+0xa>
    41000704:	0a531e63          	bne	x6,x5,410007c0 <test_failed>
    41000708:	04023283          	ld	x5,64(x4) # 40 <XLEN>
    4100070c:	04023023          	sd	x0,64(x4) # 40 <XLEN>
    41000710:	00028663          	beqz	x5,4100071c <trap_handler_m__skip_nonzero_tval_check>

0000000041000714 <trap_handler_m__nonzero_tval_check>:
    41000714:	34302373          	csrr	x6,mtval
    41000718:	0a531463          	bne	x6,x5,410007c0 <test_failed>

000000004100071c <trap_handler_m__skip_nonzero_tval_check>:
    4100071c:	04823283          	ld	x5,72(x4) # 48 <XLEN+0x8>
    41000720:	04023423          	sd	x0,72(x4) # 48 <XLEN+0x8>
    41000724:	00028663          	beqz	x5,41000730 <trap_handler_m__skip_nonzero_htval_check>

0000000041000728 <trap_handler_m__nonzero_htval_check>:
    41000728:	34b02373          	csrr	x6,0x34b
    4100072c:	08531a63          	bne	x6,x5,410007c0 <test_failed>

0000000041000730 <trap_handler_m__skip_nonzero_htval_check>:
    41000730:	06023283          	ld	x5,96(x4) # 60 <XLEN+0x20>
    41000734:	06023023          	sd	x0,96(x4) # 60 <XLEN+0x20>
    41000738:	02028063          	beqz	x5,41000758 <trap_handler_m__skip_gva_check>

000000004100073c <trap_handler_m__gva_check>:
    4100073c:	30002373          	csrr	x6,mstatus
    41000740:	02635313          	srli	x6,x6,0x26
    41000744:	00137313          	andi	x6,x6,1
    41000748:	06030c63          	beqz	x6,410007c0 <test_failed>
    4100074c:	0010031b          	addiw	x6,x0,1
    41000750:	02631313          	slli	x6,x6,0x26
    41000754:	30033073          	csrc	mstatus,x6

0000000041000758 <trap_handler_m__skip_gva_check>:
    41000758:	0040006f          	j	4100075c <trap_handler_m__ecall_from_machine>

000000004100075c <trap_handler_m__ecall_from_machine>:
    4100075c:	03023283          	ld	x5,48(x4) # 30 <SECURE_ACCESS_PROBABILITY+0x12>
    41000760:	02023823          	sd	x0,48(x4) # 30 <SECURE_ACCESS_PROBABILITY+0x12>
    41000764:	07023303          	ld	x6,112(x4) # 70 <XLEN+0x30>
    41000768:	06023823          	sd	x0,112(x4) # 70 <XLEN+0x30>
    4100076c:	00031463          	bnez	x6,41000774 <trap_handler_m__skip_xepc_write>
    41000770:	34129073          	csrw	mepc,x5

0000000041000774 <trap_handler_m__skip_xepc_write>:
    41000774:	00000317          	auipc	x6,0x0
    41000778:	dd830313          	addi	x6,x6,-552 # 4100054c <trap_handler_m__trap_entry>
    4100077c:	30531073          	csrw	mtvec,x6
    41000780:	34021273          	csrrw	x4,mscratch,x4
    41000784:	30200073          	mret

0000000041000788 <trap_handler_m__trap_panic>:
    41000788:	00000193          	li	x3,0
    4100078c:	2b40006f          	j	41000a40 <eot__end_test>

0000000041000790 <enter_scheduler>:
    41000790:	0002f337          	lui	x6,0x2f
    41000794:	ab73031b          	addiw	x6,x6,-1353 # 2eab7 <mem4+0x6ab7>
    41000798:	00e31313          	slli	x6,x6,0xe
    4100079c:	0de30313          	addi	x6,x6,222
    410007a0:	02628063          	beq	x5,x6,410007c0 <test_failed>
    410007a4:	00000513          	li	x10,0
    410007a8:	030000ef          	jal	410007d8 <rvcp_print_test_result>
    410007ac:	3180006f          	j	41000ac4 <scheduler__dispatch>

00000000410007b0 <test_passed>:
    410007b0:	34021273          	csrrw	x4,mscratch,x4
    410007b4:	00000513          	li	x10,0
    410007b8:	020000ef          	jal	410007d8 <rvcp_print_test_result>
    410007bc:	3080006f          	j	41000ac4 <scheduler__dispatch>

00000000410007c0 <test_failed>:
    410007c0:	34021273          	csrrw	x4,mscratch,x4
    410007c4:	00300193          	li	x3,3
    410007c8:	2780006f          	j	41000a40 <eot__end_test>

00000000410007cc <os_end_test>:
    410007cc:	34021273          	csrrw	x4,mscratch,x4
    410007d0:	00100193          	li	x3,1
    410007d4:	26c0006f          	j	41000a40 <eot__end_test>

00000000410007d8 <rvcp_print_test_result>:
    410007d8:	00050e13          	mv	x28,x10
    410007dc:	18823283          	ld	x5,392(x4) # 188 <XLEN+0x148>
    410007e0:	0010031b          	addiw	x6,x0,1
    410007e4:	02031313          	slli	x6,x6,0x20
    410007e8:	ffe30313          	addi	x6,x6,-2
    410007ec:	1c628063          	beq	x5,x6,410009ac <rvcp_print_test_result+0x1d4>
    410007f0:	0010031b          	addiw	x6,x0,1
    410007f4:	02031313          	slli	x6,x6,0x20
    410007f8:	fff30313          	addi	x6,x6,-1
    410007fc:	1a628863          	beq	x5,x6,410009ac <rvcp_print_test_result+0x1d4>
    41000800:	1a02c663          	bltz	x5,410009ac <rvcp_print_test_result+0x1d4>
    41000804:	00000317          	auipc	x6,0x0
    41000808:	52030313          	addi	x6,x6,1312 # 41000d24 <dtest_descriptor_table>
    4100080c:	00329393          	slli	x7,x5,0x3
    41000810:	00730333          	add	x6,x6,x7
    41000814:	00033e83          	ld	x29,0(x6)
    41000818:	44b34f37          	lui	x30,0x44b34
    4100081c:	030f0f1b          	addiw	x30,x30,48 # 44b34030 <rvcp_prefix_str_pa>
    41000820:	000f4283          	lbu	x5,0(x30)
    41000824:	02028663          	beqz	x5,41000850 <rvcp_print_test_result+0x78>
    41000828:	1010031b          	addiw	x6,x0,257
    4100082c:	03031313          	slli	x6,x6,0x30
    41000830:	005362b3          	or	x5,x6,x5
    41000834:	0003f317          	auipc	x6,0x3f
    41000838:	7cc30313          	addi	x6,x6,1996 # 41040000 <tohost>
    4100083c:	00033383          	ld	x7,0(x6)
    41000840:	fe039ee3          	bnez	x7,4100083c <rvcp_print_test_result+0x64>
    41000844:	00533023          	sd	x5,0(x6)
    41000848:	001f0f13          	addi	x30,x30,1
    4100084c:	fd5ff06f          	j	41000820 <rvcp_print_test_result+0x48>
    41000850:	44b34f37          	lui	x30,0x44b34
    41000854:	041f0f1b          	addiw	x30,x30,65 # 44b34041 <rvcp_testname_str_pa>
    41000858:	000f4283          	lbu	x5,0(x30)
    4100085c:	02028663          	beqz	x5,41000888 <rvcp_print_test_result+0xb0>
    41000860:	1010031b          	addiw	x6,x0,257
    41000864:	03031313          	slli	x6,x6,0x30
    41000868:	005362b3          	or	x5,x6,x5
    4100086c:	0003f317          	auipc	x6,0x3f
    41000870:	79430313          	addi	x6,x6,1940 # 41040000 <tohost>
    41000874:	00033383          	ld	x7,0(x6)
    41000878:	fe039ee3          	bnez	x7,41000874 <rvcp_print_test_result+0x9c>
    4100087c:	00533023          	sd	x5,0(x6)
    41000880:	001f0f13          	addi	x30,x30,1
    41000884:	fd5ff06f          	j	41000858 <rvcp_print_test_result+0x80>
    41000888:	44b34f37          	lui	x30,0x44b34
    4100088c:	070f0f1b          	addiw	x30,x30,112 # 44b34070 <rvcp_space_str_pa>
    41000890:	000f4283          	lbu	x5,0(x30)
    41000894:	02028663          	beqz	x5,410008c0 <rvcp_print_test_result+0xe8>
    41000898:	1010031b          	addiw	x6,x0,257
    4100089c:	03031313          	slli	x6,x6,0x30
    410008a0:	005362b3          	or	x5,x6,x5
    410008a4:	0003f317          	auipc	x6,0x3f
    410008a8:	75c30313          	addi	x6,x6,1884 # 41040000 <tohost>
    410008ac:	00033383          	ld	x7,0(x6)
    410008b0:	fe039ee3          	bnez	x7,410008ac <rvcp_print_test_result+0xd4>
    410008b4:	00533023          	sd	x5,0(x6)
    410008b8:	001f0f13          	addi	x30,x30,1
    410008bc:	fd5ff06f          	j	41000890 <rvcp_print_test_result+0xb8>
    410008c0:	000e8f13          	mv	x30,x29
    410008c4:	000f4283          	lbu	x5,0(x30)
    410008c8:	02028663          	beqz	x5,410008f4 <rvcp_print_test_result+0x11c>
    410008cc:	1010031b          	addiw	x6,x0,257
    410008d0:	03031313          	slli	x6,x6,0x30
    410008d4:	005362b3          	or	x5,x6,x5
    410008d8:	0003f317          	auipc	x6,0x3f
    410008dc:	72830313          	addi	x6,x6,1832 # 41040000 <tohost>
    410008e0:	00033383          	ld	x7,0(x6)
    410008e4:	fe039ee3          	bnez	x7,410008e0 <rvcp_print_test_result+0x108>
    410008e8:	00533023          	sd	x5,0(x6)
    410008ec:	001f0f13          	addi	x30,x30,1
    410008f0:	fd5ff06f          	j	410008c4 <rvcp_print_test_result+0xec>
    410008f4:	44b34f37          	lui	x30,0x44b34
    410008f8:	070f0f1b          	addiw	x30,x30,112 # 44b34070 <rvcp_space_str_pa>
    410008fc:	000f4283          	lbu	x5,0(x30)
    41000900:	02028663          	beqz	x5,4100092c <rvcp_print_test_result+0x154>
    41000904:	1010031b          	addiw	x6,x0,257
    41000908:	03031313          	slli	x6,x6,0x30
    4100090c:	005362b3          	or	x5,x6,x5
    41000910:	0003f317          	auipc	x6,0x3f
    41000914:	6f030313          	addi	x6,x6,1776 # 41040000 <tohost>
    41000918:	00033383          	ld	x7,0(x6)
    4100091c:	fe039ee3          	bnez	x7,41000918 <rvcp_print_test_result+0x140>
    41000920:	00533023          	sd	x5,0(x6)
    41000924:	001f0f13          	addi	x30,x30,1
    41000928:	fd5ff06f          	j	410008fc <rvcp_print_test_result+0x124>
    4100092c:	000e1863          	bnez	x28,4100093c <rvcp_print_test_result+0x164>
    41000930:	44b34f37          	lui	x30,0x44b34
    41000934:	062f0f1b          	addiw	x30,x30,98 # 44b34062 <rvcp_passed_str_pa>
    41000938:	00c0006f          	j	41000944 <rvcp_print_test_result+0x16c>
    4100093c:	44b34f37          	lui	x30,0x44b34
    41000940:	069f0f1b          	addiw	x30,x30,105 # 44b34069 <rvcp_failed_str_pa>
    41000944:	000f4283          	lbu	x5,0(x30)
    41000948:	02028663          	beqz	x5,41000974 <rvcp_print_test_result+0x19c>
    4100094c:	1010031b          	addiw	x6,x0,257
    41000950:	03031313          	slli	x6,x6,0x30
    41000954:	005362b3          	or	x5,x6,x5
    41000958:	0003f317          	auipc	x6,0x3f
    4100095c:	6a830313          	addi	x6,x6,1704 # 41040000 <tohost>
    41000960:	00033383          	ld	x7,0(x6)
    41000964:	fe039ee3          	bnez	x7,41000960 <rvcp_print_test_result+0x188>
    41000968:	00533023          	sd	x5,0(x6)
    4100096c:	001f0f13          	addi	x30,x30,1
    41000970:	fd5ff06f          	j	41000944 <rvcp_print_test_result+0x16c>
    41000974:	44b34f37          	lui	x30,0x44b34
    41000978:	072f0f1b          	addiw	x30,x30,114 # 44b34072 <rvcp_newline_str_pa>
    4100097c:	000f4283          	lbu	x5,0(x30)
    41000980:	02028663          	beqz	x5,410009ac <rvcp_print_test_result+0x1d4>
    41000984:	1010031b          	addiw	x6,x0,257
    41000988:	03031313          	slli	x6,x6,0x30
    4100098c:	005362b3          	or	x5,x6,x5
    41000990:	0003f317          	auipc	x6,0x3f
    41000994:	67030313          	addi	x6,x6,1648 # 41040000 <tohost>
    41000998:	00033383          	ld	x7,0(x6)
    4100099c:	fe039ee3          	bnez	x7,41000998 <rvcp_print_test_result+0x1c0>
    410009a0:	00533023          	sd	x5,0(x6)
    410009a4:	001f0f13          	addi	x30,x30,1
    410009a8:	fd5ff06f          	j	4100097c <rvcp_print_test_result+0x1a4>
    410009ac:	00008067          	ret

00000000410009b0 <os_rng_orig>:
    410009b0:	f14023f3          	csrr	x7,mhartid
    410009b4:	00068313          	mv	x6,x13
    410009b8:	026383b3          	mul	x7,x7,x6
    410009bc:	00058313          	mv	x6,x11
    410009c0:	00730333          	add	x6,x6,x7
    410009c4:	00033283          	ld	x5,0(x6)
    410009c8:	01529313          	slli	x6,x5,0x15
    410009cc:	0062c2b3          	xor	x5,x5,x6
    410009d0:	0232d313          	srli	x6,x5,0x23
    410009d4:	0062c2b3          	xor	x5,x5,x6
    410009d8:	00429313          	slli	x6,x5,0x4
    410009dc:	0062c2b3          	xor	x5,x5,x6
    410009e0:	00058313          	mv	x6,x11
    410009e4:	00730333          	add	x6,x6,x7
    410009e8:	00533023          	sd	x5,0(x6)
    410009ec:	00060313          	mv	x6,x12
    410009f0:	0262f2b3          	remu	x5,x5,x6
    410009f4:	00028513          	mv	x10,x5
    410009f8:	00008067          	ret
    410009fc:	02a00513          	li	x10,42
    41000a00:	001965b7          	lui	x11,0x196
    41000a04:	60d5859b          	addiw	x11,x11,1549 # 19660d <mem0+0x10260d>
    41000a08:	3c6ef637          	lui	x12,0x3c6ef
    41000a0c:	35f6061b          	addiw	x12,x12,863 # 3c6ef35f <SID_ZICBO_022_stack+0x554035f>
    41000a10:	02200693          	li	x13,34
    41000a14:	02b50533          	mul	x10,x10,x11
    41000a18:	00c50533          	add	x10,x10,x12
    41000a1c:	02d56533          	rem	x10,x10,x13
    41000a20:	00b00593          	li	x11,11
    41000a24:	02b56533          	rem	x10,x10,x11
    41000a28:	00008067          	ret
    41000a2c:	0000                	.insn	2, 0x0000
	...

0000000041000a30 <tohost_mutex>:
	...

0000000041000a38 <tohost_addr_mem>:
    41000a38:	0000                	.insn	2, 0x0000
    41000a3a:	4104                	.insn	2, 0x4104
    41000a3c:	0000                	.insn	2, 0x0000
	...

0000000041000a40 <eot__end_test>:
    41000a40:	00100293          	li	x5,1
    41000a44:	00328463          	beq	x5,x3,41000a4c <eot__passed>
    41000a48:	01c0006f          	j	41000a64 <eot__failed>

0000000041000a4c <eot__passed>:
    41000a4c:	0ff0000f          	fence
    41000a50:	00000297          	auipc	x5,0x0
    41000a54:	fe82b283          	ld	x5,-24(x5) # 41000a38 <tohost_addr_mem>
    41000a58:	00100313          	li	x6,1
    41000a5c:	0062a023          	sw	x6,0(x5)
    41000a60:	0240006f          	j	41000a84 <eot__halt>

0000000041000a64 <eot__failed>:
    41000a64:	00100513          	li	x10,1
    41000a68:	d71ff0ef          	jal	410007d8 <rvcp_print_test_result>
    41000a6c:	0ff0000f          	fence
    41000a70:	00000297          	auipc	x5,0x0
    41000a74:	fc82b283          	ld	x5,-56(x5) # 41000a38 <tohost_addr_mem>
    41000a78:	00300313          	li	x6,3
    41000a7c:	0062a023          	sw	x6,0(x5)
    41000a80:	0040006f          	j	41000a84 <eot__halt>

0000000041000a84 <eot__halt>:
    41000a84:	10500073          	wfi
    41000a88:	ffdff06f          	j	41000a84 <eot__halt>

0000000041000a8c <scheduler__init>:
    41000a8c:	00000297          	auipc	x5,0x0
    41000a90:	0e828293          	addi	x5,x5,232 # 41000b74 <scheduler__panic>
    41000a94:	305292f3          	csrrw	x5,mtvec,x5
    41000a98:	18523023          	sd	x5,384(x4) # 180 <XLEN+0x140>
    41000a9c:	03400293          	li	x5,52
    41000aa0:	18523823          	sd	x5,400(x4) # 190 <XLEN+0x150>
    41000aa4:	0010029b          	addiw	x5,x0,1
    41000aa8:	02029293          	slli	x5,x5,0x20
    41000aac:	ffe28293          	addi	x5,x5,-2
    41000ab0:	18523423          	sd	x5,392(x4) # 188 <XLEN+0x148>
    41000ab4:	00000317          	auipc	x6,0x0
    41000ab8:	4c030313          	addi	x6,x6,1216 # 41000f74 <scheduler__test_setup_ptr>
    41000abc:	00033303          	ld	x6,0(x6)
    41000ac0:	08c0006f          	j	41000b4c <scheduler__execute_test>

0000000041000ac4 <scheduler__dispatch>:
    41000ac4:	00000297          	auipc	x5,0x0
    41000ac8:	0b028293          	addi	x5,x5,176 # 41000b74 <scheduler__panic>
    41000acc:	305292f3          	csrrw	x5,mtvec,x5
    41000ad0:	18523023          	sd	x5,384(x4) # 180 <XLEN+0x140>

0000000041000ad4 <scheduler__csr_read_randomization>:
    41000ad4:	143022f3          	csrr	x5,stval
    41000ad8:	304022f3          	csrr	x5,mie
    41000adc:	302022f3          	csrr	x5,medeleg
    41000ae0:	b02022f3          	csrr	x5,minstret
    41000ae4:	f13022f3          	csrr	x5,mimpid
    41000ae8:	340022f3          	csrr	x5,mscratch
    41000aec:	f11022f3          	csrr	x5,mvendorid
    41000af0:	10a022f3          	csrr	x5,0x10a
    41000af4:	341022f3          	csrr	x5,mepc
    41000af8:	344022f3          	csrr	x5,mip
    41000afc:	305022f3          	csrr	x5,mtvec
    41000b00:	105022f3          	csrr	x5,stvec
    41000b04:	f13022f3          	csrr	x5,mimpid
    41000b08:	340022f3          	csrr	x5,mscratch
    41000b0c:	340022f3          	csrr	x5,mscratch

0000000041000b10 <scheduler__load_num_runs>:
    41000b10:	19023303          	ld	x6,400(x4) # 190 <XLEN+0x150>
    41000b14:	04030c63          	beqz	x6,41000b6c <scheduler__finished>

0000000041000b18 <scheduler__decrement_num_runs>:
    41000b18:	fff30393          	addi	x7,x6,-1
    41000b1c:	18723823          	sd	x7,400(x4) # 190 <XLEN+0x150>
    41000b20:	00000e17          	auipc	x28,0x0
    41000b24:	384e0e13          	addi	x28,x28,900 # 41000ea4 <dtest_index_map>
    41000b28:	00239e93          	slli	x29,x7,0x2
    41000b2c:	01de0e33          	add	x28,x28,x29
    41000b30:	000e2e03          	lw	x28,0(x28)
    41000b34:	19c23423          	sd	x28,392(x4) # 188 <XLEN+0x148>

0000000041000b38 <scheduler__calc_test_pointer>:
    41000b38:	00339293          	slli	x5,x7,0x3

0000000041000b3c <scheduler__load_test_addr>:
    41000b3c:	00000317          	auipc	x6,0x0
    41000b40:	04830313          	addi	x6,x6,72 # 41000b84 <os_test_sequence>
    41000b44:	006282b3          	add	x5,x5,x6
    41000b48:	0002b303          	ld	x6,0(x5)

0000000041000b4c <scheduler__execute_test>:
    41000b4c:	18023283          	ld	x5,384(x4) # 180 <XLEN+0x140>
    41000b50:	30529073          	csrw	mtvec,x5
    41000b54:	34021273          	csrrw	x4,mscratch,x4
    41000b58:	00000213          	li	x4,0
    41000b5c:	14131073          	csrw	sepc,x6
    41000b60:	10000293          	li	x5,256
    41000b64:	1002b073          	csrc	sstatus,x5
    41000b68:	10200073          	sret

0000000041000b6c <scheduler__finished>:
    41000b6c:	00100193          	li	x3,1
    41000b70:	ed1ff06f          	j	41000a40 <eot__end_test>

0000000041000b74 <scheduler__panic>:
    41000b74:	00000193          	li	x3,0
    41000b78:	ec9ff06f          	j	41000a40 <eot__end_test>

0000000041000b7c <num_runs>:
    41000b7c:	0034                	.insn	2, 0x0034
    41000b7e:	0000                	.insn	2, 0x0000
    41000b80:	0000                	.insn	2, 0x0000
	...

0000000041000b84 <os_test_sequence>:
    41000b84:	6e04                	.insn	2, 0x6e04
    41000b86:	4101                	.insn	2, 0x4101
    41000b88:	0000                	.insn	2, 0x0000
    41000b8a:	0000                	.insn	2, 0x0000
    41000b8c:	50c0                	.insn	2, 0x50c0
    41000b8e:	4101                	.insn	2, 0x4101
    41000b90:	0000                	.insn	2, 0x0000
    41000b92:	0000                	.insn	2, 0x0000
    41000b94:	582c                	.insn	2, 0x582c
    41000b96:	4101                	.insn	2, 0x4101
    41000b98:	0000                	.insn	2, 0x0000
    41000b9a:	0000                	.insn	2, 0x0000
    41000b9c:	6878                	.insn	2, 0x6878
    41000b9e:	4101                	.insn	2, 0x4101
    41000ba0:	0000                	.insn	2, 0x0000
    41000ba2:	0000                	.insn	2, 0x0000
    41000ba4:	5510                	.insn	2, 0x5510
    41000ba6:	4101                	.insn	2, 0x4101
    41000ba8:	0000                	.insn	2, 0x0000
    41000baa:	0000                	.insn	2, 0x0000
    41000bac:	59d0                	.insn	2, 0x59d0
    41000bae:	4101                	.insn	2, 0x4101
    41000bb0:	0000                	.insn	2, 0x0000
    41000bb2:	0000                	.insn	2, 0x0000
    41000bb4:	5a80                	.insn	2, 0x5a80
    41000bb6:	4101                	.insn	2, 0x4101
    41000bb8:	0000                	.insn	2, 0x0000
    41000bba:	0000                	.insn	2, 0x0000
    41000bbc:	6aa8                	.insn	2, 0x6aa8
    41000bbe:	4101                	.insn	2, 0x4101
    41000bc0:	0000                	.insn	2, 0x0000
    41000bc2:	0000                	.insn	2, 0x0000
    41000bc4:	5204                	.insn	2, 0x5204
    41000bc6:	4101                	.insn	2, 0x4101
    41000bc8:	0000                	.insn	2, 0x0000
    41000bca:	0000                	.insn	2, 0x0000
    41000bcc:	6878                	.insn	2, 0x6878
    41000bce:	4101                	.insn	2, 0x4101
    41000bd0:	0000                	.insn	2, 0x0000
    41000bd2:	0000                	.insn	2, 0x0000
    41000bd4:	56e8                	.insn	2, 0x56e8
    41000bd6:	4101                	.insn	2, 0x4101
    41000bd8:	0000                	.insn	2, 0x0000
    41000bda:	0000                	.insn	2, 0x0000
    41000bdc:	5510                	.insn	2, 0x5510
    41000bde:	4101                	.insn	2, 0x4101
    41000be0:	0000                	.insn	2, 0x0000
    41000be2:	0000                	.insn	2, 0x0000
    41000be4:	5c80                	.insn	2, 0x5c80
    41000be6:	4101                	.insn	2, 0x4101
    41000be8:	0000                	.insn	2, 0x0000
    41000bea:	0000                	.insn	2, 0x0000
    41000bec:	5eb4                	.insn	2, 0x5eb4
    41000bee:	4101                	.insn	2, 0x4101
    41000bf0:	0000                	.insn	2, 0x0000
    41000bf2:	0000                	.insn	2, 0x0000
    41000bf4:	5a00                	.insn	2, 0x5a00
    41000bf6:	4101                	.insn	2, 0x4101
    41000bf8:	0000                	.insn	2, 0x0000
    41000bfa:	0000                	.insn	2, 0x0000
    41000bfc:	6aa8                	.insn	2, 0x6aa8
    41000bfe:	4101                	.insn	2, 0x4101
    41000c00:	0000                	.insn	2, 0x0000
    41000c02:	0000                	.insn	2, 0x0000
    41000c04:	5978                	.insn	2, 0x5978
    41000c06:	4101                	.insn	2, 0x4101
    41000c08:	0000                	.insn	2, 0x0000
    41000c0a:	0000                	.insn	2, 0x0000
    41000c0c:	6394                	.insn	2, 0x6394
    41000c0e:	4101                	.insn	2, 0x4101
    41000c10:	0000                	.insn	2, 0x0000
    41000c12:	0000                	.insn	2, 0x0000
    41000c14:	6130                	.insn	2, 0x6130
    41000c16:	4101                	.insn	2, 0x4101
    41000c18:	0000                	.insn	2, 0x0000
    41000c1a:	0000                	.insn	2, 0x0000
    41000c1c:	56e8                	.insn	2, 0x56e8
    41000c1e:	4101                	.insn	2, 0x4101
    41000c20:	0000                	.insn	2, 0x0000
    41000c22:	0000                	.insn	2, 0x0000
    41000c24:	59d0                	.insn	2, 0x59d0
    41000c26:	4101                	.insn	2, 0x4101
    41000c28:	0000                	.insn	2, 0x0000
    41000c2a:	0000                	.insn	2, 0x0000
    41000c2c:	6130                	.insn	2, 0x6130
    41000c2e:	4101                	.insn	2, 0x4101
    41000c30:	0000                	.insn	2, 0x0000
    41000c32:	0000                	.insn	2, 0x0000
    41000c34:	5978                	.insn	2, 0x5978
    41000c36:	4101                	.insn	2, 0x4101
    41000c38:	0000                	.insn	2, 0x0000
    41000c3a:	0000                	.insn	2, 0x0000
    41000c3c:	6600                	.insn	2, 0x6600
    41000c3e:	4101                	.insn	2, 0x4101
    41000c40:	0000                	.insn	2, 0x0000
    41000c42:	0000                	.insn	2, 0x0000
    41000c44:	5eb4                	.insn	2, 0x5eb4
    41000c46:	4101                	.insn	2, 0x4101
    41000c48:	0000                	.insn	2, 0x0000
    41000c4a:	0000                	.insn	2, 0x0000
    41000c4c:	5eb4                	.insn	2, 0x5eb4
    41000c4e:	4101                	.insn	2, 0x4101
    41000c50:	0000                	.insn	2, 0x0000
    41000c52:	0000                	.insn	2, 0x0000
    41000c54:	5510                	.insn	2, 0x5510
    41000c56:	4101                	.insn	2, 0x4101
    41000c58:	0000                	.insn	2, 0x0000
    41000c5a:	0000                	.insn	2, 0x0000
    41000c5c:	5204                	.insn	2, 0x5204
    41000c5e:	4101                	.insn	2, 0x4101
    41000c60:	0000                	.insn	2, 0x0000
    41000c62:	0000                	.insn	2, 0x0000
    41000c64:	5978                	.insn	2, 0x5978
    41000c66:	4101                	.insn	2, 0x4101
    41000c68:	0000                	.insn	2, 0x0000
    41000c6a:	0000                	.insn	2, 0x0000
    41000c6c:	6878                	.insn	2, 0x6878
    41000c6e:	4101                	.insn	2, 0x4101
    41000c70:	0000                	.insn	2, 0x0000
    41000c72:	0000                	.insn	2, 0x0000
    41000c74:	5a00                	.insn	2, 0x5a00
    41000c76:	4101                	.insn	2, 0x4101
    41000c78:	0000                	.insn	2, 0x0000
    41000c7a:	0000                	.insn	2, 0x0000
    41000c7c:	59d0                	.insn	2, 0x59d0
    41000c7e:	4101                	.insn	2, 0x4101
    41000c80:	0000                	.insn	2, 0x0000
    41000c82:	0000                	.insn	2, 0x0000
    41000c84:	582c                	.insn	2, 0x582c
    41000c86:	4101                	.insn	2, 0x4101
    41000c88:	0000                	.insn	2, 0x0000
    41000c8a:	0000                	.insn	2, 0x0000
    41000c8c:	6600                	.insn	2, 0x6600
    41000c8e:	4101                	.insn	2, 0x4101
    41000c90:	0000                	.insn	2, 0x0000
    41000c92:	0000                	.insn	2, 0x0000
    41000c94:	50c0                	.insn	2, 0x50c0
    41000c96:	4101                	.insn	2, 0x4101
    41000c98:	0000                	.insn	2, 0x0000
    41000c9a:	0000                	.insn	2, 0x0000
    41000c9c:	5a80                	.insn	2, 0x5a80
    41000c9e:	4101                	.insn	2, 0x4101
    41000ca0:	0000                	.insn	2, 0x0000
    41000ca2:	0000                	.insn	2, 0x0000
    41000ca4:	6394                	.insn	2, 0x6394
    41000ca6:	4101                	.insn	2, 0x4101
    41000ca8:	0000                	.insn	2, 0x0000
    41000caa:	0000                	.insn	2, 0x0000
    41000cac:	50c0                	.insn	2, 0x50c0
    41000cae:	4101                	.insn	2, 0x4101
    41000cb0:	0000                	.insn	2, 0x0000
    41000cb2:	0000                	.insn	2, 0x0000
    41000cb4:	6600                	.insn	2, 0x6600
    41000cb6:	4101                	.insn	2, 0x4101
    41000cb8:	0000                	.insn	2, 0x0000
    41000cba:	0000                	.insn	2, 0x0000
    41000cbc:	5350                	.insn	2, 0x5350
    41000cbe:	4101                	.insn	2, 0x4101
    41000cc0:	0000                	.insn	2, 0x0000
    41000cc2:	0000                	.insn	2, 0x0000
    41000cc4:	56e8                	.insn	2, 0x56e8
    41000cc6:	4101                	.insn	2, 0x4101
    41000cc8:	0000                	.insn	2, 0x0000
    41000cca:	0000                	.insn	2, 0x0000
    41000ccc:	5a00                	.insn	2, 0x5a00
    41000cce:	4101                	.insn	2, 0x4101
    41000cd0:	0000                	.insn	2, 0x0000
    41000cd2:	0000                	.insn	2, 0x0000
    41000cd4:	6394                	.insn	2, 0x6394
    41000cd6:	4101                	.insn	2, 0x4101
    41000cd8:	0000                	.insn	2, 0x0000
    41000cda:	0000                	.insn	2, 0x0000
    41000cdc:	5c80                	.insn	2, 0x5c80
    41000cde:	4101                	.insn	2, 0x4101
    41000ce0:	0000                	.insn	2, 0x0000
    41000ce2:	0000                	.insn	2, 0x0000
    41000ce4:	5a80                	.insn	2, 0x5a80
    41000ce6:	4101                	.insn	2, 0x4101
    41000ce8:	0000                	.insn	2, 0x0000
    41000cea:	0000                	.insn	2, 0x0000
    41000cec:	5c80                	.insn	2, 0x5c80
    41000cee:	4101                	.insn	2, 0x4101
    41000cf0:	0000                	.insn	2, 0x0000
    41000cf2:	0000                	.insn	2, 0x0000
    41000cf4:	5350                	.insn	2, 0x5350
    41000cf6:	4101                	.insn	2, 0x4101
    41000cf8:	0000                	.insn	2, 0x0000
    41000cfa:	0000                	.insn	2, 0x0000
    41000cfc:	582c                	.insn	2, 0x582c
    41000cfe:	4101                	.insn	2, 0x4101
    41000d00:	0000                	.insn	2, 0x0000
    41000d02:	0000                	.insn	2, 0x0000
    41000d04:	5204                	.insn	2, 0x5204
    41000d06:	4101                	.insn	2, 0x4101
    41000d08:	0000                	.insn	2, 0x0000
    41000d0a:	0000                	.insn	2, 0x0000
    41000d0c:	6aa8                	.insn	2, 0x6aa8
    41000d0e:	4101                	.insn	2, 0x4101
    41000d10:	0000                	.insn	2, 0x0000
    41000d12:	0000                	.insn	2, 0x0000
    41000d14:	6130                	.insn	2, 0x6130
    41000d16:	4101                	.insn	2, 0x4101
    41000d18:	0000                	.insn	2, 0x0000
    41000d1a:	0000                	.insn	2, 0x0000
    41000d1c:	5350                	.insn	2, 0x5350
    41000d1e:	4101                	.insn	2, 0x4101
    41000d20:	0000                	.insn	2, 0x0000
	...

0000000041000d24 <dtest_descriptor_table>:
    41000d24:	0dac                	.insn	2, 0x0dac
    41000d26:	4100                	.insn	2, 0x4100
    41000d28:	0000                	.insn	2, 0x0000
    41000d2a:	0000                	.insn	2, 0x0000
    41000d2c:	0dba                	.insn	2, 0x0dba
    41000d2e:	4100                	.insn	2, 0x4100
    41000d30:	0000                	.insn	2, 0x0000
    41000d32:	0000                	.insn	2, 0x0000
    41000d34:	0dc8                	.insn	2, 0x0dc8
    41000d36:	4100                	.insn	2, 0x4100
    41000d38:	0000                	.insn	2, 0x0000
    41000d3a:	0000                	.insn	2, 0x0000
    41000d3c:	0dd6                	.insn	2, 0x0dd6
    41000d3e:	4100                	.insn	2, 0x4100
    41000d40:	0000                	.insn	2, 0x0000
    41000d42:	0000                	.insn	2, 0x0000
    41000d44:	0de4                	.insn	2, 0x0de4
    41000d46:	4100                	.insn	2, 0x4100
    41000d48:	0000                	.insn	2, 0x0000
    41000d4a:	0000                	.insn	2, 0x0000
    41000d4c:	0df2                	.insn	2, 0x0df2
    41000d4e:	4100                	.insn	2, 0x4100
    41000d50:	0000                	.insn	2, 0x0000
    41000d52:	0000                	.insn	2, 0x0000
    41000d54:	0e00                	.insn	2, 0x0e00
    41000d56:	4100                	.insn	2, 0x4100
    41000d58:	0000                	.insn	2, 0x0000
    41000d5a:	0000                	.insn	2, 0x0000
    41000d5c:	0e0e                	.insn	2, 0x0e0e
    41000d5e:	4100                	.insn	2, 0x4100
    41000d60:	0000                	.insn	2, 0x0000
    41000d62:	0000                	.insn	2, 0x0000
    41000d64:	0e1c                	.insn	2, 0x0e1c
    41000d66:	4100                	.insn	2, 0x4100
    41000d68:	0000                	.insn	2, 0x0000
    41000d6a:	0000                	.insn	2, 0x0000
    41000d6c:	0e2a                	.insn	2, 0x0e2a
    41000d6e:	4100                	.insn	2, 0x4100
    41000d70:	0000                	.insn	2, 0x0000
    41000d72:	0000                	.insn	2, 0x0000
    41000d74:	0e38                	.insn	2, 0x0e38
    41000d76:	4100                	.insn	2, 0x4100
    41000d78:	0000                	.insn	2, 0x0000
    41000d7a:	0000                	.insn	2, 0x0000
    41000d7c:	0e46                	.insn	2, 0x0e46
    41000d7e:	4100                	.insn	2, 0x4100
    41000d80:	0000                	.insn	2, 0x0000
    41000d82:	0000                	.insn	2, 0x0000
    41000d84:	0e54                	.insn	2, 0x0e54
    41000d86:	4100                	.insn	2, 0x4100
    41000d88:	0000                	.insn	2, 0x0000
    41000d8a:	0000                	.insn	2, 0x0000
    41000d8c:	0e62                	.insn	2, 0x0e62
    41000d8e:	4100                	.insn	2, 0x4100
    41000d90:	0000                	.insn	2, 0x0000
    41000d92:	0000                	.insn	2, 0x0000
    41000d94:	0e70                	.insn	2, 0x0e70
    41000d96:	4100                	.insn	2, 0x4100
    41000d98:	0000                	.insn	2, 0x0000
    41000d9a:	0000                	.insn	2, 0x0000
    41000d9c:	0e7e                	.insn	2, 0x0e7e
    41000d9e:	4100                	.insn	2, 0x4100
    41000da0:	0000                	.insn	2, 0x0000
    41000da2:	0000                	.insn	2, 0x0000
    41000da4:	0e8c                	.insn	2, 0x0e8c
    41000da6:	4100                	.insn	2, 0x4100
    41000da8:	0000                	.insn	2, 0x0000
	...

0000000041000dac <dtest_name_0>:
    41000dac:	5f444953          	.insn	4, 0x5f444953
    41000db0:	495a                	.insn	2, 0x495a
    41000db2:	5f4f4243          	.insn	4, 0x5f4f4243
    41000db6:	3030                	.insn	2, 0x3030
    41000db8:	0031                	.insn	2, 0x0031

0000000041000dba <dtest_name_1>:
    41000dba:	5f444953          	.insn	4, 0x5f444953
    41000dbe:	495a                	.insn	2, 0x495a
    41000dc0:	5f4f4243          	.insn	4, 0x5f4f4243
    41000dc4:	3030                	.insn	2, 0x3030
    41000dc6:	0032                	.insn	2, 0x0032

0000000041000dc8 <dtest_name_2>:
    41000dc8:	5f444953          	.insn	4, 0x5f444953
    41000dcc:	495a                	.insn	2, 0x495a
    41000dce:	5f4f4243          	.insn	4, 0x5f4f4243
    41000dd2:	3030                	.insn	2, 0x3030
    41000dd4:	          	.insn	4, 0x49530033

0000000041000dd6 <dtest_name_3>:
    41000dd6:	5f444953          	.insn	4, 0x5f444953
    41000dda:	495a                	.insn	2, 0x495a
    41000ddc:	5f4f4243          	.insn	4, 0x5f4f4243
    41000de0:	3030                	.insn	2, 0x3030
    41000de2:	0034                	.insn	2, 0x0034

0000000041000de4 <dtest_name_4>:
    41000de4:	5f444953          	.insn	4, 0x5f444953
    41000de8:	495a                	.insn	2, 0x495a
    41000dea:	5f4f4243          	.insn	4, 0x5f4f4243
    41000dee:	3030                	.insn	2, 0x3030
    41000df0:	0035                	.insn	2, 0x0035

0000000041000df2 <dtest_name_5>:
    41000df2:	5f444953          	.insn	4, 0x5f444953
    41000df6:	495a                	.insn	2, 0x495a
    41000df8:	5f4f4243          	.insn	4, 0x5f4f4243
    41000dfc:	3030                	.insn	2, 0x3030
    41000dfe:	0036                	.insn	2, 0x0036

0000000041000e00 <dtest_name_6>:
    41000e00:	5f444953          	.insn	4, 0x5f444953
    41000e04:	495a                	.insn	2, 0x495a
    41000e06:	5f4f4243          	.insn	4, 0x5f4f4243
    41000e0a:	3130                	.insn	2, 0x3130
    41000e0c:	          	.insn	4, 0x49530033

0000000041000e0e <dtest_name_7>:
    41000e0e:	5f444953          	.insn	4, 0x5f444953
    41000e12:	495a                	.insn	2, 0x495a
    41000e14:	5f4f4243          	.insn	4, 0x5f4f4243
    41000e18:	3130                	.insn	2, 0x3130
    41000e1a:	0035                	.insn	2, 0x0035

0000000041000e1c <dtest_name_8>:
    41000e1c:	5f444953          	.insn	4, 0x5f444953
    41000e20:	495a                	.insn	2, 0x495a
    41000e22:	5f4f4243          	.insn	4, 0x5f4f4243
    41000e26:	3130                	.insn	2, 0x3130
    41000e28:	0036                	.insn	2, 0x0036

0000000041000e2a <dtest_name_9>:
    41000e2a:	5f444953          	.insn	4, 0x5f444953
    41000e2e:	495a                	.insn	2, 0x495a
    41000e30:	5f4f4243          	.insn	4, 0x5f4f4243
    41000e34:	3130                	.insn	2, 0x3130
    41000e36:	          	lui	x0,0x49530

0000000041000e38 <dtest_name_10>:
    41000e38:	5f444953          	.insn	4, 0x5f444953
    41000e3c:	495a                	.insn	2, 0x495a
    41000e3e:	5f4f4243          	.insn	4, 0x5f4f4243
    41000e42:	3130                	.insn	2, 0x3130
    41000e44:	0038                	.insn	2, 0x0038

0000000041000e46 <dtest_name_11>:
    41000e46:	5f444953          	.insn	4, 0x5f444953
    41000e4a:	495a                	.insn	2, 0x495a
    41000e4c:	5f4f4243          	.insn	4, 0x5f4f4243
    41000e50:	3130                	.insn	2, 0x3130
    41000e52:	0039                	.insn	2, 0x0039

0000000041000e54 <dtest_name_12>:
    41000e54:	5f444953          	.insn	4, 0x5f444953
    41000e58:	495a                	.insn	2, 0x495a
    41000e5a:	5f4f4243          	.insn	4, 0x5f4f4243
    41000e5e:	3230                	.insn	2, 0x3230
    41000e60:	0030                	.insn	2, 0x0030

0000000041000e62 <dtest_name_13>:
    41000e62:	5f444953          	.insn	4, 0x5f444953
    41000e66:	495a                	.insn	2, 0x495a
    41000e68:	5f4f4243          	.insn	4, 0x5f4f4243
    41000e6c:	3230                	.insn	2, 0x3230
    41000e6e:	0032                	.insn	2, 0x0032

0000000041000e70 <dtest_name_14>:
    41000e70:	5f444953          	.insn	4, 0x5f444953
    41000e74:	495a                	.insn	2, 0x495a
    41000e76:	5f4f4243          	.insn	4, 0x5f4f4243
    41000e7a:	3430                	.insn	2, 0x3430
    41000e7c:	          	lui	x0,0x49530

0000000041000e7e <dtest_name_15>:
    41000e7e:	5f444953          	.insn	4, 0x5f444953
    41000e82:	495a                	.insn	2, 0x495a
    41000e84:	5f4f4243          	.insn	4, 0x5f4f4243
    41000e88:	3430                	.insn	2, 0x3430
    41000e8a:	0039                	.insn	2, 0x0039

0000000041000e8c <dtest_name_16>:
    41000e8c:	5f444953          	.insn	4, 0x5f444953
    41000e90:	495a                	.insn	2, 0x495a
    41000e92:	5f4f4243          	.insn	4, 0x5f4f4243
    41000e96:	3035                	.insn	2, 0x3035
    41000e98:	5a5f 4349 3436      	.insn	6, 0x343643495a5f
    41000e9e:	5f42                	.insn	2, 0x5f42
    41000ea0:	3130                	.insn	2, 0x3130
	...

0000000041000ea4 <dtest_index_map>:
    41000ea4:	ffff                	.insn	2, 0xffff
    41000ea6:	ffff                	.insn	2, 0xffff
    41000ea8:	0000                	.insn	2, 0x0000
    41000eaa:	0000                	.insn	2, 0x0000
    41000eac:	0005                	.insn	2, 0x0005
    41000eae:	0000                	.insn	2, 0x0000
    41000eb0:	0000000f          	fence	unknown,unknown
    41000eb4:	00000003          	lb	x0,0(x0) # 0 <ALL_4KB_PAGES>
    41000eb8:	00000007          	vle8.v	v0,(x0),v0.t
    41000ebc:	0009                	.insn	2, 0x0009
    41000ebe:	0000                	.insn	2, 0x0000
    41000ec0:	0010                	.insn	2, 0x0010
    41000ec2:	0000                	.insn	2, 0x0000
    41000ec4:	0001                	.insn	2, 0x0001
    41000ec6:	0000                	.insn	2, 0x0000
    41000ec8:	0000000f          	fence	unknown,unknown
    41000ecc:	0004                	.insn	2, 0x0004
    41000ece:	0000                	.insn	2, 0x0000
    41000ed0:	00000003          	lb	x0,0(x0) # 0 <ALL_4KB_PAGES>
    41000ed4:	000a                	.insn	2, 0x000a
    41000ed6:	0000                	.insn	2, 0x0000
    41000ed8:	0000000b          	.insn	4, 0x000b
    41000edc:	0008                	.insn	2, 0x0008
    41000ede:	0000                	.insn	2, 0x0000
    41000ee0:	0010                	.insn	2, 0x0010
    41000ee2:	0000                	.insn	2, 0x0000
    41000ee4:	0006                	.insn	2, 0x0006
    41000ee6:	0000                	.insn	2, 0x0000
    41000ee8:	000d                	.insn	2, 0x000d
    41000eea:	0000                	.insn	2, 0x0000
    41000eec:	000c                	.insn	2, 0x000c
    41000eee:	0000                	.insn	2, 0x0000
    41000ef0:	0004                	.insn	2, 0x0004
    41000ef2:	0000                	.insn	2, 0x0000
    41000ef4:	00000007          	vle8.v	v0,(x0),v0.t
    41000ef8:	000c                	.insn	2, 0x000c
    41000efa:	0000                	.insn	2, 0x0000
    41000efc:	0006                	.insn	2, 0x0006
    41000efe:	0000                	.insn	2, 0x0000
    41000f00:	000e                	.insn	2, 0x000e
    41000f02:	0000                	.insn	2, 0x0000
    41000f04:	0000000b          	.insn	4, 0x000b
    41000f08:	0000000b          	.insn	4, 0x000b
    41000f0c:	00000003          	lb	x0,0(x0) # 0 <ALL_4KB_PAGES>
    41000f10:	0001                	.insn	2, 0x0001
    41000f12:	0000                	.insn	2, 0x0000
    41000f14:	0006                	.insn	2, 0x0006
    41000f16:	0000                	.insn	2, 0x0000
    41000f18:	0000000f          	fence	unknown,unknown
    41000f1c:	0008                	.insn	2, 0x0008
    41000f1e:	0000                	.insn	2, 0x0000
    41000f20:	00000007          	vle8.v	v0,(x0),v0.t
    41000f24:	0005                	.insn	2, 0x0005
    41000f26:	0000                	.insn	2, 0x0000
    41000f28:	000e                	.insn	2, 0x000e
    41000f2a:	0000                	.insn	2, 0x0000
    41000f2c:	0000                	.insn	2, 0x0000
    41000f2e:	0000                	.insn	2, 0x0000
    41000f30:	0009                	.insn	2, 0x0009
    41000f32:	0000                	.insn	2, 0x0000
    41000f34:	000d                	.insn	2, 0x000d
    41000f36:	0000                	.insn	2, 0x0000
    41000f38:	0000                	.insn	2, 0x0000
    41000f3a:	0000                	.insn	2, 0x0000
    41000f3c:	000e                	.insn	2, 0x000e
    41000f3e:	0000                	.insn	2, 0x0000
    41000f40:	0002                	.insn	2, 0x0002
    41000f42:	0000                	.insn	2, 0x0000
    41000f44:	0004                	.insn	2, 0x0004
    41000f46:	0000                	.insn	2, 0x0000
    41000f48:	0008                	.insn	2, 0x0008
    41000f4a:	0000                	.insn	2, 0x0000
    41000f4c:	000d                	.insn	2, 0x000d
    41000f4e:	0000                	.insn	2, 0x0000
    41000f50:	000a                	.insn	2, 0x000a
    41000f52:	0000                	.insn	2, 0x0000
    41000f54:	0009                	.insn	2, 0x0009
    41000f56:	0000                	.insn	2, 0x0000
    41000f58:	000a                	.insn	2, 0x000a
    41000f5a:	0000                	.insn	2, 0x0000
    41000f5c:	0002                	.insn	2, 0x0002
    41000f5e:	0000                	.insn	2, 0x0000
    41000f60:	0005                	.insn	2, 0x0005
    41000f62:	0000                	.insn	2, 0x0000
    41000f64:	0001                	.insn	2, 0x0001
    41000f66:	0000                	.insn	2, 0x0000
    41000f68:	0010                	.insn	2, 0x0010
    41000f6a:	0000                	.insn	2, 0x0000
    41000f6c:	000c                	.insn	2, 0x000c
    41000f6e:	0000                	.insn	2, 0x0000
    41000f70:	0002                	.insn	2, 0x0002
	...

0000000041000f74 <scheduler__test_setup_ptr>:
    41000f74:	50b0                	.insn	2, 0x50b0
    41000f76:	4101                	.insn	2, 0x4101
    41000f78:	0000                	.insn	2, 0x0000
	...

0000000041000f7c <scheduler__test_cleanup_ptr>:
    41000f7c:	6e04                	.insn	2, 0x6e04
    41000f7e:	4101                	.insn	2, 0x4101
    41000f80:	0000                	.insn	2, 0x0000
	...

Disassembly of section .runtime_s:

0000000041011000 <trap_handler_s__invalid_interrupt>:
    41011000:	1740006f          	j	41011174 <trap_handler_s__test_failed>

0000000041011004 <trap_handler_s__clear_all_interrupts>:
    41011004:	14401073          	csrw	sip,x0
    41011008:	10200073          	sret

000000004101100c <trap_handler_s___CLEAR_SSI>:
    4101100c:	00200293          	li	x5,2
    41011010:	1442b073          	csrc	sip,x5
    41011014:	10200073          	sret

0000000041011018 <trap_handler_s___CLEAR_MSI>:
    41011018:	00800293          	li	x5,8
    4101101c:	1442b073          	csrc	sip,x5
    41011020:	10200073          	sret

0000000041011024 <trap_handler_s___CLEAR_STI>:
    41011024:	02000293          	li	x5,32
    41011028:	1442b073          	csrc	sip,x5
    4101102c:	10200073          	sret

0000000041011030 <trap_handler_s___CLEAR_MTI>:
    41011030:	08000293          	li	x5,128
    41011034:	1442b073          	csrc	sip,x5
    41011038:	10200073          	sret

000000004101103c <trap_handler_s___CLEAR_SEI>:
    4101103c:	20000293          	li	x5,512
    41011040:	1442b073          	csrc	sip,x5
    41011044:	10200073          	sret

0000000041011048 <trap_handler_s___CLEAR_MEI>:
    41011048:	000012b7          	lui	x5,0x1
    4101104c:	8002829b          	addiw	x5,x5,-2048 # 800 <XLEN+0x7c0>
    41011050:	1442b073          	csrc	sip,x5
    41011054:	10200073          	sret

0000000041011058 <trap_handler_s___CLEAR_COI>:
    41011058:	000022b7          	lui	x5,0x2
    4101105c:	1442b073          	csrc	sip,x5
    41011060:	10200073          	sret

0000000041011064 <trap_handler_s__clear_highest_priority_interrupt>:
    41011064:	144022f3          	csrr	x5,sip
    41011068:	40500333          	neg	x6,x5
    4101106c:	0062f2b3          	and	x5,x5,x6
    41011070:	1442b073          	csrc	sip,x5
    41011074:	10200073          	sret

0000000041011078 <trap_handler_s__trap_entry>:
    41011078:	10c0006f          	j	41011184 <trap_handler_s__trap_handler>

000000004101107c <trap_handler_s__interrupt_vector_table>:
    4101107c:	f91ff06f          	j	4101100c <trap_handler_s___CLEAR_SSI>
    41011080:	f81ff06f          	j	41011000 <trap_handler_s__invalid_interrupt>
    41011084:	f95ff06f          	j	41011018 <trap_handler_s___CLEAR_MSI>
    41011088:	f79ff06f          	j	41011000 <trap_handler_s__invalid_interrupt>
    4101108c:	f99ff06f          	j	41011024 <trap_handler_s___CLEAR_STI>
    41011090:	f71ff06f          	j	41011000 <trap_handler_s__invalid_interrupt>
    41011094:	f9dff06f          	j	41011030 <trap_handler_s___CLEAR_MTI>
    41011098:	f69ff06f          	j	41011000 <trap_handler_s__invalid_interrupt>
    4101109c:	fa1ff06f          	j	4101103c <trap_handler_s___CLEAR_SEI>
    410110a0:	f61ff06f          	j	41011000 <trap_handler_s__invalid_interrupt>
    410110a4:	fa5ff06f          	j	41011048 <trap_handler_s___CLEAR_MEI>
    410110a8:	f59ff06f          	j	41011000 <trap_handler_s__invalid_interrupt>
    410110ac:	fadff06f          	j	41011058 <trap_handler_s___CLEAR_COI>
    410110b0:	f51ff06f          	j	41011000 <trap_handler_s__invalid_interrupt>
    410110b4:	f4dff06f          	j	41011000 <trap_handler_s__invalid_interrupt>
    410110b8:	fadff06f          	j	41011064 <trap_handler_s__clear_highest_priority_interrupt>
    410110bc:	fa9ff06f          	j	41011064 <trap_handler_s__clear_highest_priority_interrupt>
    410110c0:	fa5ff06f          	j	41011064 <trap_handler_s__clear_highest_priority_interrupt>
    410110c4:	fa1ff06f          	j	41011064 <trap_handler_s__clear_highest_priority_interrupt>
    410110c8:	f9dff06f          	j	41011064 <trap_handler_s__clear_highest_priority_interrupt>
    410110cc:	f99ff06f          	j	41011064 <trap_handler_s__clear_highest_priority_interrupt>
    410110d0:	f95ff06f          	j	41011064 <trap_handler_s__clear_highest_priority_interrupt>
    410110d4:	f91ff06f          	j	41011064 <trap_handler_s__clear_highest_priority_interrupt>
    410110d8:	f8dff06f          	j	41011064 <trap_handler_s__clear_highest_priority_interrupt>
    410110dc:	f89ff06f          	j	41011064 <trap_handler_s__clear_highest_priority_interrupt>
    410110e0:	f85ff06f          	j	41011064 <trap_handler_s__clear_highest_priority_interrupt>
    410110e4:	f81ff06f          	j	41011064 <trap_handler_s__clear_highest_priority_interrupt>
    410110e8:	f7dff06f          	j	41011064 <trap_handler_s__clear_highest_priority_interrupt>
    410110ec:	f79ff06f          	j	41011064 <trap_handler_s__clear_highest_priority_interrupt>
    410110f0:	f75ff06f          	j	41011064 <trap_handler_s__clear_highest_priority_interrupt>
    410110f4:	f71ff06f          	j	41011064 <trap_handler_s__clear_highest_priority_interrupt>
    410110f8:	f6dff06f          	j	41011064 <trap_handler_s__clear_highest_priority_interrupt>
    410110fc:	f69ff06f          	j	41011064 <trap_handler_s__clear_highest_priority_interrupt>
    41011100:	f65ff06f          	j	41011064 <trap_handler_s__clear_highest_priority_interrupt>
    41011104:	f61ff06f          	j	41011064 <trap_handler_s__clear_highest_priority_interrupt>
    41011108:	f5dff06f          	j	41011064 <trap_handler_s__clear_highest_priority_interrupt>
    4101110c:	f59ff06f          	j	41011064 <trap_handler_s__clear_highest_priority_interrupt>
    41011110:	f55ff06f          	j	41011064 <trap_handler_s__clear_highest_priority_interrupt>
    41011114:	f51ff06f          	j	41011064 <trap_handler_s__clear_highest_priority_interrupt>
    41011118:	f4dff06f          	j	41011064 <trap_handler_s__clear_highest_priority_interrupt>
    4101111c:	f49ff06f          	j	41011064 <trap_handler_s__clear_highest_priority_interrupt>
    41011120:	f45ff06f          	j	41011064 <trap_handler_s__clear_highest_priority_interrupt>
    41011124:	f41ff06f          	j	41011064 <trap_handler_s__clear_highest_priority_interrupt>
    41011128:	f3dff06f          	j	41011064 <trap_handler_s__clear_highest_priority_interrupt>
    4101112c:	f39ff06f          	j	41011064 <trap_handler_s__clear_highest_priority_interrupt>
    41011130:	f35ff06f          	j	41011064 <trap_handler_s__clear_highest_priority_interrupt>
    41011134:	f31ff06f          	j	41011064 <trap_handler_s__clear_highest_priority_interrupt>
    41011138:	f2dff06f          	j	41011064 <trap_handler_s__clear_highest_priority_interrupt>
    4101113c:	f29ff06f          	j	41011064 <trap_handler_s__clear_highest_priority_interrupt>
    41011140:	f25ff06f          	j	41011064 <trap_handler_s__clear_highest_priority_interrupt>
    41011144:	f21ff06f          	j	41011064 <trap_handler_s__clear_highest_priority_interrupt>
    41011148:	f1dff06f          	j	41011064 <trap_handler_s__clear_highest_priority_interrupt>
    4101114c:	f19ff06f          	j	41011064 <trap_handler_s__clear_highest_priority_interrupt>
    41011150:	f15ff06f          	j	41011064 <trap_handler_s__clear_highest_priority_interrupt>
    41011154:	f11ff06f          	j	41011064 <trap_handler_s__clear_highest_priority_interrupt>
    41011158:	f0dff06f          	j	41011064 <trap_handler_s__clear_highest_priority_interrupt>
    4101115c:	f09ff06f          	j	41011064 <trap_handler_s__clear_highest_priority_interrupt>
    41011160:	f05ff06f          	j	41011064 <trap_handler_s__clear_highest_priority_interrupt>
    41011164:	f01ff06f          	j	41011064 <trap_handler_s__clear_highest_priority_interrupt>
    41011168:	efdff06f          	j	41011064 <trap_handler_s__clear_highest_priority_interrupt>
    4101116c:	ef9ff06f          	j	41011064 <trap_handler_s__clear_highest_priority_interrupt>
    41011170:	ef5ff06f          	j	41011064 <trap_handler_s__clear_highest_priority_interrupt>

0000000041011174 <trap_handler_s__test_failed>:
    41011174:	00f00f9b          	addiw	x31,x0,15
    41011178:	01cf9f93          	slli	x31,x31,0x1c
    4101117c:	002f8f93          	addi	x31,x31,2
    41011180:	00000073          	ecall

0000000041011184 <trap_handler_s__trap_handler>:
    41011184:	142022f3          	csrr	x5,scause
    41011188:	fff0031b          	addiw	x6,x0,-1
    4101118c:	03f31313          	slli	x6,x6,0x3f
    41011190:	00537333          	and	x6,x6,x5
    41011194:	02030263          	beqz	x6,410111b8 <trap_handler_s__exception_path>

0000000041011198 <trap_handler_s__interrupt_handler>:
    41011198:	fff0031b          	addiw	x6,x0,-1
    4101119c:	03f31313          	slli	x6,x6,0x3f
    410111a0:	0062c2b3          	xor	x5,x5,x6
    410111a4:	00000317          	auipc	x6,0x0
    410111a8:	ed430313          	addi	x6,x6,-300 # 41011078 <trap_handler_s__trap_entry>
    410111ac:	00229293          	slli	x5,x5,0x2
    410111b0:	005302b3          	add	x5,x6,x5
    410111b4:	00028067          	jr	x5 # 2000 <hart_context>

00000000410111b8 <trap_handler_s__exception_path>:
    410111b8:	14021273          	csrrw	x4,sscratch,x4
    410111bc:	00000297          	auipc	x5,0x0
    410111c0:	0cc28293          	addi	x5,x5,204 # 41011288 <trap_handler_s__trap_panic>
    410111c4:	10529073          	csrw	stvec,x5
    410111c8:	0040006f          	j	410111cc <trap_handler_s__excp_entry>

00000000410111cc <trap_handler_s__excp_entry>:
    410111cc:	14202373          	csrr	x6,scause
    410111d0:	00800293          	li	x5,8
    410111d4:	00534863          	blt	x6,x5,410111e4 <trap_handler_s__check_exception_label>
    410111d8:	00b00293          	li	x5,11
    410111dc:	0062c463          	blt	x5,x6,410111e4 <trap_handler_s__check_exception_label>
    410111e0:	0a80006f          	j	41011288 <trap_handler_s__trap_panic>

00000000410111e4 <trap_handler_s__check_exception_label>:
    410111e4:	04623c23          	sd	x6,88(x4) # 58 <XLEN+0x18>
    410111e8:	141022f3          	csrr	x5,sepc
    410111ec:	02523423          	sd	x5,40(x4) # 28 <SECURE_ACCESS_PROBABILITY+0xa>
    410111f0:	01820283          	lb	x5,24(x4) # 18 <STORE_GUEST_PAGE_FAULT+0x1>
    410111f4:	00029863          	bnez	x5,41011204 <trap_handler_s__check_excp>
    410111f8:	00128293          	addi	x5,x5,1
    410111fc:	00520c23          	sb	x5,24(x4) # 18 <STORE_GUEST_PAGE_FAULT+0x1>
    41011200:	05c0006f          	j	4101125c <trap_handler_s__ecall_from_machine>

0000000041011204 <trap_handler_s__check_excp>:
    41011204:	06823283          	ld	x5,104(x4) # 68 <XLEN+0x28>
    41011208:	06023423          	sd	x0,104(x4) # 68 <XLEN+0x28>
    4101120c:	00028663          	beqz	x5,41011218 <trap_handler_s__skip_mode_check>
    41011210:	00300393          	li	x7,3
    41011214:	f67290e3          	bne	x5,x7,41011174 <trap_handler_s__test_failed>

0000000041011218 <trap_handler_s__skip_mode_check>:
    41011218:	05023283          	ld	x5,80(x4) # 50 <XLEN+0x10>
    4101121c:	04023823          	sd	x0,80(x4) # 50 <XLEN+0x10>
    41011220:	f4531ae3          	bne	x6,x5,41011174 <trap_handler_s__test_failed>
    41011224:	03823283          	ld	x5,56(x4) # 38 <SECURE_ACCESS_PROBABILITY+0x1a>
    41011228:	02023c23          	sd	x0,56(x4) # 38 <SECURE_ACCESS_PROBABILITY+0x1a>
    4101122c:	02029663          	bnez	x5,41011258 <trap_handler_s__skip_nonzero_tval_check>
    41011230:	02023303          	ld	x6,32(x4) # 20 <SECURE_ACCESS_PROBABILITY+0x2>
    41011234:	02023023          	sd	x0,32(x4) # 20 <SECURE_ACCESS_PROBABILITY+0x2>
    41011238:	02823283          	ld	x5,40(x4) # 28 <SECURE_ACCESS_PROBABILITY+0xa>
    4101123c:	02023423          	sd	x0,40(x4) # 28 <SECURE_ACCESS_PROBABILITY+0xa>
    41011240:	f2531ae3          	bne	x6,x5,41011174 <trap_handler_s__test_failed>
    41011244:	04023283          	ld	x5,64(x4) # 40 <XLEN>
    41011248:	04023023          	sd	x0,64(x4) # 40 <XLEN>
    4101124c:	00028663          	beqz	x5,41011258 <trap_handler_s__skip_nonzero_tval_check>

0000000041011250 <trap_handler_s__nonzero_tval_check>:
    41011250:	14302373          	csrr	x6,stval
    41011254:	f25310e3          	bne	x6,x5,41011174 <trap_handler_s__test_failed>

0000000041011258 <trap_handler_s__skip_nonzero_tval_check>:
    41011258:	0040006f          	j	4101125c <trap_handler_s__ecall_from_machine>

000000004101125c <trap_handler_s__ecall_from_machine>:
    4101125c:	03023283          	ld	x5,48(x4) # 30 <SECURE_ACCESS_PROBABILITY+0x12>
    41011260:	02023823          	sd	x0,48(x4) # 30 <SECURE_ACCESS_PROBABILITY+0x12>
    41011264:	07023303          	ld	x6,112(x4) # 70 <XLEN+0x30>
    41011268:	06023823          	sd	x0,112(x4) # 70 <XLEN+0x30>
    4101126c:	00031463          	bnez	x6,41011274 <trap_handler_s__skip_xepc_write>
    41011270:	14129073          	csrw	sepc,x5

0000000041011274 <trap_handler_s__skip_xepc_write>:
    41011274:	00000317          	auipc	x6,0x0
    41011278:	e0430313          	addi	x6,x6,-508 # 41011078 <trap_handler_s__trap_entry>
    4101127c:	10531073          	csrw	stvec,x6
    41011280:	14021273          	csrrw	x4,sscratch,x4
    41011284:	10200073          	sret

0000000041011288 <trap_handler_s__trap_panic>:
    41011288:	00000193          	li	x3,0
    4101128c:	00f00f9b          	addiw	x31,x0,15
    41011290:	01cf9f93          	slli	x31,x31,0x1c
    41011294:	002f8f93          	addi	x31,x31,2
    41011298:	00000073          	ecall

Disassembly of section .code:

0000000041015080 <passed>:
    41015080:	00f00f9b          	addiw	x31,x0,15
    41015084:	01cf9f93          	slli	x31,x31,0x1c
    41015088:	001f8f93          	addi	x31,x31,1
    4101508c:	00000073          	ecall

0000000041015090 <failed>:
    41015090:	00f00f9b          	addiw	x31,x0,15
    41015094:	01cf9f93          	slli	x31,x31,0x1c
    41015098:	002f8f93          	addi	x31,x31,2
    4101509c:	00000073          	ecall

00000000410150a0 <end_test>:
    410150a0:	00f00f9b          	addiw	x31,x0,15
    410150a4:	01cf9f93          	slli	x31,x31,0x1c
    410150a8:	003f8f93          	addi	x31,x31,3
    410150ac:	00000073          	ecall

00000000410150b0 <test_setup>:
    410150b0:	00f00f9b          	addiw	x31,x0,15
    410150b4:	01cf9f93          	slli	x31,x31,0x1c
    410150b8:	001f8f93          	addi	x31,x31,1
    410150bc:	00000073          	ecall

00000000410150c0 <SID_ZICBO_001>:
    410150c0:	00047137          	lui	x2,0x47
    410150c4:	d591011b          	addiw	x2,x2,-679 # 46d59 <pma_region_0_size+0x6d59>
    410150c8:	00d11113          	slli	x2,x2,0xd
    410150cc:	0001bfb7          	lui	x31,0x1b
    410150d0:	3dff8f9b          	addiw	x31,x31,991 # 1b3df <SID_ZICBO_017_stack+0x83df>
    410150d4:	00ff9f93          	slli	x31,x31,0xf
    410150d8:	0b8f8f93          	addi	x31,x31,184
    410150dc:	00100f13          	li	x30,1
    410150e0:	01efb023          	sd	x30,0(x31)
    410150e4:	000f0fb7          	lui	x31,0xf0
    410150e8:	001f8f9b          	addiw	x31,x31,1 # f0001 <mem0+0x5c001>
    410150ec:	00cf9f93          	slli	x31,x31,0xc
    410150f0:	005f8f93          	addi	x31,x31,5
    410150f4:	00000073          	ecall
    410150f8:	00713023          	sd	x7,0(x2)
    410150fc:	00065137          	lui	x2,0x65
    41015100:	000012b7          	lui	x5,0x1
    41015104:	00510133          	add	x2,x2,x5
    41015108:	ff017113          	andi	x2,x2,-16
    4101510c:	03000393          	li	x7,48
    41015110:	0001bfb7          	lui	x31,0x1b
    41015114:	3dff8f9b          	addiw	x31,x31,991 # 1b3df <SID_ZICBO_017_stack+0x83df>
    41015118:	00ff9f93          	slli	x31,x31,0xf
    4101511c:	0b8f8f93          	addi	x31,x31,184
    41015120:	00200f13          	li	x30,2
    41015124:	01efb023          	sd	x30,0(x31)
    41015128:	000f0fb7          	lui	x31,0xf0
    4101512c:	001f8f9b          	addiw	x31,x31,1 # f0001 <mem0+0x5c001>
    41015130:	00cf9f93          	slli	x31,x31,0xc
    41015134:	005f8f93          	addi	x31,x31,5
    41015138:	00000073          	ecall
    4101513c:	00002237          	lui	x4,0x2
    41015140:	00200e13          	li	x28,2
    41015144:	05c23823          	sd	x28,80(x4) # 2050 <check_excp_expected_cause>
    41015148:	00000e17          	auipc	x28,0x0
    4101514c:	054e0e13          	addi	x28,x28,84 # 4101519c <fault_label_0>
    41015150:	03c23023          	sd	x28,32(x4) # 20 <SECURE_ACCESS_PROBABILITY+0x2>
    41015154:	00000e13          	li	x28,0
    41015158:	05c23023          	sd	x28,64(x4) # 40 <XLEN>
    4101515c:	00000e13          	li	x28,0
    41015160:	05c23423          	sd	x28,72(x4) # 48 <XLEN+0x8>
    41015164:	00000e17          	auipc	x28,0x0
    41015168:	054e0e13          	addi	x28,x28,84 # 410151b8 <excp_return_label_0>
    4101516c:	03c23823          	sd	x28,48(x4) # 30 <SECURE_ACCESS_PROBABILITY+0x12>
    41015170:	00000e13          	li	x28,0
    41015174:	03c23c23          	sd	x28,56(x4) # 38 <SECURE_ACCESS_PROBABILITY+0x1a>
    41015178:	00000e13          	li	x28,0
    4101517c:	07c23023          	sd	x28,96(x4) # 60 <XLEN+0x20>
    41015180:	00000e13          	li	x28,0
    41015184:	07c23423          	sd	x28,104(x4) # 68 <XLEN+0x28>
    41015188:	00000e13          	li	x28,0
    4101518c:	07c23823          	sd	x28,112(x4) # 70 <XLEN+0x30>
    41015190:	000943b7          	lui	x7,0x94
    41015194:	00000f93          	li	x31,0
    41015198:	01f384b3          	add	x9,x7,x31

000000004101519c <fault_label_0>:
    4101519c:	0004a00f          	cbo.inval	(x9)
    410151a0:	0001b837          	lui	x16,0x1b
    410151a4:	3df8081b          	addiw	x16,x16,991 # 1b3df <SID_ZICBO_017_stack+0x83df>
    410151a8:	00f81813          	slli	x16,x16,0xf
    410151ac:	00880813          	addi	x16,x16,8
    410151b0:	00083583          	ld	x11,0(x16)
    410151b4:	00058067          	jr	x11

00000000410151b8 <excp_return_label_0>:
    410151b8:	00047137          	lui	x2,0x47
    410151bc:	d591011b          	addiw	x2,x2,-679 # 46d59 <pma_region_0_size+0x6d59>
    410151c0:	00d11113          	slli	x2,x2,0xd
    410151c4:	00013383          	ld	x7,0(x2)
    410151c8:	0001bfb7          	lui	x31,0x1b
    410151cc:	3dff8f9b          	addiw	x31,x31,991 # 1b3df <SID_ZICBO_017_stack+0x83df>
    410151d0:	00ff9f93          	slli	x31,x31,0xf
    410151d4:	0b8f8f93          	addi	x31,x31,184
    410151d8:	00300f13          	li	x30,3
    410151dc:	01efb023          	sd	x30,0(x31)
    410151e0:	000f0fb7          	lui	x31,0xf0
    410151e4:	001f8f9b          	addiw	x31,x31,1 # f0001 <mem0+0x5c001>
    410151e8:	00cf9f93          	slli	x31,x31,0xc
    410151ec:	005f8f93          	addi	x31,x31,5
    410151f0:	00000073          	ecall

00000000410151f4 <SID_ZICBO_001_passed>:
    410151f4:	00f00f9b          	addiw	x31,x0,15
    410151f8:	01cf9f93          	slli	x31,x31,0x1c
    410151fc:	001f8f93          	addi	x31,x31,1
    41015200:	00000073          	ecall

0000000041015204 <SID_ZICBO_002>:
    41015204:	00047137          	lui	x2,0x47
    41015208:	d591011b          	addiw	x2,x2,-679 # 46d59 <pma_region_0_size+0x6d59>
    4101520c:	00d11113          	slli	x2,x2,0xd
    41015210:	0001bfb7          	lui	x31,0x1b
    41015214:	3dff8f9b          	addiw	x31,x31,991 # 1b3df <SID_ZICBO_017_stack+0x83df>
    41015218:	00ff9f93          	slli	x31,x31,0xf
    4101521c:	0b8f8f93          	addi	x31,x31,184
    41015220:	00400f13          	li	x30,4
    41015224:	01efb023          	sd	x30,0(x31)
    41015228:	000f0fb7          	lui	x31,0xf0
    4101522c:	001f8f9b          	addiw	x31,x31,1 # f0001 <mem0+0x5c001>
    41015230:	00cf9f93          	slli	x31,x31,0xc
    41015234:	005f8f93          	addi	x31,x31,5
    41015238:	00000073          	ecall
    4101523c:	00713023          	sd	x7,0(x2)
    41015240:	00038137          	lui	x2,0x38
    41015244:	000012b7          	lui	x5,0x1
    41015248:	00510133          	add	x2,x2,x5
    4101524c:	ff017113          	andi	x2,x2,-16
    41015250:	03000393          	li	x7,48
    41015254:	0001bfb7          	lui	x31,0x1b
    41015258:	3dff8f9b          	addiw	x31,x31,991 # 1b3df <SID_ZICBO_017_stack+0x83df>
    4101525c:	00ff9f93          	slli	x31,x31,0xf
    41015260:	0c0f8f93          	addi	x31,x31,192
    41015264:	00500f13          	li	x30,5
    41015268:	01efb023          	sd	x30,0(x31)
    4101526c:	000f0fb7          	lui	x31,0xf0
    41015270:	001f8f9b          	addiw	x31,x31,1 # f0001 <mem0+0x5c001>
    41015274:	00cf9f93          	slli	x31,x31,0xc
    41015278:	006f8f93          	addi	x31,x31,6
    4101527c:	00000073          	ecall
    41015280:	00002237          	lui	x4,0x2
    41015284:	00200e13          	li	x28,2
    41015288:	05c23823          	sd	x28,80(x4) # 2050 <check_excp_expected_cause>
    4101528c:	00000e17          	auipc	x28,0x0
    41015290:	05ce0e13          	addi	x28,x28,92 # 410152e8 <fault_label_1>
    41015294:	03c23023          	sd	x28,32(x4) # 20 <SECURE_ACCESS_PROBABILITY+0x2>
    41015298:	00000e13          	li	x28,0
    4101529c:	05c23023          	sd	x28,64(x4) # 40 <XLEN>
    410152a0:	00000e13          	li	x28,0
    410152a4:	05c23423          	sd	x28,72(x4) # 48 <XLEN+0x8>
    410152a8:	00000e17          	auipc	x28,0x0
    410152ac:	05ce0e13          	addi	x28,x28,92 # 41015304 <excp_return_label_1>
    410152b0:	03c23823          	sd	x28,48(x4) # 30 <SECURE_ACCESS_PROBABILITY+0x12>
    410152b4:	00000e13          	li	x28,0
    410152b8:	03c23c23          	sd	x28,56(x4) # 38 <SECURE_ACCESS_PROBABILITY+0x1a>
    410152bc:	00000e13          	li	x28,0
    410152c0:	07c23023          	sd	x28,96(x4) # 60 <XLEN+0x20>
    410152c4:	00000e13          	li	x28,0
    410152c8:	07c23423          	sd	x28,104(x4) # 68 <XLEN+0x28>
    410152cc:	00000e13          	li	x28,0
    410152d0:	07c23823          	sd	x28,112(x4) # 70 <XLEN+0x30>
    410152d4:	003f8b37          	lui	x22,0x3f8
    410152d8:	17bb0b1b          	addiw	x22,x22,379 # 3f817b <mem17+0x1fe17b>
    410152dc:	010b1b13          	slli	x22,x22,0x10
    410152e0:	00000393          	li	x7,0
    410152e4:	007b0ab3          	add	x21,x22,x7

00000000410152e8 <fault_label_1>:
    410152e8:	000aa00f          	cbo.inval	(x21)
    410152ec:	0001bc37          	lui	x24,0x1b
    410152f0:	3dfc0c1b          	addiw	x24,x24,991 # 1b3df <SID_ZICBO_017_stack+0x83df>
    410152f4:	00fc1c13          	slli	x24,x24,0xf
    410152f8:	008c0c13          	addi	x24,x24,8
    410152fc:	000c3f03          	ld	x30,0(x24)
    41015300:	000f0067          	jr	x30

0000000041015304 <excp_return_label_1>:
    41015304:	00047137          	lui	x2,0x47
    41015308:	d591011b          	addiw	x2,x2,-679 # 46d59 <pma_region_0_size+0x6d59>
    4101530c:	00d11113          	slli	x2,x2,0xd
    41015310:	00013383          	ld	x7,0(x2)
    41015314:	0001bfb7          	lui	x31,0x1b
    41015318:	3dff8f9b          	addiw	x31,x31,991 # 1b3df <SID_ZICBO_017_stack+0x83df>
    4101531c:	00ff9f93          	slli	x31,x31,0xf
    41015320:	0b8f8f93          	addi	x31,x31,184
    41015324:	00600f13          	li	x30,6
    41015328:	01efb023          	sd	x30,0(x31)
    4101532c:	000f0fb7          	lui	x31,0xf0
    41015330:	001f8f9b          	addiw	x31,x31,1 # f0001 <mem0+0x5c001>
    41015334:	00cf9f93          	slli	x31,x31,0xc
    41015338:	005f8f93          	addi	x31,x31,5
    4101533c:	00000073          	ecall

0000000041015340 <SID_ZICBO_002_passed>:
    41015340:	00f00f9b          	addiw	x31,x0,15
    41015344:	01cf9f93          	slli	x31,x31,0x1c
    41015348:	001f8f93          	addi	x31,x31,1
    4101534c:	00000073          	ecall

0000000041015350 <SID_ZICBO_003>:
    41015350:	00047137          	lui	x2,0x47
    41015354:	d591011b          	addiw	x2,x2,-679 # 46d59 <pma_region_0_size+0x6d59>
    41015358:	00d11113          	slli	x2,x2,0xd
    4101535c:	0001bfb7          	lui	x31,0x1b
    41015360:	3dff8f9b          	addiw	x31,x31,991 # 1b3df <SID_ZICBO_017_stack+0x83df>
    41015364:	00ff9f93          	slli	x31,x31,0xf
    41015368:	0b8f8f93          	addi	x31,x31,184
    4101536c:	00100f13          	li	x30,1
    41015370:	01efb023          	sd	x30,0(x31)
    41015374:	000f0fb7          	lui	x31,0xf0
    41015378:	001f8f9b          	addiw	x31,x31,1 # f0001 <mem0+0x5c001>
    4101537c:	00cf9f93          	slli	x31,x31,0xc
    41015380:	005f8f93          	addi	x31,x31,5
    41015384:	00000073          	ecall
    41015388:	00713023          	sd	x7,0(x2)
    4101538c:	40e6b137          	lui	x2,0x40e6b
    41015390:	000012b7          	lui	x5,0x1
    41015394:	00510133          	add	x2,x2,x5
    41015398:	ff017113          	andi	x2,x2,-16
    4101539c:	04000393          	li	x7,64
    410153a0:	0001bfb7          	lui	x31,0x1b
    410153a4:	3dff8f9b          	addiw	x31,x31,991 # 1b3df <SID_ZICBO_017_stack+0x83df>
    410153a8:	00ff9f93          	slli	x31,x31,0xf
    410153ac:	0b8f8f93          	addi	x31,x31,184
    410153b0:	00200f13          	li	x30,2
    410153b4:	01efb023          	sd	x30,0(x31)
    410153b8:	000f0fb7          	lui	x31,0xf0
    410153bc:	001f8f9b          	addiw	x31,x31,1 # f0001 <mem0+0x5c001>
    410153c0:	00cf9f93          	slli	x31,x31,0xc
    410153c4:	005f8f93          	addi	x31,x31,5
    410153c8:	00000073          	ecall
    410153cc:	00002237          	lui	x4,0x2
    410153d0:	00200e13          	li	x28,2
    410153d4:	05c23823          	sd	x28,80(x4) # 2050 <check_excp_expected_cause>
    410153d8:	00000e17          	auipc	x28,0x0
    410153dc:	054e0e13          	addi	x28,x28,84 # 4101542c <fault_label_2>
    410153e0:	03c23023          	sd	x28,32(x4) # 20 <SECURE_ACCESS_PROBABILITY+0x2>
    410153e4:	00000e13          	li	x28,0
    410153e8:	05c23023          	sd	x28,64(x4) # 40 <XLEN>
    410153ec:	00000e13          	li	x28,0
    410153f0:	05c23423          	sd	x28,72(x4) # 48 <XLEN+0x8>
    410153f4:	00000e17          	auipc	x28,0x0
    410153f8:	054e0e13          	addi	x28,x28,84 # 41015448 <excp_return_label_2>
    410153fc:	03c23823          	sd	x28,48(x4) # 30 <SECURE_ACCESS_PROBABILITY+0x12>
    41015400:	00000e13          	li	x28,0
    41015404:	03c23c23          	sd	x28,56(x4) # 38 <SECURE_ACCESS_PROBABILITY+0x1a>
    41015408:	00000e13          	li	x28,0
    4101540c:	07c23023          	sd	x28,96(x4) # 60 <XLEN+0x20>
    41015410:	00000e13          	li	x28,0
    41015414:	07c23423          	sd	x28,104(x4) # 68 <XLEN+0x28>
    41015418:	00000e13          	li	x28,0
    4101541c:	07c23823          	sd	x28,112(x4) # 70 <XLEN+0x30>
    41015420:	089419b7          	lui	x19,0x8941
    41015424:	00000693          	li	x13,0
    41015428:	00d98533          	add	x10,x19,x13

000000004101542c <fault_label_2>:
    4101542c:	0015200f          	cbo.clean	(x10)
    41015430:	0001bcb7          	lui	x25,0x1b
    41015434:	3dfc8c9b          	addiw	x25,x25,991 # 1b3df <SID_ZICBO_017_stack+0x83df>
    41015438:	00fc9c93          	slli	x25,x25,0xf
    4101543c:	008c8c93          	addi	x25,x25,8
    41015440:	000cb303          	ld	x6,0(x25)
    41015444:	00030067          	jr	x6

0000000041015448 <excp_return_label_2>:
    41015448:	00002237          	lui	x4,0x2
    4101544c:	00200e13          	li	x28,2
    41015450:	05c23823          	sd	x28,80(x4) # 2050 <check_excp_expected_cause>
    41015454:	00000e17          	auipc	x28,0x0
    41015458:	054e0e13          	addi	x28,x28,84 # 410154a8 <fault_label_3>
    4101545c:	03c23023          	sd	x28,32(x4) # 20 <SECURE_ACCESS_PROBABILITY+0x2>
    41015460:	00000e13          	li	x28,0
    41015464:	05c23023          	sd	x28,64(x4) # 40 <XLEN>
    41015468:	00000e13          	li	x28,0
    4101546c:	05c23423          	sd	x28,72(x4) # 48 <XLEN+0x8>
    41015470:	00000e17          	auipc	x28,0x0
    41015474:	054e0e13          	addi	x28,x28,84 # 410154c4 <excp_return_label_3>
    41015478:	03c23823          	sd	x28,48(x4) # 30 <SECURE_ACCESS_PROBABILITY+0x12>
    4101547c:	00000e13          	li	x28,0
    41015480:	03c23c23          	sd	x28,56(x4) # 38 <SECURE_ACCESS_PROBABILITY+0x1a>
    41015484:	00000e13          	li	x28,0
    41015488:	07c23023          	sd	x28,96(x4) # 60 <XLEN+0x20>
    4101548c:	00000e13          	li	x28,0
    41015490:	07c23423          	sd	x28,104(x4) # 68 <XLEN+0x28>
    41015494:	00000e13          	li	x28,0
    41015498:	07c23823          	sd	x28,112(x4) # 70 <XLEN+0x30>
    4101549c:	08941bb7          	lui	x23,0x8941
    410154a0:	00000d13          	li	x26,0
    410154a4:	01ab89b3          	add	x19,x23,x26

00000000410154a8 <fault_label_3>:
    410154a8:	0029a00f          	cbo.flush	(x19)
    410154ac:	0001bd37          	lui	x26,0x1b
    410154b0:	3dfd0d1b          	addiw	x26,x26,991 # 1b3df <SID_ZICBO_017_stack+0x83df>
    410154b4:	00fd1d13          	slli	x26,x26,0xf
    410154b8:	008d0d13          	addi	x26,x26,8
    410154bc:	000d3983          	ld	x19,0(x26)
    410154c0:	00098067          	jr	x19 # 8941000 <mem2>

00000000410154c4 <excp_return_label_3>:
    410154c4:	00047137          	lui	x2,0x47
    410154c8:	d591011b          	addiw	x2,x2,-679 # 46d59 <pma_region_0_size+0x6d59>
    410154cc:	00d11113          	slli	x2,x2,0xd
    410154d0:	00013383          	ld	x7,0(x2)
    410154d4:	0001bfb7          	lui	x31,0x1b
    410154d8:	3dff8f9b          	addiw	x31,x31,991 # 1b3df <SID_ZICBO_017_stack+0x83df>
    410154dc:	00ff9f93          	slli	x31,x31,0xf
    410154e0:	0b8f8f93          	addi	x31,x31,184
    410154e4:	00300f13          	li	x30,3
    410154e8:	01efb023          	sd	x30,0(x31)
    410154ec:	000f0fb7          	lui	x31,0xf0
    410154f0:	001f8f9b          	addiw	x31,x31,1 # f0001 <mem0+0x5c001>
    410154f4:	00cf9f93          	slli	x31,x31,0xc
    410154f8:	005f8f93          	addi	x31,x31,5
    410154fc:	00000073          	ecall

0000000041015500 <SID_ZICBO_003_passed>:
    41015500:	00f00f9b          	addiw	x31,x0,15
    41015504:	01cf9f93          	slli	x31,x31,0x1c
    41015508:	001f8f93          	addi	x31,x31,1
    4101550c:	00000073          	ecall

0000000041015510 <SID_ZICBO_004>:
    41015510:	00047137          	lui	x2,0x47
    41015514:	d591011b          	addiw	x2,x2,-679 # 46d59 <pma_region_0_size+0x6d59>
    41015518:	00d11113          	slli	x2,x2,0xd
    4101551c:	0001bfb7          	lui	x31,0x1b
    41015520:	3dff8f9b          	addiw	x31,x31,991 # 1b3df <SID_ZICBO_017_stack+0x83df>
    41015524:	00ff9f93          	slli	x31,x31,0xf
    41015528:	0b8f8f93          	addi	x31,x31,184
    4101552c:	00400f13          	li	x30,4
    41015530:	01efb023          	sd	x30,0(x31)
    41015534:	000f0fb7          	lui	x31,0xf0
    41015538:	001f8f9b          	addiw	x31,x31,1 # f0001 <mem0+0x5c001>
    4101553c:	00cf9f93          	slli	x31,x31,0xc
    41015540:	005f8f93          	addi	x31,x31,5
    41015544:	00000073          	ecall
    41015548:	00713023          	sd	x7,0(x2)
    4101554c:	0006d137          	lui	x2,0x6d
    41015550:	f7b1011b          	addiw	x2,x2,-133 # 6cf7b <SID_ZICBO_001_stack+0x7f7b>
    41015554:	00d11113          	slli	x2,x2,0xd
    41015558:	000012b7          	lui	x5,0x1
    4101555c:	00510133          	add	x2,x2,x5
    41015560:	ff017113          	andi	x2,x2,-16
    41015564:	04000393          	li	x7,64
    41015568:	0001bfb7          	lui	x31,0x1b
    4101556c:	3dff8f9b          	addiw	x31,x31,991 # 1b3df <SID_ZICBO_017_stack+0x83df>
    41015570:	00ff9f93          	slli	x31,x31,0xf
    41015574:	0c0f8f93          	addi	x31,x31,192
    41015578:	00500f13          	li	x30,5
    4101557c:	01efb023          	sd	x30,0(x31)
    41015580:	000f0fb7          	lui	x31,0xf0
    41015584:	001f8f9b          	addiw	x31,x31,1 # f0001 <mem0+0x5c001>
    41015588:	00cf9f93          	slli	x31,x31,0xc
    4101558c:	006f8f93          	addi	x31,x31,6
    41015590:	00000073          	ecall
    41015594:	00002237          	lui	x4,0x2
    41015598:	00200e13          	li	x28,2
    4101559c:	05c23823          	sd	x28,80(x4) # 2050 <check_excp_expected_cause>
    410155a0:	00000e17          	auipc	x28,0x0
    410155a4:	05ce0e13          	addi	x28,x28,92 # 410155fc <fault_label_4>
    410155a8:	03c23023          	sd	x28,32(x4) # 20 <SECURE_ACCESS_PROBABILITY+0x2>
    410155ac:	00000e13          	li	x28,0
    410155b0:	05c23023          	sd	x28,64(x4) # 40 <XLEN>
    410155b4:	00000e13          	li	x28,0
    410155b8:	05c23423          	sd	x28,72(x4) # 48 <XLEN+0x8>
    410155bc:	00000e17          	auipc	x28,0x0
    410155c0:	05ce0e13          	addi	x28,x28,92 # 41015618 <excp_return_label_4>
    410155c4:	03c23823          	sd	x28,48(x4) # 30 <SECURE_ACCESS_PROBABILITY+0x12>
    410155c8:	00000e13          	li	x28,0
    410155cc:	03c23c23          	sd	x28,56(x4) # 38 <SECURE_ACCESS_PROBABILITY+0x1a>
    410155d0:	00000e13          	li	x28,0
    410155d4:	07c23023          	sd	x28,96(x4) # 60 <XLEN+0x20>
    410155d8:	00000e13          	li	x28,0
    410155dc:	07c23423          	sd	x28,104(x4) # 68 <XLEN+0x28>
    410155e0:	00000e13          	li	x28,0
    410155e4:	07c23823          	sd	x28,112(x4) # 70 <XLEN+0x30>
    410155e8:	ff287337          	lui	x6,0xff287
    410155ec:	bef3031b          	addiw	x6,x6,-1041 # ffffffffff286bef <mem3+0x35e42cabef>
    410155f0:	00e31313          	slli	x6,x6,0xe
    410155f4:	00000f13          	li	x30,0
    410155f8:	01e30b33          	add	x22,x6,x30

00000000410155fc <fault_label_4>:
    410155fc:	001b200f          	cbo.clean	(x22)
    41015600:	0001b837          	lui	x16,0x1b
    41015604:	3df8081b          	addiw	x16,x16,991 # 1b3df <SID_ZICBO_017_stack+0x83df>
    41015608:	00f81813          	slli	x16,x16,0xf
    4101560c:	00880813          	addi	x16,x16,8
    41015610:	00083f03          	ld	x30,0(x16)
    41015614:	000f0067          	jr	x30

0000000041015618 <excp_return_label_4>:
    41015618:	00002237          	lui	x4,0x2
    4101561c:	00200e13          	li	x28,2
    41015620:	05c23823          	sd	x28,80(x4) # 2050 <check_excp_expected_cause>
    41015624:	00000e17          	auipc	x28,0x0
    41015628:	05ce0e13          	addi	x28,x28,92 # 41015680 <fault_label_5>
    4101562c:	03c23023          	sd	x28,32(x4) # 20 <SECURE_ACCESS_PROBABILITY+0x2>
    41015630:	00000e13          	li	x28,0
    41015634:	05c23023          	sd	x28,64(x4) # 40 <XLEN>
    41015638:	00000e13          	li	x28,0
    4101563c:	05c23423          	sd	x28,72(x4) # 48 <XLEN+0x8>
    41015640:	00000e17          	auipc	x28,0x0
    41015644:	05ce0e13          	addi	x28,x28,92 # 4101569c <excp_return_label_5>
    41015648:	03c23823          	sd	x28,48(x4) # 30 <SECURE_ACCESS_PROBABILITY+0x12>
    4101564c:	00000e13          	li	x28,0
    41015650:	03c23c23          	sd	x28,56(x4) # 38 <SECURE_ACCESS_PROBABILITY+0x1a>
    41015654:	00000e13          	li	x28,0
    41015658:	07c23023          	sd	x28,96(x4) # 60 <XLEN+0x20>
    4101565c:	00000e13          	li	x28,0
    41015660:	07c23423          	sd	x28,104(x4) # 68 <XLEN+0x28>
    41015664:	00000e13          	li	x28,0
    41015668:	07c23823          	sd	x28,112(x4) # 70 <XLEN+0x30>
    4101566c:	ff287f37          	lui	x30,0xff287
    41015670:	beff0f1b          	addiw	x30,x30,-1041 # ffffffffff286bef <mem3+0x35e42cabef>
    41015674:	00ef1f13          	slli	x30,x30,0xe
    41015678:	00000793          	li	x15,0
    4101567c:	00ff0eb3          	add	x29,x30,x15

0000000041015680 <fault_label_5>:
    41015680:	002ea00f          	cbo.flush	(x29)
    41015684:	0001b5b7          	lui	x11,0x1b
    41015688:	3df5859b          	addiw	x11,x11,991 # 1b3df <SID_ZICBO_017_stack+0x83df>
    4101568c:	00f59593          	slli	x11,x11,0xf
    41015690:	00858593          	addi	x11,x11,8
    41015694:	0005ba83          	ld	x21,0(x11)
    41015698:	000a8067          	jr	x21

000000004101569c <excp_return_label_5>:
    4101569c:	00047137          	lui	x2,0x47
    410156a0:	d591011b          	addiw	x2,x2,-679 # 46d59 <pma_region_0_size+0x6d59>
    410156a4:	00d11113          	slli	x2,x2,0xd
    410156a8:	00013383          	ld	x7,0(x2)
    410156ac:	0001bfb7          	lui	x31,0x1b
    410156b0:	3dff8f9b          	addiw	x31,x31,991 # 1b3df <SID_ZICBO_017_stack+0x83df>
    410156b4:	00ff9f93          	slli	x31,x31,0xf
    410156b8:	0b8f8f93          	addi	x31,x31,184
    410156bc:	00600f13          	li	x30,6
    410156c0:	01efb023          	sd	x30,0(x31)
    410156c4:	000f0fb7          	lui	x31,0xf0
    410156c8:	001f8f9b          	addiw	x31,x31,1 # f0001 <mem0+0x5c001>
    410156cc:	00cf9f93          	slli	x31,x31,0xc
    410156d0:	005f8f93          	addi	x31,x31,5
    410156d4:	00000073          	ecall

00000000410156d8 <SID_ZICBO_004_passed>:
    410156d8:	00f00f9b          	addiw	x31,x0,15
    410156dc:	01cf9f93          	slli	x31,x31,0x1c
    410156e0:	001f8f93          	addi	x31,x31,1
    410156e4:	00000073          	ecall

00000000410156e8 <SID_ZICBO_005>:
    410156e8:	00047137          	lui	x2,0x47
    410156ec:	d591011b          	addiw	x2,x2,-679 # 46d59 <pma_region_0_size+0x6d59>
    410156f0:	00d11113          	slli	x2,x2,0xd
    410156f4:	0001bfb7          	lui	x31,0x1b
    410156f8:	3dff8f9b          	addiw	x31,x31,991 # 1b3df <SID_ZICBO_017_stack+0x83df>
    410156fc:	00ff9f93          	slli	x31,x31,0xf
    41015700:	0b8f8f93          	addi	x31,x31,184
    41015704:	00100f13          	li	x30,1
    41015708:	01efb023          	sd	x30,0(x31)
    4101570c:	000f0fb7          	lui	x31,0xf0
    41015710:	001f8f9b          	addiw	x31,x31,1 # f0001 <mem0+0x5c001>
    41015714:	00cf9f93          	slli	x31,x31,0xc
    41015718:	005f8f93          	addi	x31,x31,5
    4101571c:	00000073          	ecall
    41015720:	00713023          	sd	x7,0(x2)
    41015724:	5780c137          	lui	x2,0x5780c
    41015728:	000012b7          	lui	x5,0x1
    4101572c:	00510133          	add	x2,x2,x5
    41015730:	ff017113          	andi	x2,x2,-16
    41015734:	08000393          	li	x7,128
    41015738:	0001bfb7          	lui	x31,0x1b
    4101573c:	3dff8f9b          	addiw	x31,x31,991 # 1b3df <SID_ZICBO_017_stack+0x83df>
    41015740:	00ff9f93          	slli	x31,x31,0xf
    41015744:	0b8f8f93          	addi	x31,x31,184
    41015748:	00200f13          	li	x30,2
    4101574c:	01efb023          	sd	x30,0(x31)
    41015750:	000f0fb7          	lui	x31,0xf0
    41015754:	001f8f9b          	addiw	x31,x31,1 # f0001 <mem0+0x5c001>
    41015758:	00cf9f93          	slli	x31,x31,0xc
    4101575c:	005f8f93          	addi	x31,x31,5
    41015760:	00000073          	ecall
    41015764:	00002237          	lui	x4,0x2
    41015768:	00200e13          	li	x28,2
    4101576c:	05c23823          	sd	x28,80(x4) # 2050 <check_excp_expected_cause>
    41015770:	00000e17          	auipc	x28,0x0
    41015774:	054e0e13          	addi	x28,x28,84 # 410157c4 <fault_label_6>
    41015778:	03c23023          	sd	x28,32(x4) # 20 <SECURE_ACCESS_PROBABILITY+0x2>
    4101577c:	00000e13          	li	x28,0
    41015780:	05c23023          	sd	x28,64(x4) # 40 <XLEN>
    41015784:	00000e13          	li	x28,0
    41015788:	05c23423          	sd	x28,72(x4) # 48 <XLEN+0x8>
    4101578c:	00000e17          	auipc	x28,0x0
    41015790:	054e0e13          	addi	x28,x28,84 # 410157e0 <excp_return_label_6>
    41015794:	03c23823          	sd	x28,48(x4) # 30 <SECURE_ACCESS_PROBABILITY+0x12>
    41015798:	00000e13          	li	x28,0
    4101579c:	03c23c23          	sd	x28,56(x4) # 38 <SECURE_ACCESS_PROBABILITY+0x1a>
    410157a0:	00000e13          	li	x28,0
    410157a4:	07c23023          	sd	x28,96(x4) # 60 <XLEN+0x20>
    410157a8:	00000e13          	li	x28,0
    410157ac:	07c23423          	sd	x28,104(x4) # 68 <XLEN+0x28>
    410157b0:	00000e13          	li	x28,0
    410157b4:	07c23823          	sd	x28,112(x4) # 70 <XLEN+0x30>
    410157b8:	00028337          	lui	x6,0x28
    410157bc:	00000413          	li	x8,0
    410157c0:	008304b3          	add	x9,x6,x8

00000000410157c4 <fault_label_6>:
    410157c4:	0044a00f          	cbo.zero	(x9)
    410157c8:	0001bf37          	lui	x30,0x1b
    410157cc:	3dff0f1b          	addiw	x30,x30,991 # 1b3df <SID_ZICBO_017_stack+0x83df>
    410157d0:	00ff1f13          	slli	x30,x30,0xf
    410157d4:	008f0f13          	addi	x30,x30,8
    410157d8:	000f3d83          	ld	x27,0(x30)
    410157dc:	000d8067          	jr	x27

00000000410157e0 <excp_return_label_6>:
    410157e0:	00047137          	lui	x2,0x47
    410157e4:	d591011b          	addiw	x2,x2,-679 # 46d59 <pma_region_0_size+0x6d59>
    410157e8:	00d11113          	slli	x2,x2,0xd
    410157ec:	00013383          	ld	x7,0(x2)
    410157f0:	0001bfb7          	lui	x31,0x1b
    410157f4:	3dff8f9b          	addiw	x31,x31,991 # 1b3df <SID_ZICBO_017_stack+0x83df>
    410157f8:	00ff9f93          	slli	x31,x31,0xf
    410157fc:	0b8f8f93          	addi	x31,x31,184
    41015800:	00300f13          	li	x30,3
    41015804:	01efb023          	sd	x30,0(x31)
    41015808:	000f0fb7          	lui	x31,0xf0
    4101580c:	001f8f9b          	addiw	x31,x31,1 # f0001 <mem0+0x5c001>
    41015810:	00cf9f93          	slli	x31,x31,0xc
    41015814:	005f8f93          	addi	x31,x31,5
    41015818:	00000073          	ecall

000000004101581c <SID_ZICBO_005_passed>:
    4101581c:	00f00f9b          	addiw	x31,x0,15
    41015820:	01cf9f93          	slli	x31,x31,0x1c
    41015824:	001f8f93          	addi	x31,x31,1
    41015828:	00000073          	ecall

000000004101582c <SID_ZICBO_006>:
    4101582c:	00047137          	lui	x2,0x47
    41015830:	d591011b          	addiw	x2,x2,-679 # 46d59 <pma_region_0_size+0x6d59>
    41015834:	00d11113          	slli	x2,x2,0xd
    41015838:	0001bfb7          	lui	x31,0x1b
    4101583c:	3dff8f9b          	addiw	x31,x31,991 # 1b3df <SID_ZICBO_017_stack+0x83df>
    41015840:	00ff9f93          	slli	x31,x31,0xf
    41015844:	0b8f8f93          	addi	x31,x31,184
    41015848:	00400f13          	li	x30,4
    4101584c:	01efb023          	sd	x30,0(x31)
    41015850:	000f0fb7          	lui	x31,0xf0
    41015854:	001f8f9b          	addiw	x31,x31,1 # f0001 <mem0+0x5c001>
    41015858:	00cf9f93          	slli	x31,x31,0xc
    4101585c:	005f8f93          	addi	x31,x31,5
    41015860:	00000073          	ecall
    41015864:	00713023          	sd	x7,0(x2)
    41015868:	01fc1137          	lui	x2,0x1fc1
    4101586c:	bd71011b          	addiw	x2,x2,-1065 # 1fc0bd7 <SID_ZICBO_015_stack+0x13c7bd7>
    41015870:	00d11113          	slli	x2,x2,0xd
    41015874:	000012b7          	lui	x5,0x1
    41015878:	00510133          	add	x2,x2,x5
    4101587c:	ff017113          	andi	x2,x2,-16
    41015880:	08000393          	li	x7,128
    41015884:	0001bfb7          	lui	x31,0x1b
    41015888:	3dff8f9b          	addiw	x31,x31,991 # 1b3df <SID_ZICBO_017_stack+0x83df>
    4101588c:	00ff9f93          	slli	x31,x31,0xf
    41015890:	0c0f8f93          	addi	x31,x31,192
    41015894:	00500f13          	li	x30,5
    41015898:	01efb023          	sd	x30,0(x31)
    4101589c:	000f0fb7          	lui	x31,0xf0
    410158a0:	001f8f9b          	addiw	x31,x31,1 # f0001 <mem0+0x5c001>
    410158a4:	00cf9f93          	slli	x31,x31,0xc
    410158a8:	006f8f93          	addi	x31,x31,6
    410158ac:	00000073          	ecall
    410158b0:	00002237          	lui	x4,0x2
    410158b4:	00200e13          	li	x28,2
    410158b8:	05c23823          	sd	x28,80(x4) # 2050 <check_excp_expected_cause>
    410158bc:	00000e17          	auipc	x28,0x0
    410158c0:	054e0e13          	addi	x28,x28,84 # 41015910 <fault_label_7>
    410158c4:	03c23023          	sd	x28,32(x4) # 20 <SECURE_ACCESS_PROBABILITY+0x2>
    410158c8:	00000e13          	li	x28,0
    410158cc:	05c23023          	sd	x28,64(x4) # 40 <XLEN>
    410158d0:	00000e13          	li	x28,0
    410158d4:	05c23423          	sd	x28,72(x4) # 48 <XLEN+0x8>
    410158d8:	00000e17          	auipc	x28,0x0
    410158dc:	054e0e13          	addi	x28,x28,84 # 4101592c <excp_return_label_7>
    410158e0:	03c23823          	sd	x28,48(x4) # 30 <SECURE_ACCESS_PROBABILITY+0x12>
    410158e4:	00000e13          	li	x28,0
    410158e8:	03c23c23          	sd	x28,56(x4) # 38 <SECURE_ACCESS_PROBABILITY+0x1a>
    410158ec:	00000e13          	li	x28,0
    410158f0:	07c23023          	sd	x28,96(x4) # 60 <XLEN+0x20>
    410158f4:	00000e13          	li	x28,0
    410158f8:	07c23423          	sd	x28,104(x4) # 68 <XLEN+0x28>
    410158fc:	00000e13          	li	x28,0
    41015900:	07c23823          	sd	x28,112(x4) # 70 <XLEN+0x30>
    41015904:	0000d337          	lui	x6,0xd
    41015908:	00000a13          	li	x20,0
    4101590c:	01430f33          	add	x30,x6,x20

0000000041015910 <fault_label_7>:
    41015910:	004f200f          	cbo.zero	(x30)
    41015914:	0001b737          	lui	x14,0x1b
    41015918:	3df7071b          	addiw	x14,x14,991 # 1b3df <SID_ZICBO_017_stack+0x83df>
    4101591c:	00f71713          	slli	x14,x14,0xf
    41015920:	00870713          	addi	x14,x14,8
    41015924:	00073b83          	ld	x23,0(x14)
    41015928:	000b8067          	jr	x23 # 8941000 <mem2>

000000004101592c <excp_return_label_7>:
    4101592c:	00047137          	lui	x2,0x47
    41015930:	d591011b          	addiw	x2,x2,-679 # 46d59 <pma_region_0_size+0x6d59>
    41015934:	00d11113          	slli	x2,x2,0xd
    41015938:	00013383          	ld	x7,0(x2)
    4101593c:	0001bfb7          	lui	x31,0x1b
    41015940:	3dff8f9b          	addiw	x31,x31,991 # 1b3df <SID_ZICBO_017_stack+0x83df>
    41015944:	00ff9f93          	slli	x31,x31,0xf
    41015948:	0b8f8f93          	addi	x31,x31,184
    4101594c:	00600f13          	li	x30,6
    41015950:	01efb023          	sd	x30,0(x31)
    41015954:	000f0fb7          	lui	x31,0xf0
    41015958:	001f8f9b          	addiw	x31,x31,1 # f0001 <mem0+0x5c001>
    4101595c:	00cf9f93          	slli	x31,x31,0xc
    41015960:	005f8f93          	addi	x31,x31,5
    41015964:	00000073          	ecall

0000000041015968 <SID_ZICBO_006_passed>:
    41015968:	00f00f9b          	addiw	x31,x0,15
    4101596c:	01cf9f93          	slli	x31,x31,0x1c
    41015970:	001f8f93          	addi	x31,x31,1
    41015974:	00000073          	ecall

0000000041015978 <SID_ZICBO_013>:
    41015978:	00044137          	lui	x2,0x44
    4101597c:	92d1011b          	addiw	x2,x2,-1747 # 4392d <pma_region_0_size+0x392d>
    41015980:	00d11113          	slli	x2,x2,0xd
    41015984:	000012b7          	lui	x5,0x1
    41015988:	00510133          	add	x2,x2,x5
    4101598c:	ff017113          	andi	x2,x2,-16
    41015990:	1f59beb7          	lui	x29,0x1f59b
    41015994:	00000313          	li	x6,0
    41015998:	006e8bb3          	add	x23,x29,x6
    4101599c:	000be013          	prefetch.i	0(x23)
    410159a0:	1f59b737          	lui	x14,0x1f59b
    410159a4:	00000b93          	li	x23,0
    410159a8:	01770b33          	add	x22,x14,x23
    410159ac:	001b6013          	prefetch.r	0(x22)
    410159b0:	1f59bcb7          	lui	x25,0x1f59b
    410159b4:	00000e13          	li	x28,0
    410159b8:	01cc87b3          	add	x15,x25,x28
    410159bc:	0037e013          	prefetch.w	0(x15)

00000000410159c0 <SID_ZICBO_013_passed>:
    410159c0:	00f00f9b          	addiw	x31,x0,15
    410159c4:	01cf9f93          	slli	x31,x31,0x1c
    410159c8:	001f8f93          	addi	x31,x31,1
    410159cc:	00000073          	ecall

00000000410159d0 <SID_ZICBO_015>:
    410159d0:	00bf9137          	lui	x2,0xbf9
    410159d4:	000012b7          	lui	x5,0x1
    410159d8:	00510133          	add	x2,x2,x5
    410159dc:	ff017113          	andi	x2,x2,-16
    410159e0:	03f218b7          	lui	x17,0x3f21
    410159e4:	7e000693          	li	x13,2016
    410159e8:	00d88eb3          	add	x29,x17,x13
    410159ec:	000ee013          	prefetch.i	0(x29)

00000000410159f0 <SID_ZICBO_015_passed>:
    410159f0:	00f00f9b          	addiw	x31,x0,15
    410159f4:	01cf9f93          	slli	x31,x31,0x1c
    410159f8:	001f8f93          	addi	x31,x31,1
    410159fc:	00000073          	ecall

0000000041015a00 <SID_ZICBO_016>:
    41015a00:	00856137          	lui	x2,0x856
    41015a04:	000012b7          	lui	x5,0x1
    41015a08:	00510133          	add	x2,x2,x5
    41015a0c:	ff017113          	andi	x2,x2,-16
    41015a10:	0070b6b7          	lui	x13,0x70b
    41015a14:	54b6869b          	addiw	x13,x13,1355 # 70b54b <mem17+0x51154b>
    41015a18:	00c69693          	slli	x13,x13,0xc
    41015a1c:	00000f93          	li	x31,0
    41015a20:	01f68ab3          	add	x21,x13,x31
    41015a24:	001ae013          	prefetch.r	0(x21)
    41015a28:	0070b837          	lui	x16,0x70b
    41015a2c:	54b8081b          	addiw	x16,x16,1355 # 70b54b <mem17+0x51154b>
    41015a30:	00c81813          	slli	x16,x16,0xc
    41015a34:	7e000313          	li	x6,2016
    41015a38:	00680bb3          	add	x23,x16,x6
    41015a3c:	001be013          	prefetch.r	0(x23)
    41015a40:	0070be37          	lui	x28,0x70b
    41015a44:	54be0e1b          	addiw	x28,x28,1355 # 70b54b <mem17+0x51154b>
    41015a48:	00ce1e13          	slli	x28,x28,0xc
    41015a4c:	00000f93          	li	x31,0
    41015a50:	01fe0533          	add	x10,x28,x31
    41015a54:	00356013          	prefetch.w	0(x10)
    41015a58:	0070b737          	lui	x14,0x70b
    41015a5c:	54b7071b          	addiw	x14,x14,1355 # 70b54b <mem17+0x51154b>
    41015a60:	00c71713          	slli	x14,x14,0xc
    41015a64:	7e000313          	li	x6,2016
    41015a68:	00670533          	add	x10,x14,x6
    41015a6c:	00356013          	prefetch.w	0(x10)

0000000041015a70 <SID_ZICBO_016_passed>:
    41015a70:	00f00f9b          	addiw	x31,x0,15
    41015a74:	01cf9f93          	slli	x31,x31,0x1c
    41015a78:	001f8f93          	addi	x31,x31,1
    41015a7c:	00000073          	ecall

0000000041015a80 <SID_ZICBO_017>:
    41015a80:	00047137          	lui	x2,0x47
    41015a84:	d591011b          	addiw	x2,x2,-679 # 46d59 <pma_region_0_size+0x6d59>
    41015a88:	00d11113          	slli	x2,x2,0xd
    41015a8c:	0001bfb7          	lui	x31,0x1b
    41015a90:	3dff8f9b          	addiw	x31,x31,991 # 1b3df <SID_ZICBO_017_stack+0x83df>
    41015a94:	00ff9f93          	slli	x31,x31,0xf
    41015a98:	0b8f8f93          	addi	x31,x31,184
    41015a9c:	01300f13          	li	x30,19
    41015aa0:	01efb023          	sd	x30,0(x31)
    41015aa4:	000f0fb7          	lui	x31,0xf0
    41015aa8:	001f8f9b          	addiw	x31,x31,1 # f0001 <mem0+0x5c001>
    41015aac:	00cf9f93          	slli	x31,x31,0xc
    41015ab0:	005f8f93          	addi	x31,x31,5
    41015ab4:	00000073          	ecall
    41015ab8:	00713023          	sd	x7,0(x2)
    41015abc:	0001bfb7          	lui	x31,0x1b
    41015ac0:	3dff8f9b          	addiw	x31,x31,991 # 1b3df <SID_ZICBO_017_stack+0x83df>
    41015ac4:	00ff9f93          	slli	x31,x31,0xf
    41015ac8:	0b8f8f93          	addi	x31,x31,184
    41015acc:	00100f13          	li	x30,1
    41015ad0:	01efb023          	sd	x30,0(x31)
    41015ad4:	000f0fb7          	lui	x31,0xf0
    41015ad8:	001f8f9b          	addiw	x31,x31,1 # f0001 <mem0+0x5c001>
    41015adc:	00cf9f93          	slli	x31,x31,0xc
    41015ae0:	005f8f93          	addi	x31,x31,5
    41015ae4:	00000073          	ecall
    41015ae8:	00713423          	sd	x7,8(x2)
    41015aec:	0001bfb7          	lui	x31,0x1b
    41015af0:	3dff8f9b          	addiw	x31,x31,991 # 1b3df <SID_ZICBO_017_stack+0x83df>
    41015af4:	00ff9f93          	slli	x31,x31,0xf
    41015af8:	0b8f8f93          	addi	x31,x31,184
    41015afc:	00400f13          	li	x30,4
    41015b00:	01efb023          	sd	x30,0(x31)
    41015b04:	000f0fb7          	lui	x31,0xf0
    41015b08:	001f8f9b          	addiw	x31,x31,1 # f0001 <mem0+0x5c001>
    41015b0c:	00cf9f93          	slli	x31,x31,0xc
    41015b10:	005f8f93          	addi	x31,x31,5
    41015b14:	00000073          	ecall
    41015b18:	00713823          	sd	x7,16(x2)
    41015b1c:	00013137          	lui	x2,0x13
    41015b20:	000012b7          	lui	x5,0x1
    41015b24:	00510133          	add	x2,x2,x5
    41015b28:	ff017113          	andi	x2,x2,-16
    41015b2c:	08000393          	li	x7,128
    41015b30:	0001bfb7          	lui	x31,0x1b
    41015b34:	3dff8f9b          	addiw	x31,x31,991 # 1b3df <SID_ZICBO_017_stack+0x83df>
    41015b38:	00ff9f93          	slli	x31,x31,0xf
    41015b3c:	0b8f8f93          	addi	x31,x31,184
    41015b40:	01600f13          	li	x30,22
    41015b44:	01efb023          	sd	x30,0(x31)
    41015b48:	000f0fb7          	lui	x31,0xf0
    41015b4c:	001f8f9b          	addiw	x31,x31,1 # f0001 <mem0+0x5c001>
    41015b50:	00cf9f93          	slli	x31,x31,0xc
    41015b54:	005f8f93          	addi	x31,x31,5
    41015b58:	00000073          	ecall
    41015b5c:	08000393          	li	x7,128
    41015b60:	0001bfb7          	lui	x31,0x1b
    41015b64:	3dff8f9b          	addiw	x31,x31,991 # 1b3df <SID_ZICBO_017_stack+0x83df>
    41015b68:	00ff9f93          	slli	x31,x31,0xf
    41015b6c:	0c0f8f93          	addi	x31,x31,192
    41015b70:	01700f13          	li	x30,23
    41015b74:	01efb023          	sd	x30,0(x31)
    41015b78:	000f0fb7          	lui	x31,0xf0
    41015b7c:	001f8f9b          	addiw	x31,x31,1 # f0001 <mem0+0x5c001>
    41015b80:	00cf9f93          	slli	x31,x31,0xc
    41015b84:	006f8f93          	addi	x31,x31,6
    41015b88:	00000073          	ecall
    41015b8c:	08000393          	li	x7,128
    41015b90:	0001bfb7          	lui	x31,0x1b
    41015b94:	3dff8f9b          	addiw	x31,x31,991 # 1b3df <SID_ZICBO_017_stack+0x83df>
    41015b98:	00ff9f93          	slli	x31,x31,0xf
    41015b9c:	0c0f8f93          	addi	x31,x31,192
    41015ba0:	01800f13          	li	x30,24
    41015ba4:	01efb023          	sd	x30,0(x31)
    41015ba8:	000f0fb7          	lui	x31,0xf0
    41015bac:	001f8f9b          	addiw	x31,x31,1 # f0001 <mem0+0x5c001>
    41015bb0:	00cf9f93          	slli	x31,x31,0xc
    41015bb4:	006f8f93          	addi	x31,x31,6
    41015bb8:	00000073          	ecall
    41015bbc:	0017c837          	lui	x16,0x17c
    41015bc0:	5cf8081b          	addiw	x16,x16,1487 # 17c5cf <mem0+0xe85cf>
    41015bc4:	00c81813          	slli	x16,x16,0xc
    41015bc8:	00000513          	li	x10,0
    41015bcc:	00a803b3          	add	x7,x16,x10
    41015bd0:	0043a00f          	cbo.zero	(x7)
    41015bd4:	00047137          	lui	x2,0x47
    41015bd8:	d591011b          	addiw	x2,x2,-679 # 46d59 <pma_region_0_size+0x6d59>
    41015bdc:	00d11113          	slli	x2,x2,0xd
    41015be0:	00013383          	ld	x7,0(x2)
    41015be4:	0001bfb7          	lui	x31,0x1b
    41015be8:	3dff8f9b          	addiw	x31,x31,991 # 1b3df <SID_ZICBO_017_stack+0x83df>
    41015bec:	00ff9f93          	slli	x31,x31,0xf
    41015bf0:	0b8f8f93          	addi	x31,x31,184
    41015bf4:	01900f13          	li	x30,25
    41015bf8:	01efb023          	sd	x30,0(x31)
    41015bfc:	000f0fb7          	lui	x31,0xf0
    41015c00:	001f8f9b          	addiw	x31,x31,1 # f0001 <mem0+0x5c001>
    41015c04:	00cf9f93          	slli	x31,x31,0xc
    41015c08:	005f8f93          	addi	x31,x31,5
    41015c0c:	00000073          	ecall
    41015c10:	00813383          	ld	x7,8(x2)
    41015c14:	0001bfb7          	lui	x31,0x1b
    41015c18:	3dff8f9b          	addiw	x31,x31,991 # 1b3df <SID_ZICBO_017_stack+0x83df>
    41015c1c:	00ff9f93          	slli	x31,x31,0xf
    41015c20:	0b8f8f93          	addi	x31,x31,184
    41015c24:	00300f13          	li	x30,3
    41015c28:	01efb023          	sd	x30,0(x31)
    41015c2c:	000f0fb7          	lui	x31,0xf0
    41015c30:	001f8f9b          	addiw	x31,x31,1 # f0001 <mem0+0x5c001>
    41015c34:	00cf9f93          	slli	x31,x31,0xc
    41015c38:	005f8f93          	addi	x31,x31,5
    41015c3c:	00000073          	ecall
    41015c40:	01013383          	ld	x7,16(x2)
    41015c44:	0001bfb7          	lui	x31,0x1b
    41015c48:	3dff8f9b          	addiw	x31,x31,991 # 1b3df <SID_ZICBO_017_stack+0x83df>
    41015c4c:	00ff9f93          	slli	x31,x31,0xf
    41015c50:	0b8f8f93          	addi	x31,x31,184
    41015c54:	00600f13          	li	x30,6
    41015c58:	01efb023          	sd	x30,0(x31)
    41015c5c:	000f0fb7          	lui	x31,0xf0
    41015c60:	001f8f9b          	addiw	x31,x31,1 # f0001 <mem0+0x5c001>
    41015c64:	00cf9f93          	slli	x31,x31,0xc
    41015c68:	005f8f93          	addi	x31,x31,5
    41015c6c:	00000073          	ecall

0000000041015c70 <SID_ZICBO_017_passed>:
    41015c70:	00f00f9b          	addiw	x31,x0,15
    41015c74:	01cf9f93          	slli	x31,x31,0x1c
    41015c78:	001f8f93          	addi	x31,x31,1
    41015c7c:	00000073          	ecall

0000000041015c80 <SID_ZICBO_018>:
    41015c80:	00047137          	lui	x2,0x47
    41015c84:	d591011b          	addiw	x2,x2,-679 # 46d59 <pma_region_0_size+0x6d59>
    41015c88:	00d11113          	slli	x2,x2,0xd
    41015c8c:	0001bfb7          	lui	x31,0x1b
    41015c90:	3dff8f9b          	addiw	x31,x31,991 # 1b3df <SID_ZICBO_017_stack+0x83df>
    41015c94:	00ff9f93          	slli	x31,x31,0xf
    41015c98:	0b8f8f93          	addi	x31,x31,184
    41015c9c:	01300f13          	li	x30,19
    41015ca0:	01efb023          	sd	x30,0(x31)
    41015ca4:	000f0fb7          	lui	x31,0xf0
    41015ca8:	001f8f9b          	addiw	x31,x31,1 # f0001 <mem0+0x5c001>
    41015cac:	00cf9f93          	slli	x31,x31,0xc
    41015cb0:	005f8f93          	addi	x31,x31,5
    41015cb4:	00000073          	ecall
    41015cb8:	00713023          	sd	x7,0(x2)
    41015cbc:	0001bfb7          	lui	x31,0x1b
    41015cc0:	3dff8f9b          	addiw	x31,x31,991 # 1b3df <SID_ZICBO_017_stack+0x83df>
    41015cc4:	00ff9f93          	slli	x31,x31,0xf
    41015cc8:	0b8f8f93          	addi	x31,x31,184
    41015ccc:	00100f13          	li	x30,1
    41015cd0:	01efb023          	sd	x30,0(x31)
    41015cd4:	000f0fb7          	lui	x31,0xf0
    41015cd8:	001f8f9b          	addiw	x31,x31,1 # f0001 <mem0+0x5c001>
    41015cdc:	00cf9f93          	slli	x31,x31,0xc
    41015ce0:	005f8f93          	addi	x31,x31,5
    41015ce4:	00000073          	ecall
    41015ce8:	00713423          	sd	x7,8(x2)
    41015cec:	0001bfb7          	lui	x31,0x1b
    41015cf0:	3dff8f9b          	addiw	x31,x31,991 # 1b3df <SID_ZICBO_017_stack+0x83df>
    41015cf4:	00ff9f93          	slli	x31,x31,0xf
    41015cf8:	0b8f8f93          	addi	x31,x31,184
    41015cfc:	00400f13          	li	x30,4
    41015d00:	01efb023          	sd	x30,0(x31)
    41015d04:	000f0fb7          	lui	x31,0xf0
    41015d08:	001f8f9b          	addiw	x31,x31,1 # f0001 <mem0+0x5c001>
    41015d0c:	00cf9f93          	slli	x31,x31,0xc
    41015d10:	005f8f93          	addi	x31,x31,5
    41015d14:	00000073          	ecall
    41015d18:	00713823          	sd	x7,16(x2)
    41015d1c:	00005137          	lui	x2,0x5
    41015d20:	000012b7          	lui	x5,0x1
    41015d24:	00510133          	add	x2,x2,x5
    41015d28:	ff017113          	andi	x2,x2,-16
    41015d2c:	0f000393          	li	x7,240
    41015d30:	0001bfb7          	lui	x31,0x1b
    41015d34:	3dff8f9b          	addiw	x31,x31,991 # 1b3df <SID_ZICBO_017_stack+0x83df>
    41015d38:	00ff9f93          	slli	x31,x31,0xf
    41015d3c:	0b8f8f93          	addi	x31,x31,184
    41015d40:	01600f13          	li	x30,22
    41015d44:	01efb023          	sd	x30,0(x31)
    41015d48:	000f0fb7          	lui	x31,0xf0
    41015d4c:	001f8f9b          	addiw	x31,x31,1 # f0001 <mem0+0x5c001>
    41015d50:	00cf9f93          	slli	x31,x31,0xc
    41015d54:	005f8f93          	addi	x31,x31,5
    41015d58:	00000073          	ecall
    41015d5c:	0f000393          	li	x7,240
    41015d60:	0001bfb7          	lui	x31,0x1b
    41015d64:	3dff8f9b          	addiw	x31,x31,991 # 1b3df <SID_ZICBO_017_stack+0x83df>
    41015d68:	00ff9f93          	slli	x31,x31,0xf
    41015d6c:	0c0f8f93          	addi	x31,x31,192
    41015d70:	01700f13          	li	x30,23
    41015d74:	01efb023          	sd	x30,0(x31)
    41015d78:	000f0fb7          	lui	x31,0xf0
    41015d7c:	001f8f9b          	addiw	x31,x31,1 # f0001 <mem0+0x5c001>
    41015d80:	00cf9f93          	slli	x31,x31,0xc
    41015d84:	006f8f93          	addi	x31,x31,6
    41015d88:	00000073          	ecall
    41015d8c:	0f000393          	li	x7,240
    41015d90:	0001bfb7          	lui	x31,0x1b
    41015d94:	3dff8f9b          	addiw	x31,x31,991 # 1b3df <SID_ZICBO_017_stack+0x83df>
    41015d98:	00ff9f93          	slli	x31,x31,0xf
    41015d9c:	0c0f8f93          	addi	x31,x31,192
    41015da0:	01800f13          	li	x30,24
    41015da4:	01efb023          	sd	x30,0(x31)
    41015da8:	000f0fb7          	lui	x31,0xf0
    41015dac:	001f8f9b          	addiw	x31,x31,1 # f0001 <mem0+0x5c001>
    41015db0:	00cf9f93          	slli	x31,x31,0xc
    41015db4:	006f8f93          	addi	x31,x31,6
    41015db8:	00000073          	ecall
    41015dbc:	0469af37          	lui	x30,0x469a
    41015dc0:	000e5eb7          	lui	x29,0xe5
    41015dc4:	447e8e9b          	addiw	x29,x29,1095 # e5447 <mem0+0x51447>
    41015dc8:	00ce9e93          	slli	x29,x29,0xc
    41015dcc:	dd7e8e93          	addi	x29,x29,-553
    41015dd0:	01df1023          	sh	x29,0(x30) # 469a000 <mem10>
    41015dd4:	0469abb7          	lui	x23,0x469a
    41015dd8:	00000a13          	li	x20,0
    41015ddc:	014b8cb3          	add	x25,x23,x20
    41015de0:	004ca00f          	cbo.zero	(x25)
    41015de4:	0469af37          	lui	x30,0x469a
    41015de8:	000f2683          	lw	x13,0(x30) # 469a000 <mem10>
    41015dec:	00d68e63          	beq	x13,x13,41015e08 <pass_label_0>
    41015df0:	0001b8b7          	lui	x17,0x1b
    41015df4:	3df8889b          	addiw	x17,x17,991 # 1b3df <SID_ZICBO_017_stack+0x83df>
    41015df8:	00f89893          	slli	x17,x17,0xf
    41015dfc:	00888893          	addi	x17,x17,8
    41015e00:	0008b903          	ld	x18,0(x17)
    41015e04:	00090067          	jr	x18

0000000041015e08 <pass_label_0>:
    41015e08:	00047137          	lui	x2,0x47
    41015e0c:	d591011b          	addiw	x2,x2,-679 # 46d59 <pma_region_0_size+0x6d59>
    41015e10:	00d11113          	slli	x2,x2,0xd
    41015e14:	00013383          	ld	x7,0(x2)
    41015e18:	0001bfb7          	lui	x31,0x1b
    41015e1c:	3dff8f9b          	addiw	x31,x31,991 # 1b3df <SID_ZICBO_017_stack+0x83df>
    41015e20:	00ff9f93          	slli	x31,x31,0xf
    41015e24:	0b8f8f93          	addi	x31,x31,184
    41015e28:	01900f13          	li	x30,25
    41015e2c:	01efb023          	sd	x30,0(x31)
    41015e30:	000f0fb7          	lui	x31,0xf0
    41015e34:	001f8f9b          	addiw	x31,x31,1 # f0001 <mem0+0x5c001>
    41015e38:	00cf9f93          	slli	x31,x31,0xc
    41015e3c:	005f8f93          	addi	x31,x31,5
    41015e40:	00000073          	ecall
    41015e44:	00813383          	ld	x7,8(x2)
    41015e48:	0001bfb7          	lui	x31,0x1b
    41015e4c:	3dff8f9b          	addiw	x31,x31,991 # 1b3df <SID_ZICBO_017_stack+0x83df>
    41015e50:	00ff9f93          	slli	x31,x31,0xf
    41015e54:	0b8f8f93          	addi	x31,x31,184
    41015e58:	00300f13          	li	x30,3
    41015e5c:	01efb023          	sd	x30,0(x31)
    41015e60:	000f0fb7          	lui	x31,0xf0
    41015e64:	001f8f9b          	addiw	x31,x31,1 # f0001 <mem0+0x5c001>
    41015e68:	00cf9f93          	slli	x31,x31,0xc
    41015e6c:	005f8f93          	addi	x31,x31,5
    41015e70:	00000073          	ecall
    41015e74:	01013383          	ld	x7,16(x2)
    41015e78:	0001bfb7          	lui	x31,0x1b
    41015e7c:	3dff8f9b          	addiw	x31,x31,991 # 1b3df <SID_ZICBO_017_stack+0x83df>
    41015e80:	00ff9f93          	slli	x31,x31,0xf
    41015e84:	0b8f8f93          	addi	x31,x31,184
    41015e88:	00600f13          	li	x30,6
    41015e8c:	01efb023          	sd	x30,0(x31)
    41015e90:	000f0fb7          	lui	x31,0xf0
    41015e94:	001f8f9b          	addiw	x31,x31,1 # f0001 <mem0+0x5c001>
    41015e98:	00cf9f93          	slli	x31,x31,0xc
    41015e9c:	005f8f93          	addi	x31,x31,5
    41015ea0:	00000073          	ecall

0000000041015ea4 <SID_ZICBO_018_passed>:
    41015ea4:	00f00f9b          	addiw	x31,x0,15
    41015ea8:	01cf9f93          	slli	x31,x31,0x1c
    41015eac:	001f8f93          	addi	x31,x31,1
    41015eb0:	00000073          	ecall

0000000041015eb4 <SID_ZICBO_019>:
    41015eb4:	00047137          	lui	x2,0x47
    41015eb8:	d591011b          	addiw	x2,x2,-679 # 46d59 <pma_region_0_size+0x6d59>
    41015ebc:	00d11113          	slli	x2,x2,0xd
    41015ec0:	0001bfb7          	lui	x31,0x1b
    41015ec4:	3dff8f9b          	addiw	x31,x31,991 # 1b3df <SID_ZICBO_017_stack+0x83df>
    41015ec8:	00ff9f93          	slli	x31,x31,0xf
    41015ecc:	0b8f8f93          	addi	x31,x31,184
    41015ed0:	01300f13          	li	x30,19
    41015ed4:	01efb023          	sd	x30,0(x31)
    41015ed8:	000f0fb7          	lui	x31,0xf0
    41015edc:	001f8f9b          	addiw	x31,x31,1 # f0001 <mem0+0x5c001>
    41015ee0:	00cf9f93          	slli	x31,x31,0xc
    41015ee4:	005f8f93          	addi	x31,x31,5
    41015ee8:	00000073          	ecall
    41015eec:	00713023          	sd	x7,0(x2)
    41015ef0:	0001bfb7          	lui	x31,0x1b
    41015ef4:	3dff8f9b          	addiw	x31,x31,991 # 1b3df <SID_ZICBO_017_stack+0x83df>
    41015ef8:	00ff9f93          	slli	x31,x31,0xf
    41015efc:	0b8f8f93          	addi	x31,x31,184
    41015f00:	00100f13          	li	x30,1
    41015f04:	01efb023          	sd	x30,0(x31)
    41015f08:	000f0fb7          	lui	x31,0xf0
    41015f0c:	001f8f9b          	addiw	x31,x31,1 # f0001 <mem0+0x5c001>
    41015f10:	00cf9f93          	slli	x31,x31,0xc
    41015f14:	005f8f93          	addi	x31,x31,5
    41015f18:	00000073          	ecall
    41015f1c:	00713423          	sd	x7,8(x2)
    41015f20:	0001bfb7          	lui	x31,0x1b
    41015f24:	3dff8f9b          	addiw	x31,x31,991 # 1b3df <SID_ZICBO_017_stack+0x83df>
    41015f28:	00ff9f93          	slli	x31,x31,0xf
    41015f2c:	0b8f8f93          	addi	x31,x31,184
    41015f30:	00400f13          	li	x30,4
    41015f34:	01efb023          	sd	x30,0(x31)
    41015f38:	000f0fb7          	lui	x31,0xf0
    41015f3c:	001f8f9b          	addiw	x31,x31,1 # f0001 <mem0+0x5c001>
    41015f40:	00cf9f93          	slli	x31,x31,0xc
    41015f44:	005f8f93          	addi	x31,x31,5
    41015f48:	00000073          	ecall
    41015f4c:	00713823          	sd	x7,16(x2)
    41015f50:	03fa8137          	lui	x2,0x3fa8
    41015f54:	9bb1011b          	addiw	x2,x2,-1605 # 3fa79bb <mem7+0x869bb>
    41015f58:	00c11113          	slli	x2,x2,0xc
    41015f5c:	000012b7          	lui	x5,0x1
    41015f60:	00510133          	add	x2,x2,x5
    41015f64:	ff017113          	andi	x2,x2,-16
    41015f68:	0f000393          	li	x7,240
    41015f6c:	0001bfb7          	lui	x31,0x1b
    41015f70:	3dff8f9b          	addiw	x31,x31,991 # 1b3df <SID_ZICBO_017_stack+0x83df>
    41015f74:	00ff9f93          	slli	x31,x31,0xf
    41015f78:	0b8f8f93          	addi	x31,x31,184
    41015f7c:	01600f13          	li	x30,22
    41015f80:	01efb023          	sd	x30,0(x31)
    41015f84:	000f0fb7          	lui	x31,0xf0
    41015f88:	001f8f9b          	addiw	x31,x31,1 # f0001 <mem0+0x5c001>
    41015f8c:	00cf9f93          	slli	x31,x31,0xc
    41015f90:	005f8f93          	addi	x31,x31,5
    41015f94:	00000073          	ecall
    41015f98:	0f000393          	li	x7,240
    41015f9c:	0001bfb7          	lui	x31,0x1b
    41015fa0:	3dff8f9b          	addiw	x31,x31,991 # 1b3df <SID_ZICBO_017_stack+0x83df>
    41015fa4:	00ff9f93          	slli	x31,x31,0xf
    41015fa8:	0c0f8f93          	addi	x31,x31,192
    41015fac:	01700f13          	li	x30,23
    41015fb0:	01efb023          	sd	x30,0(x31)
    41015fb4:	000f0fb7          	lui	x31,0xf0
    41015fb8:	001f8f9b          	addiw	x31,x31,1 # f0001 <mem0+0x5c001>
    41015fbc:	00cf9f93          	slli	x31,x31,0xc
    41015fc0:	006f8f93          	addi	x31,x31,6
    41015fc4:	00000073          	ecall
    41015fc8:	0f000393          	li	x7,240
    41015fcc:	0001bfb7          	lui	x31,0x1b
    41015fd0:	3dff8f9b          	addiw	x31,x31,991 # 1b3df <SID_ZICBO_017_stack+0x83df>
    41015fd4:	00ff9f93          	slli	x31,x31,0xf
    41015fd8:	0c0f8f93          	addi	x31,x31,192
    41015fdc:	01800f13          	li	x30,24
    41015fe0:	01efb023          	sd	x30,0(x31)
    41015fe4:	000f0fb7          	lui	x31,0xf0
    41015fe8:	001f8f9b          	addiw	x31,x31,1 # f0001 <mem0+0x5c001>
    41015fec:	00cf9f93          	slli	x31,x31,0xc
    41015ff0:	006f8f93          	addi	x31,x31,6
    41015ff4:	00000073          	ecall
    41015ff8:	000ffbb7          	lui	x23,0xff
    41015ffc:	fbfb8b9b          	addiw	x23,x23,-65 # fefbf <mem0+0x6afbf>
    41016000:	00eb9b93          	slli	x23,x23,0xe
    41016004:	0007d9b7          	lui	x19,0x7d
    41016008:	9a19899b          	addiw	x19,x19,-1631 # 7c9a1 <SID_ZICBO_001_stack+0x179a1>
    4101600c:	00d99993          	slli	x19,x19,0xd
    41016010:	c6b98993          	addi	x19,x19,-917
    41016014:	d019f9d3          	fcvt.s.wu	f19,x19
    41016018:	013bb027          	fsd	f19,0(x23)
    4101601c:	000ff437          	lui	x8,0xff
    41016020:	fbf4041b          	addiw	x8,x8,-65 # fefbf <mem0+0x6afbf>
    41016024:	00e41413          	slli	x8,x8,0xe
    41016028:	00000c93          	li	x25,0
    4101602c:	019407b3          	add	x15,x8,x25
    41016030:	0047a00f          	cbo.zero	(x15)
    41016034:	000ff437          	lui	x8,0xff
    41016038:	fbf4041b          	addiw	x8,x8,-65 # fefbf <mem0+0x6afbf>
    4101603c:	00e41413          	slli	x8,x8,0xe
    41016040:	00042403          	lw	x8,0(x8)
    41016044:	001f3b37          	lui	x22,0x1f3
    41016048:	000b2d03          	lw	x26,0(x22) # 1f3000 <mem12>
    4101604c:	00840e63          	beq	x8,x8,41016068 <pass_label_1>
    41016050:	0001bcb7          	lui	x25,0x1b
    41016054:	3dfc8c9b          	addiw	x25,x25,991 # 1b3df <SID_ZICBO_017_stack+0x83df>
    41016058:	00fc9c93          	slli	x25,x25,0xf
    4101605c:	008c8c93          	addi	x25,x25,8
    41016060:	000cb683          	ld	x13,0(x25)
    41016064:	00068067          	jr	x13

0000000041016068 <pass_label_1>:
    41016068:	01ad0e63          	beq	x26,x26,41016084 <pass_label_2>
    4101606c:	0001bc37          	lui	x24,0x1b
    41016070:	3dfc0c1b          	addiw	x24,x24,991 # 1b3df <SID_ZICBO_017_stack+0x83df>
    41016074:	00fc1c13          	slli	x24,x24,0xf
    41016078:	008c0c13          	addi	x24,x24,8
    4101607c:	000c3983          	ld	x19,0(x24)
    41016080:	00098067          	jr	x19

0000000041016084 <pass_label_2>:
    41016084:	00047137          	lui	x2,0x47
    41016088:	d591011b          	addiw	x2,x2,-679 # 46d59 <pma_region_0_size+0x6d59>
    4101608c:	00d11113          	slli	x2,x2,0xd
    41016090:	00013383          	ld	x7,0(x2)
    41016094:	0001bfb7          	lui	x31,0x1b
    41016098:	3dff8f9b          	addiw	x31,x31,991 # 1b3df <SID_ZICBO_017_stack+0x83df>
    4101609c:	00ff9f93          	slli	x31,x31,0xf
    410160a0:	0b8f8f93          	addi	x31,x31,184
    410160a4:	01900f13          	li	x30,25
    410160a8:	01efb023          	sd	x30,0(x31)
    410160ac:	000f0fb7          	lui	x31,0xf0
    410160b0:	001f8f9b          	addiw	x31,x31,1 # f0001 <mem0+0x5c001>
    410160b4:	00cf9f93          	slli	x31,x31,0xc
    410160b8:	005f8f93          	addi	x31,x31,5
    410160bc:	00000073          	ecall
    410160c0:	00813383          	ld	x7,8(x2)
    410160c4:	0001bfb7          	lui	x31,0x1b
    410160c8:	3dff8f9b          	addiw	x31,x31,991 # 1b3df <SID_ZICBO_017_stack+0x83df>
    410160cc:	00ff9f93          	slli	x31,x31,0xf
    410160d0:	0b8f8f93          	addi	x31,x31,184
    410160d4:	00300f13          	li	x30,3
    410160d8:	01efb023          	sd	x30,0(x31)
    410160dc:	000f0fb7          	lui	x31,0xf0
    410160e0:	001f8f9b          	addiw	x31,x31,1 # f0001 <mem0+0x5c001>
    410160e4:	00cf9f93          	slli	x31,x31,0xc
    410160e8:	005f8f93          	addi	x31,x31,5
    410160ec:	00000073          	ecall
    410160f0:	01013383          	ld	x7,16(x2)
    410160f4:	0001bfb7          	lui	x31,0x1b
    410160f8:	3dff8f9b          	addiw	x31,x31,991 # 1b3df <SID_ZICBO_017_stack+0x83df>
    410160fc:	00ff9f93          	slli	x31,x31,0xf
    41016100:	0b8f8f93          	addi	x31,x31,184
    41016104:	00600f13          	li	x30,6
    41016108:	01efb023          	sd	x30,0(x31)
    4101610c:	000f0fb7          	lui	x31,0xf0
    41016110:	001f8f9b          	addiw	x31,x31,1 # f0001 <mem0+0x5c001>
    41016114:	00cf9f93          	slli	x31,x31,0xc
    41016118:	005f8f93          	addi	x31,x31,5
    4101611c:	00000073          	ecall

0000000041016120 <SID_ZICBO_019_passed>:
    41016120:	00f00f9b          	addiw	x31,x0,15
    41016124:	01cf9f93          	slli	x31,x31,0x1c
    41016128:	001f8f93          	addi	x31,x31,1
    4101612c:	00000073          	ecall

0000000041016130 <SID_ZICBO_020>:
    41016130:	00047137          	lui	x2,0x47
    41016134:	d591011b          	addiw	x2,x2,-679 # 46d59 <pma_region_0_size+0x6d59>
    41016138:	00d11113          	slli	x2,x2,0xd
    4101613c:	0001bfb7          	lui	x31,0x1b
    41016140:	3dff8f9b          	addiw	x31,x31,991 # 1b3df <SID_ZICBO_017_stack+0x83df>
    41016144:	00ff9f93          	slli	x31,x31,0xf
    41016148:	0b8f8f93          	addi	x31,x31,184
    4101614c:	01300f13          	li	x30,19
    41016150:	01efb023          	sd	x30,0(x31)
    41016154:	000f0fb7          	lui	x31,0xf0
    41016158:	001f8f9b          	addiw	x31,x31,1 # f0001 <mem0+0x5c001>
    4101615c:	00cf9f93          	slli	x31,x31,0xc
    41016160:	005f8f93          	addi	x31,x31,5
    41016164:	00000073          	ecall
    41016168:	00713023          	sd	x7,0(x2)
    4101616c:	0001bfb7          	lui	x31,0x1b
    41016170:	3dff8f9b          	addiw	x31,x31,991 # 1b3df <SID_ZICBO_017_stack+0x83df>
    41016174:	00ff9f93          	slli	x31,x31,0xf
    41016178:	0b8f8f93          	addi	x31,x31,184
    4101617c:	00100f13          	li	x30,1
    41016180:	01efb023          	sd	x30,0(x31)
    41016184:	000f0fb7          	lui	x31,0xf0
    41016188:	001f8f9b          	addiw	x31,x31,1 # f0001 <mem0+0x5c001>
    4101618c:	00cf9f93          	slli	x31,x31,0xc
    41016190:	005f8f93          	addi	x31,x31,5
    41016194:	00000073          	ecall
    41016198:	00713423          	sd	x7,8(x2)
    4101619c:	0001bfb7          	lui	x31,0x1b
    410161a0:	3dff8f9b          	addiw	x31,x31,991 # 1b3df <SID_ZICBO_017_stack+0x83df>
    410161a4:	00ff9f93          	slli	x31,x31,0xf
    410161a8:	0b8f8f93          	addi	x31,x31,184
    410161ac:	00400f13          	li	x30,4
    410161b0:	01efb023          	sd	x30,0(x31)
    410161b4:	000f0fb7          	lui	x31,0xf0
    410161b8:	001f8f9b          	addiw	x31,x31,1 # f0001 <mem0+0x5c001>
    410161bc:	00cf9f93          	slli	x31,x31,0xc
    410161c0:	005f8f93          	addi	x31,x31,5
    410161c4:	00000073          	ecall
    410161c8:	00713823          	sd	x7,16(x2)
    410161cc:	03f94137          	lui	x2,0x3f94
    410161d0:	0231011b          	addiw	x2,x2,35 # 3f94023 <mem7+0x73023>
    410161d4:	00c11113          	slli	x2,x2,0xc
    410161d8:	000012b7          	lui	x5,0x1
    410161dc:	00510133          	add	x2,x2,x5
    410161e0:	ff017113          	andi	x2,x2,-16
    410161e4:	0f000393          	li	x7,240
    410161e8:	0001bfb7          	lui	x31,0x1b
    410161ec:	3dff8f9b          	addiw	x31,x31,991 # 1b3df <SID_ZICBO_017_stack+0x83df>
    410161f0:	00ff9f93          	slli	x31,x31,0xf
    410161f4:	0b8f8f93          	addi	x31,x31,184
    410161f8:	01600f13          	li	x30,22
    410161fc:	01efb023          	sd	x30,0(x31)
    41016200:	000f0fb7          	lui	x31,0xf0
    41016204:	001f8f9b          	addiw	x31,x31,1 # f0001 <mem0+0x5c001>
    41016208:	00cf9f93          	slli	x31,x31,0xc
    4101620c:	005f8f93          	addi	x31,x31,5
    41016210:	00000073          	ecall
    41016214:	0f000393          	li	x7,240
    41016218:	0001bfb7          	lui	x31,0x1b
    4101621c:	3dff8f9b          	addiw	x31,x31,991 # 1b3df <SID_ZICBO_017_stack+0x83df>
    41016220:	00ff9f93          	slli	x31,x31,0xf
    41016224:	0c0f8f93          	addi	x31,x31,192
    41016228:	01700f13          	li	x30,23
    4101622c:	01efb023          	sd	x30,0(x31)
    41016230:	000f0fb7          	lui	x31,0xf0
    41016234:	001f8f9b          	addiw	x31,x31,1 # f0001 <mem0+0x5c001>
    41016238:	00cf9f93          	slli	x31,x31,0xc
    4101623c:	006f8f93          	addi	x31,x31,6
    41016240:	00000073          	ecall
    41016244:	0f000393          	li	x7,240
    41016248:	0001bfb7          	lui	x31,0x1b
    4101624c:	3dff8f9b          	addiw	x31,x31,991 # 1b3df <SID_ZICBO_017_stack+0x83df>
    41016250:	00ff9f93          	slli	x31,x31,0xf
    41016254:	0c0f8f93          	addi	x31,x31,192
    41016258:	01800f13          	li	x30,24
    4101625c:	01efb023          	sd	x30,0(x31)
    41016260:	000f0fb7          	lui	x31,0xf0
    41016264:	001f8f9b          	addiw	x31,x31,1 # f0001 <mem0+0x5c001>
    41016268:	00cf9f93          	slli	x31,x31,0xc
    4101626c:	006f8f93          	addi	x31,x31,6
    41016270:	00000073          	ecall
    41016274:	000204b7          	lui	x9,0x20
    41016278:	000c7b37          	lui	x22,0xc7
    4101627c:	9d5b0b1b          	addiw	x22,x22,-1579 # c69d5 <mem0+0x329d5>
    41016280:	00cb1b13          	slli	x22,x22,0xc
    41016284:	bdbb0b13          	addi	x22,x22,-1061
    41016288:	d03b7b53          	fcvt.s.lu	f22,x22
    4101628c:	0164a0a7          	fsw	f22,1(x9) # 20001 <mem13+0x1>
    41016290:	00020cb7          	lui	x25,0x20
    41016294:	00000593          	li	x11,0
    41016298:	00bc8cb3          	add	x25,x25,x11
    4101629c:	004ca00f          	cbo.zero	(x25)
    410162a0:	00020737          	lui	x14,0x20
    410162a4:	00072e03          	lw	x28,0(x14) # 20000 <mem13>
    410162a8:	027cebb7          	lui	x23,0x27ce
    410162ac:	000baa83          	lw	x21,0(x23) # 27ce000 <mem14>
    410162b0:	01ce0e63          	beq	x28,x28,410162cc <pass_label_3>
    410162b4:	0001bf37          	lui	x30,0x1b
    410162b8:	3dff0f1b          	addiw	x30,x30,991 # 1b3df <SID_ZICBO_017_stack+0x83df>
    410162bc:	00ff1f13          	slli	x30,x30,0xf
    410162c0:	008f0f13          	addi	x30,x30,8
    410162c4:	000f3e03          	ld	x28,0(x30)
    410162c8:	000e0067          	jr	x28

00000000410162cc <pass_label_3>:
    410162cc:	015a8e63          	beq	x21,x21,410162e8 <pass_label_4>
    410162d0:	0001b337          	lui	x6,0x1b
    410162d4:	3df3031b          	addiw	x6,x6,991 # 1b3df <SID_ZICBO_017_stack+0x83df>
    410162d8:	00f31313          	slli	x6,x6,0xf
    410162dc:	00830313          	addi	x6,x6,8
    410162e0:	00033383          	ld	x7,0(x6)
    410162e4:	00038067          	jr	x7 # 94000 <mem0>

00000000410162e8 <pass_label_4>:
    410162e8:	00047137          	lui	x2,0x47
    410162ec:	d591011b          	addiw	x2,x2,-679 # 46d59 <pma_region_0_size+0x6d59>
    410162f0:	00d11113          	slli	x2,x2,0xd
    410162f4:	00013383          	ld	x7,0(x2)
    410162f8:	0001bfb7          	lui	x31,0x1b
    410162fc:	3dff8f9b          	addiw	x31,x31,991 # 1b3df <SID_ZICBO_017_stack+0x83df>
    41016300:	00ff9f93          	slli	x31,x31,0xf
    41016304:	0b8f8f93          	addi	x31,x31,184
    41016308:	01900f13          	li	x30,25
    4101630c:	01efb023          	sd	x30,0(x31)
    41016310:	000f0fb7          	lui	x31,0xf0
    41016314:	001f8f9b          	addiw	x31,x31,1 # f0001 <mem0+0x5c001>
    41016318:	00cf9f93          	slli	x31,x31,0xc
    4101631c:	005f8f93          	addi	x31,x31,5
    41016320:	00000073          	ecall
    41016324:	00813383          	ld	x7,8(x2)
    41016328:	0001bfb7          	lui	x31,0x1b
    4101632c:	3dff8f9b          	addiw	x31,x31,991 # 1b3df <SID_ZICBO_017_stack+0x83df>
    41016330:	00ff9f93          	slli	x31,x31,0xf
    41016334:	0b8f8f93          	addi	x31,x31,184
    41016338:	00300f13          	li	x30,3
    4101633c:	01efb023          	sd	x30,0(x31)
    41016340:	000f0fb7          	lui	x31,0xf0
    41016344:	001f8f9b          	addiw	x31,x31,1 # f0001 <mem0+0x5c001>
    41016348:	00cf9f93          	slli	x31,x31,0xc
    4101634c:	005f8f93          	addi	x31,x31,5
    41016350:	00000073          	ecall
    41016354:	01013383          	ld	x7,16(x2)
    41016358:	0001bfb7          	lui	x31,0x1b
    4101635c:	3dff8f9b          	addiw	x31,x31,991 # 1b3df <SID_ZICBO_017_stack+0x83df>
    41016360:	00ff9f93          	slli	x31,x31,0xf
    41016364:	0b8f8f93          	addi	x31,x31,184
    41016368:	00600f13          	li	x30,6
    4101636c:	01efb023          	sd	x30,0(x31)
    41016370:	000f0fb7          	lui	x31,0xf0
    41016374:	001f8f9b          	addiw	x31,x31,1 # f0001 <mem0+0x5c001>
    41016378:	00cf9f93          	slli	x31,x31,0xc
    4101637c:	005f8f93          	addi	x31,x31,5
    41016380:	00000073          	ecall

0000000041016384 <SID_ZICBO_020_passed>:
    41016384:	00f00f9b          	addiw	x31,x0,15
    41016388:	01cf9f93          	slli	x31,x31,0x1c
    4101638c:	001f8f93          	addi	x31,x31,1
    41016390:	00000073          	ecall

0000000041016394 <SID_ZICBO_022>:
    41016394:	00047137          	lui	x2,0x47
    41016398:	d591011b          	addiw	x2,x2,-679 # 46d59 <pma_region_0_size+0x6d59>
    4101639c:	00d11113          	slli	x2,x2,0xd
    410163a0:	0001bfb7          	lui	x31,0x1b
    410163a4:	3dff8f9b          	addiw	x31,x31,991 # 1b3df <SID_ZICBO_017_stack+0x83df>
    410163a8:	00ff9f93          	slli	x31,x31,0xf
    410163ac:	0b8f8f93          	addi	x31,x31,184
    410163b0:	01300f13          	li	x30,19
    410163b4:	01efb023          	sd	x30,0(x31)
    410163b8:	000f0fb7          	lui	x31,0xf0
    410163bc:	001f8f9b          	addiw	x31,x31,1 # f0001 <mem0+0x5c001>
    410163c0:	00cf9f93          	slli	x31,x31,0xc
    410163c4:	005f8f93          	addi	x31,x31,5
    410163c8:	00000073          	ecall
    410163cc:	00713023          	sd	x7,0(x2)
    410163d0:	0001bfb7          	lui	x31,0x1b
    410163d4:	3dff8f9b          	addiw	x31,x31,991 # 1b3df <SID_ZICBO_017_stack+0x83df>
    410163d8:	00ff9f93          	slli	x31,x31,0xf
    410163dc:	0b8f8f93          	addi	x31,x31,184
    410163e0:	00100f13          	li	x30,1
    410163e4:	01efb023          	sd	x30,0(x31)
    410163e8:	000f0fb7          	lui	x31,0xf0
    410163ec:	001f8f9b          	addiw	x31,x31,1 # f0001 <mem0+0x5c001>
    410163f0:	00cf9f93          	slli	x31,x31,0xc
    410163f4:	005f8f93          	addi	x31,x31,5
    410163f8:	00000073          	ecall
    410163fc:	00713423          	sd	x7,8(x2)
    41016400:	0001bfb7          	lui	x31,0x1b
    41016404:	3dff8f9b          	addiw	x31,x31,991 # 1b3df <SID_ZICBO_017_stack+0x83df>
    41016408:	00ff9f93          	slli	x31,x31,0xf
    4101640c:	0b8f8f93          	addi	x31,x31,184
    41016410:	00400f13          	li	x30,4
    41016414:	01efb023          	sd	x30,0(x31)
    41016418:	000f0fb7          	lui	x31,0xf0
    4101641c:	001f8f9b          	addiw	x31,x31,1 # f0001 <mem0+0x5c001>
    41016420:	00cf9f93          	slli	x31,x31,0xc
    41016424:	005f8f93          	addi	x31,x31,5
    41016428:	00000073          	ecall
    4101642c:	00713823          	sd	x7,16(x2)
    41016430:	371af137          	lui	x2,0x371af
    41016434:	000012b7          	lui	x5,0x1
    41016438:	00510133          	add	x2,x2,x5
    4101643c:	ff017113          	andi	x2,x2,-16
    41016440:	0f000393          	li	x7,240
    41016444:	0001bfb7          	lui	x31,0x1b
    41016448:	3dff8f9b          	addiw	x31,x31,991 # 1b3df <SID_ZICBO_017_stack+0x83df>
    4101644c:	00ff9f93          	slli	x31,x31,0xf
    41016450:	0b8f8f93          	addi	x31,x31,184
    41016454:	01600f13          	li	x30,22
    41016458:	01efb023          	sd	x30,0(x31)
    4101645c:	000f0fb7          	lui	x31,0xf0
    41016460:	001f8f9b          	addiw	x31,x31,1 # f0001 <mem0+0x5c001>
    41016464:	00cf9f93          	slli	x31,x31,0xc
    41016468:	005f8f93          	addi	x31,x31,5
    4101646c:	00000073          	ecall
    41016470:	0f000393          	li	x7,240
    41016474:	0001bfb7          	lui	x31,0x1b
    41016478:	3dff8f9b          	addiw	x31,x31,991 # 1b3df <SID_ZICBO_017_stack+0x83df>
    4101647c:	00ff9f93          	slli	x31,x31,0xf
    41016480:	0c0f8f93          	addi	x31,x31,192
    41016484:	01700f13          	li	x30,23
    41016488:	01efb023          	sd	x30,0(x31)
    4101648c:	000f0fb7          	lui	x31,0xf0
    41016490:	001f8f9b          	addiw	x31,x31,1 # f0001 <mem0+0x5c001>
    41016494:	00cf9f93          	slli	x31,x31,0xc
    41016498:	006f8f93          	addi	x31,x31,6
    4101649c:	00000073          	ecall
    410164a0:	0f000393          	li	x7,240
    410164a4:	0001bfb7          	lui	x31,0x1b
    410164a8:	3dff8f9b          	addiw	x31,x31,991 # 1b3df <SID_ZICBO_017_stack+0x83df>
    410164ac:	00ff9f93          	slli	x31,x31,0xf
    410164b0:	0c0f8f93          	addi	x31,x31,192
    410164b4:	01800f13          	li	x30,24
    410164b8:	01efb023          	sd	x30,0(x31)
    410164bc:	000f0fb7          	lui	x31,0xf0
    410164c0:	001f8f9b          	addiw	x31,x31,1 # f0001 <mem0+0x5c001>
    410164c4:	00cf9f93          	slli	x31,x31,0xc
    410164c8:	006f8f93          	addi	x31,x31,6
    410164cc:	00000073          	ecall
    410164d0:	00002237          	lui	x4,0x2
    410164d4:	00f00e13          	li	x28,15
    410164d8:	05c23823          	sd	x28,80(x4) # 2050 <check_excp_expected_cause>
    410164dc:	00000e17          	auipc	x28,0x0
    410164e0:	05ce0e13          	addi	x28,x28,92 # 41016538 <fault_label_8>
    410164e4:	03c23023          	sd	x28,32(x4) # 20 <SECURE_ACCESS_PROBABILITY+0x2>
    410164e8:	00000e13          	li	x28,0
    410164ec:	05c23023          	sd	x28,64(x4) # 40 <XLEN>
    410164f0:	00000e13          	li	x28,0
    410164f4:	05c23423          	sd	x28,72(x4) # 48 <XLEN+0x8>
    410164f8:	00000e17          	auipc	x28,0x0
    410164fc:	05ce0e13          	addi	x28,x28,92 # 41016554 <excp_return_label_8>
    41016500:	03c23823          	sd	x28,48(x4) # 30 <SECURE_ACCESS_PROBABILITY+0x12>
    41016504:	00000e13          	li	x28,0
    41016508:	03c23c23          	sd	x28,56(x4) # 38 <SECURE_ACCESS_PROBABILITY+0x1a>
    4101650c:	00000e13          	li	x28,0
    41016510:	07c23023          	sd	x28,96(x4) # 60 <XLEN+0x20>
    41016514:	00000e13          	li	x28,0
    41016518:	07c23423          	sd	x28,104(x4) # 68 <XLEN+0x28>
    4101651c:	00000e13          	li	x28,0
    41016520:	07c23823          	sd	x28,112(x4) # 70 <XLEN+0x30>
    41016524:	013ac437          	lui	x8,0x13ac
    41016528:	7654041b          	addiw	x8,x8,1893 # 13ac765 <SID_ZICBO_015_stack+0x7b3765>
    4101652c:	00d41413          	slli	x8,x8,0xd
    41016530:	00000893          	li	x17,0
    41016534:	01140fb3          	add	x31,x8,x17

0000000041016538 <fault_label_8>:
    41016538:	004fa00f          	cbo.zero	(x31)
    4101653c:	0001be37          	lui	x28,0x1b
    41016540:	3dfe0e1b          	addiw	x28,x28,991 # 1b3df <SID_ZICBO_017_stack+0x83df>
    41016544:	00fe1e13          	slli	x28,x28,0xf
    41016548:	008e0e13          	addi	x28,x28,8
    4101654c:	000e3d83          	ld	x27,0(x28)
    41016550:	000d8067          	jr	x27

0000000041016554 <excp_return_label_8>:
    41016554:	00047137          	lui	x2,0x47
    41016558:	d591011b          	addiw	x2,x2,-679 # 46d59 <pma_region_0_size+0x6d59>
    4101655c:	00d11113          	slli	x2,x2,0xd
    41016560:	00013383          	ld	x7,0(x2)
    41016564:	0001bfb7          	lui	x31,0x1b
    41016568:	3dff8f9b          	addiw	x31,x31,991 # 1b3df <SID_ZICBO_017_stack+0x83df>
    4101656c:	00ff9f93          	slli	x31,x31,0xf
    41016570:	0b8f8f93          	addi	x31,x31,184
    41016574:	01900f13          	li	x30,25
    41016578:	01efb023          	sd	x30,0(x31)
    4101657c:	000f0fb7          	lui	x31,0xf0
    41016580:	001f8f9b          	addiw	x31,x31,1 # f0001 <mem0+0x5c001>
    41016584:	00cf9f93          	slli	x31,x31,0xc
    41016588:	005f8f93          	addi	x31,x31,5
    4101658c:	00000073          	ecall
    41016590:	00813383          	ld	x7,8(x2)
    41016594:	0001bfb7          	lui	x31,0x1b
    41016598:	3dff8f9b          	addiw	x31,x31,991 # 1b3df <SID_ZICBO_017_stack+0x83df>
    4101659c:	00ff9f93          	slli	x31,x31,0xf
    410165a0:	0b8f8f93          	addi	x31,x31,184
    410165a4:	00300f13          	li	x30,3
    410165a8:	01efb023          	sd	x30,0(x31)
    410165ac:	000f0fb7          	lui	x31,0xf0
    410165b0:	001f8f9b          	addiw	x31,x31,1 # f0001 <mem0+0x5c001>
    410165b4:	00cf9f93          	slli	x31,x31,0xc
    410165b8:	005f8f93          	addi	x31,x31,5
    410165bc:	00000073          	ecall
    410165c0:	01013383          	ld	x7,16(x2)
    410165c4:	0001bfb7          	lui	x31,0x1b
    410165c8:	3dff8f9b          	addiw	x31,x31,991 # 1b3df <SID_ZICBO_017_stack+0x83df>
    410165cc:	00ff9f93          	slli	x31,x31,0xf
    410165d0:	0b8f8f93          	addi	x31,x31,184
    410165d4:	00600f13          	li	x30,6
    410165d8:	01efb023          	sd	x30,0(x31)
    410165dc:	000f0fb7          	lui	x31,0xf0
    410165e0:	001f8f9b          	addiw	x31,x31,1 # f0001 <mem0+0x5c001>
    410165e4:	00cf9f93          	slli	x31,x31,0xc
    410165e8:	005f8f93          	addi	x31,x31,5
    410165ec:	00000073          	ecall

00000000410165f0 <SID_ZICBO_022_passed>:
    410165f0:	00f00f9b          	addiw	x31,x0,15
    410165f4:	01cf9f93          	slli	x31,x31,0x1c
    410165f8:	001f8f93          	addi	x31,x31,1
    410165fc:	00000073          	ecall

0000000041016600 <SID_ZICBO_047>:
    41016600:	00047137          	lui	x2,0x47
    41016604:	d591011b          	addiw	x2,x2,-679 # 46d59 <pma_region_0_size+0x6d59>
    41016608:	00d11113          	slli	x2,x2,0xd
    4101660c:	0001bfb7          	lui	x31,0x1b
    41016610:	3dff8f9b          	addiw	x31,x31,991 # 1b3df <SID_ZICBO_017_stack+0x83df>
    41016614:	00ff9f93          	slli	x31,x31,0xf
    41016618:	0b8f8f93          	addi	x31,x31,184
    4101661c:	01300f13          	li	x30,19
    41016620:	01efb023          	sd	x30,0(x31)
    41016624:	000f0fb7          	lui	x31,0xf0
    41016628:	001f8f9b          	addiw	x31,x31,1 # f0001 <mem0+0x5c001>
    4101662c:	00cf9f93          	slli	x31,x31,0xc
    41016630:	005f8f93          	addi	x31,x31,5
    41016634:	00000073          	ecall
    41016638:	00713023          	sd	x7,0(x2)
    4101663c:	0001bfb7          	lui	x31,0x1b
    41016640:	3dff8f9b          	addiw	x31,x31,991 # 1b3df <SID_ZICBO_017_stack+0x83df>
    41016644:	00ff9f93          	slli	x31,x31,0xf
    41016648:	0b8f8f93          	addi	x31,x31,184
    4101664c:	00100f13          	li	x30,1
    41016650:	01efb023          	sd	x30,0(x31)
    41016654:	000f0fb7          	lui	x31,0xf0
    41016658:	001f8f9b          	addiw	x31,x31,1 # f0001 <mem0+0x5c001>
    4101665c:	00cf9f93          	slli	x31,x31,0xc
    41016660:	005f8f93          	addi	x31,x31,5
    41016664:	00000073          	ecall
    41016668:	00713423          	sd	x7,8(x2)
    4101666c:	0001bfb7          	lui	x31,0x1b
    41016670:	3dff8f9b          	addiw	x31,x31,991 # 1b3df <SID_ZICBO_017_stack+0x83df>
    41016674:	00ff9f93          	slli	x31,x31,0xf
    41016678:	0b8f8f93          	addi	x31,x31,184
    4101667c:	00400f13          	li	x30,4
    41016680:	01efb023          	sd	x30,0(x31)
    41016684:	000f0fb7          	lui	x31,0xf0
    41016688:	001f8f9b          	addiw	x31,x31,1 # f0001 <mem0+0x5c001>
    4101668c:	00cf9f93          	slli	x31,x31,0xc
    41016690:	005f8f93          	addi	x31,x31,5
    41016694:	00000073          	ecall
    41016698:	00713823          	sd	x7,16(x2)
    4101669c:	003fe137          	lui	x2,0x3fe
    410166a0:	61f1011b          	addiw	x2,x2,1567 # 3fe61f <mem17+0x20461f>
    410166a4:	00c11113          	slli	x2,x2,0xc
    410166a8:	000012b7          	lui	x5,0x1
    410166ac:	00510133          	add	x2,x2,x5
    410166b0:	ff017113          	andi	x2,x2,-16
    410166b4:	0f000393          	li	x7,240
    410166b8:	0001bfb7          	lui	x31,0x1b
    410166bc:	3dff8f9b          	addiw	x31,x31,991 # 1b3df <SID_ZICBO_017_stack+0x83df>
    410166c0:	00ff9f93          	slli	x31,x31,0xf
    410166c4:	0b8f8f93          	addi	x31,x31,184
    410166c8:	01600f13          	li	x30,22
    410166cc:	01efb023          	sd	x30,0(x31)
    410166d0:	000f0fb7          	lui	x31,0xf0
    410166d4:	001f8f9b          	addiw	x31,x31,1 # f0001 <mem0+0x5c001>
    410166d8:	00cf9f93          	slli	x31,x31,0xc
    410166dc:	005f8f93          	addi	x31,x31,5
    410166e0:	00000073          	ecall
    410166e4:	0f000393          	li	x7,240
    410166e8:	0001bfb7          	lui	x31,0x1b
    410166ec:	3dff8f9b          	addiw	x31,x31,991 # 1b3df <SID_ZICBO_017_stack+0x83df>
    410166f0:	00ff9f93          	slli	x31,x31,0xf
    410166f4:	0c0f8f93          	addi	x31,x31,192
    410166f8:	01700f13          	li	x30,23
    410166fc:	01efb023          	sd	x30,0(x31)
    41016700:	000f0fb7          	lui	x31,0xf0
    41016704:	001f8f9b          	addiw	x31,x31,1 # f0001 <mem0+0x5c001>
    41016708:	00cf9f93          	slli	x31,x31,0xc
    4101670c:	006f8f93          	addi	x31,x31,6
    41016710:	00000073          	ecall
    41016714:	0f000393          	li	x7,240
    41016718:	0001bfb7          	lui	x31,0x1b
    4101671c:	3dff8f9b          	addiw	x31,x31,991 # 1b3df <SID_ZICBO_017_stack+0x83df>
    41016720:	00ff9f93          	slli	x31,x31,0xf
    41016724:	0c0f8f93          	addi	x31,x31,192
    41016728:	01800f13          	li	x30,24
    4101672c:	01efb023          	sd	x30,0(x31)
    41016730:	000f0fb7          	lui	x31,0xf0
    41016734:	001f8f9b          	addiw	x31,x31,1 # f0001 <mem0+0x5c001>
    41016738:	00cf9f93          	slli	x31,x31,0xc
    4101673c:	006f8f93          	addi	x31,x31,6
    41016740:	00000073          	ecall
    41016744:	00086fb7          	lui	x31,0x86
    41016748:	00000693          	li	x13,0
    4101674c:	00df8cb3          	add	x25,x31,x13
    41016750:	002ca00f          	cbo.flush	(x25)
    41016754:	00086d37          	lui	x26,0x86
    41016758:	00000793          	li	x15,0
    4101675c:	00fd0ab3          	add	x21,x26,x15
    41016760:	2b9c0e37          	lui	x28,0x2b9c0
    41016764:	151e0e1b          	addiw	x28,x28,337 # 2b9c0151 <mem6+0xc425151>
    41016768:	d21e0653          	fcvt.d.wu	f12,x28
    4101676c:	00cab027          	fsd	f12,0(x21)
    41016770:	000863b7          	lui	x7,0x86
    41016774:	00000a13          	li	x20,0
    41016778:	01438db3          	add	x27,x7,x20
    4101677c:	001da00f          	cbo.clean	(x27)
    41016780:	000868b7          	lui	x17,0x86
    41016784:	00000a93          	li	x21,0
    41016788:	01588cb3          	add	x25,x17,x21
    4101678c:	2b290e37          	lui	x28,0x2b290
    41016790:	ef3e0e1b          	addiw	x28,x28,-269 # 2b28fef3 <mem6+0xbcf4ef3>
    41016794:	01ccaaaf          	amoadd.w	x21,x28,(x25)
    41016798:	00086337          	lui	x6,0x86
    4101679c:	00000e93          	li	x29,0
    410167a0:	01d30eb3          	add	x29,x6,x29
    410167a4:	000ea00f          	cbo.inval	(x29)
    410167a8:	00086ab7          	lui	x21,0x86
    410167ac:	00000793          	li	x15,0
    410167b0:	00fa87b3          	add	x15,x21,x15
    410167b4:	00081637          	lui	x12,0x81
    410167b8:	92b6061b          	addiw	x12,x12,-1749 # 8092b <SID_ZICBO_001_stack+0x1b92b>
    410167bc:	00c61613          	slli	x12,x12,0xc
    410167c0:	4d760613          	addi	x12,x12,1239
    410167c4:	d2267953          	fcvt.d.l	f18,x12
    410167c8:	0127a027          	fsw	f18,0(x15)
    410167cc:	00047137          	lui	x2,0x47
    410167d0:	d591011b          	addiw	x2,x2,-679 # 46d59 <pma_region_0_size+0x6d59>
    410167d4:	00d11113          	slli	x2,x2,0xd
    410167d8:	00013383          	ld	x7,0(x2)
    410167dc:	0001bfb7          	lui	x31,0x1b
    410167e0:	3dff8f9b          	addiw	x31,x31,991 # 1b3df <SID_ZICBO_017_stack+0x83df>
    410167e4:	00ff9f93          	slli	x31,x31,0xf
    410167e8:	0b8f8f93          	addi	x31,x31,184
    410167ec:	01900f13          	li	x30,25
    410167f0:	01efb023          	sd	x30,0(x31)
    410167f4:	000f0fb7          	lui	x31,0xf0
    410167f8:	001f8f9b          	addiw	x31,x31,1 # f0001 <mem0+0x5c001>
    410167fc:	00cf9f93          	slli	x31,x31,0xc
    41016800:	005f8f93          	addi	x31,x31,5
    41016804:	00000073          	ecall
    41016808:	00813383          	ld	x7,8(x2)
    4101680c:	0001bfb7          	lui	x31,0x1b
    41016810:	3dff8f9b          	addiw	x31,x31,991 # 1b3df <SID_ZICBO_017_stack+0x83df>
    41016814:	00ff9f93          	slli	x31,x31,0xf
    41016818:	0b8f8f93          	addi	x31,x31,184
    4101681c:	00300f13          	li	x30,3
    41016820:	01efb023          	sd	x30,0(x31)
    41016824:	000f0fb7          	lui	x31,0xf0
    41016828:	001f8f9b          	addiw	x31,x31,1 # f0001 <mem0+0x5c001>
    4101682c:	00cf9f93          	slli	x31,x31,0xc
    41016830:	005f8f93          	addi	x31,x31,5
    41016834:	00000073          	ecall
    41016838:	01013383          	ld	x7,16(x2)
    4101683c:	0001bfb7          	lui	x31,0x1b
    41016840:	3dff8f9b          	addiw	x31,x31,991 # 1b3df <SID_ZICBO_017_stack+0x83df>
    41016844:	00ff9f93          	slli	x31,x31,0xf
    41016848:	0b8f8f93          	addi	x31,x31,184
    4101684c:	00600f13          	li	x30,6
    41016850:	01efb023          	sd	x30,0(x31)
    41016854:	000f0fb7          	lui	x31,0xf0
    41016858:	001f8f9b          	addiw	x31,x31,1 # f0001 <mem0+0x5c001>
    4101685c:	00cf9f93          	slli	x31,x31,0xc
    41016860:	005f8f93          	addi	x31,x31,5
    41016864:	00000073          	ecall

0000000041016868 <SID_ZICBO_047_passed>:
    41016868:	00f00f9b          	addiw	x31,x0,15
    4101686c:	01cf9f93          	slli	x31,x31,0x1c
    41016870:	001f8f93          	addi	x31,x31,1
    41016874:	00000073          	ecall

0000000041016878 <SID_ZICBO_049>:
    41016878:	00047137          	lui	x2,0x47
    4101687c:	d591011b          	addiw	x2,x2,-679 # 46d59 <pma_region_0_size+0x6d59>
    41016880:	00d11113          	slli	x2,x2,0xd
    41016884:	0001bfb7          	lui	x31,0x1b
    41016888:	3dff8f9b          	addiw	x31,x31,991 # 1b3df <SID_ZICBO_017_stack+0x83df>
    4101688c:	00ff9f93          	slli	x31,x31,0xf
    41016890:	0b8f8f93          	addi	x31,x31,184
    41016894:	01300f13          	li	x30,19
    41016898:	01efb023          	sd	x30,0(x31)
    4101689c:	000f0fb7          	lui	x31,0xf0
    410168a0:	001f8f9b          	addiw	x31,x31,1 # f0001 <mem0+0x5c001>
    410168a4:	00cf9f93          	slli	x31,x31,0xc
    410168a8:	005f8f93          	addi	x31,x31,5
    410168ac:	00000073          	ecall
    410168b0:	00713023          	sd	x7,0(x2)
    410168b4:	0001bfb7          	lui	x31,0x1b
    410168b8:	3dff8f9b          	addiw	x31,x31,991 # 1b3df <SID_ZICBO_017_stack+0x83df>
    410168bc:	00ff9f93          	slli	x31,x31,0xf
    410168c0:	0b8f8f93          	addi	x31,x31,184
    410168c4:	00100f13          	li	x30,1
    410168c8:	01efb023          	sd	x30,0(x31)
    410168cc:	000f0fb7          	lui	x31,0xf0
    410168d0:	001f8f9b          	addiw	x31,x31,1 # f0001 <mem0+0x5c001>
    410168d4:	00cf9f93          	slli	x31,x31,0xc
    410168d8:	005f8f93          	addi	x31,x31,5
    410168dc:	00000073          	ecall
    410168e0:	00713423          	sd	x7,8(x2)
    410168e4:	0001bfb7          	lui	x31,0x1b
    410168e8:	3dff8f9b          	addiw	x31,x31,991 # 1b3df <SID_ZICBO_017_stack+0x83df>
    410168ec:	00ff9f93          	slli	x31,x31,0xf
    410168f0:	0b8f8f93          	addi	x31,x31,184
    410168f4:	00400f13          	li	x30,4
    410168f8:	01efb023          	sd	x30,0(x31)
    410168fc:	000f0fb7          	lui	x31,0xf0
    41016900:	001f8f9b          	addiw	x31,x31,1 # f0001 <mem0+0x5c001>
    41016904:	00cf9f93          	slli	x31,x31,0xc
    41016908:	005f8f93          	addi	x31,x31,5
    4101690c:	00000073          	ecall
    41016910:	00713823          	sd	x7,16(x2)
    41016914:	fe50d137          	lui	x2,0xfe50d
    41016918:	7dd1011b          	addiw	x2,x2,2013 # fffffffffe50d7dd <mem3+0x35e35517dd>
    4101691c:	00d11113          	slli	x2,x2,0xd
    41016920:	000012b7          	lui	x5,0x1
    41016924:	00510133          	add	x2,x2,x5
    41016928:	ff017113          	andi	x2,x2,-16
    4101692c:	0f000393          	li	x7,240
    41016930:	0001bfb7          	lui	x31,0x1b
    41016934:	3dff8f9b          	addiw	x31,x31,991 # 1b3df <SID_ZICBO_017_stack+0x83df>
    41016938:	00ff9f93          	slli	x31,x31,0xf
    4101693c:	0b8f8f93          	addi	x31,x31,184
    41016940:	01600f13          	li	x30,22
    41016944:	01efb023          	sd	x30,0(x31)
    41016948:	000f0fb7          	lui	x31,0xf0
    4101694c:	001f8f9b          	addiw	x31,x31,1 # f0001 <mem0+0x5c001>
    41016950:	00cf9f93          	slli	x31,x31,0xc
    41016954:	005f8f93          	addi	x31,x31,5
    41016958:	00000073          	ecall
    4101695c:	0f000393          	li	x7,240
    41016960:	0001bfb7          	lui	x31,0x1b
    41016964:	3dff8f9b          	addiw	x31,x31,991 # 1b3df <SID_ZICBO_017_stack+0x83df>
    41016968:	00ff9f93          	slli	x31,x31,0xf
    4101696c:	0c0f8f93          	addi	x31,x31,192
    41016970:	01700f13          	li	x30,23
    41016974:	01efb023          	sd	x30,0(x31)
    41016978:	000f0fb7          	lui	x31,0xf0
    4101697c:	001f8f9b          	addiw	x31,x31,1 # f0001 <mem0+0x5c001>
    41016980:	00cf9f93          	slli	x31,x31,0xc
    41016984:	006f8f93          	addi	x31,x31,6
    41016988:	00000073          	ecall
    4101698c:	0f000393          	li	x7,240
    41016990:	0001bfb7          	lui	x31,0x1b
    41016994:	3dff8f9b          	addiw	x31,x31,991 # 1b3df <SID_ZICBO_017_stack+0x83df>
    41016998:	00ff9f93          	slli	x31,x31,0xf
    4101699c:	0c0f8f93          	addi	x31,x31,192
    410169a0:	01800f13          	li	x30,24
    410169a4:	01efb023          	sd	x30,0(x31)
    410169a8:	000f0fb7          	lui	x31,0xf0
    410169ac:	001f8f9b          	addiw	x31,x31,1 # f0001 <mem0+0x5c001>
    410169b0:	00cf9f93          	slli	x31,x31,0xc
    410169b4:	006f8f93          	addi	x31,x31,6
    410169b8:	00000073          	ecall
    410169bc:	001faa37          	lui	x20,0x1fa
    410169c0:	00000413          	li	x8,0
    410169c4:	008a0c33          	add	x24,x20,x8
    410169c8:	100c29af          	lr.w	x19,(x24)
    410169cc:	001faeb7          	lui	x29,0x1fa
    410169d0:	00000e13          	li	x28,0
    410169d4:	01ce8733          	add	x14,x29,x28
    410169d8:	0027200f          	cbo.flush	(x14)
    410169dc:	001faf37          	lui	x30,0x1fa
    410169e0:	00000c93          	li	x25,0
    410169e4:	019f0fb3          	add	x31,x30,x25
    410169e8:	349abb37          	lui	x22,0x349ab
    410169ec:	e93b0b1b          	addiw	x22,x22,-365 # 349aae93 <mem6+0x1540fe93>
    410169f0:	196fadaf          	sc.w	x27,x22,(x31)
    410169f4:	001fabb7          	lui	x23,0x1fa
    410169f8:	000ba087          	flw	f1,0(x23) # 1fa000 <mem17>
    410169fc:	00047137          	lui	x2,0x47
    41016a00:	d591011b          	addiw	x2,x2,-679 # 46d59 <pma_region_0_size+0x6d59>
    41016a04:	00d11113          	slli	x2,x2,0xd
    41016a08:	00013383          	ld	x7,0(x2)
    41016a0c:	0001bfb7          	lui	x31,0x1b
    41016a10:	3dff8f9b          	addiw	x31,x31,991 # 1b3df <SID_ZICBO_017_stack+0x83df>
    41016a14:	00ff9f93          	slli	x31,x31,0xf
    41016a18:	0b8f8f93          	addi	x31,x31,184
    41016a1c:	01900f13          	li	x30,25
    41016a20:	01efb023          	sd	x30,0(x31)
    41016a24:	000f0fb7          	lui	x31,0xf0
    41016a28:	001f8f9b          	addiw	x31,x31,1 # f0001 <mem0+0x5c001>
    41016a2c:	00cf9f93          	slli	x31,x31,0xc
    41016a30:	005f8f93          	addi	x31,x31,5
    41016a34:	00000073          	ecall
    41016a38:	00813383          	ld	x7,8(x2)
    41016a3c:	0001bfb7          	lui	x31,0x1b
    41016a40:	3dff8f9b          	addiw	x31,x31,991 # 1b3df <SID_ZICBO_017_stack+0x83df>
    41016a44:	00ff9f93          	slli	x31,x31,0xf
    41016a48:	0b8f8f93          	addi	x31,x31,184
    41016a4c:	00300f13          	li	x30,3
    41016a50:	01efb023          	sd	x30,0(x31)
    41016a54:	000f0fb7          	lui	x31,0xf0
    41016a58:	001f8f9b          	addiw	x31,x31,1 # f0001 <mem0+0x5c001>
    41016a5c:	00cf9f93          	slli	x31,x31,0xc
    41016a60:	005f8f93          	addi	x31,x31,5
    41016a64:	00000073          	ecall
    41016a68:	01013383          	ld	x7,16(x2)
    41016a6c:	0001bfb7          	lui	x31,0x1b
    41016a70:	3dff8f9b          	addiw	x31,x31,991 # 1b3df <SID_ZICBO_017_stack+0x83df>
    41016a74:	00ff9f93          	slli	x31,x31,0xf
    41016a78:	0b8f8f93          	addi	x31,x31,184
    41016a7c:	00600f13          	li	x30,6
    41016a80:	01efb023          	sd	x30,0(x31)
    41016a84:	000f0fb7          	lui	x31,0xf0
    41016a88:	001f8f9b          	addiw	x31,x31,1 # f0001 <mem0+0x5c001>
    41016a8c:	00cf9f93          	slli	x31,x31,0xc
    41016a90:	005f8f93          	addi	x31,x31,5
    41016a94:	00000073          	ecall

0000000041016a98 <SID_ZICBO_049_passed>:
    41016a98:	00f00f9b          	addiw	x31,x0,15
    41016a9c:	01cf9f93          	slli	x31,x31,0x1c
    41016aa0:	001f8f93          	addi	x31,x31,1
    41016aa4:	00000073          	ecall

0000000041016aa8 <SID_ZICBO_50_ZIC64B_01>:
    41016aa8:	00047137          	lui	x2,0x47
    41016aac:	d591011b          	addiw	x2,x2,-679 # 46d59 <pma_region_0_size+0x6d59>
    41016ab0:	00d11113          	slli	x2,x2,0xd
    41016ab4:	0001bfb7          	lui	x31,0x1b
    41016ab8:	3dff8f9b          	addiw	x31,x31,991 # 1b3df <SID_ZICBO_017_stack+0x83df>
    41016abc:	00ff9f93          	slli	x31,x31,0xf
    41016ac0:	0b8f8f93          	addi	x31,x31,184
    41016ac4:	01300f13          	li	x30,19
    41016ac8:	01efb023          	sd	x30,0(x31)
    41016acc:	000f0fb7          	lui	x31,0xf0
    41016ad0:	001f8f9b          	addiw	x31,x31,1 # f0001 <mem0+0x5c001>
    41016ad4:	00cf9f93          	slli	x31,x31,0xc
    41016ad8:	005f8f93          	addi	x31,x31,5
    41016adc:	00000073          	ecall
    41016ae0:	00713023          	sd	x7,0(x2)
    41016ae4:	0001bfb7          	lui	x31,0x1b
    41016ae8:	3dff8f9b          	addiw	x31,x31,991 # 1b3df <SID_ZICBO_017_stack+0x83df>
    41016aec:	00ff9f93          	slli	x31,x31,0xf
    41016af0:	0b8f8f93          	addi	x31,x31,184
    41016af4:	00100f13          	li	x30,1
    41016af8:	01efb023          	sd	x30,0(x31)
    41016afc:	000f0fb7          	lui	x31,0xf0
    41016b00:	001f8f9b          	addiw	x31,x31,1 # f0001 <mem0+0x5c001>
    41016b04:	00cf9f93          	slli	x31,x31,0xc
    41016b08:	005f8f93          	addi	x31,x31,5
    41016b0c:	00000073          	ecall
    41016b10:	00713423          	sd	x7,8(x2)
    41016b14:	0001bfb7          	lui	x31,0x1b
    41016b18:	3dff8f9b          	addiw	x31,x31,991 # 1b3df <SID_ZICBO_017_stack+0x83df>
    41016b1c:	00ff9f93          	slli	x31,x31,0xf
    41016b20:	0b8f8f93          	addi	x31,x31,184
    41016b24:	00400f13          	li	x30,4
    41016b28:	01efb023          	sd	x30,0(x31)
    41016b2c:	000f0fb7          	lui	x31,0xf0
    41016b30:	001f8f9b          	addiw	x31,x31,1 # f0001 <mem0+0x5c001>
    41016b34:	00cf9f93          	slli	x31,x31,0xc
    41016b38:	005f8f93          	addi	x31,x31,5
    41016b3c:	00000073          	ecall
    41016b40:	00713823          	sd	x7,16(x2)
    41016b44:	001a0137          	lui	x2,0x1a0
    41016b48:	000012b7          	lui	x5,0x1
    41016b4c:	00510133          	add	x2,x2,x5
    41016b50:	ff017113          	andi	x2,x2,-16
    41016b54:	0f000393          	li	x7,240
    41016b58:	0001bfb7          	lui	x31,0x1b
    41016b5c:	3dff8f9b          	addiw	x31,x31,991 # 1b3df <SID_ZICBO_017_stack+0x83df>
    41016b60:	00ff9f93          	slli	x31,x31,0xf
    41016b64:	0b8f8f93          	addi	x31,x31,184
    41016b68:	01600f13          	li	x30,22
    41016b6c:	01efb023          	sd	x30,0(x31)
    41016b70:	000f0fb7          	lui	x31,0xf0
    41016b74:	001f8f9b          	addiw	x31,x31,1 # f0001 <mem0+0x5c001>
    41016b78:	00cf9f93          	slli	x31,x31,0xc
    41016b7c:	005f8f93          	addi	x31,x31,5
    41016b80:	00000073          	ecall
    41016b84:	0f000393          	li	x7,240
    41016b88:	0001bfb7          	lui	x31,0x1b
    41016b8c:	3dff8f9b          	addiw	x31,x31,991 # 1b3df <SID_ZICBO_017_stack+0x83df>
    41016b90:	00ff9f93          	slli	x31,x31,0xf
    41016b94:	0c0f8f93          	addi	x31,x31,192
    41016b98:	01700f13          	li	x30,23
    41016b9c:	01efb023          	sd	x30,0(x31)
    41016ba0:	000f0fb7          	lui	x31,0xf0
    41016ba4:	001f8f9b          	addiw	x31,x31,1 # f0001 <mem0+0x5c001>
    41016ba8:	00cf9f93          	slli	x31,x31,0xc
    41016bac:	006f8f93          	addi	x31,x31,6
    41016bb0:	00000073          	ecall
    41016bb4:	0f000393          	li	x7,240
    41016bb8:	0001bfb7          	lui	x31,0x1b
    41016bbc:	3dff8f9b          	addiw	x31,x31,991 # 1b3df <SID_ZICBO_017_stack+0x83df>
    41016bc0:	00ff9f93          	slli	x31,x31,0xf
    41016bc4:	0c0f8f93          	addi	x31,x31,192
    41016bc8:	01800f13          	li	x30,24
    41016bcc:	01efb023          	sd	x30,0(x31)
    41016bd0:	000f0fb7          	lui	x31,0xf0
    41016bd4:	001f8f9b          	addiw	x31,x31,1 # f0001 <mem0+0x5c001>
    41016bd8:	00cf9f93          	slli	x31,x31,0xc
    41016bdc:	006f8f93          	addi	x31,x31,6
    41016be0:	00000073          	ecall
    41016be4:	00063e37          	lui	x28,0x63
    41016be8:	0004d4b7          	lui	x9,0x4d
    41016bec:	c814849b          	addiw	x9,x9,-895 # 4cc81 <pma_region_0_size+0xcc81>
    41016bf0:	00d49493          	slli	x9,x9,0xd
    41016bf4:	c0748493          	addi	x9,x9,-1017
    41016bf8:	d20481d3          	fcvt.d.w	f3,x9
    41016bfc:	003e3027          	fsd	f3,0(x28) # 63000 <mem18>
    41016c00:	00063337          	lui	x6,0x63
    41016c04:	07296bb7          	lui	x23,0x7296
    41016c08:	e45b8b9b          	addiw	x23,x23,-443 # 7295e45 <mem10+0x2bfbe45>
    41016c0c:	d23bf0d3          	fcvt.d.lu	f1,x23
    41016c10:	02133027          	fsd	f1,32(x6) # 63020 <mem18+0x20>
    41016c14:	00063bb7          	lui	x23,0x63
    41016c18:	00033337          	lui	x6,0x33
    41016c1c:	7e13031b          	addiw	x6,x6,2017 # 337e1 <mem4+0xb7e1>
    41016c20:	00e31313          	slli	x6,x6,0xe
    41016c24:	40730313          	addi	x6,x6,1031
    41016c28:	d02375d3          	fcvt.s.l	f11,x6
    41016c2c:	02bbbc27          	fsd	f11,56(x23) # 63038 <mem18+0x38>
    41016c30:	00063837          	lui	x16,0x63
    41016c34:	3ac76937          	lui	x18,0x3ac76
    41016c38:	52f9091b          	addiw	x18,x18,1327 # 3ac7652f <SID_ZICBO_022_stack+0x3ac752f>
    41016c3c:	d2297353          	fcvt.d.l	f6,x18
    41016c40:	04683027          	fsd	f6,64(x16) # 63040 <mem18+0x40>
    41016c44:	00063837          	lui	x16,0x63
    41016c48:	000a33b7          	lui	x7,0xa3
    41016c4c:	a7b3839b          	addiw	x7,x7,-1413 # a2a7b <mem0+0xea7b>
    41016c50:	00c39393          	slli	x7,x7,0xc
    41016c54:	e2238393          	addi	x7,x7,-478
    41016c58:	06781023          	sh	x7,96(x16) # 63060 <mem18+0x60>
    41016c5c:	00063737          	lui	x14,0x63
    41016c60:	2d5dbc37          	lui	x24,0x2d5db
    41016c64:	79ec0c1b          	addiw	x24,x24,1950 # 2d5db79e <mem6+0xe04079e>
    41016c68:	07872c23          	sw	x24,120(x14) # 63078 <mem18+0x78>
    41016c6c:	00063ab7          	lui	x21,0x63
    41016c70:	00000593          	li	x11,0
    41016c74:	00ba88b3          	add	x17,x21,x11
    41016c78:	0048a00f          	cbo.zero	(x17)
    41016c7c:	00000993          	li	x19,0
    41016c80:	00063d37          	lui	x26,0x63
    41016c84:	000d3903          	ld	x18,0(x26) # 63000 <mem18>
    41016c88:	01390e63          	beq	x18,x19,41016ca4 <pass_label_5>
    41016c8c:	0001ba37          	lui	x20,0x1b
    41016c90:	3dfa0a1b          	addiw	x20,x20,991 # 1b3df <SID_ZICBO_017_stack+0x83df>
    41016c94:	00fa1a13          	slli	x20,x20,0xf
    41016c98:	008a0a13          	addi	x20,x20,8
    41016c9c:	000a3883          	ld	x17,0(x20)
    41016ca0:	00088067          	jr	x17 # 86000 <mem16>

0000000041016ca4 <pass_label_5>:
    41016ca4:	00063eb7          	lui	x29,0x63
    41016ca8:	020ebd03          	ld	x26,32(x29) # 63020 <mem18+0x20>
    41016cac:	013d0e63          	beq	x26,x19,41016cc8 <pass_label_6>
    41016cb0:	0001b8b7          	lui	x17,0x1b
    41016cb4:	3df8889b          	addiw	x17,x17,991 # 1b3df <SID_ZICBO_017_stack+0x83df>
    41016cb8:	00f89893          	slli	x17,x17,0xf
    41016cbc:	00888893          	addi	x17,x17,8
    41016cc0:	0008bf83          	ld	x31,0(x17)
    41016cc4:	000f8067          	jr	x31

0000000041016cc8 <pass_label_6>:
    41016cc8:	000633b7          	lui	x7,0x63
    41016ccc:	0383b883          	ld	x17,56(x7) # 63038 <mem18+0x38>
    41016cd0:	01388e63          	beq	x17,x19,41016cec <pass_label_7>
    41016cd4:	0001be37          	lui	x28,0x1b
    41016cd8:	3dfe0e1b          	addiw	x28,x28,991 # 1b3df <SID_ZICBO_017_stack+0x83df>
    41016cdc:	00fe1e13          	slli	x28,x28,0xf
    41016ce0:	008e0e13          	addi	x28,x28,8
    41016ce4:	000e3a83          	ld	x21,0(x28)
    41016ce8:	000a8067          	jr	x21 # 63000 <mem18>

0000000041016cec <pass_label_7>:
    41016cec:	000635b7          	lui	x11,0x63
    41016cf0:	0405b683          	ld	x13,64(x11) # 63040 <mem18+0x40>
    41016cf4:	01369e63          	bne	x13,x19,41016d10 <pass_label_8>
    41016cf8:	0001b437          	lui	x8,0x1b
    41016cfc:	3df4041b          	addiw	x8,x8,991 # 1b3df <SID_ZICBO_017_stack+0x83df>
    41016d00:	00f41413          	slli	x8,x8,0xf
    41016d04:	00840413          	addi	x8,x8,8
    41016d08:	00043b83          	ld	x23,0(x8)
    41016d0c:	000b8067          	jr	x23

0000000041016d10 <pass_label_8>:
    41016d10:	00063937          	lui	x18,0x63
    41016d14:	06093703          	ld	x14,96(x18) # 63060 <mem18+0x60>
    41016d18:	01371e63          	bne	x14,x19,41016d34 <pass_label_9>
    41016d1c:	0001bd37          	lui	x26,0x1b
    41016d20:	3dfd0d1b          	addiw	x26,x26,991 # 1b3df <SID_ZICBO_017_stack+0x83df>
    41016d24:	00fd1d13          	slli	x26,x26,0xf
    41016d28:	008d0d13          	addi	x26,x26,8
    41016d2c:	000d3f03          	ld	x30,0(x26)
    41016d30:	000f0067          	jr	x30 # 1fa000 <mem17>

0000000041016d34 <pass_label_9>:
    41016d34:	00063837          	lui	x16,0x63
    41016d38:	07883b03          	ld	x22,120(x16) # 63078 <mem18+0x78>
    41016d3c:	013b1e63          	bne	x22,x19,41016d58 <pass_label_10>
    41016d40:	0001ba37          	lui	x20,0x1b
    41016d44:	3dfa0a1b          	addiw	x20,x20,991 # 1b3df <SID_ZICBO_017_stack+0x83df>
    41016d48:	00fa1a13          	slli	x20,x20,0xf
    41016d4c:	008a0a13          	addi	x20,x20,8
    41016d50:	000a3983          	ld	x19,0(x20)
    41016d54:	00098067          	jr	x19

0000000041016d58 <pass_label_10>:
    41016d58:	00047137          	lui	x2,0x47
    41016d5c:	d591011b          	addiw	x2,x2,-679 # 46d59 <pma_region_0_size+0x6d59>
    41016d60:	00d11113          	slli	x2,x2,0xd
    41016d64:	00013383          	ld	x7,0(x2)
    41016d68:	0001bfb7          	lui	x31,0x1b
    41016d6c:	3dff8f9b          	addiw	x31,x31,991 # 1b3df <SID_ZICBO_017_stack+0x83df>
    41016d70:	00ff9f93          	slli	x31,x31,0xf
    41016d74:	0b8f8f93          	addi	x31,x31,184
    41016d78:	01900f13          	li	x30,25
    41016d7c:	01efb023          	sd	x30,0(x31)
    41016d80:	000f0fb7          	lui	x31,0xf0
    41016d84:	001f8f9b          	addiw	x31,x31,1 # f0001 <mem0+0x5c001>
    41016d88:	00cf9f93          	slli	x31,x31,0xc
    41016d8c:	005f8f93          	addi	x31,x31,5
    41016d90:	00000073          	ecall
    41016d94:	00813383          	ld	x7,8(x2)
    41016d98:	0001bfb7          	lui	x31,0x1b
    41016d9c:	3dff8f9b          	addiw	x31,x31,991 # 1b3df <SID_ZICBO_017_stack+0x83df>
    41016da0:	00ff9f93          	slli	x31,x31,0xf
    41016da4:	0b8f8f93          	addi	x31,x31,184
    41016da8:	00300f13          	li	x30,3
    41016dac:	01efb023          	sd	x30,0(x31)
    41016db0:	000f0fb7          	lui	x31,0xf0
    41016db4:	001f8f9b          	addiw	x31,x31,1 # f0001 <mem0+0x5c001>
    41016db8:	00cf9f93          	slli	x31,x31,0xc
    41016dbc:	005f8f93          	addi	x31,x31,5
    41016dc0:	00000073          	ecall
    41016dc4:	01013383          	ld	x7,16(x2)
    41016dc8:	0001bfb7          	lui	x31,0x1b
    41016dcc:	3dff8f9b          	addiw	x31,x31,991 # 1b3df <SID_ZICBO_017_stack+0x83df>
    41016dd0:	00ff9f93          	slli	x31,x31,0xf
    41016dd4:	0b8f8f93          	addi	x31,x31,184
    41016dd8:	00600f13          	li	x30,6
    41016ddc:	01efb023          	sd	x30,0(x31)
    41016de0:	000f0fb7          	lui	x31,0xf0
    41016de4:	001f8f9b          	addiw	x31,x31,1 # f0001 <mem0+0x5c001>
    41016de8:	00cf9f93          	slli	x31,x31,0xc
    41016dec:	005f8f93          	addi	x31,x31,5
    41016df0:	00000073          	ecall

0000000041016df4 <SID_ZICBO_50_ZIC64B_01_passed>:
    41016df4:	00f00f9b          	addiw	x31,x0,15
    41016df8:	01cf9f93          	slli	x31,x31,0x1c
    41016dfc:	001f8f93          	addi	x31,x31,1
    41016e00:	00000073          	ecall

0000000041016e04 <test_cleanup>:
    41016e04:	00f00f9b          	addiw	x31,x0,15
    41016e08:	01cf9f93          	slli	x31,x31,0x1c
    41016e0c:	001f8f93          	addi	x31,x31,1
    41016e10:	00000073          	ecall

0000000041016e14 <local_test_failed>:
    41016e14:	00f00f9b          	addiw	x31,x0,15
    41016e18:	01cf9f93          	slli	x31,x31,0x1c
    41016e1c:	002f8f93          	addi	x31,x31,2
    41016e20:	00000073          	ecall

Disassembly of section .csr_machine_0:

0000000041215000 <csr_access_menvcfg_machine_key_3_write-0x70>:
    41215000:	44b34fb7          	lui	x31,0x44b34
    41215004:	0b8f8f9b          	addiw	x31,x31,184 # 44b340b8 <machine_csr_jump_table_flags_pa>
    41215008:	000fbf83          	ld	x31,0(x31)
    4121500c:	00300293          	li	x5,3
    41215010:	065f8063          	beq	x31,x5,41215070 <csr_access_menvcfg_machine_key_3_write>
    41215014:	00100293          	li	x5,1
    41215018:	065f8063          	beq	x31,x5,41215078 <csr_access_menvcfg_machine_key_1_read>
    4121501c:	01600293          	li	x5,22
    41215020:	065f8063          	beq	x31,x5,41215080 <csr_access_menvcfg_machine_key_22_set>
    41215024:	00200293          	li	x5,2
    41215028:	065f8063          	beq	x31,x5,41215088 <csr_access_menvcfg_machine_key_2_clear>
    4121502c:	00600293          	li	x5,6
    41215030:	065f8063          	beq	x31,x5,41215090 <csr_access_senvcfg_supervisor_key_6_write>
    41215034:	00400293          	li	x5,4
    41215038:	065f8063          	beq	x31,x5,41215098 <csr_access_senvcfg_supervisor_key_4_read>
    4121503c:	01900293          	li	x5,25
    41215040:	065f8063          	beq	x31,x5,412150a0 <csr_access_henvcfg_supervisor_key_25_write>
    41215044:	01300293          	li	x5,19
    41215048:	065f8063          	beq	x31,x5,412150a8 <csr_access_henvcfg_supervisor_key_19_read>
    4121504c:	01c00293          	li	x5,28
    41215050:	065f8063          	beq	x31,x5,412150b0 <csr_access_mstatus_machine_key_28_set>
    41215054:	01a00293          	li	x5,26
    41215058:	065f8063          	beq	x31,x5,412150b8 <csr_access_mstatus_machine_key_26_clear>
    4121505c:	01f00293          	li	x5,31
    41215060:	065f8063          	beq	x31,x5,412150c0 <csr_access_mtvec_machine_key_31_set>
    41215064:	01e00293          	li	x5,30
    41215068:	065f8063          	beq	x31,x5,412150c8 <csr_access_mtvec_machine_key_30_clear>
    4121506c:	0640006f          	j	412150d0 <end_machine_label>

0000000041215070 <csr_access_menvcfg_machine_key_3_write>:
    41215070:	30a39073          	csrw	0x30a,x7
    41215074:	05c0006f          	j	412150d0 <end_machine_label>

0000000041215078 <csr_access_menvcfg_machine_key_1_read>:
    41215078:	30a023f3          	csrr	x7,0x30a
    4121507c:	0540006f          	j	412150d0 <end_machine_label>

0000000041215080 <csr_access_menvcfg_machine_key_22_set>:
    41215080:	30a3a073          	csrs	0x30a,x7
    41215084:	04c0006f          	j	412150d0 <end_machine_label>

0000000041215088 <csr_access_menvcfg_machine_key_2_clear>:
    41215088:	30a3b073          	csrc	0x30a,x7
    4121508c:	0440006f          	j	412150d0 <end_machine_label>

0000000041215090 <csr_access_senvcfg_supervisor_key_6_write>:
    41215090:	10a39073          	csrw	0x10a,x7
    41215094:	03c0006f          	j	412150d0 <end_machine_label>

0000000041215098 <csr_access_senvcfg_supervisor_key_4_read>:
    41215098:	10a023f3          	csrr	x7,0x10a
    4121509c:	0340006f          	j	412150d0 <end_machine_label>

00000000412150a0 <csr_access_henvcfg_supervisor_key_25_write>:
    412150a0:	60a39073          	csrw	henvcfg,x7
    412150a4:	02c0006f          	j	412150d0 <end_machine_label>

00000000412150a8 <csr_access_henvcfg_supervisor_key_19_read>:
    412150a8:	60a023f3          	csrr	x7,henvcfg
    412150ac:	0240006f          	j	412150d0 <end_machine_label>

00000000412150b0 <csr_access_mstatus_machine_key_28_set>:
    412150b0:	3003a073          	csrs	mstatus,x7
    412150b4:	01c0006f          	j	412150d0 <end_machine_label>

00000000412150b8 <csr_access_mstatus_machine_key_26_clear>:
    412150b8:	3003b073          	csrc	mstatus,x7
    412150bc:	0140006f          	j	412150d0 <end_machine_label>

00000000412150c0 <csr_access_mtvec_machine_key_31_set>:
    412150c0:	3053a073          	csrs	mtvec,x7
    412150c4:	00c0006f          	j	412150d0 <end_machine_label>

00000000412150c8 <csr_access_mtvec_machine_key_30_clear>:
    412150c8:	3053b073          	csrc	mtvec,x7
    412150cc:	0040006f          	j	412150d0 <end_machine_label>

00000000412150d0 <end_machine_label>:
    412150d0:	000f0fb7          	lui	x31,0xf0
    412150d4:	001f8f9b          	addiw	x31,x31,1 # f0001 <mem0+0x5c001>
    412150d8:	00cf9f93          	slli	x31,x31,0xc
    412150dc:	004f8f93          	addi	x31,x31,4
    412150e0:	00000073          	ecall

Disassembly of section .csr_super_0:

0000000041216000 <csr_access_senvcfg_supervisor_key_23_set-0x50>:
    41216000:	0001bfb7          	lui	x31,0x1b
    41216004:	3dff8f9b          	addiw	x31,x31,991 # 1b3df <SID_ZICBO_017_stack+0x83df>
    41216008:	00ff9f93          	slli	x31,x31,0xf
    4121600c:	0c0f8f93          	addi	x31,x31,192
    41216010:	000fbf83          	ld	x31,0(x31)
    41216014:	01700293          	li	x5,23
    41216018:	025f8c63          	beq	x31,x5,41216050 <csr_access_senvcfg_supervisor_key_23_set>
    4121601c:	00500293          	li	x5,5
    41216020:	025f8c63          	beq	x31,x5,41216058 <csr_access_senvcfg_supervisor_key_5_clear>
    41216024:	01800293          	li	x5,24
    41216028:	025f8c63          	beq	x31,x5,41216060 <csr_access_henvcfg_supervisor_key_24_set>
    4121602c:	01d00293          	li	x5,29
    41216030:	025f8c63          	beq	x31,x5,41216068 <csr_access_sstatus_supervisor_key_29_set>
    41216034:	01b00293          	li	x5,27
    41216038:	025f8c63          	beq	x31,x5,41216070 <csr_access_sstatus_supervisor_key_27_clear>
    4121603c:	02100293          	li	x5,33
    41216040:	025f8c63          	beq	x31,x5,41216078 <csr_access_stvec_supervisor_key_33_set>
    41216044:	02000293          	li	x5,32
    41216048:	025f8c63          	beq	x31,x5,41216080 <csr_access_stvec_supervisor_key_32_clear>
    4121604c:	03c0006f          	j	41216088 <end_super_label>

0000000041216050 <csr_access_senvcfg_supervisor_key_23_set>:
    41216050:	10a3a073          	csrs	0x10a,x7
    41216054:	0340006f          	j	41216088 <end_super_label>

0000000041216058 <csr_access_senvcfg_supervisor_key_5_clear>:
    41216058:	10a3b073          	csrc	0x10a,x7
    4121605c:	02c0006f          	j	41216088 <end_super_label>

0000000041216060 <csr_access_henvcfg_supervisor_key_24_set>:
    41216060:	60a3a073          	csrs	henvcfg,x7
    41216064:	0240006f          	j	41216088 <end_super_label>

0000000041216068 <csr_access_sstatus_supervisor_key_29_set>:
    41216068:	1003a073          	csrs	sstatus,x7
    4121606c:	01c0006f          	j	41216088 <end_super_label>

0000000041216070 <csr_access_sstatus_supervisor_key_27_clear>:
    41216070:	1003b073          	csrc	sstatus,x7
    41216074:	0140006f          	j	41216088 <end_super_label>

0000000041216078 <csr_access_stvec_supervisor_key_33_set>:
    41216078:	1053a073          	csrs	stvec,x7
    4121607c:	00c0006f          	j	41216088 <end_super_label>

0000000041216080 <csr_access_stvec_supervisor_key_32_clear>:
    41216080:	1053b073          	csrc	stvec,x7
    41216084:	0040006f          	j	41216088 <end_super_label>

0000000041216088 <end_super_label>:
    41216088:	000f0fb7          	lui	x31,0xf0
    4121608c:	001f8f9b          	addiw	x31,x31,1 # f0001 <mem0+0x5c001>
    41216090:	00cf9f93          	slli	x31,x31,0xc
    41216094:	004f8f93          	addi	x31,x31,4
    41216098:	00000073          	ecall

Disassembly of section .os_data:

00000000d9ef8000 <passed_addr_ptr>:
    d9ef8000:	5080                	.insn	2, 0x5080
    d9ef8002:	4101                	.insn	2, 0x4101
    d9ef8004:	0000                	.insn	2, 0x0000
	...

00000000d9ef8008 <failed_addr_ptr>:
    d9ef8008:	5090                	.insn	2, 0x5090
    d9ef800a:	4101                	.insn	2, 0x4101
    d9ef800c:	0000                	.insn	2, 0x0000
	...

00000000d9ef8010 <end_test_addr_ptr>:
    d9ef8010:	50a0                	.insn	2, 0x50a0
    d9ef8012:	4101                	.insn	2, 0x4101
    d9ef8014:	0000                	.insn	2, 0x0000
	...

00000000d9ef8018 <os_passed_addr_ptr>:
    d9ef8018:	07b0                	.insn	2, 0x07b0
    d9ef801a:	4100                	.insn	2, 0x4100
    d9ef801c:	0000                	.insn	2, 0x0000
	...

00000000d9ef8020 <os_failed_addr_ptr>:
    d9ef8020:	07c0                	.insn	2, 0x07c0
    d9ef8022:	4100                	.insn	2, 0x4100
    d9ef8024:	0000                	.insn	2, 0x0000
	...

00000000d9ef8028 <os_end_test_addr_ptr>:
    d9ef8028:	07cc                	.insn	2, 0x07cc
    d9ef802a:	4100                	.insn	2, 0x4100
    d9ef802c:	0000                	.insn	2, 0x0000
	...

00000000d9ef8030 <rvcp_prefix_str_data>:
    d9ef8030:	5652                	.insn	2, 0x5652
    d9ef8032:	203a5043          	fmadd.s	f0,f20,f3,f4,unknown
    d9ef8036:	6554                	.insn	2, 0x6554
    d9ef8038:	46207473          	csrrci	x8,0x462,0
    d9ef803c:	6c69                	.insn	2, 0x6c69
    d9ef803e:	2065                	.insn	2, 0x2065
	...

00000000d9ef8041 <rvcp_testname_str_data>:
    d9ef8041:	7074                	.insn	2, 0x7074
    d9ef8043:	7a5f 6369 6f62      	.insn	6, 0x6f6263697a5f
    d9ef8049:	5f6d                	.insn	2, 0x5f6d
    d9ef804b:	697a                	.insn	2, 0x697a
    d9ef804d:	7a6f6263          	bltu	x30,x6,d9ef87f1 <num_hard_fails_mem+0x709>
    d9ef8051:	7a5f 6369 6f62      	.insn	6, 0x6f6263697a5f
    d9ef8057:	5f70                	.insn	2, 0x5f70
    d9ef8059:	697a                	.insn	2, 0x697a
    d9ef805b:	62343663          	.insn	4, 0x62343663
    d9ef805f:	315f        	.insn	6, 0x53415000315f

00000000d9ef8062 <rvcp_passed_str_data>:
    d9ef8062:	4150                	.insn	2, 0x4150
    d9ef8064:	44455353          	fround.h	f6,f10,unknown
	...

00000000d9ef8069 <rvcp_failed_str_data>:
    d9ef8069:	4146                	.insn	2, 0x4146
    d9ef806b:	4c49                	.insn	2, 0x4c49
    d9ef806d:	4445                	.insn	2, 0x4445
	...

00000000d9ef8070 <rvcp_space_str_data>:
    d9ef8070:	0020                	.insn	2, 0x0020

00000000d9ef8072 <rvcp_newline_str_data>:
    d9ef8072:	000a                	.insn	2, 0x000a
    d9ef8074:	0000                	.insn	2, 0x0000
	...

00000000d9ef8078 <excp_ignored_count_mem>:
	...

00000000d9ef8080 <machine_flags_mem>:
	...

00000000d9ef8088 <user_flags_mem>:
	...

00000000d9ef8090 <super_flags_mem>:
	...

00000000d9ef8098 <machine_area_mem>:
	...

00000000d9ef80a0 <user_area_mem>:
	...

00000000d9ef80a8 <super_area_mem>:
	...

00000000d9ef80b0 <zero_data_mem>:
	...

00000000d9ef80b8 <machine_csr_jump_table_flags_mem>:
	...

00000000d9ef80c0 <super_csr_jump_table_flags_mem>:
	...

00000000d9ef80c8 <pte_access_flags_mem>:
	...

00000000d9ef80e0 <num_harts_ended_mem>:
	...

00000000d9ef80e8 <num_hard_fails_mem>:
	...

Disassembly of section .hart_context:

0000000000002000 <hart_context_0>:
    2000:	b000                	.insn	2, 0xb000
    2002:	00003e03          	ld	x28,0(x0) # 0 <ALL_4KB_PAGES>
	...
    2016:	0000                	.insn	2, 0x0000
    2018:	0001                	.insn	2, 0x0001
    201a:	0000                	.insn	2, 0x0000
    201c:	0000                	.insn	2, 0x0000
    201e:	0000                	.insn	2, 0x0000
    2020:	ffff                	.insn	2, 0xffff
    2022:	ffff                	.insn	2, 0xffff
    2024:	ffff                	.insn	2, 0xffff
    2026:	ffff                	.insn	2, 0xffff
    2028:	ffff                	.insn	2, 0xffff
    202a:	ffff                	.insn	2, 0xffff
    202c:	ffff                	.insn	2, 0xffff
    202e:	ffff                	.insn	2, 0xffff
    2030:	ffff                	.insn	2, 0xffff
    2032:	ffff                	.insn	2, 0xffff
    2034:	ffff                	.insn	2, 0xffff
    2036:	ffff                	.insn	2, 0xffff
	...
    2050:	00ff 0000 0000 0000 	.insn	10, 0x00ff00000000000000ff
    2058:	00ff 
	...
    2176:	0000                	.insn	2, 0x0000
    2178:	ffff                	.insn	2, 0xffff
    217a:	ffff                	.insn	2, 0xffff
    217c:	ffff                	.insn	2, 0xffff
    217e:	ffff                	.insn	2, 0xffff
	...
    2188:	ffff                	.insn	2, 0xffff
    218a:	ffff                	.insn	2, 0xffff
	...

Disassembly of section .hart_stack_0:

000000003e03a000 <hart_stack_0>:
	...

Disassembly of section .io_htif:

0000000041040000 <tohost>:
	...

0000000041040040 <fromhost>:
	...

Disassembly of section .mem0:

0000000000094000 <.mem0>:
   94000:	c0de                	.insn	2, 0xc0de
   94002:	c001                	.insn	2, 0xc001
   94004:	0000                	.insn	2, 0x0000
	...

Disassembly of section .mem1:

0000003f817b0000 <.mem1>:
  3f817b0000:	c0de                	.insn	2, 0xc0de
  3f817b0002:	c001                	.insn	2, 0xc001
  3f817b0004:	0000                	.insn	2, 0x0000
	...

Disassembly of section .mem2:

0000000008941000 <.mem2>:
 8941000:	c0de                	.insn	2, 0xc0de
 8941002:	c001                	.insn	2, 0xc001
 8941004:	0000                	.insn	2, 0x0000
	...

Disassembly of section .mem3:

ffffffca1afbc000 <.mem3>:
ffffffca1afbc000:	c0de                	.insn	2, 0xc0de
ffffffca1afbc002:	c001                	.insn	2, 0xc001
ffffffca1afbc004:	0000                	.insn	2, 0x0000
	...

Disassembly of section .mem4:

0000000000028000 <.mem4>:
   28000:	c0de                	.insn	2, 0xc0de
   28002:	c001                	.insn	2, 0xc001
   28004:	0000                	.insn	2, 0x0000
	...

Disassembly of section .mem5:

000000000000d000 <.mem5>:
    d000:	c0de                	.insn	2, 0xc0de
    d002:	c001                	.insn	2, 0xc001
    d004:	0000                	.insn	2, 0x0000
	...

Disassembly of section .mem6:

000000001f59b000 <.mem6>:
    1f59b000:	c0de                	.insn	2, 0xc0de
    1f59b002:	c001                	.insn	2, 0xc001
    1f59b004:	0000                	.insn	2, 0x0000
	...

Disassembly of section .mem7:

0000000003f21000 <.mem7>:
 3f21000:	c0de                	.insn	2, 0xc0de
 3f21002:	c001                	.insn	2, 0xc001
 3f21004:	0000                	.insn	2, 0x0000
	...

Disassembly of section .mem8:

000000070b54b000 <.mem8>:
   70b54b000:	c0de                	.insn	2, 0xc0de
   70b54b002:	c001                	.insn	2, 0xc001
   70b54b004:	0000                	.insn	2, 0x0000
	...

Disassembly of section .mem9:

000000017c5cf000 <.mem9>:
   17c5cf000:	c0de                	.insn	2, 0xc0de
   17c5cf002:	c001                	.insn	2, 0xc001
   17c5cf004:	0000                	.insn	2, 0x0000
	...

Disassembly of section .mem10:

000000000469a000 <.mem10>:
 469a000:	c0de                	.insn	2, 0xc0de
 469a002:	c001                	.insn	2, 0xc001
 469a004:	0000                	.insn	2, 0x0000
	...

Disassembly of section .mem11:

00000003fbefc000 <.mem11>:
   3fbefc000:	c0de                	.insn	2, 0xc0de
   3fbefc002:	c001                	.insn	2, 0xc001
   3fbefc004:	0000                	.insn	2, 0x0000
	...

Disassembly of section .mem12:

00000000001f3000 <.mem12>:
  1f3000:	c0de                	.insn	2, 0xc0de
  1f3002:	c001                	.insn	2, 0xc001
  1f3004:	0000                	.insn	2, 0x0000
	...

Disassembly of section .mem13:

0000000000020000 <.mem13>:
   20000:	c0de                	.insn	2, 0xc0de
   20002:	c001                	.insn	2, 0xc001
   20004:	0000                	.insn	2, 0x0000
	...

Disassembly of section .mem14:

00000000027ce000 <.mem14>:
 27ce000:	c0de                	.insn	2, 0xc0de
 27ce002:	c001                	.insn	2, 0xc001
 27ce004:	0000                	.insn	2, 0x0000
	...

Disassembly of section .mem15:

0000002758eca000 <.mem15>:
  2758eca000:	c0de                	.insn	2, 0xc0de
  2758eca002:	c001                	.insn	2, 0xc001
  2758eca004:	0000                	.insn	2, 0x0000
	...

Disassembly of section .mem16:

0000000000086000 <.mem16>:
   86000:	c0de                	.insn	2, 0xc0de
   86002:	c001                	.insn	2, 0xc001
   86004:	0000                	.insn	2, 0x0000
	...

Disassembly of section .mem17:

00000000001fa000 <.mem17>:
  1fa000:	c0de                	.insn	2, 0xc0de
  1fa002:	c001                	.insn	2, 0xc001
  1fa004:	0000                	.insn	2, 0x0000
	...

Disassembly of section .mem18:

0000000000063000 <.mem18>:
   63000:	c0de                	.insn	2, 0xc0de
   63002:	c001                	.insn	2, 0xc001
   63004:	0000                	.insn	2, 0x0000
	...

Disassembly of section .tp_csr_storage:

000000008dab2000 <.tp_csr_storage>:
    8dab2000:	c0de                	.insn	2, 0xc0de
    8dab2002:	c001                	.insn	2, 0xc001
    8dab2004:	0000                	.insn	2, 0x0000
	...

Disassembly of section .SID_ZICBO_001_stack:

0000000000065000 <.SID_ZICBO_001_stack>:
   65000:	c0de                	.insn	2, 0xc0de
   65002:	c001                	.insn	2, 0xc001
   65004:	0000                	.insn	2, 0x0000
	...

Disassembly of section .SID_ZICBO_002_stack:

0000000000038000 <.SID_ZICBO_002_stack>:
   38000:	c0de                	.insn	2, 0xc0de
   38002:	c001                	.insn	2, 0xc001
   38004:	0000                	.insn	2, 0x0000
	...

Disassembly of section .SID_ZICBO_003_stack:

0000000040e6b000 <.SID_ZICBO_003_stack>:
    40e6b000:	c0de                	.insn	2, 0xc0de
    40e6b002:	c001                	.insn	2, 0xc001
    40e6b004:	0000                	.insn	2, 0x0000
	...

Disassembly of section .SID_ZICBO_004_stack:

00000000d9ef6000 <.SID_ZICBO_004_stack>:
    d9ef6000:	c0de                	.insn	2, 0xc0de
    d9ef6002:	c001                	.insn	2, 0xc001
    d9ef6004:	0000                	.insn	2, 0x0000
	...

Disassembly of section .SID_ZICBO_005_stack:

000000005780c000 <.SID_ZICBO_005_stack>:
    5780c000:	c0de                	.insn	2, 0xc0de
    5780c002:	c001                	.insn	2, 0xc001
    5780c004:	0000                	.insn	2, 0x0000
	...

Disassembly of section .SID_ZICBO_006_stack:

0000003f817ae000 <.SID_ZICBO_006_stack>:
  3f817ae000:	c0de                	.insn	2, 0xc0de
  3f817ae002:	c001                	.insn	2, 0xc001
  3f817ae004:	0000                	.insn	2, 0x0000
	...

Disassembly of section .SID_ZICBO_013_stack:

000000008725a000 <.SID_ZICBO_013_stack>:
    8725a000:	c0de                	.insn	2, 0xc0de
    8725a002:	c001                	.insn	2, 0xc001
    8725a004:	0000                	.insn	2, 0x0000
	...

Disassembly of section .SID_ZICBO_015_stack:

0000000000bf9000 <.SID_ZICBO_015_stack>:
  bf9000:	c0de                	.insn	2, 0xc0de
  bf9002:	c001                	.insn	2, 0xc001
  bf9004:	0000                	.insn	2, 0x0000
	...

Disassembly of section .SID_ZICBO_016_stack:

0000000000856000 <.SID_ZICBO_016_stack>:
  856000:	c0de                	.insn	2, 0xc0de
  856002:	c001                	.insn	2, 0xc001
  856004:	0000                	.insn	2, 0x0000
	...

Disassembly of section .SID_ZICBO_017_stack:

0000000000013000 <.SID_ZICBO_017_stack>:
   13000:	c0de                	.insn	2, 0xc0de
   13002:	c001                	.insn	2, 0xc001
   13004:	0000                	.insn	2, 0x0000
	...

Disassembly of section .SID_ZICBO_018_stack:

0000000000005000 <.SID_ZICBO_018_stack>:
    5000:	c0de                	.insn	2, 0xc0de
    5002:	c001                	.insn	2, 0xc001
    5004:	0000                	.insn	2, 0x0000
	...

Disassembly of section .SID_ZICBO_019_stack:

0000003fa79bb000 <.SID_ZICBO_019_stack>:
  3fa79bb000:	c0de                	.insn	2, 0xc0de
  3fa79bb002:	c001                	.insn	2, 0xc001
  3fa79bb004:	0000                	.insn	2, 0x0000
	...

Disassembly of section .SID_ZICBO_020_stack:

0000003f94023000 <.SID_ZICBO_020_stack>:
  3f94023000:	c0de                	.insn	2, 0xc0de
  3f94023002:	c001                	.insn	2, 0xc001
  3f94023004:	0000                	.insn	2, 0x0000
	...

Disassembly of section .SID_ZICBO_022_stack:

00000000371af000 <.SID_ZICBO_022_stack>:
    371af000:	c0de                	.insn	2, 0xc0de
    371af002:	c001                	.insn	2, 0xc001
    371af004:	0000                	.insn	2, 0x0000
	...

Disassembly of section .SID_ZICBO_047_stack:

00000003fe61f000 <.SID_ZICBO_047_stack>:
   3fe61f000:	c0de                	.insn	2, 0xc0de
   3fe61f002:	c001                	.insn	2, 0xc001
   3fe61f004:	0000                	.insn	2, 0x0000
	...

Disassembly of section .SID_ZICBO_049_stack:

ffffffca1afba000 <.SID_ZICBO_049_stack>:
ffffffca1afba000:	c0de                	.insn	2, 0xc0de
ffffffca1afba002:	c001                	.insn	2, 0xc001
ffffffca1afba004:	0000                	.insn	2, 0x0000
	...

Disassembly of section .SID_ZICBO_50_ZIC64B_01_stack:

00000000001a0000 <.SID_ZICBO_50_ZIC64B_01_stack>:
  1a0000:	c0de                	.insn	2, 0xc0de
  1a0002:	c001                	.insn	2, 0xc001
  1a0004:	0000                	.insn	2, 0x0000
	...

Disassembly of section .__pagetable_map_os_0x00000000422ae000:

00000000422ae000 <__pagetable_map_os_0x00000000422ae000>:
    422ae000:	3401                	.insn	2, 0x3401
    422ae002:	000010a3          	sh	x0,1(x0) # 1 <CHECK_EXCP_MODE_MACHINE>
    422ae006:	0000                	.insn	2, 0x0000
    422ae008:	1c01                	.insn	2, 0x1c01
    422ae00a:	1088                	.insn	2, 0x1088
    422ae00c:	0000                	.insn	2, 0x0000
    422ae00e:	0000                	.insn	2, 0x0000
    422ae010:	0001                	.insn	2, 0x0001
    422ae012:	0000113f 4c010000 	.insn	8, 0x4c0100000000113f
    422ae01a:	000010a3          	sh	x0,1(x0) # 1 <CHECK_EXCP_MODE_MACHINE>
	...
    422ae026:	0000                	.insn	2, 0x0000
    422ae028:	7401                	.insn	2, 0x7401
    422ae02a:	113e                	.insn	2, 0x113e
	...
    422ae078:	e801                	.insn	2, 0xe801
    422ae07a:	0000113f 00000000 	.insn	8, 0x113f
	...
    422ae0de:	0000                	.insn	2, 0x0000
    422ae0e0:	6401                	.insn	2, 0x6401
    422ae0e2:	10ec                	.insn	2, 0x10ec
	...
    422ae4e8:	1401                	.insn	2, 0x1401
    422ae4ea:	104e                	.insn	2, 0x104e
	...
    422ae7f0:	0c01                	.insn	2, 0x0c01
    422ae7f2:	1140                	.insn	2, 0x1140
	...
    422ae940:	c001                	.insn	2, 0xc001
    422ae942:	10ec                	.insn	2, 0x10ec
    422ae944:	0000                	.insn	2, 0x0000
	...

Disassembly of section .__pagetable_map_os_0x0000000042207000:

0000000042207000 <__pagetable_map_os_0x0000000042207000>:
	...
    42207038:	6001                	.insn	2, 0x6001
    4220703a:	108a                	.insn	2, 0x108a
    4220703c:	0000                	.insn	2, 0x0000
    4220703e:	0000                	.insn	2, 0x0000
    42207040:	3c01                	.insn	2, 0x3c01
    42207042:	10e2                	.insn	2, 0x10e2
    42207044:	0000                	.insn	2, 0x0000
    42207046:	0000                	.insn	2, 0x0000
    42207048:	2001                	.insn	2, 0x2001
    4220704a:	1088                	.insn	2, 0x1088
	...
    42207088:	0c01                	.insn	2, 0x0c01
    4220708a:	1088                	.insn	2, 0x1088
	...
    422075e0:	0801                	.insn	2, 0x0801
    422075e2:	104e                	.insn	2, 0x104e
    422075e4:	0000                	.insn	2, 0x0000
	...

Disassembly of section .__pagetable_map_os_0x000000004388f000:

000000004388f000 <__pagetable_map_os_0x000000004388f000>:
	...
    4388f080:	40df 1040 0000      	.insn	6, 0x104040df
    4388f086:	0000                	.insn	2, 0x0000
    4388f088:	104044cf          	fnmadd.s	f9,f0,f4,f2,rmm
    4388f08c:	0000                	.insn	2, 0x0000
    4388f08e:	0000                	.insn	2, 0x0000
    4388f090:	104048cf          	fnmadd.s	f17,f0,f4,f2,rmm
    4388f094:	0000                	.insn	2, 0x0000
    4388f096:	0000                	.insn	2, 0x0000
    4388f098:	10404ccf          	fnmadd.s	f25,f0,f4,f2,rmm
    4388f09c:	0000                	.insn	2, 0x0000
    4388f09e:	0000                	.insn	2, 0x0000
    4388f0a0:	104050cf          	fnmadd.s	f1,f0,f4,f2,unknown
    4388f0a4:	0000                	.insn	2, 0x0000
    4388f0a6:	0000                	.insn	2, 0x0000
    4388f0a8:	00df 1080 0000      	.insn	6, 0x108000df
    4388f0ae:	0000                	.insn	2, 0x0000
    4388f0b0:	04df 1080 0000      	.insn	6, 0x108004df
    4388f0b6:	0000                	.insn	2, 0x0000
    4388f0b8:	08df 1080 0000      	.insn	6, 0x108008df
    4388f0be:	0000                	.insn	2, 0x0000
    4388f0c0:	0cdf 1080 0000      	.insn	6, 0x10800cdf
    4388f0c6:	0000                	.insn	2, 0x0000
    4388f0c8:	10df 1080 0000      	.insn	6, 0x108010df
    4388f0ce:	0000                	.insn	2, 0x0000
    4388f0d0:	14df 1080 0000      	.insn	6, 0x108014df
    4388f0d6:	0000                	.insn	2, 0x0000
    4388f0d8:	18df 1080 0000      	.insn	6, 0x108018df
    4388f0de:	0000                	.insn	2, 0x0000
    4388f0e0:	1cdf 1080 0000      	.insn	6, 0x10801cdf
    4388f0e6:	0000                	.insn	2, 0x0000
    4388f0e8:	20df 1080 0000      	.insn	6, 0x108020df
    4388f0ee:	0000                	.insn	2, 0x0000
    4388f0f0:	24df 1080 0000      	.insn	6, 0x108024df
    4388f0f6:	0000                	.insn	2, 0x0000
    4388f0f8:	28df 1080 0000      	.insn	6, 0x108028df
    4388f0fe:	0000                	.insn	2, 0x0000
    4388f100:	2cdf 1080 0000      	.insn	6, 0x10802cdf
    4388f106:	0000                	.insn	2, 0x0000
    4388f108:	30df 1080 0000      	.insn	6, 0x108030df
    4388f10e:	0000                	.insn	2, 0x0000
    4388f110:	34df 1080 0000      	.insn	6, 0x108034df
    4388f116:	0000                	.insn	2, 0x0000
    4388f118:	38df 1080 0000      	.insn	6, 0x108038df
    4388f11e:	0000                	.insn	2, 0x0000
    4388f120:	3cdf 1080 0000      	.insn	6, 0x10803cdf
    4388f126:	0000                	.insn	2, 0x0000
    4388f128:	40df 1080 0000      	.insn	6, 0x108040df
    4388f12e:	0000                	.insn	2, 0x0000
    4388f130:	44df 1080 0000      	.insn	6, 0x108044df
    4388f136:	0000                	.insn	2, 0x0000
    4388f138:	48df 1080 0000      	.insn	6, 0x108048df
    4388f13e:	0000                	.insn	2, 0x0000
    4388f140:	4cdf 1080 0000      	.insn	6, 0x10804cdf
    4388f146:	0000                	.insn	2, 0x0000
    4388f148:	50df 1080 0000      	.insn	6, 0x108050df
    4388f14e:	0000                	.insn	2, 0x0000
    4388f150:	54df 1080 0000      	.insn	6, 0x108054df
    4388f156:	0000                	.insn	2, 0x0000
    4388f158:	58df 1080 0000      	.insn	6, 0x108058df
    4388f15e:	0000                	.insn	2, 0x0000
    4388f160:	5cdf 1080 0000      	.insn	6, 0x10805cdf
    4388f166:	0000                	.insn	2, 0x0000
    4388f168:	60df 1080 0000      	.insn	6, 0x108060df
    4388f16e:	0000                	.insn	2, 0x0000
    4388f170:	64df 1080 0000      	.insn	6, 0x108064df
    4388f176:	0000                	.insn	2, 0x0000
    4388f178:	68df 1080 0000      	.insn	6, 0x108068df
    4388f17e:	0000                	.insn	2, 0x0000
    4388f180:	6cdf 1080 0000      	.insn	6, 0x10806cdf
    4388f186:	0000                	.insn	2, 0x0000
    4388f188:	70df 1080 0000      	.insn	6, 0x108070df
    4388f18e:	0000                	.insn	2, 0x0000
    4388f190:	74df 1080 0000      	.insn	6, 0x108074df
    4388f196:	0000                	.insn	2, 0x0000
    4388f198:	78df 1080 0000      	.insn	6, 0x108078df
    4388f19e:	0000                	.insn	2, 0x0000
    4388f1a0:	7cdf 1080 0000      	.insn	6, 0x10807cdf
    4388f1a6:	0000                	.insn	2, 0x0000
    4388f1a8:	80df 1080 0000      	.insn	6, 0x108080df
    4388f1ae:	0000                	.insn	2, 0x0000
    4388f1b0:	84df 1080 0000      	.insn	6, 0x108084df
    4388f1b6:	0000                	.insn	2, 0x0000
    4388f1b8:	88df 1080 0000      	.insn	6, 0x108088df
    4388f1be:	0000                	.insn	2, 0x0000
    4388f1c0:	8cdf 1080 0000      	.insn	6, 0x10808cdf
    4388f1c6:	0000                	.insn	2, 0x0000
    4388f1c8:	90df 1080 0000      	.insn	6, 0x108090df
    4388f1ce:	0000                	.insn	2, 0x0000
    4388f1d0:	94df 1080 0000      	.insn	6, 0x108094df
    4388f1d6:	0000                	.insn	2, 0x0000
    4388f1d8:	98df 1080 0000      	.insn	6, 0x108098df
    4388f1de:	0000                	.insn	2, 0x0000
    4388f1e0:	9cdf 1080 0000      	.insn	6, 0x10809cdf
    4388f1e6:	0000                	.insn	2, 0x0000
    4388f1e8:	a0df 1080 0000      	.insn	6, 0x1080a0df
    4388f1ee:	0000                	.insn	2, 0x0000
    4388f1f0:	a4df 1080 0000      	.insn	6, 0x1080a4df
    4388f1f6:	0000                	.insn	2, 0x0000
    4388f1f8:	a8df 1080 0000      	.insn	6, 0x1080a8df
    4388f1fe:	0000                	.insn	2, 0x0000
    4388f200:	00df 1041 0000      	.insn	6, 0x104100df
    4388f206:	0000                	.insn	2, 0x0000
    4388f208:	b0df 1080 0000      	.insn	6, 0x1080b0df
    4388f20e:	0000                	.insn	2, 0x0000
    4388f210:	b4df 1080 0000      	.insn	6, 0x1080b4df
    4388f216:	0000                	.insn	2, 0x0000
    4388f218:	b8df 1080 0000      	.insn	6, 0x1080b8df
    4388f21e:	0000                	.insn	2, 0x0000
    4388f220:	bcdf 1080 0000      	.insn	6, 0x1080bcdf
    4388f226:	0000                	.insn	2, 0x0000
    4388f228:	c0df 1080 0000      	.insn	6, 0x1080c0df
    4388f22e:	0000                	.insn	2, 0x0000
    4388f230:	c4df 1080 0000      	.insn	6, 0x1080c4df
    4388f236:	0000                	.insn	2, 0x0000
    4388f238:	c8df 1080 0000      	.insn	6, 0x1080c8df
    4388f23e:	0000                	.insn	2, 0x0000
    4388f240:	ccdf 1080 0000      	.insn	6, 0x1080ccdf
    4388f246:	0000                	.insn	2, 0x0000
    4388f248:	d0df 1080 0000      	.insn	6, 0x1080d0df
    4388f24e:	0000                	.insn	2, 0x0000
    4388f250:	d4df 1080 0000      	.insn	6, 0x1080d4df
    4388f256:	0000                	.insn	2, 0x0000
    4388f258:	d8df 1080 0000      	.insn	6, 0x1080d8df
    4388f25e:	0000                	.insn	2, 0x0000
    4388f260:	dcdf 1080 0000      	.insn	6, 0x1080dcdf
    4388f266:	0000                	.insn	2, 0x0000
    4388f268:	e0df 1080 0000      	.insn	6, 0x1080e0df
    4388f26e:	0000                	.insn	2, 0x0000
    4388f270:	e4df 1080 0000      	.insn	6, 0x1080e4df
    4388f276:	0000                	.insn	2, 0x0000
    4388f278:	e8df 1080 0000      	.insn	6, 0x1080e8df
    4388f27e:	0000                	.insn	2, 0x0000
    4388f280:	ecdf 1080 0000      	.insn	6, 0x1080ecdf
    4388f286:	0000                	.insn	2, 0x0000
    4388f288:	f0df 1080 0000      	.insn	6, 0x1080f0df
    4388f28e:	0000                	.insn	2, 0x0000
    4388f290:	f4df 1080 0000      	.insn	6, 0x1080f4df
    4388f296:	0000                	.insn	2, 0x0000
    4388f298:	f8df 1080 0000      	.insn	6, 0x1080f8df
    4388f29e:	0000                	.insn	2, 0x0000
    4388f2a0:	fcdf 1080 0000      	.insn	6, 0x1080fcdf
    4388f2a6:	0000                	.insn	2, 0x0000
    4388f2a8:	00df 1081 0000      	.insn	6, 0x108100df
    4388f2ae:	0000                	.insn	2, 0x0000
    4388f2b0:	04df 1081 0000      	.insn	6, 0x108104df
    4388f2b6:	0000                	.insn	2, 0x0000
    4388f2b8:	08df 1081 0000      	.insn	6, 0x108108df
    4388f2be:	0000                	.insn	2, 0x0000
    4388f2c0:	0cdf 1081 0000      	.insn	6, 0x10810cdf
    4388f2c6:	0000                	.insn	2, 0x0000
    4388f2c8:	10df 1081 0000      	.insn	6, 0x108110df
    4388f2ce:	0000                	.insn	2, 0x0000
    4388f2d0:	14df 1081 0000      	.insn	6, 0x108114df
    4388f2d6:	0000                	.insn	2, 0x0000
    4388f2d8:	18df 1081 0000      	.insn	6, 0x108118df
    4388f2de:	0000                	.insn	2, 0x0000
    4388f2e0:	1cdf 1081 0000      	.insn	6, 0x10811cdf
    4388f2e6:	0000                	.insn	2, 0x0000
    4388f2e8:	20df 1081 0000      	.insn	6, 0x108120df
    4388f2ee:	0000                	.insn	2, 0x0000
    4388f2f0:	24df 1081 0000      	.insn	6, 0x108124df
    4388f2f6:	0000                	.insn	2, 0x0000
    4388f2f8:	28df 1081 0000      	.insn	6, 0x108128df
    4388f2fe:	0000                	.insn	2, 0x0000
    4388f300:	2cdf 1081 0000      	.insn	6, 0x10812cdf
    4388f306:	0000                	.insn	2, 0x0000
    4388f308:	30df 1081 0000      	.insn	6, 0x108130df
    4388f30e:	0000                	.insn	2, 0x0000
    4388f310:	34df 1081 0000      	.insn	6, 0x108134df
    4388f316:	0000                	.insn	2, 0x0000
    4388f318:	38df 1081 0000      	.insn	6, 0x108138df
    4388f31e:	0000                	.insn	2, 0x0000
    4388f320:	3cdf 1081 0000      	.insn	6, 0x10813cdf
    4388f326:	0000                	.insn	2, 0x0000
    4388f328:	40df 1081 0000      	.insn	6, 0x108140df
    4388f32e:	0000                	.insn	2, 0x0000
    4388f330:	44df 1081 0000      	.insn	6, 0x108144df
    4388f336:	0000                	.insn	2, 0x0000
    4388f338:	48df 1081 0000      	.insn	6, 0x108148df
    4388f33e:	0000                	.insn	2, 0x0000
    4388f340:	4cdf 1081 0000      	.insn	6, 0x10814cdf
    4388f346:	0000                	.insn	2, 0x0000
    4388f348:	50df 1081 0000      	.insn	6, 0x108150df
    4388f34e:	0000                	.insn	2, 0x0000
    4388f350:	54df 1081 0000      	.insn	6, 0x108154df
    4388f356:	0000                	.insn	2, 0x0000
    4388f358:	58df 1081 0000      	.insn	6, 0x108158df
    4388f35e:	0000                	.insn	2, 0x0000
    4388f360:	5cdf 1081 0000      	.insn	6, 0x10815cdf
    4388f366:	0000                	.insn	2, 0x0000
    4388f368:	60df 1081 0000      	.insn	6, 0x108160df
    4388f36e:	0000                	.insn	2, 0x0000
    4388f370:	64df 1081 0000      	.insn	6, 0x108164df
    4388f376:	0000                	.insn	2, 0x0000
    4388f378:	68df 1081 0000      	.insn	6, 0x108168df
    4388f37e:	0000                	.insn	2, 0x0000
    4388f380:	6cdf 1081 0000      	.insn	6, 0x10816cdf
    4388f386:	0000                	.insn	2, 0x0000
    4388f388:	70df 1081 0000      	.insn	6, 0x108170df
    4388f38e:	0000                	.insn	2, 0x0000
    4388f390:	74df 1081 0000      	.insn	6, 0x108174df
    4388f396:	0000                	.insn	2, 0x0000
    4388f398:	78df 1081 0000      	.insn	6, 0x108178df
    4388f39e:	0000                	.insn	2, 0x0000
    4388f3a0:	7cdf 1081 0000      	.insn	6, 0x10817cdf
    4388f3a6:	0000                	.insn	2, 0x0000
    4388f3a8:	80df 1081 0000      	.insn	6, 0x108180df
    4388f3ae:	0000                	.insn	2, 0x0000
    4388f3b0:	84df 1081 0000      	.insn	6, 0x108184df
    4388f3b6:	0000                	.insn	2, 0x0000
    4388f3b8:	88df 1081 0000      	.insn	6, 0x108188df
    4388f3be:	0000                	.insn	2, 0x0000
    4388f3c0:	8cdf 1081 0000      	.insn	6, 0x10818cdf
    4388f3c6:	0000                	.insn	2, 0x0000
    4388f3c8:	90df 1081 0000      	.insn	6, 0x108190df
    4388f3ce:	0000                	.insn	2, 0x0000
    4388f3d0:	94df 1081 0000      	.insn	6, 0x108194df
    4388f3d6:	0000                	.insn	2, 0x0000
    4388f3d8:	98df 1081 0000      	.insn	6, 0x108198df
    4388f3de:	0000                	.insn	2, 0x0000
    4388f3e0:	9cdf 1081 0000      	.insn	6, 0x10819cdf
    4388f3e6:	0000                	.insn	2, 0x0000
    4388f3e8:	a0df 1081 0000      	.insn	6, 0x1081a0df
    4388f3ee:	0000                	.insn	2, 0x0000
    4388f3f0:	a4df 1081 0000      	.insn	6, 0x1081a4df
    4388f3f6:	0000                	.insn	2, 0x0000
    4388f3f8:	a8df 1081 0000      	.insn	6, 0x1081a8df
    4388f3fe:	0000                	.insn	2, 0x0000
    4388f400:	acdf 1081 0000      	.insn	6, 0x1081acdf
    4388f406:	0000                	.insn	2, 0x0000
    4388f408:	b0df 1081 0000      	.insn	6, 0x1081b0df
    4388f40e:	0000                	.insn	2, 0x0000
    4388f410:	b4df 1081 0000      	.insn	6, 0x1081b4df
    4388f416:	0000                	.insn	2, 0x0000
    4388f418:	b8df 1081 0000      	.insn	6, 0x1081b8df
    4388f41e:	0000                	.insn	2, 0x0000
    4388f420:	bcdf 1081 0000      	.insn	6, 0x1081bcdf
    4388f426:	0000                	.insn	2, 0x0000
    4388f428:	c0df 1081 0000      	.insn	6, 0x1081c0df
    4388f42e:	0000                	.insn	2, 0x0000
    4388f430:	c4df 1081 0000      	.insn	6, 0x1081c4df
    4388f436:	0000                	.insn	2, 0x0000
    4388f438:	c8df 1081 0000      	.insn	6, 0x1081c8df
    4388f43e:	0000                	.insn	2, 0x0000
    4388f440:	ccdf 1081 0000      	.insn	6, 0x1081ccdf
    4388f446:	0000                	.insn	2, 0x0000
    4388f448:	d0df 1081 0000      	.insn	6, 0x1081d0df
    4388f44e:	0000                	.insn	2, 0x0000
    4388f450:	d4df 1081 0000      	.insn	6, 0x1081d4df
    4388f456:	0000                	.insn	2, 0x0000
    4388f458:	d8df 1081 0000      	.insn	6, 0x1081d8df
    4388f45e:	0000                	.insn	2, 0x0000
    4388f460:	dcdf 1081 0000      	.insn	6, 0x1081dcdf
    4388f466:	0000                	.insn	2, 0x0000
    4388f468:	e0df 1081 0000      	.insn	6, 0x1081e0df
    4388f46e:	0000                	.insn	2, 0x0000
    4388f470:	e4df 1081 0000      	.insn	6, 0x1081e4df
    4388f476:	0000                	.insn	2, 0x0000
    4388f478:	e8df 1081 0000      	.insn	6, 0x1081e8df
    4388f47e:	0000                	.insn	2, 0x0000
    4388f480:	ecdf 1081 0000      	.insn	6, 0x1081ecdf
    4388f486:	0000                	.insn	2, 0x0000
    4388f488:	f0df 1081 0000      	.insn	6, 0x1081f0df
    4388f48e:	0000                	.insn	2, 0x0000
    4388f490:	f4df 1081 0000      	.insn	6, 0x1081f4df
    4388f496:	0000                	.insn	2, 0x0000
    4388f498:	f8df 1081 0000      	.insn	6, 0x1081f8df
    4388f49e:	0000                	.insn	2, 0x0000
    4388f4a0:	fcdf 1081 0000      	.insn	6, 0x1081fcdf
    4388f4a6:	0000                	.insn	2, 0x0000
    4388f4a8:	108200cf          	fnmadd.s	f1,f4,f8,f2,rne
    4388f4ac:	0000                	.insn	2, 0x0000
    4388f4ae:	0000                	.insn	2, 0x0000
    4388f4b0:	108204cf          	fnmadd.s	f9,f4,f8,f2,rne
    4388f4b4:	0000                	.insn	2, 0x0000
    4388f4b6:	0000                	.insn	2, 0x0000
    4388f4b8:	108208cf          	fnmadd.s	f17,f4,f8,f2,rne
    4388f4bc:	0000                	.insn	2, 0x0000
    4388f4be:	0000                	.insn	2, 0x0000
    4388f4c0:	10820ccf          	fnmadd.s	f25,f4,f8,f2,rne
    4388f4c4:	0000                	.insn	2, 0x0000
    4388f4c6:	0000                	.insn	2, 0x0000
    4388f4c8:	108210cf          	fnmadd.s	f1,f4,f8,f2,rtz
    4388f4cc:	0000                	.insn	2, 0x0000
    4388f4ce:	0000                	.insn	2, 0x0000
    4388f4d0:	108214cf          	fnmadd.s	f9,f4,f8,f2,rtz
    4388f4d4:	0000                	.insn	2, 0x0000
    4388f4d6:	0000                	.insn	2, 0x0000
    4388f4d8:	108218cf          	fnmadd.s	f17,f4,f8,f2,rtz
    4388f4dc:	0000                	.insn	2, 0x0000
    4388f4de:	0000                	.insn	2, 0x0000
    4388f4e0:	10821ccf          	fnmadd.s	f25,f4,f8,f2,rtz
    4388f4e4:	0000                	.insn	2, 0x0000
    4388f4e6:	0000                	.insn	2, 0x0000
    4388f4e8:	108220cf          	fnmadd.s	f1,f4,f8,f2,rdn
    4388f4ec:	0000                	.insn	2, 0x0000
    4388f4ee:	0000                	.insn	2, 0x0000
    4388f4f0:	108224cf          	fnmadd.s	f9,f4,f8,f2,rdn
    4388f4f4:	0000                	.insn	2, 0x0000
    4388f4f6:	0000                	.insn	2, 0x0000
    4388f4f8:	108228cf          	fnmadd.s	f17,f4,f8,f2,rdn
    4388f4fc:	0000                	.insn	2, 0x0000
    4388f4fe:	0000                	.insn	2, 0x0000
    4388f500:	10822ccf          	fnmadd.s	f25,f4,f8,f2,rdn
    4388f504:	0000                	.insn	2, 0x0000
    4388f506:	0000                	.insn	2, 0x0000
    4388f508:	108230cf          	fnmadd.s	f1,f4,f8,f2,rup
    4388f50c:	0000                	.insn	2, 0x0000
    4388f50e:	0000                	.insn	2, 0x0000
    4388f510:	108234cf          	fnmadd.s	f9,f4,f8,f2,rup
    4388f514:	0000                	.insn	2, 0x0000
    4388f516:	0000                	.insn	2, 0x0000
    4388f518:	108238cf          	fnmadd.s	f17,f4,f8,f2,rup
    4388f51c:	0000                	.insn	2, 0x0000
    4388f51e:	0000                	.insn	2, 0x0000
    4388f520:	10823ccf          	fnmadd.s	f25,f4,f8,f2,rup
    4388f524:	0000                	.insn	2, 0x0000
    4388f526:	0000                	.insn	2, 0x0000
    4388f528:	108240cf          	fnmadd.s	f1,f4,f8,f2,rmm
    4388f52c:	0000                	.insn	2, 0x0000
    4388f52e:	0000                	.insn	2, 0x0000
    4388f530:	108244cf          	fnmadd.s	f9,f4,f8,f2,rmm
    4388f534:	0000                	.insn	2, 0x0000
    4388f536:	0000                	.insn	2, 0x0000
    4388f538:	108248cf          	fnmadd.s	f17,f4,f8,f2,rmm
    4388f53c:	0000                	.insn	2, 0x0000
    4388f53e:	0000                	.insn	2, 0x0000
    4388f540:	10824ccf          	fnmadd.s	f25,f4,f8,f2,rmm
    4388f544:	0000                	.insn	2, 0x0000
    4388f546:	0000                	.insn	2, 0x0000
    4388f548:	108250cf          	fnmadd.s	f1,f4,f8,f2,unknown
    4388f54c:	0000                	.insn	2, 0x0000
    4388f54e:	0000                	.insn	2, 0x0000
    4388f550:	108254cf          	fnmadd.s	f9,f4,f8,f2,unknown
    4388f554:	0000                	.insn	2, 0x0000
    4388f556:	0000                	.insn	2, 0x0000
    4388f558:	108258cf          	fnmadd.s	f17,f4,f8,f2,unknown
    4388f55c:	0000                	.insn	2, 0x0000
    4388f55e:	0000                	.insn	2, 0x0000
    4388f560:	10825ccf          	fnmadd.s	f25,f4,f8,f2,unknown
    4388f564:	0000                	.insn	2, 0x0000
    4388f566:	0000                	.insn	2, 0x0000
    4388f568:	108260cf          	fnmadd.s	f1,f4,f8,f2,unknown
    4388f56c:	0000                	.insn	2, 0x0000
    4388f56e:	0000                	.insn	2, 0x0000
    4388f570:	108264cf          	fnmadd.s	f9,f4,f8,f2,unknown
    4388f574:	0000                	.insn	2, 0x0000
    4388f576:	0000                	.insn	2, 0x0000
    4388f578:	108268cf          	fnmadd.s	f17,f4,f8,f2,unknown
    4388f57c:	0000                	.insn	2, 0x0000
    4388f57e:	0000                	.insn	2, 0x0000
    4388f580:	10826ccf          	fnmadd.s	f25,f4,f8,f2,unknown
    4388f584:	0000                	.insn	2, 0x0000
    4388f586:	0000                	.insn	2, 0x0000
    4388f588:	108270cf          	fnmadd.s	f1,f4,f8,f2
    4388f58c:	0000                	.insn	2, 0x0000
    4388f58e:	0000                	.insn	2, 0x0000
    4388f590:	108274cf          	fnmadd.s	f9,f4,f8,f2
    4388f594:	0000                	.insn	2, 0x0000
    4388f596:	0000                	.insn	2, 0x0000
    4388f598:	108278cf          	fnmadd.s	f17,f4,f8,f2
    4388f59c:	0000                	.insn	2, 0x0000
    4388f59e:	0000                	.insn	2, 0x0000
    4388f5a0:	10827ccf          	fnmadd.s	f25,f4,f8,f2
    4388f5a4:	0000                	.insn	2, 0x0000
    4388f5a6:	0000                	.insn	2, 0x0000
    4388f5a8:	108280cf          	fnmadd.s	f1,f5,f8,f2,rne
    4388f5ac:	0000                	.insn	2, 0x0000
    4388f5ae:	0000                	.insn	2, 0x0000
    4388f5b0:	108284cf          	fnmadd.s	f9,f5,f8,f2,rne
    4388f5b4:	0000                	.insn	2, 0x0000
    4388f5b6:	0000                	.insn	2, 0x0000
    4388f5b8:	108288cf          	fnmadd.s	f17,f5,f8,f2,rne
    4388f5bc:	0000                	.insn	2, 0x0000
    4388f5be:	0000                	.insn	2, 0x0000
    4388f5c0:	10828ccf          	fnmadd.s	f25,f5,f8,f2,rne
    4388f5c4:	0000                	.insn	2, 0x0000
    4388f5c6:	0000                	.insn	2, 0x0000
    4388f5c8:	108290cf          	fnmadd.s	f1,f5,f8,f2,rtz
    4388f5cc:	0000                	.insn	2, 0x0000
    4388f5ce:	0000                	.insn	2, 0x0000
    4388f5d0:	108294cf          	fnmadd.s	f9,f5,f8,f2,rtz
    4388f5d4:	0000                	.insn	2, 0x0000
    4388f5d6:	0000                	.insn	2, 0x0000
    4388f5d8:	108298cf          	fnmadd.s	f17,f5,f8,f2,rtz
    4388f5dc:	0000                	.insn	2, 0x0000
    4388f5de:	0000                	.insn	2, 0x0000
    4388f5e0:	10829ccf          	fnmadd.s	f25,f5,f8,f2,rtz
    4388f5e4:	0000                	.insn	2, 0x0000
    4388f5e6:	0000                	.insn	2, 0x0000
    4388f5e8:	1082a0cf          	fnmadd.s	f1,f5,f8,f2,rdn
    4388f5ec:	0000                	.insn	2, 0x0000
    4388f5ee:	0000                	.insn	2, 0x0000
    4388f5f0:	1082a4cf          	fnmadd.s	f9,f5,f8,f2,rdn
    4388f5f4:	0000                	.insn	2, 0x0000
    4388f5f6:	0000                	.insn	2, 0x0000
    4388f5f8:	1082a8cf          	fnmadd.s	f17,f5,f8,f2,rdn
    4388f5fc:	0000                	.insn	2, 0x0000
    4388f5fe:	0000                	.insn	2, 0x0000
    4388f600:	1082accf          	fnmadd.s	f25,f5,f8,f2,rdn
    4388f604:	0000                	.insn	2, 0x0000
    4388f606:	0000                	.insn	2, 0x0000
    4388f608:	1082b0cf          	fnmadd.s	f1,f5,f8,f2,rup
    4388f60c:	0000                	.insn	2, 0x0000
    4388f60e:	0000                	.insn	2, 0x0000
    4388f610:	1082b4cf          	fnmadd.s	f9,f5,f8,f2,rup
    4388f614:	0000                	.insn	2, 0x0000
    4388f616:	0000                	.insn	2, 0x0000
    4388f618:	1082b8cf          	fnmadd.s	f17,f5,f8,f2,rup
    4388f61c:	0000                	.insn	2, 0x0000
    4388f61e:	0000                	.insn	2, 0x0000
    4388f620:	1082bccf          	fnmadd.s	f25,f5,f8,f2,rup
    4388f624:	0000                	.insn	2, 0x0000
    4388f626:	0000                	.insn	2, 0x0000
    4388f628:	1082c0cf          	fnmadd.s	f1,f5,f8,f2,rmm
    4388f62c:	0000                	.insn	2, 0x0000
    4388f62e:	0000                	.insn	2, 0x0000
    4388f630:	1082c4cf          	fnmadd.s	f9,f5,f8,f2,rmm
    4388f634:	0000                	.insn	2, 0x0000
    4388f636:	0000                	.insn	2, 0x0000
    4388f638:	1082c8cf          	fnmadd.s	f17,f5,f8,f2,rmm
    4388f63c:	0000                	.insn	2, 0x0000
    4388f63e:	0000                	.insn	2, 0x0000
    4388f640:	1082cccf          	fnmadd.s	f25,f5,f8,f2,rmm
    4388f644:	0000                	.insn	2, 0x0000
    4388f646:	0000                	.insn	2, 0x0000
    4388f648:	1082d0cf          	fnmadd.s	f1,f5,f8,f2,unknown
    4388f64c:	0000                	.insn	2, 0x0000
    4388f64e:	0000                	.insn	2, 0x0000
    4388f650:	1082d4cf          	fnmadd.s	f9,f5,f8,f2,unknown
    4388f654:	0000                	.insn	2, 0x0000
    4388f656:	0000                	.insn	2, 0x0000
    4388f658:	1082d8cf          	fnmadd.s	f17,f5,f8,f2,unknown
    4388f65c:	0000                	.insn	2, 0x0000
    4388f65e:	0000                	.insn	2, 0x0000
    4388f660:	1082dccf          	fnmadd.s	f25,f5,f8,f2,unknown
    4388f664:	0000                	.insn	2, 0x0000
    4388f666:	0000                	.insn	2, 0x0000
    4388f668:	1082e0cf          	fnmadd.s	f1,f5,f8,f2,unknown
    4388f66c:	0000                	.insn	2, 0x0000
    4388f66e:	0000                	.insn	2, 0x0000
    4388f670:	1082e4cf          	fnmadd.s	f9,f5,f8,f2,unknown
    4388f674:	0000                	.insn	2, 0x0000
    4388f676:	0000                	.insn	2, 0x0000
    4388f678:	1082e8cf          	fnmadd.s	f17,f5,f8,f2,unknown
    4388f67c:	0000                	.insn	2, 0x0000
    4388f67e:	0000                	.insn	2, 0x0000
    4388f680:	1082eccf          	fnmadd.s	f25,f5,f8,f2,unknown
    4388f684:	0000                	.insn	2, 0x0000
    4388f686:	0000                	.insn	2, 0x0000
    4388f688:	1082f0cf          	fnmadd.s	f1,f5,f8,f2
    4388f68c:	0000                	.insn	2, 0x0000
    4388f68e:	0000                	.insn	2, 0x0000
    4388f690:	1082f4cf          	fnmadd.s	f9,f5,f8,f2
    4388f694:	0000                	.insn	2, 0x0000
    4388f696:	0000                	.insn	2, 0x0000
    4388f698:	1082f8cf          	fnmadd.s	f17,f5,f8,f2
    4388f69c:	0000                	.insn	2, 0x0000
    4388f69e:	0000                	.insn	2, 0x0000
    4388f6a0:	1082fccf          	fnmadd.s	f25,f5,f8,f2
    4388f6a4:	0000                	.insn	2, 0x0000
    4388f6a6:	0000                	.insn	2, 0x0000
    4388f6a8:	108300cf          	fnmadd.s	f1,f6,f8,f2,rne
    4388f6ac:	0000                	.insn	2, 0x0000
    4388f6ae:	0000                	.insn	2, 0x0000
    4388f6b0:	108304cf          	fnmadd.s	f9,f6,f8,f2,rne
    4388f6b4:	0000                	.insn	2, 0x0000
    4388f6b6:	0000                	.insn	2, 0x0000
    4388f6b8:	108308cf          	fnmadd.s	f17,f6,f8,f2,rne
    4388f6bc:	0000                	.insn	2, 0x0000
    4388f6be:	0000                	.insn	2, 0x0000
    4388f6c0:	10830ccf          	fnmadd.s	f25,f6,f8,f2,rne
    4388f6c4:	0000                	.insn	2, 0x0000
    4388f6c6:	0000                	.insn	2, 0x0000
    4388f6c8:	108310cf          	fnmadd.s	f1,f6,f8,f2,rtz
    4388f6cc:	0000                	.insn	2, 0x0000
    4388f6ce:	0000                	.insn	2, 0x0000
    4388f6d0:	108314cf          	fnmadd.s	f9,f6,f8,f2,rtz
    4388f6d4:	0000                	.insn	2, 0x0000
    4388f6d6:	0000                	.insn	2, 0x0000
    4388f6d8:	108318cf          	fnmadd.s	f17,f6,f8,f2,rtz
    4388f6dc:	0000                	.insn	2, 0x0000
    4388f6de:	0000                	.insn	2, 0x0000
    4388f6e0:	10831ccf          	fnmadd.s	f25,f6,f8,f2,rtz
    4388f6e4:	0000                	.insn	2, 0x0000
    4388f6e6:	0000                	.insn	2, 0x0000
    4388f6e8:	108320cf          	fnmadd.s	f1,f6,f8,f2,rdn
    4388f6ec:	0000                	.insn	2, 0x0000
    4388f6ee:	0000                	.insn	2, 0x0000
    4388f6f0:	108324cf          	fnmadd.s	f9,f6,f8,f2,rdn
    4388f6f4:	0000                	.insn	2, 0x0000
    4388f6f6:	0000                	.insn	2, 0x0000
    4388f6f8:	108328cf          	fnmadd.s	f17,f6,f8,f2,rdn
    4388f6fc:	0000                	.insn	2, 0x0000
    4388f6fe:	0000                	.insn	2, 0x0000
    4388f700:	10832ccf          	fnmadd.s	f25,f6,f8,f2,rdn
    4388f704:	0000                	.insn	2, 0x0000
    4388f706:	0000                	.insn	2, 0x0000
    4388f708:	108330cf          	fnmadd.s	f1,f6,f8,f2,rup
    4388f70c:	0000                	.insn	2, 0x0000
    4388f70e:	0000                	.insn	2, 0x0000
    4388f710:	108334cf          	fnmadd.s	f9,f6,f8,f2,rup
    4388f714:	0000                	.insn	2, 0x0000
    4388f716:	0000                	.insn	2, 0x0000
    4388f718:	108338cf          	fnmadd.s	f17,f6,f8,f2,rup
    4388f71c:	0000                	.insn	2, 0x0000
    4388f71e:	0000                	.insn	2, 0x0000
    4388f720:	10833ccf          	fnmadd.s	f25,f6,f8,f2,rup
    4388f724:	0000                	.insn	2, 0x0000
    4388f726:	0000                	.insn	2, 0x0000
    4388f728:	108340cf          	fnmadd.s	f1,f6,f8,f2,rmm
    4388f72c:	0000                	.insn	2, 0x0000
    4388f72e:	0000                	.insn	2, 0x0000
    4388f730:	108344cf          	fnmadd.s	f9,f6,f8,f2,rmm
    4388f734:	0000                	.insn	2, 0x0000
    4388f736:	0000                	.insn	2, 0x0000
    4388f738:	108348cf          	fnmadd.s	f17,f6,f8,f2,rmm
    4388f73c:	0000                	.insn	2, 0x0000
    4388f73e:	0000                	.insn	2, 0x0000
    4388f740:	10834ccf          	fnmadd.s	f25,f6,f8,f2,rmm
    4388f744:	0000                	.insn	2, 0x0000
    4388f746:	0000                	.insn	2, 0x0000
    4388f748:	108350cf          	fnmadd.s	f1,f6,f8,f2,unknown
    4388f74c:	0000                	.insn	2, 0x0000
    4388f74e:	0000                	.insn	2, 0x0000
    4388f750:	108354cf          	fnmadd.s	f9,f6,f8,f2,unknown
    4388f754:	0000                	.insn	2, 0x0000
    4388f756:	0000                	.insn	2, 0x0000
    4388f758:	108358cf          	fnmadd.s	f17,f6,f8,f2,unknown
    4388f75c:	0000                	.insn	2, 0x0000
    4388f75e:	0000                	.insn	2, 0x0000
    4388f760:	10835ccf          	fnmadd.s	f25,f6,f8,f2,unknown
    4388f764:	0000                	.insn	2, 0x0000
    4388f766:	0000                	.insn	2, 0x0000
    4388f768:	108360cf          	fnmadd.s	f1,f6,f8,f2,unknown
    4388f76c:	0000                	.insn	2, 0x0000
    4388f76e:	0000                	.insn	2, 0x0000
    4388f770:	108364cf          	fnmadd.s	f9,f6,f8,f2,unknown
    4388f774:	0000                	.insn	2, 0x0000
    4388f776:	0000                	.insn	2, 0x0000
    4388f778:	108368cf          	fnmadd.s	f17,f6,f8,f2,unknown
    4388f77c:	0000                	.insn	2, 0x0000
    4388f77e:	0000                	.insn	2, 0x0000
    4388f780:	10836ccf          	fnmadd.s	f25,f6,f8,f2,unknown
    4388f784:	0000                	.insn	2, 0x0000
    4388f786:	0000                	.insn	2, 0x0000
    4388f788:	108370cf          	fnmadd.s	f1,f6,f8,f2
    4388f78c:	0000                	.insn	2, 0x0000
    4388f78e:	0000                	.insn	2, 0x0000
    4388f790:	108374cf          	fnmadd.s	f9,f6,f8,f2
    4388f794:	0000                	.insn	2, 0x0000
    4388f796:	0000                	.insn	2, 0x0000
    4388f798:	108378cf          	fnmadd.s	f17,f6,f8,f2
    4388f79c:	0000                	.insn	2, 0x0000
    4388f79e:	0000                	.insn	2, 0x0000
    4388f7a0:	10837ccf          	fnmadd.s	f25,f6,f8,f2
    4388f7a4:	0000                	.insn	2, 0x0000
    4388f7a6:	0000                	.insn	2, 0x0000
    4388f7a8:	108380cf          	fnmadd.s	f1,f7,f8,f2,rne
    4388f7ac:	0000                	.insn	2, 0x0000
    4388f7ae:	0000                	.insn	2, 0x0000
    4388f7b0:	108384cf          	fnmadd.s	f9,f7,f8,f2,rne
    4388f7b4:	0000                	.insn	2, 0x0000
    4388f7b6:	0000                	.insn	2, 0x0000
    4388f7b8:	108388cf          	fnmadd.s	f17,f7,f8,f2,rne
    4388f7bc:	0000                	.insn	2, 0x0000
    4388f7be:	0000                	.insn	2, 0x0000
    4388f7c0:	10838ccf          	fnmadd.s	f25,f7,f8,f2,rne
    4388f7c4:	0000                	.insn	2, 0x0000
    4388f7c6:	0000                	.insn	2, 0x0000
    4388f7c8:	108390cf          	fnmadd.s	f1,f7,f8,f2,rtz
    4388f7cc:	0000                	.insn	2, 0x0000
    4388f7ce:	0000                	.insn	2, 0x0000
    4388f7d0:	108394cf          	fnmadd.s	f9,f7,f8,f2,rtz
    4388f7d4:	0000                	.insn	2, 0x0000
    4388f7d6:	0000                	.insn	2, 0x0000
    4388f7d8:	108398cf          	fnmadd.s	f17,f7,f8,f2,rtz
    4388f7dc:	0000                	.insn	2, 0x0000
    4388f7de:	0000                	.insn	2, 0x0000
    4388f7e0:	10839ccf          	fnmadd.s	f25,f7,f8,f2,rtz
    4388f7e4:	0000                	.insn	2, 0x0000
    4388f7e6:	0000                	.insn	2, 0x0000
    4388f7e8:	1083a0cf          	fnmadd.s	f1,f7,f8,f2,rdn
    4388f7ec:	0000                	.insn	2, 0x0000
    4388f7ee:	0000                	.insn	2, 0x0000
    4388f7f0:	1083a4cf          	fnmadd.s	f9,f7,f8,f2,rdn
    4388f7f4:	0000                	.insn	2, 0x0000
    4388f7f6:	0000                	.insn	2, 0x0000
    4388f7f8:	1083a8cf          	fnmadd.s	f17,f7,f8,f2,rdn
    4388f7fc:	0000                	.insn	2, 0x0000
    4388f7fe:	0000                	.insn	2, 0x0000
    4388f800:	1083accf          	fnmadd.s	f25,f7,f8,f2,rdn
    4388f804:	0000                	.insn	2, 0x0000
    4388f806:	0000                	.insn	2, 0x0000
    4388f808:	1083b0cf          	fnmadd.s	f1,f7,f8,f2,rup
    4388f80c:	0000                	.insn	2, 0x0000
    4388f80e:	0000                	.insn	2, 0x0000
    4388f810:	1083b4cf          	fnmadd.s	f9,f7,f8,f2,rup
    4388f814:	0000                	.insn	2, 0x0000
    4388f816:	0000                	.insn	2, 0x0000
    4388f818:	1083b8cf          	fnmadd.s	f17,f7,f8,f2,rup
    4388f81c:	0000                	.insn	2, 0x0000
    4388f81e:	0000                	.insn	2, 0x0000
    4388f820:	1083bccf          	fnmadd.s	f25,f7,f8,f2,rup
    4388f824:	0000                	.insn	2, 0x0000
    4388f826:	0000                	.insn	2, 0x0000
    4388f828:	1083c0cf          	fnmadd.s	f1,f7,f8,f2,rmm
    4388f82c:	0000                	.insn	2, 0x0000
    4388f82e:	0000                	.insn	2, 0x0000
    4388f830:	1083c4cf          	fnmadd.s	f9,f7,f8,f2,rmm
    4388f834:	0000                	.insn	2, 0x0000
    4388f836:	0000                	.insn	2, 0x0000
    4388f838:	1083c8cf          	fnmadd.s	f17,f7,f8,f2,rmm
    4388f83c:	0000                	.insn	2, 0x0000
    4388f83e:	0000                	.insn	2, 0x0000
    4388f840:	1083cccf          	fnmadd.s	f25,f7,f8,f2,rmm
    4388f844:	0000                	.insn	2, 0x0000
    4388f846:	0000                	.insn	2, 0x0000
    4388f848:	1083d0cf          	fnmadd.s	f1,f7,f8,f2,unknown
    4388f84c:	0000                	.insn	2, 0x0000
    4388f84e:	0000                	.insn	2, 0x0000
    4388f850:	1083d4cf          	fnmadd.s	f9,f7,f8,f2,unknown
    4388f854:	0000                	.insn	2, 0x0000
    4388f856:	0000                	.insn	2, 0x0000
    4388f858:	1083d8cf          	fnmadd.s	f17,f7,f8,f2,unknown
    4388f85c:	0000                	.insn	2, 0x0000
    4388f85e:	0000                	.insn	2, 0x0000
    4388f860:	1083dccf          	fnmadd.s	f25,f7,f8,f2,unknown
    4388f864:	0000                	.insn	2, 0x0000
    4388f866:	0000                	.insn	2, 0x0000
    4388f868:	1083e0cf          	fnmadd.s	f1,f7,f8,f2,unknown
    4388f86c:	0000                	.insn	2, 0x0000
    4388f86e:	0000                	.insn	2, 0x0000
    4388f870:	1083e4cf          	fnmadd.s	f9,f7,f8,f2,unknown
    4388f874:	0000                	.insn	2, 0x0000
    4388f876:	0000                	.insn	2, 0x0000
    4388f878:	1083e8cf          	fnmadd.s	f17,f7,f8,f2,unknown
    4388f87c:	0000                	.insn	2, 0x0000
    4388f87e:	0000                	.insn	2, 0x0000
    4388f880:	1083eccf          	fnmadd.s	f25,f7,f8,f2,unknown
    4388f884:	0000                	.insn	2, 0x0000
    4388f886:	0000                	.insn	2, 0x0000
    4388f888:	1083f0cf          	fnmadd.s	f1,f7,f8,f2
    4388f88c:	0000                	.insn	2, 0x0000
    4388f88e:	0000                	.insn	2, 0x0000
    4388f890:	1083f4cf          	fnmadd.s	f9,f7,f8,f2
    4388f894:	0000                	.insn	2, 0x0000
    4388f896:	0000                	.insn	2, 0x0000
    4388f898:	1083f8cf          	fnmadd.s	f17,f7,f8,f2
    4388f89c:	0000                	.insn	2, 0x0000
    4388f89e:	0000                	.insn	2, 0x0000
    4388f8a0:	1083fccf          	fnmadd.s	f25,f7,f8,f2
    4388f8a4:	0000                	.insn	2, 0x0000
    4388f8a6:	0000                	.insn	2, 0x0000
    4388f8a8:	00df 1084 0000      	.insn	6, 0x108400df
    4388f8ae:	0000                	.insn	2, 0x0000
    4388f8b0:	04df 1084 0000      	.insn	6, 0x108404df
    4388f8b6:	0000                	.insn	2, 0x0000
    4388f8b8:	08df 1084 0000      	.insn	6, 0x108408df
    4388f8be:	0000                	.insn	2, 0x0000
    4388f8c0:	0cdf 1084 0000      	.insn	6, 0x10840cdf
    4388f8c6:	0000                	.insn	2, 0x0000
    4388f8c8:	10df 1084 0000      	.insn	6, 0x108410df
    4388f8ce:	0000                	.insn	2, 0x0000
    4388f8d0:	14df 1084 0000      	.insn	6, 0x108414df
    4388f8d6:	0000                	.insn	2, 0x0000
    4388f8d8:	18df 1084 0000      	.insn	6, 0x108418df
    4388f8de:	0000                	.insn	2, 0x0000
    4388f8e0:	1cdf 1084 0000      	.insn	6, 0x10841cdf
    4388f8e6:	0000                	.insn	2, 0x0000
    4388f8e8:	20df 1084 0000      	.insn	6, 0x108420df
    4388f8ee:	0000                	.insn	2, 0x0000
    4388f8f0:	24df 1084 0000      	.insn	6, 0x108424df
    4388f8f6:	0000                	.insn	2, 0x0000
    4388f8f8:	28df 1084 0000      	.insn	6, 0x108428df
    4388f8fe:	0000                	.insn	2, 0x0000
    4388f900:	2cdf 1084 0000      	.insn	6, 0x10842cdf
    4388f906:	0000                	.insn	2, 0x0000
    4388f908:	30df 1084 0000      	.insn	6, 0x108430df
    4388f90e:	0000                	.insn	2, 0x0000
    4388f910:	34df 1084 0000      	.insn	6, 0x108434df
    4388f916:	0000                	.insn	2, 0x0000
    4388f918:	38df 1084 0000      	.insn	6, 0x108438df
    4388f91e:	0000                	.insn	2, 0x0000
    4388f920:	3cdf 1084 0000      	.insn	6, 0x10843cdf
    4388f926:	0000                	.insn	2, 0x0000
    4388f928:	40df 1084 0000      	.insn	6, 0x108440df
    4388f92e:	0000                	.insn	2, 0x0000
    4388f930:	44df 1084 0000      	.insn	6, 0x108444df
    4388f936:	0000                	.insn	2, 0x0000
    4388f938:	48df 1084 0000      	.insn	6, 0x108448df
    4388f93e:	0000                	.insn	2, 0x0000
    4388f940:	4cdf 1084 0000      	.insn	6, 0x10844cdf
    4388f946:	0000                	.insn	2, 0x0000
    4388f948:	50df 1084 0000      	.insn	6, 0x108450df
    4388f94e:	0000                	.insn	2, 0x0000
    4388f950:	54df 1084 0000      	.insn	6, 0x108454df
    4388f956:	0000                	.insn	2, 0x0000
    4388f958:	58df 1084 0000      	.insn	6, 0x108458df
    4388f95e:	0000                	.insn	2, 0x0000
    4388f960:	5cdf 1084 0000      	.insn	6, 0x10845cdf
    4388f966:	0000                	.insn	2, 0x0000
    4388f968:	60df 1084 0000      	.insn	6, 0x108460df
    4388f96e:	0000                	.insn	2, 0x0000
    4388f970:	64df 1084 0000      	.insn	6, 0x108464df
    4388f976:	0000                	.insn	2, 0x0000
    4388f978:	68df 1084 0000      	.insn	6, 0x108468df
    4388f97e:	0000                	.insn	2, 0x0000
    4388f980:	6cdf 1084 0000      	.insn	6, 0x10846cdf
    4388f986:	0000                	.insn	2, 0x0000
    4388f988:	70df 1084 0000      	.insn	6, 0x108470df
    4388f98e:	0000                	.insn	2, 0x0000
    4388f990:	74df 1084 0000      	.insn	6, 0x108474df
    4388f996:	0000                	.insn	2, 0x0000
    4388f998:	78df 1084 0000      	.insn	6, 0x108478df
    4388f99e:	0000                	.insn	2, 0x0000
    4388f9a0:	7cdf 1084 0000      	.insn	6, 0x10847cdf
    4388f9a6:	0000                	.insn	2, 0x0000
    4388f9a8:	80df 1084 0000      	.insn	6, 0x108480df
    4388f9ae:	0000                	.insn	2, 0x0000
    4388f9b0:	84df 1084 0000      	.insn	6, 0x108484df
    4388f9b6:	0000                	.insn	2, 0x0000
    4388f9b8:	88df 1084 0000      	.insn	6, 0x108488df
    4388f9be:	0000                	.insn	2, 0x0000
    4388f9c0:	8cdf 1084 0000      	.insn	6, 0x10848cdf
    4388f9c6:	0000                	.insn	2, 0x0000
    4388f9c8:	90df 1084 0000      	.insn	6, 0x108490df
    4388f9ce:	0000                	.insn	2, 0x0000
    4388f9d0:	94df 1084 0000      	.insn	6, 0x108494df
