
/home/abdullah/RiescueC/riescue/10x_R/zjpm/testsuite/zjpm/super_sv57/tp_zjpm_1:     file format elf64-littleriscv


Disassembly of section .runtime:

0000000080000000 <_start>:
    80000000:	00000093          	li	x1,0
    80000004:	00000113          	li	x2,0
    80000008:	00000193          	li	x3,0
    8000000c:	00000213          	li	x4,0
    80000010:	00000293          	li	x5,0
    80000014:	00000313          	li	x6,0
    80000018:	00000393          	li	x7,0
    8000001c:	00000413          	li	x8,0
    80000020:	00000493          	li	x9,0
    80000024:	00000513          	li	x10,0
    80000028:	00000593          	li	x11,0
    8000002c:	00000613          	li	x12,0
    80000030:	00000693          	li	x13,0
    80000034:	00000713          	li	x14,0
    80000038:	00000793          	li	x15,0
    8000003c:	00000813          	li	x16,0
    80000040:	00000893          	li	x17,0
    80000044:	00000913          	li	x18,0
    80000048:	00000993          	li	x19,0
    8000004c:	00000a13          	li	x20,0
    80000050:	00000a93          	li	x21,0
    80000054:	00000b13          	li	x22,0
    80000058:	00000b93          	li	x23,0
    8000005c:	00000c13          	li	x24,0
    80000060:	00000c93          	li	x25,0
    80000064:	00000d13          	li	x26,0
    80000068:	00000d93          	li	x27,0
    8000006c:	00000e13          	li	x28,0
    80000070:	00000e93          	li	x29,0
    80000074:	00000f13          	li	x30,0
    80000078:	00000f93          	li	x31,0

000000008000007c <loader__load_panic_address>:
    8000007c:	00001297          	auipc	x5,0x1
    80000080:	bf828293          	addi	x5,x5,-1032 # 80000c74 <eot__failed>
    80000084:	30529073          	csrw	mtvec,x5

0000000080000088 <loader__initialize_runtime>:
    80000088:	0010029b          	addiw	x5,x0,1
    8000008c:	03229293          	slli	x5,x5,0x32
    80000090:	20128293          	addi	x5,x5,513
    80000094:	00c29293          	slli	x5,x5,0xc
    80000098:	1ad28293          	addi	x5,x5,429
    8000009c:	3012a2f3          	csrrs	x5,misa,x5

00000000800000a0 <loader__set_mstatus>:
    800000a0:	000422b7          	lui	x5,0x42
    800000a4:	20a2829b          	addiw	x5,x5,522 # 4220a <_all_interrupts+0x3f760>
    800000a8:	3002a2f3          	csrrs	x5,mstatus,x5

00000000800000ac <loader__init_fp_registers>:
    800000ac:	22ee62b7          	lui	x5,0x22ee6
    800000b0:	6132829b          	addiw	x5,x5,1555 # 22ee6613 <saplic_255+0x25e7613>
    800000b4:	00e29293          	slli	x5,x5,0xe
    800000b8:	09828293          	addi	x5,x5,152
    800000bc:	0002b007          	fld	f0,0(x5)
    800000c0:	0002b087          	fld	f1,0(x5)
    800000c4:	0002b107          	fld	f2,0(x5)
    800000c8:	0002b187          	fld	f3,0(x5)
    800000cc:	0002b207          	fld	f4,0(x5)
    800000d0:	0002b287          	fld	f5,0(x5)
    800000d4:	0002b307          	fld	f6,0(x5)
    800000d8:	0002b387          	fld	f7,0(x5)
    800000dc:	0002b407          	fld	f8,0(x5)
    800000e0:	0002b487          	fld	f9,0(x5)
    800000e4:	0002b507          	fld	f10,0(x5)
    800000e8:	0002b587          	fld	f11,0(x5)
    800000ec:	0002b607          	fld	f12,0(x5)
    800000f0:	0002b687          	fld	f13,0(x5)
    800000f4:	0002b707          	fld	f14,0(x5)
    800000f8:	0002b787          	fld	f15,0(x5)
    800000fc:	0002b807          	fld	f16,0(x5)
    80000100:	0002b887          	fld	f17,0(x5)
    80000104:	0002b907          	fld	f18,0(x5)
    80000108:	0002b987          	fld	f19,0(x5)
    8000010c:	0002ba07          	fld	f20,0(x5)
    80000110:	0002ba87          	fld	f21,0(x5)
    80000114:	0002bb07          	fld	f22,0(x5)
    80000118:	0002bb87          	fld	f23,0(x5)
    8000011c:	0002bc07          	fld	f24,0(x5)
    80000120:	0002bc87          	fld	f25,0(x5)
    80000124:	0002bd07          	fld	f26,0(x5)
    80000128:	0002bd87          	fld	f27,0(x5)
    8000012c:	0002be07          	fld	f28,0(x5)
    80000130:	0002be87          	fld	f29,0(x5)
    80000134:	0002bf07          	fld	f30,0(x5)
    80000138:	0002bf87          	fld	f31,0(x5)

000000008000013c <loader__init_vector_registers>:
    8000013c:	00000213          	li	x4,0
    80000140:	00400293          	li	x5,4
    80000144:	0d800313          	li	x6,216
    80000148:	8062f257          	vsetvl	x4,x5,x6
    8000014c:	5e004057          	vmv.v.x	v0,x0
    80000150:	5e0040d7          	vmv.v.x	v1,x0
    80000154:	5e004157          	vmv.v.x	v2,x0
    80000158:	5e0041d7          	vmv.v.x	v3,x0
    8000015c:	5e004257          	vmv.v.x	v4,x0
    80000160:	5e0042d7          	vmv.v.x	v5,x0
    80000164:	5e004357          	vmv.v.x	v6,x0
    80000168:	5e0043d7          	vmv.v.x	v7,x0
    8000016c:	5e004457          	vmv.v.x	v8,x0
    80000170:	5e0044d7          	vmv.v.x	v9,x0
    80000174:	5e004557          	vmv.v.x	v10,x0
    80000178:	5e0045d7          	vmv.v.x	v11,x0
    8000017c:	5e004657          	vmv.v.x	v12,x0
    80000180:	5e0046d7          	vmv.v.x	v13,x0
    80000184:	5e004757          	vmv.v.x	v14,x0
    80000188:	5e0047d7          	vmv.v.x	v15,x0
    8000018c:	5e004857          	vmv.v.x	v16,x0
    80000190:	5e0048d7          	vmv.v.x	v17,x0
    80000194:	5e004957          	vmv.v.x	v18,x0
    80000198:	5e0049d7          	vmv.v.x	v19,x0
    8000019c:	5e004a57          	vmv.v.x	v20,x0
    800001a0:	5e004ad7          	vmv.v.x	v21,x0
    800001a4:	5e004b57          	vmv.v.x	v22,x0
    800001a8:	5e004bd7          	vmv.v.x	v23,x0
    800001ac:	5e004c57          	vmv.v.x	v24,x0
    800001b0:	5e004cd7          	vmv.v.x	v25,x0
    800001b4:	5e004d57          	vmv.v.x	v26,x0
    800001b8:	5e004dd7          	vmv.v.x	v27,x0
    800001bc:	5e004e57          	vmv.v.x	v28,x0
    800001c0:	5e004ed7          	vmv.v.x	v29,x0
    800001c4:	5e004f57          	vmv.v.x	v30,x0
    800001c8:	5e004fd7          	vmv.v.x	v31,x0
    800001cc:	00a92237          	lui	x4,0xa92
    800001d0:	e952021b          	addiw	x4,x4,-363 # a91e95 <SID_27_pm_implicit_access_stack+0xc5e95>
    800001d4:	00d21213          	slli	x4,x4,0xd
    800001d8:	34021073          	csrw	mscratch,x4
    800001dc:	0f80f237          	lui	x4,0xf80f
    800001e0:	df92021b          	addiw	x4,x4,-519 # f80edf9 <SID_01_senvcfg_pmm_warl_stack+0x58c6df9>
    800001e4:	00d21213          	slli	x4,x4,0xd
    800001e8:	14021073          	csrw	sscratch,x4
    800001ec:	00a92237          	lui	x4,0xa92
    800001f0:	e952021b          	addiw	x4,x4,-363 # a91e95 <SID_27_pm_implicit_access_stack+0xc5e95>
    800001f4:	00d21213          	slli	x4,x4,0xd

00000000800001f8 <loader__setup_medeleg>:
    800001f8:	0035c2b7          	lui	x5,0x35c
    800001fc:	f992829b          	addiw	x5,x5,-103 # 35bf99 <SID_07_pm_disabled_s_hs_mode_stack+0x2def99>
    80000200:	00d29293          	slli	x5,x5,0xd
    80000204:	5b928293          	addi	x5,x5,1465
    80000208:	00d29293          	slli	x5,x5,0xd
    8000020c:	7a728293          	addi	x5,x5,1959
    80000210:	00e29293          	slli	x5,x5,0xe
    80000214:	01628293          	addi	x5,x5,22
    80000218:	30229073          	csrw	medeleg,x5

000000008000021c <loader__setup_mideleg>:
    8000021c:	2a800293          	li	x5,680
    80000220:	30329073          	csrw	mideleg,x5

0000000080000224 <loader__setup_tvec>:
    80000224:	00000297          	auipc	x5,0x0
    80000228:	50028293          	addi	x5,x5,1280 # 80000724 <trap_handler_m__trap_entry>
    8000022c:	30529073          	csrw	mtvec,x5
    80000230:	00010297          	auipc	x5,0x10
    80000234:	e4828293          	addi	x5,x5,-440 # 80010078 <trap_handler_s__trap_entry>
    80000238:	10529073          	csrw	stvec,x5

000000008000023c <loader__enable_paging>:
    8000023c:	fffa00b7          	lui	x1,0xfffa0
    80000240:	10f0809b          	addiw	x1,x1,271 # fffffffffffa010f <tp_csr_storage+0xeee7f32bbf910f>
    80000244:	02009093          	slli	x1,x1,0x20
    80000248:	37d08093          	addi	x1,x1,893
    8000024c:	00c09093          	slli	x1,x1,0xc
    80000250:	ee208093          	addi	x1,x1,-286
    80000254:	18009073          	csrw	satp,x1

0000000080000258 <loader__done>:
    80000258:	2450006f          	j	80000c9c <scheduler__init>

000000008000025c <loader__panic>:
    8000025c:	2190006f          	j	80000c74 <eot__failed>

0000000080000260 <syscalls__syscall_check_schedule_next_test>:
    80000260:	00f0029b          	addiw	x5,x0,15
    80000264:	01c29293          	slli	x5,x5,0x1c
    80000268:	00128293          	addi	x5,x5,1
    8000026c:	01f29a63          	bne	x5,x31,80000280 <syscalls__syscall_check_fail_test>
    80000270:	00000317          	auipc	x6,0x0
    80000274:	4b430313          	addi	x6,x6,1204 # 80000724 <trap_handler_m__trap_entry>
    80000278:	30531073          	csrw	mtvec,x6
    8000027c:	6ec0006f          	j	80000968 <enter_scheduler>

0000000080000280 <syscalls__syscall_check_fail_test>:
    80000280:	00f0029b          	addiw	x5,x0,15
    80000284:	01c29293          	slli	x5,x5,0x1c
    80000288:	00228293          	addi	x5,x5,2
    8000028c:	01f29a63          	bne	x5,x31,800002a0 <syscalls__syscall_check_end_test_without_failure>
    80000290:	00000317          	auipc	x6,0x0
    80000294:	49430313          	addi	x6,x6,1172 # 80000724 <trap_handler_m__trap_entry>
    80000298:	30531073          	csrw	mtvec,x6
    8000029c:	6fc0006f          	j	80000998 <test_failed>

00000000800002a0 <syscalls__syscall_check_end_test_without_failure>:
    800002a0:	00f0029b          	addiw	x5,x0,15
    800002a4:	01c29293          	slli	x5,x5,0x1c
    800002a8:	00328293          	addi	x5,x5,3
    800002ac:	01f29a63          	bne	x5,x31,800002c0 <syscalls__syscall_check_switch_machine_mode>
    800002b0:	00000317          	auipc	x6,0x0
    800002b4:	47430313          	addi	x6,x6,1140 # 80000724 <trap_handler_m__trap_entry>
    800002b8:	30531073          	csrw	mtvec,x6
    800002bc:	6e80006f          	j	800009a4 <os_end_test>

00000000800002c0 <syscalls__syscall_check_switch_machine_mode>:
    800002c0:	000f02b7          	lui	x5,0xf0
    800002c4:	0012829b          	addiw	x5,x5,1 # f0001 <SID_07_pm_disabled_s_hs_mode_stack+0x73001>
    800002c8:	00c29293          	slli	x5,x5,0xc
    800002cc:	00128293          	addi	x5,x5,1
    800002d0:	0a5f8463          	beq	x31,x5,80000378 <syscalls__os_fn_f0001001>

00000000800002d4 <syscalls__syscall_check_switch_super_mode>:
    800002d4:	000f02b7          	lui	x5,0xf0
    800002d8:	0012829b          	addiw	x5,x5,1 # f0001 <SID_07_pm_disabled_s_hs_mode_stack+0x73001>
    800002dc:	00c29293          	slli	x5,x5,0xc
    800002e0:	00228293          	addi	x5,x5,2
    800002e4:	0c5f8463          	beq	x31,x5,800003ac <syscalls__os_fn_f0001002>

00000000800002e8 <syscalls__syscall_check_switch_user_mode>:
    800002e8:	000f02b7          	lui	x5,0xf0
    800002ec:	0012829b          	addiw	x5,x5,1 # f0001 <SID_07_pm_disabled_s_hs_mode_stack+0x73001>
    800002f0:	00c29293          	slli	x5,x5,0xc
    800002f4:	00328293          	addi	x5,x5,3
    800002f8:	0c5f8263          	beq	x31,x5,800003bc <syscalls__os_fn_f0001003>

00000000800002fc <syscalls__syscall_check_switch_test_mode>:
    800002fc:	000f02b7          	lui	x5,0xf0
    80000300:	0012829b          	addiw	x5,x5,1 # f0001 <SID_07_pm_disabled_s_hs_mode_stack+0x73001>
    80000304:	00c29293          	slli	x5,x5,0xc
    80000308:	00428293          	addi	x5,x5,4
    8000030c:	0e5f8063          	beq	x31,x5,800003ec <syscalls__os_fn_f0001004>

0000000080000310 <syscalls__syscall_machine_csr_rw>:
    80000310:	000f02b7          	lui	x5,0xf0
    80000314:	0012829b          	addiw	x5,x5,1 # f0001 <SID_07_pm_disabled_s_hs_mode_stack+0x73001>
    80000318:	00c29293          	slli	x5,x5,0xc
    8000031c:	00528293          	addi	x5,x5,5
    80000320:	0e5f8c63          	beq	x31,x5,80000418 <syscalls__os_fn_f0001005>

0000000080000324 <syscalls__syscall_supervisor_csr_rw>:
    80000324:	000f02b7          	lui	x5,0xf0
    80000328:	0012829b          	addiw	x5,x5,1 # f0001 <SID_07_pm_disabled_s_hs_mode_stack+0x73001>
    8000032c:	00c29293          	slli	x5,x5,0xc
    80000330:	00628293          	addi	x5,x5,6
    80000334:	105f8c63          	beq	x31,x5,8000044c <syscalls__os_fn_f0001006>

0000000080000338 <syscalls__syscall_machine_pte_read>:
    80000338:	000f02b7          	lui	x5,0xf0
    8000033c:	0012829b          	addiw	x5,x5,1 # f0001 <SID_07_pm_disabled_s_hs_mode_stack+0x73001>
    80000340:	00c29293          	slli	x5,x5,0xc
    80000344:	00728293          	addi	x5,x5,7
    80000348:	105f8a63          	beq	x31,x5,8000045c <syscalls__os_fn_f0001007>

000000008000034c <syscalls__syscall_machine_pte_write>:
    8000034c:	000f02b7          	lui	x5,0xf0
    80000350:	0012829b          	addiw	x5,x5,1 # f0001 <SID_07_pm_disabled_s_hs_mode_stack+0x73001>
    80000354:	00c29293          	slli	x5,x5,0xc
    80000358:	00828293          	addi	x5,x5,8
    8000035c:	205f8a63          	beq	x31,x5,80000570 <syscalls__os_fn_f0001008>

0000000080000360 <syscalls__syscall_check_get_hart_context>:
    80000360:	000782b7          	lui	x5,0x78
    80000364:	0012829b          	addiw	x5,x5,1 # 78001 <_all_interrupts+0x75557>
    80000368:	00d29293          	slli	x5,x5,0xd
    8000036c:	00128293          	addi	x5,x5,1
    80000370:	305f8a63          	beq	x31,x5,80000684 <syscalls__os_get_hart_context>
    80000374:	50c0006f          	j	80000880 <trap_handler_m__check_exception_label>

0000000080000378 <syscalls__os_fn_f0001001>:
    80000378:	000022b7          	lui	x5,0x2
    8000037c:	8002829b          	addiw	x5,x5,-2048 # 1800 <FS_RANDOMIZATION+0x179c>
    80000380:	3002b073          	csrc	mstatus,x5
    80000384:	000022b7          	lui	x5,0x2
    80000388:	8002829b          	addiw	x5,x5,-2048 # 1800 <FS_RANDOMIZATION+0x179c>
    8000038c:	3002a073          	csrs	mstatus,x5
    80000390:	0010029b          	addiw	x5,x0,1
    80000394:	02729293          	slli	x5,x5,0x27
    80000398:	3002b073          	csrc	mstatus,x5
    8000039c:	000202b7          	lui	x5,0x20
    800003a0:	0652829b          	addiw	x5,x5,101 # 20065 <_all_interrupts+0x1d5bb>
    800003a4:	00e29293          	slli	x5,x5,0xe
    800003a8:	2ec0006f          	j	80000694 <syscalls__ret_from_os_fn>

00000000800003ac <syscalls__os_fn_f0001002>:
    800003ac:	000202b7          	lui	x5,0x20
    800003b0:	0252829b          	addiw	x5,x5,37 # 20025 <_all_interrupts+0x1d57b>
    800003b4:	00e29293          	slli	x5,x5,0xe
    800003b8:	2dc0006f          	j	80000694 <syscalls__ret_from_os_fn>

00000000800003bc <syscalls__os_fn_f0001003>:
    800003bc:	000022b7          	lui	x5,0x2
    800003c0:	8002829b          	addiw	x5,x5,-2048 # 1800 <FS_RANDOMIZATION+0x179c>
    800003c4:	3002b073          	csrc	mstatus,x5
    800003c8:	00000293          	li	x5,0
    800003cc:	3002a073          	csrs	mstatus,x5
    800003d0:	0010029b          	addiw	x5,x0,1
    800003d4:	02729293          	slli	x5,x5,0x27
    800003d8:	3002b073          	csrc	mstatus,x5
    800003dc:	000202b7          	lui	x5,0x20
    800003e0:	0452829b          	addiw	x5,x5,69 # 20045 <_all_interrupts+0x1d59b>
    800003e4:	00e29293          	slli	x5,x5,0xe
    800003e8:	2ac0006f          	j	80000694 <syscalls__ret_from_os_fn>

00000000800003ec <syscalls__os_fn_f0001004>:
    800003ec:	000022b7          	lui	x5,0x2
    800003f0:	8002829b          	addiw	x5,x5,-2048 # 1800 <FS_RANDOMIZATION+0x179c>
    800003f4:	3002b073          	csrc	mstatus,x5
    800003f8:	000012b7          	lui	x5,0x1
    800003fc:	8002829b          	addiw	x5,x5,-2048 # 800 <FS_RANDOMIZATION+0x79c>
    80000400:	3002a073          	csrs	mstatus,x5
    80000404:	0010029b          	addiw	x5,x0,1
    80000408:	02729293          	slli	x5,x5,0x27
    8000040c:	3002b073          	csrc	mstatus,x5
    80000410:	17823283          	ld	x5,376(x4) # 178 <FS_RANDOMIZATION+0x114>
    80000414:	2800006f          	j	80000694 <syscalls__ret_from_os_fn>

0000000080000418 <syscalls__os_fn_f0001005>:
    80000418:	000022b7          	lui	x5,0x2
    8000041c:	8002829b          	addiw	x5,x5,-2048 # 1800 <FS_RANDOMIZATION+0x179c>
    80000420:	3002b073          	csrc	mstatus,x5
    80000424:	000022b7          	lui	x5,0x2
    80000428:	8002829b          	addiw	x5,x5,-2048 # 1800 <FS_RANDOMIZATION+0x179c>
    8000042c:	3002a073          	csrs	mstatus,x5
    80000430:	0010029b          	addiw	x5,x0,1
    80000434:	02729293          	slli	x5,x5,0x27
    80000438:	3002b073          	csrc	mstatus,x5
    8000043c:	000202b7          	lui	x5,0x20
    80000440:	0852829b          	addiw	x5,x5,133 # 20085 <_all_interrupts+0x1d5db>
    80000444:	00e29293          	slli	x5,x5,0xe
    80000448:	24c0006f          	j	80000694 <syscalls__ret_from_os_fn>

000000008000044c <syscalls__os_fn_f0001006>:
    8000044c:	000802b7          	lui	x5,0x80
    80000450:	2152829b          	addiw	x5,x5,533 # 80215 <SID_07_pm_disabled_s_hs_mode_stack+0x3215>
    80000454:	00c29293          	slli	x5,x5,0xc
    80000458:	23c0006f          	j	80000694 <syscalls__ret_from_os_fn>

000000008000045c <syscalls__os_fn_f0001007>:
    8000045c:	22ee6fb7          	lui	x31,0x22ee6
    80000460:	613f8f9b          	addiw	x31,x31,1555 # 22ee6613 <saplic_255+0x25e7613>
    80000464:	00ef9f93          	slli	x31,x31,0xe
    80000468:	0b0f8f93          	addi	x31,x31,176
    8000046c:	000fbf83          	ld	x31,0(x31)
    80000470:	22ee62b7          	lui	x5,0x22ee6
    80000474:	6132829b          	addiw	x5,x5,1555 # 22ee6613 <saplic_255+0x25e7613>
    80000478:	00e29293          	slli	x5,x5,0xe
    8000047c:	0b828293          	addi	x5,x5,184
    80000480:	0002b283          	ld	x5,0(x5)
    80000484:	22ee6e37          	lui	x28,0x22ee6
    80000488:	613e0e1b          	addiw	x28,x28,1555 # 22ee6613 <saplic_255+0x25e7613>
    8000048c:	00ee1e13          	slli	x28,x28,0xe
    80000490:	0c0e0e13          	addi	x28,x28,192
    80000494:	000e3e03          	ld	x28,0(x28)

0000000080000498 <syscalls__pte_walk_check_glevel_without_gstage_read>:
    80000498:	fff00f93          	li	x31,-1
    8000049c:	0dfe1863          	bne	x28,x31,8000056c <syscalls__pte_walk_fail_read>
    800004a0:	18002373          	csrr	x6,satp
    800004a4:	03c35e93          	srli	x29,x6,0x3c
    800004a8:	01431313          	slli	x6,x6,0x14
    800004ac:	01435313          	srli	x6,x6,0x14
    800004b0:	00c31313          	slli	x6,x6,0xc
    800004b4:	ff8e8e93          	addi	x29,x29,-8
    800004b8:	003e9f13          	slli	x30,x29,0x3
    800004bc:	01df0eb3          	add	x29,x30,x29
    800004c0:	01ee8e93          	addi	x29,x29,30
    800004c4:	00000f13          	li	x30,0

00000000800004c8 <syscalls__pte_walk_loop_read>:
    800004c8:	22ee6fb7          	lui	x31,0x22ee6
    800004cc:	613f8f9b          	addiw	x31,x31,1555 # 22ee6613 <saplic_255+0x25e7613>
    800004d0:	00ef9f93          	slli	x31,x31,0xe
    800004d4:	0b0f8f93          	addi	x31,x31,176
    800004d8:	000fbf83          	ld	x31,0(x31)
    800004dc:	01dfdfb3          	srl	x31,x31,x29
    800004e0:	1fffff93          	andi	x31,x31,511
    800004e4:	003f9f93          	slli	x31,x31,0x3
    800004e8:	01f30333          	add	x6,x6,x31
    800004ec:	005f0e63          	beq	x30,x5,80000508 <syscalls__pte_walk_done_read>
    800004f0:	00033f83          	ld	x31,0(x6)
    800004f4:	00afdf93          	srli	x31,x31,0xa
    800004f8:	00cf9313          	slli	x6,x31,0xc
    800004fc:	001f0f13          	addi	x30,x30,1
    80000500:	ff7e8e93          	addi	x29,x29,-9
    80000504:	fc5ff06f          	j	800004c8 <syscalls__pte_walk_loop_read>

0000000080000508 <syscalls__pte_walk_done_read>:
    80000508:	fff00f93          	li	x31,-1
    8000050c:	05fe0663          	beq	x28,x31,80000558 <syscalls__pte_walk_final_read>

0000000080000510 <syscalls__pte_walk_gstage_read>:
    80000510:	22ee6fb7          	lui	x31,0x22ee6
    80000514:	613f8f9b          	addiw	x31,x31,1555 # 22ee6613 <saplic_255+0x25e7613>
    80000518:	00ef9f93          	slli	x31,x31,0xe
    8000051c:	0b0f8f93          	addi	x31,x31,176
    80000520:	006fb023          	sd	x6,0(x31)
    80000524:	000e0293          	mv	x5,x28
    80000528:	fff00e13          	li	x28,-1
    8000052c:	68002373          	csrr	x6,hgatp
    80000530:	03c35e93          	srli	x29,x6,0x3c
    80000534:	01431313          	slli	x6,x6,0x14
    80000538:	01435313          	srli	x6,x6,0x14
    8000053c:	00c31313          	slli	x6,x6,0xc
    80000540:	ff8e8e93          	addi	x29,x29,-8
    80000544:	003e9f13          	slli	x30,x29,0x3
    80000548:	01df0eb3          	add	x29,x30,x29
    8000054c:	01ee8e93          	addi	x29,x29,30
    80000550:	00000f13          	li	x30,0
    80000554:	f75ff06f          	j	800004c8 <syscalls__pte_walk_loop_read>

0000000080000558 <syscalls__pte_walk_final_read>:
    80000558:	00033383          	ld	x7,0(x6)
    8000055c:	341022f3          	csrr	x5,mepc
    80000560:	00428293          	addi	x5,x5,4
    80000564:	16523c23          	sd	x5,376(x4) # 178 <FS_RANDOMIZATION+0x114>
    80000568:	e85ff06f          	j	800003ec <syscalls__os_fn_f0001004>

000000008000056c <syscalls__pte_walk_fail_read>:
    8000056c:	42c0006f          	j	80000998 <test_failed>

0000000080000570 <syscalls__os_fn_f0001008>:
    80000570:	22ee6fb7          	lui	x31,0x22ee6
    80000574:	613f8f9b          	addiw	x31,x31,1555 # 22ee6613 <saplic_255+0x25e7613>
    80000578:	00ef9f93          	slli	x31,x31,0xe
    8000057c:	0b0f8f93          	addi	x31,x31,176
    80000580:	000fbf83          	ld	x31,0(x31)
    80000584:	22ee62b7          	lui	x5,0x22ee6
    80000588:	6132829b          	addiw	x5,x5,1555 # 22ee6613 <saplic_255+0x25e7613>
    8000058c:	00e29293          	slli	x5,x5,0xe
    80000590:	0b828293          	addi	x5,x5,184
    80000594:	0002b283          	ld	x5,0(x5)
    80000598:	22ee6e37          	lui	x28,0x22ee6
    8000059c:	613e0e1b          	addiw	x28,x28,1555 # 22ee6613 <saplic_255+0x25e7613>
    800005a0:	00ee1e13          	slli	x28,x28,0xe
    800005a4:	0c0e0e13          	addi	x28,x28,192
    800005a8:	000e3e03          	ld	x28,0(x28)

00000000800005ac <syscalls__pte_walk_check_glevel_without_gstage_write>:
    800005ac:	fff00f93          	li	x31,-1
    800005b0:	0dfe1863          	bne	x28,x31,80000680 <syscalls__pte_walk_fail_write>
    800005b4:	18002373          	csrr	x6,satp
    800005b8:	03c35e93          	srli	x29,x6,0x3c
    800005bc:	01431313          	slli	x6,x6,0x14
    800005c0:	01435313          	srli	x6,x6,0x14
    800005c4:	00c31313          	slli	x6,x6,0xc
    800005c8:	ff8e8e93          	addi	x29,x29,-8
    800005cc:	003e9f13          	slli	x30,x29,0x3
    800005d0:	01df0eb3          	add	x29,x30,x29
    800005d4:	01ee8e93          	addi	x29,x29,30
    800005d8:	00000f13          	li	x30,0

00000000800005dc <syscalls__pte_walk_loop_write>:
    800005dc:	22ee6fb7          	lui	x31,0x22ee6
    800005e0:	613f8f9b          	addiw	x31,x31,1555 # 22ee6613 <saplic_255+0x25e7613>
    800005e4:	00ef9f93          	slli	x31,x31,0xe
    800005e8:	0b0f8f93          	addi	x31,x31,176
    800005ec:	000fbf83          	ld	x31,0(x31)
    800005f0:	01dfdfb3          	srl	x31,x31,x29
    800005f4:	1fffff93          	andi	x31,x31,511
    800005f8:	003f9f93          	slli	x31,x31,0x3
    800005fc:	01f30333          	add	x6,x6,x31
    80000600:	005f0e63          	beq	x30,x5,8000061c <syscalls__pte_walk_done_write>
    80000604:	00033f83          	ld	x31,0(x6)
    80000608:	00afdf93          	srli	x31,x31,0xa
    8000060c:	00cf9313          	slli	x6,x31,0xc
    80000610:	001f0f13          	addi	x30,x30,1
    80000614:	ff7e8e93          	addi	x29,x29,-9
    80000618:	fc5ff06f          	j	800005dc <syscalls__pte_walk_loop_write>

000000008000061c <syscalls__pte_walk_done_write>:
    8000061c:	fff00f93          	li	x31,-1
    80000620:	05fe0663          	beq	x28,x31,8000066c <syscalls__pte_walk_final_write>

0000000080000624 <syscalls__pte_walk_gstage_write>:
    80000624:	22ee6fb7          	lui	x31,0x22ee6
    80000628:	613f8f9b          	addiw	x31,x31,1555 # 22ee6613 <saplic_255+0x25e7613>
    8000062c:	00ef9f93          	slli	x31,x31,0xe
    80000630:	0b0f8f93          	addi	x31,x31,176
    80000634:	006fb023          	sd	x6,0(x31)
    80000638:	000e0293          	mv	x5,x28
    8000063c:	fff00e13          	li	x28,-1
    80000640:	68002373          	csrr	x6,hgatp
    80000644:	03c35e93          	srli	x29,x6,0x3c
    80000648:	01431313          	slli	x6,x6,0x14
    8000064c:	01435313          	srli	x6,x6,0x14
    80000650:	00c31313          	slli	x6,x6,0xc
    80000654:	ff8e8e93          	addi	x29,x29,-8
    80000658:	003e9f13          	slli	x30,x29,0x3
    8000065c:	01df0eb3          	add	x29,x30,x29
    80000660:	01ee8e93          	addi	x29,x29,30
    80000664:	00000f13          	li	x30,0
    80000668:	f75ff06f          	j	800005dc <syscalls__pte_walk_loop_write>

000000008000066c <syscalls__pte_walk_final_write>:
    8000066c:	00733023          	sd	x7,0(x6)
    80000670:	341022f3          	csrr	x5,mepc
    80000674:	00428293          	addi	x5,x5,4
    80000678:	16523c23          	sd	x5,376(x4) # 178 <FS_RANDOMIZATION+0x114>
    8000067c:	d71ff06f          	j	800003ec <syscalls__os_fn_f0001004>

0000000080000680 <syscalls__pte_walk_fail_write>:
    80000680:	3180006f          	j	80000998 <test_failed>

0000000080000684 <syscalls__os_get_hart_context>:
    80000684:	14002573          	csrr	x10,sscratch
    80000688:	341022f3          	csrr	x5,mepc
    8000068c:	00428293          	addi	x5,x5,4
    80000690:	0040006f          	j	80000694 <syscalls__ret_from_os_fn>

0000000080000694 <syscalls__ret_from_os_fn>:
    80000694:	34102373          	csrr	x6,mepc
    80000698:	00430313          	addi	x6,x6,4
    8000069c:	16623c23          	sd	x6,376(x4) # 178 <FS_RANDOMIZATION+0x114>
    800006a0:	34129073          	csrw	mepc,x5
    800006a4:	fff00f93          	li	x31,-1
    800006a8:	2a40006f          	j	8000094c <trap_handler_m__skip_xepc_write>

00000000800006ac <trap_handler_m__invalid_interrupt>:
    800006ac:	2ec0006f          	j	80000998 <test_failed>

00000000800006b0 <trap_handler_m__clear_all_interrupts>:
    800006b0:	34401073          	csrw	mip,x0
    800006b4:	30200073          	mret

00000000800006b8 <trap_handler_m___CLEAR_SSI>:
    800006b8:	00200293          	li	x5,2
    800006bc:	3442b073          	csrc	mip,x5
    800006c0:	30200073          	mret

00000000800006c4 <trap_handler_m___CLEAR_MSI>:
    800006c4:	00800293          	li	x5,8
    800006c8:	3442b073          	csrc	mip,x5
    800006cc:	30200073          	mret

00000000800006d0 <trap_handler_m___CLEAR_STI>:
    800006d0:	02000293          	li	x5,32
    800006d4:	3442b073          	csrc	mip,x5
    800006d8:	30200073          	mret

00000000800006dc <trap_handler_m___CLEAR_MTI>:
    800006dc:	08000293          	li	x5,128
    800006e0:	3442b073          	csrc	mip,x5
    800006e4:	30200073          	mret

00000000800006e8 <trap_handler_m___CLEAR_SEI>:
    800006e8:	20000293          	li	x5,512
    800006ec:	3442b073          	csrc	mip,x5
    800006f0:	30200073          	mret

00000000800006f4 <trap_handler_m___CLEAR_MEI>:
    800006f4:	000012b7          	lui	x5,0x1
    800006f8:	8002829b          	addiw	x5,x5,-2048 # 800 <FS_RANDOMIZATION+0x79c>
    800006fc:	3442b073          	csrc	mip,x5
    80000700:	30200073          	mret

0000000080000704 <trap_handler_m___CLEAR_COI>:
    80000704:	000022b7          	lui	x5,0x2
    80000708:	3442b073          	csrc	mip,x5
    8000070c:	30200073          	mret

0000000080000710 <trap_handler_m__clear_highest_priority_interrupt>:
    80000710:	344022f3          	csrr	x5,mip
    80000714:	40500333          	neg	x6,x5
    80000718:	0062f2b3          	and	x5,x5,x6
    8000071c:	3442b073          	csrc	mip,x5
    80000720:	30200073          	mret

0000000080000724 <trap_handler_m__trap_entry>:
    80000724:	0fc0006f          	j	80000820 <trap_handler_m__trap_handler>

0000000080000728 <trap_handler_m__interrupt_vector_table>:
    80000728:	f91ff06f          	j	800006b8 <trap_handler_m___CLEAR_SSI>
    8000072c:	f81ff06f          	j	800006ac <trap_handler_m__invalid_interrupt>
    80000730:	f95ff06f          	j	800006c4 <trap_handler_m___CLEAR_MSI>
    80000734:	f79ff06f          	j	800006ac <trap_handler_m__invalid_interrupt>
    80000738:	f99ff06f          	j	800006d0 <trap_handler_m___CLEAR_STI>
    8000073c:	f71ff06f          	j	800006ac <trap_handler_m__invalid_interrupt>
    80000740:	f9dff06f          	j	800006dc <trap_handler_m___CLEAR_MTI>
    80000744:	f69ff06f          	j	800006ac <trap_handler_m__invalid_interrupt>
    80000748:	fa1ff06f          	j	800006e8 <trap_handler_m___CLEAR_SEI>
    8000074c:	f61ff06f          	j	800006ac <trap_handler_m__invalid_interrupt>
    80000750:	fa5ff06f          	j	800006f4 <trap_handler_m___CLEAR_MEI>
    80000754:	f59ff06f          	j	800006ac <trap_handler_m__invalid_interrupt>
    80000758:	fadff06f          	j	80000704 <trap_handler_m___CLEAR_COI>
    8000075c:	f51ff06f          	j	800006ac <trap_handler_m__invalid_interrupt>
    80000760:	f4dff06f          	j	800006ac <trap_handler_m__invalid_interrupt>
    80000764:	fadff06f          	j	80000710 <trap_handler_m__clear_highest_priority_interrupt>
    80000768:	fa9ff06f          	j	80000710 <trap_handler_m__clear_highest_priority_interrupt>
    8000076c:	fa5ff06f          	j	80000710 <trap_handler_m__clear_highest_priority_interrupt>
    80000770:	fa1ff06f          	j	80000710 <trap_handler_m__clear_highest_priority_interrupt>
    80000774:	f9dff06f          	j	80000710 <trap_handler_m__clear_highest_priority_interrupt>
    80000778:	f99ff06f          	j	80000710 <trap_handler_m__clear_highest_priority_interrupt>
    8000077c:	f95ff06f          	j	80000710 <trap_handler_m__clear_highest_priority_interrupt>
    80000780:	f91ff06f          	j	80000710 <trap_handler_m__clear_highest_priority_interrupt>
    80000784:	f8dff06f          	j	80000710 <trap_handler_m__clear_highest_priority_interrupt>
    80000788:	f89ff06f          	j	80000710 <trap_handler_m__clear_highest_priority_interrupt>
    8000078c:	f85ff06f          	j	80000710 <trap_handler_m__clear_highest_priority_interrupt>
    80000790:	f81ff06f          	j	80000710 <trap_handler_m__clear_highest_priority_interrupt>
    80000794:	f7dff06f          	j	80000710 <trap_handler_m__clear_highest_priority_interrupt>
    80000798:	f79ff06f          	j	80000710 <trap_handler_m__clear_highest_priority_interrupt>
    8000079c:	f75ff06f          	j	80000710 <trap_handler_m__clear_highest_priority_interrupt>
    800007a0:	f71ff06f          	j	80000710 <trap_handler_m__clear_highest_priority_interrupt>
    800007a4:	f6dff06f          	j	80000710 <trap_handler_m__clear_highest_priority_interrupt>
    800007a8:	f69ff06f          	j	80000710 <trap_handler_m__clear_highest_priority_interrupt>
    800007ac:	f65ff06f          	j	80000710 <trap_handler_m__clear_highest_priority_interrupt>
    800007b0:	f61ff06f          	j	80000710 <trap_handler_m__clear_highest_priority_interrupt>
    800007b4:	f5dff06f          	j	80000710 <trap_handler_m__clear_highest_priority_interrupt>
    800007b8:	f59ff06f          	j	80000710 <trap_handler_m__clear_highest_priority_interrupt>
    800007bc:	f55ff06f          	j	80000710 <trap_handler_m__clear_highest_priority_interrupt>
    800007c0:	f51ff06f          	j	80000710 <trap_handler_m__clear_highest_priority_interrupt>
    800007c4:	f4dff06f          	j	80000710 <trap_handler_m__clear_highest_priority_interrupt>
    800007c8:	f49ff06f          	j	80000710 <trap_handler_m__clear_highest_priority_interrupt>
    800007cc:	f45ff06f          	j	80000710 <trap_handler_m__clear_highest_priority_interrupt>
    800007d0:	f41ff06f          	j	80000710 <trap_handler_m__clear_highest_priority_interrupt>
    800007d4:	f3dff06f          	j	80000710 <trap_handler_m__clear_highest_priority_interrupt>
    800007d8:	f39ff06f          	j	80000710 <trap_handler_m__clear_highest_priority_interrupt>
    800007dc:	f35ff06f          	j	80000710 <trap_handler_m__clear_highest_priority_interrupt>
    800007e0:	f31ff06f          	j	80000710 <trap_handler_m__clear_highest_priority_interrupt>
    800007e4:	f2dff06f          	j	80000710 <trap_handler_m__clear_highest_priority_interrupt>
    800007e8:	f29ff06f          	j	80000710 <trap_handler_m__clear_highest_priority_interrupt>
    800007ec:	f25ff06f          	j	80000710 <trap_handler_m__clear_highest_priority_interrupt>
    800007f0:	f21ff06f          	j	80000710 <trap_handler_m__clear_highest_priority_interrupt>
    800007f4:	f1dff06f          	j	80000710 <trap_handler_m__clear_highest_priority_interrupt>
    800007f8:	f19ff06f          	j	80000710 <trap_handler_m__clear_highest_priority_interrupt>
    800007fc:	f15ff06f          	j	80000710 <trap_handler_m__clear_highest_priority_interrupt>
    80000800:	f11ff06f          	j	80000710 <trap_handler_m__clear_highest_priority_interrupt>
    80000804:	f0dff06f          	j	80000710 <trap_handler_m__clear_highest_priority_interrupt>
    80000808:	f09ff06f          	j	80000710 <trap_handler_m__clear_highest_priority_interrupt>
    8000080c:	f05ff06f          	j	80000710 <trap_handler_m__clear_highest_priority_interrupt>
    80000810:	f01ff06f          	j	80000710 <trap_handler_m__clear_highest_priority_interrupt>
    80000814:	efdff06f          	j	80000710 <trap_handler_m__clear_highest_priority_interrupt>
    80000818:	ef9ff06f          	j	80000710 <trap_handler_m__clear_highest_priority_interrupt>
    8000081c:	ef5ff06f          	j	80000710 <trap_handler_m__clear_highest_priority_interrupt>

0000000080000820 <trap_handler_m__trap_handler>:
    80000820:	342022f3          	csrr	x5,mcause
    80000824:	fff0031b          	addiw	x6,x0,-1
    80000828:	03f31313          	slli	x6,x6,0x3f
    8000082c:	00537333          	and	x6,x6,x5
    80000830:	02030263          	beqz	x6,80000854 <trap_handler_m__exception_path>

0000000080000834 <trap_handler_m__interrupt_handler>:
    80000834:	fff0031b          	addiw	x6,x0,-1
    80000838:	03f31313          	slli	x6,x6,0x3f
    8000083c:	0062c2b3          	xor	x5,x5,x6
    80000840:	00000317          	auipc	x6,0x0
    80000844:	ee430313          	addi	x6,x6,-284 # 80000724 <trap_handler_m__trap_entry>
    80000848:	00229293          	slli	x5,x5,0x2
    8000084c:	005302b3          	add	x5,x6,x5
    80000850:	00028067          	jr	x5 # 2000 <FS_RANDOMIZATION+0x1f9c>

0000000080000854 <trap_handler_m__exception_path>:
    80000854:	34021273          	csrrw	x4,mscratch,x4
    80000858:	00000297          	auipc	x5,0x0
    8000085c:	10828293          	addi	x5,x5,264 # 80000960 <trap_handler_m__trap_panic>
    80000860:	30529073          	csrw	mtvec,x5
    80000864:	0040006f          	j	80000868 <trap_handler_m__excp_entry>

0000000080000868 <trap_handler_m__excp_entry>:
    80000868:	34202373          	csrr	x6,mcause
    8000086c:	00800293          	li	x5,8
    80000870:	00534863          	blt	x6,x5,80000880 <trap_handler_m__check_exception_label>
    80000874:	00b00293          	li	x5,11
    80000878:	0062c463          	blt	x5,x6,80000880 <trap_handler_m__check_exception_label>
    8000087c:	9e5ff06f          	j	80000260 <syscalls__syscall_check_schedule_next_test>

0000000080000880 <trap_handler_m__check_exception_label>:
    80000880:	04623c23          	sd	x6,88(x4) # 58 <XLEN+0x18>
    80000884:	341022f3          	csrr	x5,mepc
    80000888:	02523423          	sd	x5,40(x4) # 28 <SECURE_ACCESS_PROBABILITY+0xa>
    8000088c:	01820283          	lb	x5,24(x4) # 18 <STORE_GUEST_PAGE_FAULT+0x1>
    80000890:	00029863          	bnez	x5,800008a0 <trap_handler_m__check_excp>
    80000894:	00128293          	addi	x5,x5,1
    80000898:	00520c23          	sb	x5,24(x4) # 18 <STORE_GUEST_PAGE_FAULT+0x1>
    8000089c:	0980006f          	j	80000934 <trap_handler_m__ecall_from_machine>

00000000800008a0 <trap_handler_m__check_excp>:
    800008a0:	06820293          	addi	x5,x4,104 # 68 <FS_RANDOMIZATION+0x4>
    800008a4:	0802b2af          	amoswap.d	x5,x0,(x5)
    800008a8:	00028663          	beqz	x5,800008b4 <trap_handler_m__skip_mode_check>
    800008ac:	00100393          	li	x7,1
    800008b0:	0e729463          	bne	x5,x7,80000998 <test_failed>

00000000800008b4 <trap_handler_m__skip_mode_check>:
    800008b4:	05020293          	addi	x5,x4,80 # 50 <XLEN+0x10>
    800008b8:	0802b2af          	amoswap.d	x5,x0,(x5)
    800008bc:	0c531e63          	bne	x6,x5,80000998 <test_failed>
    800008c0:	03820293          	addi	x5,x4,56 # 38 <SECURE_ACCESS_PROBABILITY+0x1a>
    800008c4:	0802b2af          	amoswap.d	x5,x0,(x5)
    800008c8:	06029463          	bnez	x5,80000930 <trap_handler_m__skip_gva_check>
    800008cc:	02020313          	addi	x6,x4,32 # 20 <SECURE_ACCESS_PROBABILITY+0x2>
    800008d0:	0803332f          	amoswap.d	x6,x0,(x6)
    800008d4:	02820293          	addi	x5,x4,40 # 28 <SECURE_ACCESS_PROBABILITY+0xa>
    800008d8:	0802b2af          	amoswap.d	x5,x0,(x5)
    800008dc:	0a531e63          	bne	x6,x5,80000998 <test_failed>
    800008e0:	04020293          	addi	x5,x4,64 # 40 <XLEN>
    800008e4:	0802b2af          	amoswap.d	x5,x0,(x5)
    800008e8:	00028663          	beqz	x5,800008f4 <trap_handler_m__skip_nonzero_tval_check>

00000000800008ec <trap_handler_m__nonzero_tval_check>:
    800008ec:	34302373          	csrr	x6,mtval
    800008f0:	0a531463          	bne	x6,x5,80000998 <test_failed>

00000000800008f4 <trap_handler_m__skip_nonzero_tval_check>:
    800008f4:	04820293          	addi	x5,x4,72 # 48 <XLEN+0x8>
    800008f8:	0802b2af          	amoswap.d	x5,x0,(x5)
    800008fc:	00028663          	beqz	x5,80000908 <trap_handler_m__skip_nonzero_htval_check>

0000000080000900 <trap_handler_m__nonzero_htval_check>:
    80000900:	34b02373          	csrr	x6,0x34b
    80000904:	08531a63          	bne	x6,x5,80000998 <test_failed>

0000000080000908 <trap_handler_m__skip_nonzero_htval_check>:
    80000908:	06020293          	addi	x5,x4,96 # 60 <XLEN+0x20>
    8000090c:	0802b2af          	amoswap.d	x5,x0,(x5)
    80000910:	02028063          	beqz	x5,80000930 <trap_handler_m__skip_gva_check>

0000000080000914 <trap_handler_m__gva_check>:
    80000914:	30002373          	csrr	x6,mstatus
    80000918:	02635313          	srli	x6,x6,0x26
    8000091c:	00137313          	andi	x6,x6,1
    80000920:	06030c63          	beqz	x6,80000998 <test_failed>
    80000924:	0010031b          	addiw	x6,x0,1
    80000928:	02631313          	slli	x6,x6,0x26
    8000092c:	30033073          	csrc	mstatus,x6

0000000080000930 <trap_handler_m__skip_gva_check>:
    80000930:	0040006f          	j	80000934 <trap_handler_m__ecall_from_machine>

0000000080000934 <trap_handler_m__ecall_from_machine>:
    80000934:	03020293          	addi	x5,x4,48 # 30 <SECURE_ACCESS_PROBABILITY+0x12>
    80000938:	0802b2af          	amoswap.d	x5,x0,(x5)
    8000093c:	07020313          	addi	x6,x4,112 # 70 <FS_RANDOMIZATION+0xc>
    80000940:	0803332f          	amoswap.d	x6,x0,(x6)
    80000944:	00031463          	bnez	x6,8000094c <trap_handler_m__skip_xepc_write>
    80000948:	34129073          	csrw	mepc,x5

000000008000094c <trap_handler_m__skip_xepc_write>:
    8000094c:	00000317          	auipc	x6,0x0
    80000950:	dd830313          	addi	x6,x6,-552 # 80000724 <trap_handler_m__trap_entry>
    80000954:	30531073          	csrw	mtvec,x6
    80000958:	34021273          	csrrw	x4,mscratch,x4
    8000095c:	30200073          	mret

0000000080000960 <trap_handler_m__trap_panic>:
    80000960:	00000193          	li	x3,0
    80000964:	2ec0006f          	j	80000c50 <eot__end_test>

0000000080000968 <enter_scheduler>:
    80000968:	0002f337          	lui	x6,0x2f
    8000096c:	ab73031b          	addiw	x6,x6,-1353 # 2eab7 <_all_interrupts+0x2c00d>
    80000970:	00e31313          	slli	x6,x6,0xe
    80000974:	0de30313          	addi	x6,x6,222
    80000978:	02628063          	beq	x5,x6,80000998 <test_failed>
    8000097c:	00000513          	li	x10,0
    80000980:	030000ef          	jal	800009b0 <rvcp_print_test_result>
    80000984:	3500006f          	j	80000cd4 <scheduler__dispatch>

0000000080000988 <test_passed>:
    80000988:	34021273          	csrrw	x4,mscratch,x4
    8000098c:	00000513          	li	x10,0
    80000990:	020000ef          	jal	800009b0 <rvcp_print_test_result>
    80000994:	3400006f          	j	80000cd4 <scheduler__dispatch>

0000000080000998 <test_failed>:
    80000998:	34021273          	csrrw	x4,mscratch,x4
    8000099c:	00300193          	li	x3,3
    800009a0:	2b00006f          	j	80000c50 <eot__end_test>

00000000800009a4 <os_end_test>:
    800009a4:	34021273          	csrrw	x4,mscratch,x4
    800009a8:	00100193          	li	x3,1
    800009ac:	2a40006f          	j	80000c50 <eot__end_test>

00000000800009b0 <rvcp_print_test_result>:
    800009b0:	00050e13          	mv	x28,x10
    800009b4:	19823283          	ld	x5,408(x4) # 198 <FS_RANDOMIZATION+0x134>
    800009b8:	0010031b          	addiw	x6,x0,1
    800009bc:	02031313          	slli	x6,x6,0x20
    800009c0:	ffe30313          	addi	x6,x6,-2
    800009c4:	1e628c63          	beq	x5,x6,80000bbc <rvcp_print_test_result+0x20c>
    800009c8:	0010031b          	addiw	x6,x0,1
    800009cc:	02031313          	slli	x6,x6,0x20
    800009d0:	fff30313          	addi	x6,x6,-1
    800009d4:	1e628463          	beq	x5,x6,80000bbc <rvcp_print_test_result+0x20c>
    800009d8:	1e02c263          	bltz	x5,80000bbc <rvcp_print_test_result+0x20c>
    800009dc:	00000317          	auipc	x6,0x0
    800009e0:	54830313          	addi	x6,x6,1352 # 80000f24 <dtest_descriptor_table>
    800009e4:	00329393          	slli	x7,x5,0x3
    800009e8:	00730333          	add	x6,x6,x7
    800009ec:	00033e83          	ld	x29,0(x6)
    800009f0:	22ee6f37          	lui	x30,0x22ee6
    800009f4:	613f0f1b          	addiw	x30,x30,1555 # 22ee6613 <saplic_255+0x25e7613>
    800009f8:	00ef1f13          	slli	x30,x30,0xe
    800009fc:	030f0f13          	addi	x30,x30,48
    80000a00:	000f4283          	lbu	x5,0(x30)
    80000a04:	02028663          	beqz	x5,80000a30 <rvcp_print_test_result+0x80>
    80000a08:	1010031b          	addiw	x6,x0,257
    80000a0c:	03031313          	slli	x6,x6,0x30
    80000a10:	005362b3          	or	x5,x6,x5
    80000a14:	effff317          	auipc	x6,0xeffff
    80000a18:	5ec30313          	addi	x6,x6,1516 # 70000000 <tohost>
    80000a1c:	00033383          	ld	x7,0(x6)
    80000a20:	fe039ee3          	bnez	x7,80000a1c <rvcp_print_test_result+0x6c>
    80000a24:	00533023          	sd	x5,0(x6)
    80000a28:	001f0f13          	addi	x30,x30,1
    80000a2c:	fd5ff06f          	j	80000a00 <rvcp_print_test_result+0x50>
    80000a30:	22ee6f37          	lui	x30,0x22ee6
    80000a34:	613f0f1b          	addiw	x30,x30,1555 # 22ee6613 <saplic_255+0x25e7613>
    80000a38:	00ef1f13          	slli	x30,x30,0xe
    80000a3c:	041f0f13          	addi	x30,x30,65
    80000a40:	000f4283          	lbu	x5,0(x30)
    80000a44:	02028663          	beqz	x5,80000a70 <rvcp_print_test_result+0xc0>
    80000a48:	1010031b          	addiw	x6,x0,257
    80000a4c:	03031313          	slli	x6,x6,0x30
    80000a50:	005362b3          	or	x5,x6,x5
    80000a54:	effff317          	auipc	x6,0xeffff
    80000a58:	5ac30313          	addi	x6,x6,1452 # 70000000 <tohost>
    80000a5c:	00033383          	ld	x7,0(x6)
    80000a60:	fe039ee3          	bnez	x7,80000a5c <rvcp_print_test_result+0xac>
    80000a64:	00533023          	sd	x5,0(x6)
    80000a68:	001f0f13          	addi	x30,x30,1
    80000a6c:	fd5ff06f          	j	80000a40 <rvcp_print_test_result+0x90>
    80000a70:	22ee6f37          	lui	x30,0x22ee6
    80000a74:	613f0f1b          	addiw	x30,x30,1555 # 22ee6613 <saplic_255+0x25e7613>
    80000a78:	00ef1f13          	slli	x30,x30,0xe
    80000a7c:	059f0f13          	addi	x30,x30,89
    80000a80:	000f4283          	lbu	x5,0(x30)
    80000a84:	02028663          	beqz	x5,80000ab0 <rvcp_print_test_result+0x100>
    80000a88:	1010031b          	addiw	x6,x0,257
    80000a8c:	03031313          	slli	x6,x6,0x30
    80000a90:	005362b3          	or	x5,x6,x5
    80000a94:	effff317          	auipc	x6,0xeffff
    80000a98:	56c30313          	addi	x6,x6,1388 # 70000000 <tohost>
    80000a9c:	00033383          	ld	x7,0(x6)
    80000aa0:	fe039ee3          	bnez	x7,80000a9c <rvcp_print_test_result+0xec>
    80000aa4:	00533023          	sd	x5,0(x6)
    80000aa8:	001f0f13          	addi	x30,x30,1
    80000aac:	fd5ff06f          	j	80000a80 <rvcp_print_test_result+0xd0>
    80000ab0:	000e8f13          	mv	x30,x29
    80000ab4:	000f4283          	lbu	x5,0(x30)
    80000ab8:	02028663          	beqz	x5,80000ae4 <rvcp_print_test_result+0x134>
    80000abc:	1010031b          	addiw	x6,x0,257
    80000ac0:	03031313          	slli	x6,x6,0x30
    80000ac4:	005362b3          	or	x5,x6,x5
    80000ac8:	effff317          	auipc	x6,0xeffff
    80000acc:	53830313          	addi	x6,x6,1336 # 70000000 <tohost>
    80000ad0:	00033383          	ld	x7,0(x6)
    80000ad4:	fe039ee3          	bnez	x7,80000ad0 <rvcp_print_test_result+0x120>
    80000ad8:	00533023          	sd	x5,0(x6)
    80000adc:	001f0f13          	addi	x30,x30,1
    80000ae0:	fd5ff06f          	j	80000ab4 <rvcp_print_test_result+0x104>
    80000ae4:	22ee6f37          	lui	x30,0x22ee6
    80000ae8:	613f0f1b          	addiw	x30,x30,1555 # 22ee6613 <saplic_255+0x25e7613>
    80000aec:	00ef1f13          	slli	x30,x30,0xe
    80000af0:	059f0f13          	addi	x30,x30,89
    80000af4:	000f4283          	lbu	x5,0(x30)
    80000af8:	02028663          	beqz	x5,80000b24 <rvcp_print_test_result+0x174>
    80000afc:	1010031b          	addiw	x6,x0,257
    80000b00:	03031313          	slli	x6,x6,0x30
    80000b04:	005362b3          	or	x5,x6,x5
    80000b08:	effff317          	auipc	x6,0xeffff
    80000b0c:	4f830313          	addi	x6,x6,1272 # 70000000 <tohost>
    80000b10:	00033383          	ld	x7,0(x6)
    80000b14:	fe039ee3          	bnez	x7,80000b10 <rvcp_print_test_result+0x160>
    80000b18:	00533023          	sd	x5,0(x6)
    80000b1c:	001f0f13          	addi	x30,x30,1
    80000b20:	fd5ff06f          	j	80000af4 <rvcp_print_test_result+0x144>
    80000b24:	000e1c63          	bnez	x28,80000b3c <rvcp_print_test_result+0x18c>
    80000b28:	22ee6f37          	lui	x30,0x22ee6
    80000b2c:	613f0f1b          	addiw	x30,x30,1555 # 22ee6613 <saplic_255+0x25e7613>
    80000b30:	00ef1f13          	slli	x30,x30,0xe
    80000b34:	04bf0f13          	addi	x30,x30,75
    80000b38:	0140006f          	j	80000b4c <rvcp_print_test_result+0x19c>
    80000b3c:	22ee6f37          	lui	x30,0x22ee6
    80000b40:	613f0f1b          	addiw	x30,x30,1555 # 22ee6613 <saplic_255+0x25e7613>
    80000b44:	00ef1f13          	slli	x30,x30,0xe
    80000b48:	052f0f13          	addi	x30,x30,82
    80000b4c:	000f4283          	lbu	x5,0(x30)
    80000b50:	02028663          	beqz	x5,80000b7c <rvcp_print_test_result+0x1cc>
    80000b54:	1010031b          	addiw	x6,x0,257
    80000b58:	03031313          	slli	x6,x6,0x30
    80000b5c:	005362b3          	or	x5,x6,x5
    80000b60:	effff317          	auipc	x6,0xeffff
    80000b64:	4a030313          	addi	x6,x6,1184 # 70000000 <tohost>
    80000b68:	00033383          	ld	x7,0(x6)
    80000b6c:	fe039ee3          	bnez	x7,80000b68 <rvcp_print_test_result+0x1b8>
    80000b70:	00533023          	sd	x5,0(x6)
    80000b74:	001f0f13          	addi	x30,x30,1
    80000b78:	fd5ff06f          	j	80000b4c <rvcp_print_test_result+0x19c>
    80000b7c:	22ee6f37          	lui	x30,0x22ee6
    80000b80:	613f0f1b          	addiw	x30,x30,1555 # 22ee6613 <saplic_255+0x25e7613>
    80000b84:	00ef1f13          	slli	x30,x30,0xe
    80000b88:	05bf0f13          	addi	x30,x30,91
    80000b8c:	000f4283          	lbu	x5,0(x30)
    80000b90:	02028663          	beqz	x5,80000bbc <rvcp_print_test_result+0x20c>
    80000b94:	1010031b          	addiw	x6,x0,257
    80000b98:	03031313          	slli	x6,x6,0x30
    80000b9c:	005362b3          	or	x5,x6,x5
    80000ba0:	effff317          	auipc	x6,0xeffff
    80000ba4:	46030313          	addi	x6,x6,1120 # 70000000 <tohost>
    80000ba8:	00033383          	ld	x7,0(x6)
    80000bac:	fe039ee3          	bnez	x7,80000ba8 <rvcp_print_test_result+0x1f8>
    80000bb0:	00533023          	sd	x5,0(x6)
    80000bb4:	001f0f13          	addi	x30,x30,1
    80000bb8:	fd5ff06f          	j	80000b8c <rvcp_print_test_result+0x1dc>
    80000bbc:	00008067          	ret

0000000080000bc0 <os_rng_orig>:
    80000bc0:	f14023f3          	csrr	x7,mhartid
    80000bc4:	00068313          	mv	x6,x13
    80000bc8:	026383b3          	mul	x7,x7,x6
    80000bcc:	00058313          	mv	x6,x11
    80000bd0:	00730333          	add	x6,x6,x7
    80000bd4:	00033283          	ld	x5,0(x6)
    80000bd8:	01529313          	slli	x6,x5,0x15
    80000bdc:	0062c2b3          	xor	x5,x5,x6
    80000be0:	0232d313          	srli	x6,x5,0x23
    80000be4:	0062c2b3          	xor	x5,x5,x6
    80000be8:	00429313          	slli	x6,x5,0x4
    80000bec:	0062c2b3          	xor	x5,x5,x6
    80000bf0:	00058313          	mv	x6,x11
    80000bf4:	00730333          	add	x6,x6,x7
    80000bf8:	00533023          	sd	x5,0(x6)
    80000bfc:	00060313          	mv	x6,x12
    80000c00:	0262f2b3          	remu	x5,x5,x6
    80000c04:	00028513          	mv	x10,x5
    80000c08:	00008067          	ret
    80000c0c:	02a00513          	li	x10,42
    80000c10:	001965b7          	lui	x11,0x196
    80000c14:	60d5859b          	addiw	x11,x11,1549 # 19660d <SID_07_pm_disabled_s_hs_mode_stack+0x11960d>
    80000c18:	3c6ef637          	lui	x12,0x3c6ef
    80000c1c:	35f6061b          	addiw	x12,x12,863 # 3c6ef35f <saplic_255+0x1bdf035f>
    80000c20:	02200693          	li	x13,34
    80000c24:	02b50533          	mul	x10,x10,x11
    80000c28:	00c50533          	add	x10,x10,x12
    80000c2c:	02d56533          	rem	x10,x10,x13
    80000c30:	00b00593          	li	x11,11
    80000c34:	02b56533          	rem	x10,x10,x11
    80000c38:	00008067          	ret
    80000c3c:	0000                	.insn	2, 0x0000
	...

0000000080000c40 <tohost_mutex>:
	...

0000000080000c48 <tohost_addr_mem>:
    80000c48:	0000                	.insn	2, 0x0000
    80000c4a:	7000                	.insn	2, 0x7000
    80000c4c:	0000                	.insn	2, 0x0000
	...

0000000080000c50 <eot__end_test>:
    80000c50:	00100293          	li	x5,1
    80000c54:	00328463          	beq	x5,x3,80000c5c <eot__passed>
    80000c58:	01c0006f          	j	80000c74 <eot__failed>

0000000080000c5c <eot__passed>:
    80000c5c:	0ff0000f          	fence
    80000c60:	00000297          	auipc	x5,0x0
    80000c64:	fe82b283          	ld	x5,-24(x5) # 80000c48 <tohost_addr_mem>
    80000c68:	00100313          	li	x6,1
    80000c6c:	0062a023          	sw	x6,0(x5)
    80000c70:	0240006f          	j	80000c94 <eot__halt>

0000000080000c74 <eot__failed>:
    80000c74:	00100513          	li	x10,1
    80000c78:	d39ff0ef          	jal	800009b0 <rvcp_print_test_result>
    80000c7c:	0ff0000f          	fence
    80000c80:	00000297          	auipc	x5,0x0
    80000c84:	fc82b283          	ld	x5,-56(x5) # 80000c48 <tohost_addr_mem>
    80000c88:	00300313          	li	x6,3
    80000c8c:	0062a023          	sw	x6,0(x5)
    80000c90:	0040006f          	j	80000c94 <eot__halt>

0000000080000c94 <eot__halt>:
    80000c94:	10500073          	wfi
    80000c98:	ffdff06f          	j	80000c94 <eot__halt>

0000000080000c9c <scheduler__init>:
    80000c9c:	00000297          	auipc	x5,0x0
    80000ca0:	13428293          	addi	x5,x5,308 # 80000dd0 <scheduler__panic>
    80000ca4:	305292f3          	csrrw	x5,mtvec,x5
    80000ca8:	18523023          	sd	x5,384(x4) # 180 <FS_RANDOMIZATION+0x11c>
    80000cac:	02500293          	li	x5,37
    80000cb0:	1a523023          	sd	x5,416(x4) # 1a0 <FS_RANDOMIZATION+0x13c>
    80000cb4:	0010029b          	addiw	x5,x0,1
    80000cb8:	02029293          	slli	x5,x5,0x20
    80000cbc:	ffe28293          	addi	x5,x5,-2
    80000cc0:	18523c23          	sd	x5,408(x4) # 198 <FS_RANDOMIZATION+0x134>
    80000cc4:	00000317          	auipc	x6,0x0
    80000cc8:	4b830313          	addi	x6,x6,1208 # 8000117c <scheduler__test_setup_ptr>
    80000ccc:	00033303          	ld	x6,0(x6)
    80000cd0:	0d80006f          	j	80000da8 <scheduler__execute_test>

0000000080000cd4 <scheduler__dispatch>:
    80000cd4:	00000297          	auipc	x5,0x0
    80000cd8:	0fc28293          	addi	x5,x5,252 # 80000dd0 <scheduler__panic>
    80000cdc:	305292f3          	csrrw	x5,mtvec,x5
    80000ce0:	18523023          	sd	x5,384(x4) # 180 <FS_RANDOMIZATION+0x11c>

0000000080000ce4 <scheduler__csr_read_randomization>:
    80000ce4:	00000e17          	auipc	x28,0x0
    80000ce8:	228e0e13          	addi	x28,x28,552 # 80000f0c <fs_rr_table>
    80000cec:	18823e83          	ld	x29,392(x4) # 188 <FS_RANDOMIZATION+0x124>
    80000cf0:	002e9f13          	slli	x30,x29,0x2
    80000cf4:	01ee0f33          	add	x30,x28,x30
    80000cf8:	000f2f03          	lw	x30,0(x30)
    80000cfc:	00df1f13          	slli	x30,x30,0xd
    80000d00:	00006e37          	lui	x28,0x6
    80000d04:	100e3073          	csrc	sstatus,x28
    80000d08:	100f2073          	csrs	sstatus,x30
    80000d0c:	001e8e93          	addi	x29,x29,1
    80000d10:	00300e13          	li	x28,3
    80000d14:	01cec463          	blt	x29,x28,80000d1c <scheduler__csr_read_randomization+0x38>
    80000d18:	00000e93          	li	x29,0
    80000d1c:	19d23423          	sd	x29,392(x4) # 188 <FS_RANDOMIZATION+0x124>
    80000d20:	00000e17          	auipc	x28,0x0
    80000d24:	1f8e0e13          	addi	x28,x28,504 # 80000f18 <vs_rr_table>
    80000d28:	19023e83          	ld	x29,400(x4) # 190 <FS_RANDOMIZATION+0x12c>
    80000d2c:	002e9f13          	slli	x30,x29,0x2
    80000d30:	01ee0f33          	add	x30,x28,x30
    80000d34:	000f2f03          	lw	x30,0(x30)
    80000d38:	009f1f13          	slli	x30,x30,0x9
    80000d3c:	60000e13          	li	x28,1536
    80000d40:	100e3073          	csrc	sstatus,x28
    80000d44:	100f2073          	csrs	sstatus,x30
    80000d48:	001e8e93          	addi	x29,x29,1
    80000d4c:	00300e13          	li	x28,3
    80000d50:	01cec463          	blt	x29,x28,80000d58 <scheduler__csr_read_randomization+0x74>
    80000d54:	00000e93          	li	x29,0
    80000d58:	19d23823          	sd	x29,400(x4) # 190 <FS_RANDOMIZATION+0x12c>
    80000d5c:	b02022f3          	csrr	x5,minstret
    80000d60:	105022f3          	csrr	x5,stvec
    80000d64:	f11022f3          	csrr	x5,mvendorid
    80000d68:	342022f3          	csrr	x5,mcause

0000000080000d6c <scheduler__load_num_runs>:
    80000d6c:	1a023303          	ld	x6,416(x4) # 1a0 <FS_RANDOMIZATION+0x13c>
    80000d70:	04030c63          	beqz	x6,80000dc8 <scheduler__finished>

0000000080000d74 <scheduler__decrement_num_runs>:
    80000d74:	fff30393          	addi	x7,x6,-1
    80000d78:	1a723023          	sd	x7,416(x4) # 1a0 <FS_RANDOMIZATION+0x13c>
    80000d7c:	00000e17          	auipc	x28,0x0
    80000d80:	36ce0e13          	addi	x28,x28,876 # 800010e8 <dtest_index_map>
    80000d84:	00239e93          	slli	x29,x7,0x2
    80000d88:	01de0e33          	add	x28,x28,x29
    80000d8c:	000e2e03          	lw	x28,0(x28)
    80000d90:	19c23c23          	sd	x28,408(x4) # 198 <FS_RANDOMIZATION+0x134>

0000000080000d94 <scheduler__calc_test_pointer>:
    80000d94:	00339293          	slli	x5,x7,0x3

0000000080000d98 <scheduler__load_test_addr>:
    80000d98:	00000317          	auipc	x6,0x0
    80000d9c:	04c30313          	addi	x6,x6,76 # 80000de4 <os_test_sequence>
    80000da0:	006282b3          	add	x5,x5,x6
    80000da4:	0002b303          	ld	x6,0(x5)

0000000080000da8 <scheduler__execute_test>:
    80000da8:	18023283          	ld	x5,384(x4) # 180 <FS_RANDOMIZATION+0x11c>
    80000dac:	30529073          	csrw	mtvec,x5
    80000db0:	34021273          	csrrw	x4,mscratch,x4
    80000db4:	00000213          	li	x4,0
    80000db8:	14131073          	csrw	sepc,x6
    80000dbc:	10000293          	li	x5,256
    80000dc0:	1002a073          	csrs	sstatus,x5
    80000dc4:	10200073          	sret

0000000080000dc8 <scheduler__finished>:
    80000dc8:	00100193          	li	x3,1
    80000dcc:	e85ff06f          	j	80000c50 <eot__end_test>

0000000080000dd0 <scheduler__panic>:
    80000dd0:	00000193          	li	x3,0
    80000dd4:	e7dff06f          	j	80000c50 <eot__end_test>
    80000dd8:	0000                	.insn	2, 0x0000
	...

0000000080000ddc <num_runs>:
    80000ddc:	0025                	.insn	2, 0x0025
    80000dde:	0000                	.insn	2, 0x0000
    80000de0:	0000                	.insn	2, 0x0000
	...

0000000080000de4 <os_test_sequence>:
    80000de4:	4f7c                	.insn	2, 0x4f7c
    80000de6:	8001                	.insn	2, 0x8001
    80000de8:	0000                	.insn	2, 0x0000
    80000dea:	0000                	.insn	2, 0x0000
    80000dec:	4e5c                	.insn	2, 0x4e5c
    80000dee:	8001                	.insn	2, 0x8001
    80000df0:	0000                	.insn	2, 0x0000
    80000df2:	0000                	.insn	2, 0x0000
    80000df4:	4a40                	.insn	2, 0x4a40
    80000df6:	8001                	.insn	2, 0x8001
    80000df8:	0000                	.insn	2, 0x0000
    80000dfa:	0000                	.insn	2, 0x0000
    80000dfc:	40e0                	.insn	2, 0x40e0
    80000dfe:	8001                	.insn	2, 0x8001
    80000e00:	0000                	.insn	2, 0x0000
    80000e02:	0000                	.insn	2, 0x0000
    80000e04:	4d1c                	.insn	2, 0x4d1c
    80000e06:	8001                	.insn	2, 0x8001
    80000e08:	0000                	.insn	2, 0x0000
    80000e0a:	0000                	.insn	2, 0x0000
    80000e0c:	4944                	.insn	2, 0x4944
    80000e0e:	8001                	.insn	2, 0x8001
    80000e10:	0000                	.insn	2, 0x0000
    80000e12:	0000                	.insn	2, 0x0000
    80000e14:	4c24                	.insn	2, 0x4c24
    80000e16:	8001                	.insn	2, 0x8001
    80000e18:	0000                	.insn	2, 0x0000
    80000e1a:	0000                	.insn	2, 0x0000
    80000e1c:	4a40                	.insn	2, 0x4a40
    80000e1e:	8001                	.insn	2, 0x8001
    80000e20:	0000                	.insn	2, 0x0000
    80000e22:	0000                	.insn	2, 0x0000
    80000e24:	4864                	.insn	2, 0x4864
    80000e26:	8001                	.insn	2, 0x8001
    80000e28:	0000                	.insn	2, 0x0000
    80000e2a:	0000                	.insn	2, 0x0000
    80000e2c:	4e5c                	.insn	2, 0x4e5c
    80000e2e:	8001                	.insn	2, 0x8001
    80000e30:	0000                	.insn	2, 0x0000
    80000e32:	0000                	.insn	2, 0x0000
    80000e34:	44f0                	.insn	2, 0x44f0
    80000e36:	8001                	.insn	2, 0x8001
    80000e38:	0000                	.insn	2, 0x0000
    80000e3a:	0000                	.insn	2, 0x0000
    80000e3c:	44f0                	.insn	2, 0x44f0
    80000e3e:	8001                	.insn	2, 0x8001
    80000e40:	0000                	.insn	2, 0x0000
    80000e42:	0000                	.insn	2, 0x0000
    80000e44:	4944                	.insn	2, 0x4944
    80000e46:	8001                	.insn	2, 0x8001
    80000e48:	0000                	.insn	2, 0x0000
    80000e4a:	0000                	.insn	2, 0x0000
    80000e4c:	41cc                	.insn	2, 0x41cc
    80000e4e:	8001                	.insn	2, 0x8001
    80000e50:	0000                	.insn	2, 0x0000
    80000e52:	0000                	.insn	2, 0x0000
    80000e54:	40e0                	.insn	2, 0x40e0
    80000e56:	8001                	.insn	2, 0x8001
    80000e58:	0000                	.insn	2, 0x0000
    80000e5a:	0000                	.insn	2, 0x0000
    80000e5c:	44f0                	.insn	2, 0x44f0
    80000e5e:	8001                	.insn	2, 0x8001
    80000e60:	0000                	.insn	2, 0x0000
    80000e62:	0000                	.insn	2, 0x0000
    80000e64:	4d1c                	.insn	2, 0x4d1c
    80000e66:	8001                	.insn	2, 0x8001
    80000e68:	0000                	.insn	2, 0x0000
    80000e6a:	0000                	.insn	2, 0x0000
    80000e6c:	4e5c                	.insn	2, 0x4e5c
    80000e6e:	8001                	.insn	2, 0x8001
    80000e70:	0000                	.insn	2, 0x0000
    80000e72:	0000                	.insn	2, 0x0000
    80000e74:	4c24                	.insn	2, 0x4c24
    80000e76:	8001                	.insn	2, 0x8001
    80000e78:	0000                	.insn	2, 0x0000
    80000e7a:	0000                	.insn	2, 0x0000
    80000e7c:	4a40                	.insn	2, 0x4a40
    80000e7e:	8001                	.insn	2, 0x8001
    80000e80:	0000                	.insn	2, 0x0000
    80000e82:	0000                	.insn	2, 0x0000
    80000e84:	464c                	.insn	2, 0x464c
    80000e86:	8001                	.insn	2, 0x8001
    80000e88:	0000                	.insn	2, 0x0000
    80000e8a:	0000                	.insn	2, 0x0000
    80000e8c:	4b0c                	.insn	2, 0x4b0c
    80000e8e:	8001                	.insn	2, 0x8001
    80000e90:	0000                	.insn	2, 0x0000
    80000e92:	0000                	.insn	2, 0x0000
    80000e94:	40e0                	.insn	2, 0x40e0
    80000e96:	8001                	.insn	2, 0x8001
    80000e98:	0000                	.insn	2, 0x0000
    80000e9a:	0000                	.insn	2, 0x0000
    80000e9c:	4c24                	.insn	2, 0x4c24
    80000e9e:	8001                	.insn	2, 0x8001
    80000ea0:	0000                	.insn	2, 0x0000
    80000ea2:	0000                	.insn	2, 0x0000
    80000ea4:	41cc                	.insn	2, 0x41cc
    80000ea6:	8001                	.insn	2, 0x8001
    80000ea8:	0000                	.insn	2, 0x0000
    80000eaa:	0000                	.insn	2, 0x0000
    80000eac:	4350                	.insn	2, 0x4350
    80000eae:	8001                	.insn	2, 0x8001
    80000eb0:	0000                	.insn	2, 0x0000
    80000eb2:	0000                	.insn	2, 0x0000
    80000eb4:	4b0c                	.insn	2, 0x4b0c
    80000eb6:	8001                	.insn	2, 0x8001
    80000eb8:	0000                	.insn	2, 0x0000
    80000eba:	0000                	.insn	2, 0x0000
    80000ebc:	464c                	.insn	2, 0x464c
    80000ebe:	8001                	.insn	2, 0x8001
    80000ec0:	0000                	.insn	2, 0x0000
    80000ec2:	0000                	.insn	2, 0x0000
    80000ec4:	4944                	.insn	2, 0x4944
    80000ec6:	8001                	.insn	2, 0x8001
    80000ec8:	0000                	.insn	2, 0x0000
    80000eca:	0000                	.insn	2, 0x0000
    80000ecc:	4864                	.insn	2, 0x4864
    80000ece:	8001                	.insn	2, 0x8001
    80000ed0:	0000                	.insn	2, 0x0000
    80000ed2:	0000                	.insn	2, 0x0000
    80000ed4:	464c                	.insn	2, 0x464c
    80000ed6:	8001                	.insn	2, 0x8001
    80000ed8:	0000                	.insn	2, 0x0000
    80000eda:	0000                	.insn	2, 0x0000
    80000edc:	4b0c                	.insn	2, 0x4b0c
    80000ede:	8001                	.insn	2, 0x8001
    80000ee0:	0000                	.insn	2, 0x0000
    80000ee2:	0000                	.insn	2, 0x0000
    80000ee4:	4d1c                	.insn	2, 0x4d1c
    80000ee6:	8001                	.insn	2, 0x8001
    80000ee8:	0000                	.insn	2, 0x0000
    80000eea:	0000                	.insn	2, 0x0000
    80000eec:	4350                	.insn	2, 0x4350
    80000eee:	8001                	.insn	2, 0x8001
    80000ef0:	0000                	.insn	2, 0x0000
    80000ef2:	0000                	.insn	2, 0x0000
    80000ef4:	4864                	.insn	2, 0x4864
    80000ef6:	8001                	.insn	2, 0x8001
    80000ef8:	0000                	.insn	2, 0x0000
    80000efa:	0000                	.insn	2, 0x0000
    80000efc:	41cc                	.insn	2, 0x41cc
    80000efe:	8001                	.insn	2, 0x8001
    80000f00:	0000                	.insn	2, 0x0000
    80000f02:	0000                	.insn	2, 0x0000
    80000f04:	4350                	.insn	2, 0x4350
    80000f06:	8001                	.insn	2, 0x8001
    80000f08:	0000                	.insn	2, 0x0000
	...

0000000080000f0c <fs_rr_table>:
    80000f0c:	0001                	.insn	2, 0x0001
    80000f0e:	0000                	.insn	2, 0x0000
    80000f10:	0002                	.insn	2, 0x0002
    80000f12:	0000                	.insn	2, 0x0000
    80000f14:	00000003          	lb	x0,0(x0) # 0 <ALL_4KB_PAGES>

0000000080000f18 <vs_rr_table>:
    80000f18:	0001                	.insn	2, 0x0001
    80000f1a:	0000                	.insn	2, 0x0000
    80000f1c:	0002                	.insn	2, 0x0002
    80000f1e:	0000                	.insn	2, 0x0000
    80000f20:	00000003          	lb	x0,0(x0) # 0 <ALL_4KB_PAGES>

0000000080000f24 <dtest_descriptor_table>:
    80000f24:	0f84                	.insn	2, 0x0f84
    80000f26:	8000                	.insn	2, 0x8000
    80000f28:	0000                	.insn	2, 0x0000
    80000f2a:	0000                	.insn	2, 0x0000
    80000f2c:	0f9c                	.insn	2, 0x0f9c
    80000f2e:	8000                	.insn	2, 0x8000
    80000f30:	0000                	.insn	2, 0x0000
    80000f32:	0000                	.insn	2, 0x0000
    80000f34:	0fbc                	.insn	2, 0x0fbc
    80000f36:	8000                	.insn	2, 0x8000
    80000f38:	0000                	.insn	2, 0x0000
    80000f3a:	0000                	.insn	2, 0x0000
    80000f3c:	0fd9                	.insn	2, 0x0fd9
    80000f3e:	8000                	.insn	2, 0x8000
    80000f40:	0000                	.insn	2, 0x0000
    80000f42:	0000                	.insn	2, 0x0000
    80000f44:	0ff5                	.insn	2, 0x0ff5
    80000f46:	8000                	.insn	2, 0x8000
    80000f48:	0000                	.insn	2, 0x0000
    80000f4a:	0000                	.insn	2, 0x0000
    80000f4c:	1010                	.insn	2, 0x1010
    80000f4e:	8000                	.insn	2, 0x8000
    80000f50:	0000                	.insn	2, 0x0000
    80000f52:	0000                	.insn	2, 0x0000
    80000f54:	1034                	.insn	2, 0x1034
    80000f56:	8000                	.insn	2, 0x8000
    80000f58:	0000                	.insn	2, 0x0000
    80000f5a:	0000                	.insn	2, 0x0000
    80000f5c:	104e                	.insn	2, 0x104e
    80000f5e:	8000                	.insn	2, 0x8000
    80000f60:	0000                	.insn	2, 0x0000
    80000f62:	0000                	.insn	2, 0x0000
    80000f64:	106a                	.insn	2, 0x106a
    80000f66:	8000                	.insn	2, 0x8000
    80000f68:	0000                	.insn	2, 0x0000
    80000f6a:	0000                	.insn	2, 0x0000
    80000f6c:	1090                	.insn	2, 0x1090
    80000f6e:	8000                	.insn	2, 0x8000
    80000f70:	0000                	.insn	2, 0x0000
    80000f72:	0000                	.insn	2, 0x0000
    80000f74:	10aa                	.insn	2, 0x10aa
    80000f76:	8000                	.insn	2, 0x8000
    80000f78:	0000                	.insn	2, 0x0000
    80000f7a:	0000                	.insn	2, 0x0000
    80000f7c:	800010c7          	fmsub.s	f1,f0,f0,f16,rtz
    80000f80:	0000                	.insn	2, 0x0000
	...

0000000080000f84 <dtest_name_0>:
    80000f84:	5f444953          	.insn	4, 0x5f444953
    80000f88:	3130                	.insn	2, 0x3130
    80000f8a:	735f 6e65 6376      	.insn	6, 0x63766e65735f
    80000f90:	6766                	.insn	2, 0x6766
    80000f92:	705f 6d6d 775f      	.insn	6, 0x775f6d6d705f
    80000f98:	7261                	.insn	2, 0x7261
    80000f9a:	006c                	.insn	2, 0x006c

0000000080000f9c <dtest_name_1>:
    80000f9c:	5f444953          	.insn	4, 0x5f444953
    80000fa0:	3230                	.insn	2, 0x3230
    80000fa2:	685f 6e65 6376      	.insn	6, 0x63766e65685f
    80000fa8:	6766                	.insn	2, 0x6766
    80000faa:	685f 7473 7461      	.insn	6, 0x74617473685f
    80000fb0:	7375                	.insn	2, 0x7375
    80000fb2:	705f 6d6d 775f      	.insn	6, 0x775f6d6d705f
    80000fb8:	7261                	.insn	2, 0x7261
    80000fba:	006c                	.insn	2, 0x006c

0000000080000fbc <dtest_name_2>:
    80000fbc:	5f444953          	.insn	4, 0x5f444953
    80000fc0:	3730                	.insn	2, 0x3730
    80000fc2:	705f 5f6d 6964      	.insn	6, 0x69645f6d705f
    80000fc8:	6c626173          	csrrsi	x2,0x6c6,4
    80000fcc:	6465                	.insn	2, 0x6465
    80000fce:	735f 685f 5f73      	.insn	6, 0x5f73685f735f
    80000fd4:	6f6d                	.insn	2, 0x6f6d
    80000fd6:	6564                	.insn	2, 0x6564
	...

0000000080000fd9 <dtest_name_3>:
    80000fd9:	5f444953          	.insn	4, 0x5f444953
    80000fdd:	3131                	.insn	2, 0x3131
    80000fdf:	705f 5f6d 6e65      	.insn	6, 0x6e655f6d705f
    80000fe5:	6261                	.insn	2, 0x6261
    80000fe7:	656c                	.insn	2, 0x656c
    80000fe9:	5f64                	.insn	2, 0x5f64
    80000feb:	73685f73          	csrrwi	x30,mhpmevent22h,16
    80000fef:	6d5f 646f 0065      	.insn	6, 0x0065646f6d5f

0000000080000ff5 <dtest_name_4>:
    80000ff5:	5f444953          	.insn	4, 0x5f444953
    80000ff9:	3232                	.insn	2, 0x3232
    80000ffb:	705f 5f6d 6964      	.insn	6, 0x69645f6d705f
    80001001:	6c626173          	csrrsi	x2,0x6c6,4
    80001005:	6465                	.insn	2, 0x6465
    80001007:	6d5f 7278 735f      	.insn	6, 0x735f72786d5f
    8000100d:	7465                	.insn	2, 0x7465
	...

0000000080001010 <dtest_name_5>:
    80001010:	5f444953          	.insn	4, 0x5f444953
    80001014:	3332                	.insn	2, 0x3332
    80001016:	705f 5f6d 6e69      	.insn	6, 0x6e695f6d705f
    8000101c:	6176                	.insn	2, 0x6176
    8000101e:	696c                	.insn	2, 0x696c
    80001020:	6164                	.insn	2, 0x6164
    80001022:	6974                	.insn	2, 0x6974
    80001024:	695f6e6f          	jal	x28,800f7eb8 <code_super_99+0xeb8>
    80001028:	736e                	.insn	2, 0x736e
    8000102a:	7274                	.insn	2, 0x7274
    8000102c:	6375                	.insn	2, 0x6375
    8000102e:	6974                	.insn	2, 0x6974
    80001030:	00736e6f          	jal	x28,80037836 <__section__code_35+0x836>

0000000080001034 <dtest_name_6>:
    80001034:	5f444953          	.insn	4, 0x5f444953
    80001038:	3432                	.insn	2, 0x3432
    8000103a:	705f 5f6d 6e69      	.insn	6, 0x6e695f6d705f
    80001040:	75727473          	csrrci	x8,0x757,4
    80001044:	6f697463          	bgeu	x18,x22,8000172c <scheduler__test_cleanup_ptr+0x5a8>
    80001048:	5f6e                	.insn	2, 0x5f6e
    8000104a:	00746573          	csrrsi	x10,0x7,8

000000008000104e <dtest_name_7>:
    8000104e:	5f444953          	.insn	4, 0x5f444953
    80001052:	3532                	.insn	2, 0x3532
    80001054:	705f 5f6d 696d      	.insn	6, 0x696d5f6d705f
    8000105a:	696c6173          	csrrsi	x2,0x696,24
    8000105e:	64656e67          	.insn	4, 0x64656e67
    80001062:	615f 6363 7365      	.insn	6, 0x73656363615f
    80001068:	          	.insn	4, 0x49530073

000000008000106a <dtest_name_8>:
    8000106a:	5f444953          	.insn	4, 0x5f444953
    8000106e:	3632                	.insn	2, 0x3632
    80001070:	705f 5f6d 6964      	.insn	6, 0x69645f6d705f
    80001076:	6666                	.insn	2, 0x6666
    80001078:	7265                	.insn	2, 0x7265
    8000107a:	6e65                	.insn	2, 0x6e65
    8000107c:	5f74                	.insn	2, 0x5f74
    8000107e:	6174                	.insn	2, 0x6174
    80001080:	735f7367          	.insn	4, 0x735f7367
    80001084:	6d61                	.insn	2, 0x6d61
    80001086:	5f65                	.insn	2, 0x5f65
    80001088:	6461                	.insn	2, 0x6461
    8000108a:	7264                	.insn	2, 0x7264
    8000108c:	7365                	.insn	2, 0x7365
    8000108e:	          	.insn	4, 0x49530073

0000000080001090 <dtest_name_9>:
    80001090:	5f444953          	.insn	4, 0x5f444953
    80001094:	3732                	.insn	2, 0x3732
    80001096:	705f 5f6d 6d69      	.insn	6, 0x6d695f6d705f
    8000109c:	6c70                	.insn	2, 0x6c70
    8000109e:	6369                	.insn	2, 0x6369
    800010a0:	7469                	.insn	2, 0x7469
    800010a2:	615f 6363 7365      	.insn	6, 0x73656363615f
    800010a8:	          	.insn	4, 0x49530073

00000000800010aa <dtest_name_10>:
    800010aa:	5f444953          	.insn	4, 0x5f444953
    800010ae:	3832                	.insn	2, 0x3832
    800010b0:	705f 5f6d 6166      	.insn	6, 0x61665f6d705f
    800010b6:	6c75                	.insn	2, 0x6c75
    800010b8:	7374                	.insn	2, 0x7374
    800010ba:	745f 6172 5f70      	.insn	6, 0x5f706172745f
    800010c0:	6176                	.insn	2, 0x6176
    800010c2:	756c                	.insn	2, 0x756c
    800010c4:	7365                	.insn	2, 0x7365
	...

00000000800010c7 <dtest_name_11>:
    800010c7:	5f444953          	.insn	4, 0x5f444953
    800010cb:	3932                	.insn	2, 0x3932
    800010cd:	705f 5f6d 7478      	.insn	6, 0x74785f6d705f
    800010d3:	6576                	.insn	2, 0x6576
    800010d5:	61745f63          	bge	x8,x23,800016f3 <scheduler__test_cleanup_ptr+0x56f>
    800010d9:	64656767          	.insn	4, 0x64656767
    800010dd:	615f 6464 6572      	.insn	6, 0x65726464615f
    800010e3:	00007373          	csrrci	x6,ustatus,0
	...

00000000800010e8 <dtest_index_map>:
    800010e8:	ffff                	.insn	2, 0xffff
    800010ea:	ffff                	.insn	2, 0xffff
    800010ec:	0000000b          	.insn	4, 0x000b
    800010f0:	00000007          	vle8.v	v0,(x0),v0.t
    800010f4:	0000                	.insn	2, 0x0000
    800010f6:	0000                	.insn	2, 0x0000
    800010f8:	000a                	.insn	2, 0x000a
    800010fa:	0000                	.insn	2, 0x0000
    800010fc:	0006                	.insn	2, 0x0006
    800010fe:	0000                	.insn	2, 0x0000
    80001100:	0009                	.insn	2, 0x0009
    80001102:	0000                	.insn	2, 0x0000
    80001104:	00000007          	vle8.v	v0,(x0),v0.t
    80001108:	0005                	.insn	2, 0x0005
    8000110a:	0000                	.insn	2, 0x0000
    8000110c:	0000000b          	.insn	4, 0x000b
    80001110:	00000003          	lb	x0,0(x0) # 0 <ALL_4KB_PAGES>
    80001114:	00000003          	lb	x0,0(x0) # 0 <ALL_4KB_PAGES>
    80001118:	0006                	.insn	2, 0x0006
    8000111a:	0000                	.insn	2, 0x0000
    8000111c:	0001                	.insn	2, 0x0001
    8000111e:	0000                	.insn	2, 0x0000
    80001120:	0000                	.insn	2, 0x0000
    80001122:	0000                	.insn	2, 0x0000
    80001124:	00000003          	lb	x0,0(x0) # 0 <ALL_4KB_PAGES>
    80001128:	000a                	.insn	2, 0x000a
    8000112a:	0000                	.insn	2, 0x0000
    8000112c:	0000000b          	.insn	4, 0x000b
    80001130:	0009                	.insn	2, 0x0009
    80001132:	0000                	.insn	2, 0x0000
    80001134:	00000007          	vle8.v	v0,(x0),v0.t
    80001138:	0004                	.insn	2, 0x0004
    8000113a:	0000                	.insn	2, 0x0000
    8000113c:	0008                	.insn	2, 0x0008
    8000113e:	0000                	.insn	2, 0x0000
    80001140:	0000                	.insn	2, 0x0000
    80001142:	0000                	.insn	2, 0x0000
    80001144:	0009                	.insn	2, 0x0009
    80001146:	0000                	.insn	2, 0x0000
    80001148:	0001                	.insn	2, 0x0001
    8000114a:	0000                	.insn	2, 0x0000
    8000114c:	0002                	.insn	2, 0x0002
    8000114e:	0000                	.insn	2, 0x0000
    80001150:	0008                	.insn	2, 0x0008
    80001152:	0000                	.insn	2, 0x0000
    80001154:	0004                	.insn	2, 0x0004
    80001156:	0000                	.insn	2, 0x0000
    80001158:	0006                	.insn	2, 0x0006
    8000115a:	0000                	.insn	2, 0x0000
    8000115c:	0005                	.insn	2, 0x0005
    8000115e:	0000                	.insn	2, 0x0000
    80001160:	0004                	.insn	2, 0x0004
    80001162:	0000                	.insn	2, 0x0000
    80001164:	0008                	.insn	2, 0x0008
    80001166:	0000                	.insn	2, 0x0000
    80001168:	000a                	.insn	2, 0x000a
    8000116a:	0000                	.insn	2, 0x0000
    8000116c:	0002                	.insn	2, 0x0002
    8000116e:	0000                	.insn	2, 0x0000
    80001170:	0005                	.insn	2, 0x0005
    80001172:	0000                	.insn	2, 0x0000
    80001174:	0001                	.insn	2, 0x0001
    80001176:	0000                	.insn	2, 0x0000
    80001178:	0002                	.insn	2, 0x0002
	...

000000008000117c <scheduler__test_setup_ptr>:
    8000117c:	40d0                	.insn	2, 0x40d0
    8000117e:	8001                	.insn	2, 0x8001
    80001180:	0000                	.insn	2, 0x0000
	...

0000000080001184 <scheduler__test_cleanup_ptr>:
    80001184:	4f7c                	.insn	2, 0x4f7c
    80001186:	8001                	.insn	2, 0x8001
    80001188:	0000                	.insn	2, 0x0000
	...

Disassembly of section .runtime_s:

0000000080010000 <trap_handler_s__invalid_interrupt>:
    80010000:	1740006f          	j	80010174 <trap_handler_s__test_failed>

0000000080010004 <trap_handler_s__clear_all_interrupts>:
    80010004:	14401073          	csrw	sip,x0
    80010008:	10200073          	sret

000000008001000c <trap_handler_s___CLEAR_SSI>:
    8001000c:	00200293          	li	x5,2
    80010010:	1442b073          	csrc	sip,x5
    80010014:	10200073          	sret

0000000080010018 <trap_handler_s___CLEAR_MSI>:
    80010018:	00800293          	li	x5,8
    8001001c:	1442b073          	csrc	sip,x5
    80010020:	10200073          	sret

0000000080010024 <trap_handler_s___CLEAR_STI>:
    80010024:	02000293          	li	x5,32
    80010028:	1442b073          	csrc	sip,x5
    8001002c:	10200073          	sret

0000000080010030 <trap_handler_s___CLEAR_MTI>:
    80010030:	08000293          	li	x5,128
    80010034:	1442b073          	csrc	sip,x5
    80010038:	10200073          	sret

000000008001003c <trap_handler_s___CLEAR_SEI>:
    8001003c:	20000293          	li	x5,512
    80010040:	1442b073          	csrc	sip,x5
    80010044:	10200073          	sret

0000000080010048 <trap_handler_s___CLEAR_MEI>:
    80010048:	000012b7          	lui	x5,0x1
    8001004c:	8002829b          	addiw	x5,x5,-2048 # 800 <FS_RANDOMIZATION+0x79c>
    80010050:	1442b073          	csrc	sip,x5
    80010054:	10200073          	sret

0000000080010058 <trap_handler_s___CLEAR_COI>:
    80010058:	000022b7          	lui	x5,0x2
    8001005c:	1442b073          	csrc	sip,x5
    80010060:	10200073          	sret

0000000080010064 <trap_handler_s__clear_highest_priority_interrupt>:
    80010064:	144022f3          	csrr	x5,sip
    80010068:	40500333          	neg	x6,x5
    8001006c:	0062f2b3          	and	x5,x5,x6
    80010070:	1442b073          	csrc	sip,x5
    80010074:	10200073          	sret

0000000080010078 <trap_handler_s__trap_entry>:
    80010078:	10c0006f          	j	80010184 <trap_handler_s__trap_handler>

000000008001007c <trap_handler_s__interrupt_vector_table>:
    8001007c:	f91ff06f          	j	8001000c <trap_handler_s___CLEAR_SSI>
    80010080:	f81ff06f          	j	80010000 <trap_handler_s__invalid_interrupt>
    80010084:	f95ff06f          	j	80010018 <trap_handler_s___CLEAR_MSI>
    80010088:	f79ff06f          	j	80010000 <trap_handler_s__invalid_interrupt>
    8001008c:	f99ff06f          	j	80010024 <trap_handler_s___CLEAR_STI>
    80010090:	f71ff06f          	j	80010000 <trap_handler_s__invalid_interrupt>
    80010094:	f9dff06f          	j	80010030 <trap_handler_s___CLEAR_MTI>
    80010098:	f69ff06f          	j	80010000 <trap_handler_s__invalid_interrupt>
    8001009c:	fa1ff06f          	j	8001003c <trap_handler_s___CLEAR_SEI>
    800100a0:	f61ff06f          	j	80010000 <trap_handler_s__invalid_interrupt>
    800100a4:	fa5ff06f          	j	80010048 <trap_handler_s___CLEAR_MEI>
    800100a8:	f59ff06f          	j	80010000 <trap_handler_s__invalid_interrupt>
    800100ac:	fadff06f          	j	80010058 <trap_handler_s___CLEAR_COI>
    800100b0:	f51ff06f          	j	80010000 <trap_handler_s__invalid_interrupt>
    800100b4:	f4dff06f          	j	80010000 <trap_handler_s__invalid_interrupt>
    800100b8:	fadff06f          	j	80010064 <trap_handler_s__clear_highest_priority_interrupt>
    800100bc:	fa9ff06f          	j	80010064 <trap_handler_s__clear_highest_priority_interrupt>
    800100c0:	fa5ff06f          	j	80010064 <trap_handler_s__clear_highest_priority_interrupt>
    800100c4:	fa1ff06f          	j	80010064 <trap_handler_s__clear_highest_priority_interrupt>
    800100c8:	f9dff06f          	j	80010064 <trap_handler_s__clear_highest_priority_interrupt>
    800100cc:	f99ff06f          	j	80010064 <trap_handler_s__clear_highest_priority_interrupt>
    800100d0:	f95ff06f          	j	80010064 <trap_handler_s__clear_highest_priority_interrupt>
    800100d4:	f91ff06f          	j	80010064 <trap_handler_s__clear_highest_priority_interrupt>
    800100d8:	f8dff06f          	j	80010064 <trap_handler_s__clear_highest_priority_interrupt>
    800100dc:	f89ff06f          	j	80010064 <trap_handler_s__clear_highest_priority_interrupt>
    800100e0:	f85ff06f          	j	80010064 <trap_handler_s__clear_highest_priority_interrupt>
    800100e4:	f81ff06f          	j	80010064 <trap_handler_s__clear_highest_priority_interrupt>
    800100e8:	f7dff06f          	j	80010064 <trap_handler_s__clear_highest_priority_interrupt>
    800100ec:	f79ff06f          	j	80010064 <trap_handler_s__clear_highest_priority_interrupt>
    800100f0:	f75ff06f          	j	80010064 <trap_handler_s__clear_highest_priority_interrupt>
    800100f4:	f71ff06f          	j	80010064 <trap_handler_s__clear_highest_priority_interrupt>
    800100f8:	f6dff06f          	j	80010064 <trap_handler_s__clear_highest_priority_interrupt>
    800100fc:	f69ff06f          	j	80010064 <trap_handler_s__clear_highest_priority_interrupt>
    80010100:	f65ff06f          	j	80010064 <trap_handler_s__clear_highest_priority_interrupt>
    80010104:	f61ff06f          	j	80010064 <trap_handler_s__clear_highest_priority_interrupt>
    80010108:	f5dff06f          	j	80010064 <trap_handler_s__clear_highest_priority_interrupt>
    8001010c:	f59ff06f          	j	80010064 <trap_handler_s__clear_highest_priority_interrupt>
    80010110:	f55ff06f          	j	80010064 <trap_handler_s__clear_highest_priority_interrupt>
    80010114:	f51ff06f          	j	80010064 <trap_handler_s__clear_highest_priority_interrupt>
    80010118:	f4dff06f          	j	80010064 <trap_handler_s__clear_highest_priority_interrupt>
    8001011c:	f49ff06f          	j	80010064 <trap_handler_s__clear_highest_priority_interrupt>
    80010120:	f45ff06f          	j	80010064 <trap_handler_s__clear_highest_priority_interrupt>
    80010124:	f41ff06f          	j	80010064 <trap_handler_s__clear_highest_priority_interrupt>
    80010128:	f3dff06f          	j	80010064 <trap_handler_s__clear_highest_priority_interrupt>
    8001012c:	f39ff06f          	j	80010064 <trap_handler_s__clear_highest_priority_interrupt>
    80010130:	f35ff06f          	j	80010064 <trap_handler_s__clear_highest_priority_interrupt>
    80010134:	f31ff06f          	j	80010064 <trap_handler_s__clear_highest_priority_interrupt>
    80010138:	f2dff06f          	j	80010064 <trap_handler_s__clear_highest_priority_interrupt>
    8001013c:	f29ff06f          	j	80010064 <trap_handler_s__clear_highest_priority_interrupt>
    80010140:	f25ff06f          	j	80010064 <trap_handler_s__clear_highest_priority_interrupt>
    80010144:	f21ff06f          	j	80010064 <trap_handler_s__clear_highest_priority_interrupt>
    80010148:	f1dff06f          	j	80010064 <trap_handler_s__clear_highest_priority_interrupt>
    8001014c:	f19ff06f          	j	80010064 <trap_handler_s__clear_highest_priority_interrupt>
    80010150:	f15ff06f          	j	80010064 <trap_handler_s__clear_highest_priority_interrupt>
    80010154:	f11ff06f          	j	80010064 <trap_handler_s__clear_highest_priority_interrupt>
    80010158:	f0dff06f          	j	80010064 <trap_handler_s__clear_highest_priority_interrupt>
    8001015c:	f09ff06f          	j	80010064 <trap_handler_s__clear_highest_priority_interrupt>
    80010160:	f05ff06f          	j	80010064 <trap_handler_s__clear_highest_priority_interrupt>
    80010164:	f01ff06f          	j	80010064 <trap_handler_s__clear_highest_priority_interrupt>
    80010168:	efdff06f          	j	80010064 <trap_handler_s__clear_highest_priority_interrupt>
    8001016c:	ef9ff06f          	j	80010064 <trap_handler_s__clear_highest_priority_interrupt>
    80010170:	ef5ff06f          	j	80010064 <trap_handler_s__clear_highest_priority_interrupt>

0000000080010174 <trap_handler_s__test_failed>:
    80010174:	00f00f9b          	addiw	x31,x0,15
    80010178:	01cf9f93          	slli	x31,x31,0x1c
    8001017c:	002f8f93          	addi	x31,x31,2
    80010180:	00000073          	ecall

0000000080010184 <trap_handler_s__trap_handler>:
    80010184:	142022f3          	csrr	x5,scause
    80010188:	fff0031b          	addiw	x6,x0,-1
    8001018c:	03f31313          	slli	x6,x6,0x3f
    80010190:	00537333          	and	x6,x6,x5
    80010194:	02030263          	beqz	x6,800101b8 <trap_handler_s__exception_path>

0000000080010198 <trap_handler_s__interrupt_handler>:
    80010198:	fff0031b          	addiw	x6,x0,-1
    8001019c:	03f31313          	slli	x6,x6,0x3f
    800101a0:	0062c2b3          	xor	x5,x5,x6
    800101a4:	00000317          	auipc	x6,0x0
    800101a8:	ed430313          	addi	x6,x6,-300 # 80010078 <trap_handler_s__trap_entry>
    800101ac:	00229293          	slli	x5,x5,0x2
    800101b0:	005302b3          	add	x5,x6,x5
    800101b4:	00028067          	jr	x5 # 2000 <FS_RANDOMIZATION+0x1f9c>

00000000800101b8 <trap_handler_s__exception_path>:
    800101b8:	14021273          	csrrw	x4,sscratch,x4
    800101bc:	00000297          	auipc	x5,0x0
    800101c0:	0cc28293          	addi	x5,x5,204 # 80010288 <trap_handler_s__trap_panic>
    800101c4:	10529073          	csrw	stvec,x5
    800101c8:	0040006f          	j	800101cc <trap_handler_s__excp_entry>

00000000800101cc <trap_handler_s__excp_entry>:
    800101cc:	14202373          	csrr	x6,scause
    800101d0:	00800293          	li	x5,8
    800101d4:	00534863          	blt	x6,x5,800101e4 <trap_handler_s__check_exception_label>
    800101d8:	00b00293          	li	x5,11
    800101dc:	0062c463          	blt	x5,x6,800101e4 <trap_handler_s__check_exception_label>
    800101e0:	0a80006f          	j	80010288 <trap_handler_s__trap_panic>

00000000800101e4 <trap_handler_s__check_exception_label>:
    800101e4:	04623c23          	sd	x6,88(x4) # 58 <XLEN+0x18>
    800101e8:	141022f3          	csrr	x5,sepc
    800101ec:	02523423          	sd	x5,40(x4) # 28 <SECURE_ACCESS_PROBABILITY+0xa>
    800101f0:	01820283          	lb	x5,24(x4) # 18 <STORE_GUEST_PAGE_FAULT+0x1>
    800101f4:	00029863          	bnez	x5,80010204 <trap_handler_s__check_excp>
    800101f8:	00128293          	addi	x5,x5,1
    800101fc:	00520c23          	sb	x5,24(x4) # 18 <STORE_GUEST_PAGE_FAULT+0x1>
    80010200:	05c0006f          	j	8001025c <trap_handler_s__ecall_from_machine>

0000000080010204 <trap_handler_s__check_excp>:
    80010204:	06820293          	addi	x5,x4,104 # 68 <FS_RANDOMIZATION+0x4>
    80010208:	0802b2af          	amoswap.d	x5,x0,(x5)
    8001020c:	00028663          	beqz	x5,80010218 <trap_handler_s__skip_mode_check>
    80010210:	00300393          	li	x7,3
    80010214:	f67290e3          	bne	x5,x7,80010174 <trap_handler_s__test_failed>

0000000080010218 <trap_handler_s__skip_mode_check>:
    80010218:	05020293          	addi	x5,x4,80 # 50 <XLEN+0x10>
    8001021c:	0802b2af          	amoswap.d	x5,x0,(x5)
    80010220:	f4531ae3          	bne	x6,x5,80010174 <trap_handler_s__test_failed>
    80010224:	03820293          	addi	x5,x4,56 # 38 <SECURE_ACCESS_PROBABILITY+0x1a>
    80010228:	0802b2af          	amoswap.d	x5,x0,(x5)
    8001022c:	02029663          	bnez	x5,80010258 <trap_handler_s__skip_nonzero_tval_check>
    80010230:	02020313          	addi	x6,x4,32 # 20 <SECURE_ACCESS_PROBABILITY+0x2>
    80010234:	0803332f          	amoswap.d	x6,x0,(x6)
    80010238:	02820293          	addi	x5,x4,40 # 28 <SECURE_ACCESS_PROBABILITY+0xa>
    8001023c:	0802b2af          	amoswap.d	x5,x0,(x5)
    80010240:	f2531ae3          	bne	x6,x5,80010174 <trap_handler_s__test_failed>
    80010244:	04020293          	addi	x5,x4,64 # 40 <XLEN>
    80010248:	0802b2af          	amoswap.d	x5,x0,(x5)
    8001024c:	00028663          	beqz	x5,80010258 <trap_handler_s__skip_nonzero_tval_check>

0000000080010250 <trap_handler_s__nonzero_tval_check>:
    80010250:	14302373          	csrr	x6,stval
    80010254:	f25310e3          	bne	x6,x5,80010174 <trap_handler_s__test_failed>

0000000080010258 <trap_handler_s__skip_nonzero_tval_check>:
    80010258:	0040006f          	j	8001025c <trap_handler_s__ecall_from_machine>

000000008001025c <trap_handler_s__ecall_from_machine>:
    8001025c:	03020293          	addi	x5,x4,48 # 30 <SECURE_ACCESS_PROBABILITY+0x12>
    80010260:	0802b2af          	amoswap.d	x5,x0,(x5)
    80010264:	07020313          	addi	x6,x4,112 # 70 <FS_RANDOMIZATION+0xc>
    80010268:	0803332f          	amoswap.d	x6,x0,(x6)
    8001026c:	00031463          	bnez	x6,80010274 <trap_handler_s__skip_xepc_write>
    80010270:	14129073          	csrw	sepc,x5

0000000080010274 <trap_handler_s__skip_xepc_write>:
    80010274:	00000317          	auipc	x6,0x0
    80010278:	e0430313          	addi	x6,x6,-508 # 80010078 <trap_handler_s__trap_entry>
    8001027c:	10531073          	csrw	stvec,x6
    80010280:	14021273          	csrrw	x4,sscratch,x4
    80010284:	10200073          	sret

0000000080010288 <trap_handler_s__trap_panic>:
    80010288:	00000193          	li	x3,0
    8001028c:	00f00f9b          	addiw	x31,x0,15
    80010290:	01cf9f93          	slli	x31,x31,0x1c
    80010294:	002f8f93          	addi	x31,x31,2
    80010298:	00000073          	ecall

Disassembly of section .code:

00000000800140a0 <passed>:
    800140a0:	00f00f9b          	addiw	x31,x0,15
    800140a4:	01cf9f93          	slli	x31,x31,0x1c
    800140a8:	001f8f93          	addi	x31,x31,1
    800140ac:	00000073          	ecall

00000000800140b0 <failed>:
    800140b0:	00f00f9b          	addiw	x31,x0,15
    800140b4:	01cf9f93          	slli	x31,x31,0x1c
    800140b8:	002f8f93          	addi	x31,x31,2
    800140bc:	00000073          	ecall

00000000800140c0 <end_test>:
    800140c0:	00f00f9b          	addiw	x31,x0,15
    800140c4:	01cf9f93          	slli	x31,x31,0x1c
    800140c8:	003f8f93          	addi	x31,x31,3
    800140cc:	00000073          	ecall

00000000800140d0 <test_setup>:
    800140d0:	00f00f9b          	addiw	x31,x0,15
    800140d4:	01cf9f93          	slli	x31,x31,0x1c
    800140d8:	001f8f93          	addi	x31,x31,1
    800140dc:	00000073          	ecall

00000000800140e0 <SID_01_senvcfg_pmm_warl>:
    800140e0:	c4460137          	lui	x2,0xc4460
    800140e4:	3351011b          	addiw	x2,x2,821 # ffffffffc4460335 <tp_csr_storage+0xeee7f2f00b9335>
    800140e8:	00e11113          	slli	x2,x2,0xe
    800140ec:	3a710113          	addi	x2,x2,935
    800140f0:	00c11113          	slli	x2,x2,0xc
    800140f4:	00047fb7          	lui	x31,0x47
    800140f8:	f5ff8f9b          	addiw	x31,x31,-161 # 46f5f <_all_interrupts+0x444b5>
    800140fc:	00ef9f93          	slli	x31,x31,0xe
    80014100:	0a0f8f93          	addi	x31,x31,160
    80014104:	00100f13          	li	x30,1
    80014108:	01efb023          	sd	x30,0(x31)
    8001410c:	000f0fb7          	lui	x31,0xf0
    80014110:	001f8f9b          	addiw	x31,x31,1 # f0001 <SID_07_pm_disabled_s_hs_mode_stack+0x73001>
    80014114:	00cf9f93          	slli	x31,x31,0xc
    80014118:	005f8f93          	addi	x31,x31,5
    8001411c:	00000073          	ecall
    80014120:	00713023          	sd	x7,0(x2)
    80014124:	09f48137          	lui	x2,0x9f48
    80014128:	000012b7          	lui	x5,0x1
    8001412c:	00510133          	add	x2,x2,x5
    80014130:	ff017113          	andi	x2,x2,-16
    80014134:	10a02af3          	csrr	x21,0x10a
    80014138:	020adf93          	srli	x31,x21,0x20
    8001413c:	003ffa13          	andi	x20,x31,3
    80014140:	00100b9b          	addiw	x23,x0,1
    80014144:	020b9b93          	slli	x23,x23,0x20
    80014148:	10ab9ef3          	csrrw	x29,0x10a,x23
    8001414c:	10a02973          	csrr	x18,0x10a
    80014150:	02095913          	srli	x18,x18,0x20
    80014154:	00397613          	andi	x12,x18,3
    80014158:	00100493          	li	x9,1
    8001415c:	00961e63          	bne	x12,x9,80014178 <pass_label_0>
    80014160:	00047db7          	lui	x27,0x47
    80014164:	f5fd8d9b          	addiw	x27,x27,-161 # 46f5f <_all_interrupts+0x444b5>
    80014168:	00ed9d93          	slli	x27,x27,0xe
    8001416c:	008d8d93          	addi	x27,x27,8
    80014170:	000db303          	ld	x6,0(x27)
    80014174:	00030067          	jr	x6

0000000080014178 <pass_label_0>:
    80014178:	c4460137          	lui	x2,0xc4460
    8001417c:	3351011b          	addiw	x2,x2,821 # ffffffffc4460335 <tp_csr_storage+0xeee7f2f00b9335>
    80014180:	00e11113          	slli	x2,x2,0xe
    80014184:	3a710113          	addi	x2,x2,935
    80014188:	00c11113          	slli	x2,x2,0xc
    8001418c:	00013383          	ld	x7,0(x2)
    80014190:	00047fb7          	lui	x31,0x47
    80014194:	f5ff8f9b          	addiw	x31,x31,-161 # 46f5f <_all_interrupts+0x444b5>
    80014198:	00ef9f93          	slli	x31,x31,0xe
    8001419c:	0a0f8f93          	addi	x31,x31,160
    800141a0:	00200f13          	li	x30,2
    800141a4:	01efb023          	sd	x30,0(x31)
    800141a8:	000f0fb7          	lui	x31,0xf0
    800141ac:	001f8f9b          	addiw	x31,x31,1 # f0001 <SID_07_pm_disabled_s_hs_mode_stack+0x73001>
    800141b0:	00cf9f93          	slli	x31,x31,0xc
    800141b4:	005f8f93          	addi	x31,x31,5
    800141b8:	00000073          	ecall

00000000800141bc <SID_01_senvcfg_pmm_warl_passed>:
    800141bc:	00f00f9b          	addiw	x31,x0,15
    800141c0:	01cf9f93          	slli	x31,x31,0x1c
    800141c4:	001f8f93          	addi	x31,x31,1
    800141c8:	00000073          	ecall

00000000800141cc <SID_02_henvcfg_hstatus_pmm_warl>:
    800141cc:	c4460137          	lui	x2,0xc4460
    800141d0:	3351011b          	addiw	x2,x2,821 # ffffffffc4460335 <tp_csr_storage+0xeee7f2f00b9335>
    800141d4:	00e11113          	slli	x2,x2,0xe
    800141d8:	3a710113          	addi	x2,x2,935
    800141dc:	00c11113          	slli	x2,x2,0xc
    800141e0:	00047fb7          	lui	x31,0x47
    800141e4:	f5ff8f9b          	addiw	x31,x31,-161 # 46f5f <_all_interrupts+0x444b5>
    800141e8:	00ef9f93          	slli	x31,x31,0xe
    800141ec:	0a0f8f93          	addi	x31,x31,160
    800141f0:	00300f13          	li	x30,3
    800141f4:	01efb023          	sd	x30,0(x31)
    800141f8:	000f0fb7          	lui	x31,0xf0
    800141fc:	001f8f9b          	addiw	x31,x31,1 # f0001 <SID_07_pm_disabled_s_hs_mode_stack+0x73001>
    80014200:	00cf9f93          	slli	x31,x31,0xc
    80014204:	005f8f93          	addi	x31,x31,5
    80014208:	00000073          	ecall
    8001420c:	00713023          	sd	x7,0(x2)
    80014210:	00047fb7          	lui	x31,0x47
    80014214:	f5ff8f9b          	addiw	x31,x31,-161 # 46f5f <_all_interrupts+0x444b5>
    80014218:	00ef9f93          	slli	x31,x31,0xe
    8001421c:	0a0f8f93          	addi	x31,x31,160
    80014220:	00400f13          	li	x30,4
    80014224:	01efb023          	sd	x30,0(x31)
    80014228:	000f0fb7          	lui	x31,0xf0
    8001422c:	001f8f9b          	addiw	x31,x31,1 # f0001 <SID_07_pm_disabled_s_hs_mode_stack+0x73001>
    80014230:	00cf9f93          	slli	x31,x31,0xc
    80014234:	005f8f93          	addi	x31,x31,5
    80014238:	00000073          	ecall
    8001423c:	00713423          	sd	x7,8(x2)
    80014240:	21a7f137          	lui	x2,0x21a7f
    80014244:	b0b1011b          	addiw	x2,x2,-1269 # 21a7eb0b <saplic_255+0x117fb0b>
    80014248:	00c11113          	slli	x2,x2,0xc
    8001424c:	000012b7          	lui	x5,0x1
    80014250:	00510133          	add	x2,x2,x5
    80014254:	ff017113          	andi	x2,x2,-16
    80014258:	60a02973          	csrr	x18,henvcfg
    8001425c:	00100a1b          	addiw	x20,x0,1
    80014260:	020a1a13          	slli	x20,x20,0x20
    80014264:	60aa1df3          	csrrw	x27,henvcfg,x20
    80014268:	60a02a73          	csrr	x20,henvcfg
    8001426c:	020a5d93          	srli	x27,x20,0x20
    80014270:	003df313          	andi	x6,x27,3
    80014274:	00100913          	li	x18,1
    80014278:	01231e63          	bne	x6,x18,80014294 <pass_label_1>
    8001427c:	00047bb7          	lui	x23,0x47
    80014280:	f5fb8b9b          	addiw	x23,x23,-161 # 46f5f <_all_interrupts+0x444b5>
    80014284:	00eb9b93          	slli	x23,x23,0xe
    80014288:	008b8b93          	addi	x23,x23,8
    8001428c:	000bb783          	ld	x15,0(x23)
    80014290:	00078067          	jr	x15

0000000080014294 <pass_label_1>:
    80014294:	60002bf3          	csrr	x23,hstatus
    80014298:	0010071b          	addiw	x14,x0,1
    8001429c:	03071713          	slli	x14,x14,0x30
    800142a0:	60071ff3          	csrrw	x31,hstatus,x14
    800142a4:	60002573          	csrr	x10,hstatus
    800142a8:	03055b13          	srli	x22,x10,0x30
    800142ac:	003b7393          	andi	x7,x22,3
    800142b0:	01239e63          	bne	x7,x18,800142cc <pass_label_2>
    800142b4:	00047437          	lui	x8,0x47
    800142b8:	f5f4041b          	addiw	x8,x8,-161 # 46f5f <_all_interrupts+0x444b5>
    800142bc:	00e41413          	slli	x8,x8,0xe
    800142c0:	00840413          	addi	x8,x8,8
    800142c4:	00043483          	ld	x9,0(x8)
    800142c8:	00048067          	jr	x9

00000000800142cc <pass_label_2>:
    800142cc:	c4460137          	lui	x2,0xc4460
    800142d0:	3351011b          	addiw	x2,x2,821 # ffffffffc4460335 <tp_csr_storage+0xeee7f2f00b9335>
    800142d4:	00e11113          	slli	x2,x2,0xe
    800142d8:	3a710113          	addi	x2,x2,935
    800142dc:	00c11113          	slli	x2,x2,0xc
    800142e0:	00013383          	ld	x7,0(x2)
    800142e4:	00047fb7          	lui	x31,0x47
    800142e8:	f5ff8f9b          	addiw	x31,x31,-161 # 46f5f <_all_interrupts+0x444b5>
    800142ec:	00ef9f93          	slli	x31,x31,0xe
    800142f0:	0a0f8f93          	addi	x31,x31,160
    800142f4:	00500f13          	li	x30,5
    800142f8:	01efb023          	sd	x30,0(x31)
    800142fc:	000f0fb7          	lui	x31,0xf0
    80014300:	001f8f9b          	addiw	x31,x31,1 # f0001 <SID_07_pm_disabled_s_hs_mode_stack+0x73001>
    80014304:	00cf9f93          	slli	x31,x31,0xc
    80014308:	005f8f93          	addi	x31,x31,5
    8001430c:	00000073          	ecall
    80014310:	00813383          	ld	x7,8(x2)
    80014314:	00047fb7          	lui	x31,0x47
    80014318:	f5ff8f9b          	addiw	x31,x31,-161 # 46f5f <_all_interrupts+0x444b5>
    8001431c:	00ef9f93          	slli	x31,x31,0xe
    80014320:	0a0f8f93          	addi	x31,x31,160
    80014324:	00600f13          	li	x30,6
    80014328:	01efb023          	sd	x30,0(x31)
    8001432c:	000f0fb7          	lui	x31,0xf0
    80014330:	001f8f9b          	addiw	x31,x31,1 # f0001 <SID_07_pm_disabled_s_hs_mode_stack+0x73001>
    80014334:	00cf9f93          	slli	x31,x31,0xc
    80014338:	005f8f93          	addi	x31,x31,5
    8001433c:	00000073          	ecall

0000000080014340 <SID_02_henvcfg_hstatus_pmm_warl_passed>:
    80014340:	00f00f9b          	addiw	x31,x0,15
    80014344:	01cf9f93          	slli	x31,x31,0x1c
    80014348:	001f8f93          	addi	x31,x31,1
    8001434c:	00000073          	ecall

0000000080014350 <SID_07_pm_disabled_s_hs_mode>:
    80014350:	c4460137          	lui	x2,0xc4460
    80014354:	3351011b          	addiw	x2,x2,821 # ffffffffc4460335 <tp_csr_storage+0xeee7f2f00b9335>
    80014358:	00e11113          	slli	x2,x2,0xe
    8001435c:	3a710113          	addi	x2,x2,935
    80014360:	00c11113          	slli	x2,x2,0xc
    80014364:	00047fb7          	lui	x31,0x47
    80014368:	f5ff8f9b          	addiw	x31,x31,-161 # 46f5f <_all_interrupts+0x444b5>
    8001436c:	00ef9f93          	slli	x31,x31,0xe
    80014370:	0a0f8f93          	addi	x31,x31,160
    80014374:	00700f13          	li	x30,7
    80014378:	01efb023          	sd	x30,0(x31)
    8001437c:	000f0fb7          	lui	x31,0xf0
    80014380:	001f8f9b          	addiw	x31,x31,1 # f0001 <SID_07_pm_disabled_s_hs_mode_stack+0x73001>
    80014384:	00cf9f93          	slli	x31,x31,0xc
    80014388:	005f8f93          	addi	x31,x31,5
    8001438c:	00000073          	ecall
    80014390:	00713023          	sd	x7,0(x2)
    80014394:	0007d137          	lui	x2,0x7d
    80014398:	000012b7          	lui	x5,0x1
    8001439c:	00510133          	add	x2,x2,x5
    800143a0:	ff017113          	andi	x2,x2,-16
    800143a4:	0030039b          	addiw	x7,x0,3
    800143a8:	02039393          	slli	x7,x7,0x20
    800143ac:	00047fb7          	lui	x31,0x47
    800143b0:	f5ff8f9b          	addiw	x31,x31,-161 # 46f5f <_all_interrupts+0x444b5>
    800143b4:	00ef9f93          	slli	x31,x31,0xe
    800143b8:	0a0f8f93          	addi	x31,x31,160
    800143bc:	00800f13          	li	x30,8
    800143c0:	01efb023          	sd	x30,0(x31)
    800143c4:	000f0fb7          	lui	x31,0xf0
    800143c8:	001f8f9b          	addiw	x31,x31,1 # f0001 <SID_07_pm_disabled_s_hs_mode_stack+0x73001>
    800143cc:	00cf9f93          	slli	x31,x31,0xc
    800143d0:	005f8f93          	addi	x31,x31,5
    800143d4:	00000073          	ecall
    800143d8:	00008e37          	lui	x28,0x8
    800143dc:	f77e0e1b          	addiw	x28,x28,-137 # 7f77 <_all_interrupts+0x54cd>
    800143e0:	011e1e13          	slli	x28,x28,0x11
    800143e4:	acee0e13          	addi	x28,x28,-1330
    800143e8:	0be2e6b7          	lui	x13,0xbe2e
    800143ec:	2416869b          	addiw	x13,x13,577 # be2e241 <SID_01_senvcfg_pmm_warl_stack+0x1ee6241>
    800143f0:	00d69693          	slli	x13,x13,0xd
    800143f4:	0bf68693          	addi	x13,x13,191
    800143f8:	00c69693          	slli	x13,x13,0xc
    800143fc:	d00e7753          	fcvt.s.w	f14,x28
    80014400:	00e6a027          	fsw	f14,0(x13)
    80014404:	0be2e3b7          	lui	x7,0xbe2e
    80014408:	2413839b          	addiw	x7,x7,577 # be2e241 <SID_01_senvcfg_pmm_warl_stack+0x1ee6241>
    8001440c:	00d39393          	slli	x7,x7,0xd
    80014410:	0bf38393          	addi	x7,x7,191
    80014414:	00c39393          	slli	x7,x7,0xc
    80014418:	fff0031b          	addiw	x6,x0,-1
    8001441c:	03931313          	slli	x6,x6,0x39
    80014420:	0063ccb3          	xor	x25,x7,x6
    80014424:	0f80f237          	lui	x4,0xf80f
    80014428:	df92021b          	addiw	x4,x4,-519 # f80edf9 <SID_01_senvcfg_pmm_warl_stack+0x58c6df9>
    8001442c:	00d21213          	slli	x4,x4,0xd
    80014430:	00d00e13          	li	x28,13
    80014434:	05c23823          	sd	x28,80(x4) # 50 <XLEN+0x10>
    80014438:	00000e17          	auipc	x28,0x0
    8001443c:	048e0e13          	addi	x28,x28,72 # 80014480 <fault_label_0>
    80014440:	03c23023          	sd	x28,32(x4) # 20 <SECURE_ACCESS_PROBABILITY+0x2>
    80014444:	00000e13          	li	x28,0
    80014448:	05c23023          	sd	x28,64(x4) # 40 <XLEN>
    8001444c:	00000e13          	li	x28,0
    80014450:	05c23423          	sd	x28,72(x4) # 48 <XLEN+0x8>
    80014454:	00000e17          	auipc	x28,0x0
    80014458:	048e0e13          	addi	x28,x28,72 # 8001449c <excp_return_label_0>
    8001445c:	03c23823          	sd	x28,48(x4) # 30 <SECURE_ACCESS_PROBABILITY+0x12>
    80014460:	00000e13          	li	x28,0
    80014464:	03c23c23          	sd	x28,56(x4) # 38 <SECURE_ACCESS_PROBABILITY+0x1a>
    80014468:	00000e13          	li	x28,0
    8001446c:	07c23023          	sd	x28,96(x4) # 60 <XLEN+0x20>
    80014470:	00000e13          	li	x28,0
    80014474:	07c23423          	sd	x28,104(x4) # 68 <FS_RANDOMIZATION+0x4>
    80014478:	00000e13          	li	x28,0
    8001447c:	07c23823          	sd	x28,112(x4) # 70 <FS_RANDOMIZATION+0xc>

0000000080014480 <fault_label_0>:
    80014480:	000cb803          	ld	x16,0(x25)
    80014484:	00047cb7          	lui	x25,0x47
    80014488:	f5fc8c9b          	addiw	x25,x25,-161 # 46f5f <_all_interrupts+0x444b5>
    8001448c:	00ec9c93          	slli	x25,x25,0xe
    80014490:	008c8c93          	addi	x25,x25,8
    80014494:	000cbc03          	ld	x24,0(x25)
    80014498:	000c0067          	jr	x24

000000008001449c <excp_return_label_0>:
    8001449c:	c4460137          	lui	x2,0xc4460
    800144a0:	3351011b          	addiw	x2,x2,821 # ffffffffc4460335 <tp_csr_storage+0xeee7f2f00b9335>
    800144a4:	00e11113          	slli	x2,x2,0xe
    800144a8:	3a710113          	addi	x2,x2,935
    800144ac:	00c11113          	slli	x2,x2,0xc
    800144b0:	00013383          	ld	x7,0(x2)
    800144b4:	00047fb7          	lui	x31,0x47
    800144b8:	f5ff8f9b          	addiw	x31,x31,-161 # 46f5f <_all_interrupts+0x444b5>
    800144bc:	00ef9f93          	slli	x31,x31,0xe
    800144c0:	0a0f8f93          	addi	x31,x31,160
    800144c4:	00900f13          	li	x30,9
    800144c8:	01efb023          	sd	x30,0(x31)
    800144cc:	000f0fb7          	lui	x31,0xf0
    800144d0:	001f8f9b          	addiw	x31,x31,1 # f0001 <SID_07_pm_disabled_s_hs_mode_stack+0x73001>
    800144d4:	00cf9f93          	slli	x31,x31,0xc
    800144d8:	005f8f93          	addi	x31,x31,5
    800144dc:	00000073          	ecall

00000000800144e0 <SID_07_pm_disabled_s_hs_mode_passed>:
    800144e0:	00f00f9b          	addiw	x31,x0,15
    800144e4:	01cf9f93          	slli	x31,x31,0x1c
    800144e8:	001f8f93          	addi	x31,x31,1
    800144ec:	00000073          	ecall

00000000800144f0 <SID_11_pm_enabled_s_hs_mode>:
    800144f0:	c4460137          	lui	x2,0xc4460
    800144f4:	3351011b          	addiw	x2,x2,821 # ffffffffc4460335 <tp_csr_storage+0xeee7f2f00b9335>
    800144f8:	00e11113          	slli	x2,x2,0xe
    800144fc:	3a710113          	addi	x2,x2,935
    80014500:	00c11113          	slli	x2,x2,0xc
    80014504:	00047fb7          	lui	x31,0x47
    80014508:	f5ff8f9b          	addiw	x31,x31,-161 # 46f5f <_all_interrupts+0x444b5>
    8001450c:	00ef9f93          	slli	x31,x31,0xe
    80014510:	0a0f8f93          	addi	x31,x31,160
    80014514:	00700f13          	li	x30,7
    80014518:	01efb023          	sd	x30,0(x31)
    8001451c:	000f0fb7          	lui	x31,0xf0
    80014520:	001f8f9b          	addiw	x31,x31,1 # f0001 <SID_07_pm_disabled_s_hs_mode_stack+0x73001>
    80014524:	00cf9f93          	slli	x31,x31,0xc
    80014528:	005f8f93          	addi	x31,x31,5
    8001452c:	00000073          	ecall
    80014530:	00713023          	sd	x7,0(x2)
    80014534:	0aa3f137          	lui	x2,0xaa3f
    80014538:	cdb1011b          	addiw	x2,x2,-805 # aa3ecdb <SID_01_senvcfg_pmm_warl_stack+0xaf6cdb>
    8001453c:	00e11113          	slli	x2,x2,0xe
    80014540:	79310113          	addi	x2,x2,1939
    80014544:	00c11113          	slli	x2,x2,0xc
    80014548:	000012b7          	lui	x5,0x1
    8001454c:	00510133          	add	x2,x2,x5
    80014550:	ff017113          	andi	x2,x2,-16
    80014554:	0010039b          	addiw	x7,x0,1
    80014558:	02139393          	slli	x7,x7,0x21
    8001455c:	00047fb7          	lui	x31,0x47
    80014560:	f5ff8f9b          	addiw	x31,x31,-161 # 46f5f <_all_interrupts+0x444b5>
    80014564:	00ef9f93          	slli	x31,x31,0xe
    80014568:	0a0f8f93          	addi	x31,x31,160
    8001456c:	00b00f13          	li	x30,11
    80014570:	01efb023          	sd	x30,0(x31)
    80014574:	000f0fb7          	lui	x31,0xf0
    80014578:	001f8f9b          	addiw	x31,x31,1 # f0001 <SID_07_pm_disabled_s_hs_mode_stack+0x73001>
    8001457c:	00cf9f93          	slli	x31,x31,0xc
    80014580:	005f8f93          	addi	x31,x31,5
    80014584:	00000073          	ecall
    80014588:	12345e37          	lui	x28,0x12345
    8001458c:	678e0e1b          	addiw	x28,x28,1656 # 12345678 <maplic_255+0x1a46678>
    80014590:	07807737          	lui	x14,0x7807
    80014594:	0fd7071b          	addiw	x14,x14,253 # 78070fd <SID_27_pm_implicit_access_stack+0x6e3b0fd>
    80014598:	00c71713          	slli	x14,x14,0xc
    8001459c:	0c970713          	addi	x14,x14,201
    800145a0:	00e71713          	slli	x14,x14,0xe
    800145a4:	01c72023          	sw	x28,0(x14)
    800145a8:	07807e37          	lui	x28,0x7807
    800145ac:	0fde0e1b          	addiw	x28,x28,253 # 78070fd <SID_27_pm_implicit_access_stack+0x6e3b0fd>
    800145b0:	00ce1e13          	slli	x28,x28,0xc
    800145b4:	0c9e0e13          	addi	x28,x28,201
    800145b8:	00ee1e13          	slli	x28,x28,0xe
    800145bc:	fff00b1b          	addiw	x22,x0,-1
    800145c0:	039b1b13          	slli	x22,x22,0x39
    800145c4:	016e48b3          	xor	x17,x28,x22
    800145c8:	0008b303          	ld	x6,0(x17)
    800145cc:	000acc37          	lui	x24,0xac
    800145d0:	cdfc0c1b          	addiw	x24,x24,-801 # abcdf <SID_07_pm_disabled_s_hs_mode_stack+0x2ecdf>
    800145d4:	00cc1c13          	slli	x24,x24,0xc
    800145d8:	f00c0c13          	addi	x24,x24,-256
    800145dc:	01889023          	sh	x24,0(x17)
    800145e0:	07807f37          	lui	x30,0x7807
    800145e4:	0fdf0f1b          	addiw	x30,x30,253 # 78070fd <SID_27_pm_implicit_access_stack+0x6e3b0fd>
    800145e8:	00cf1f13          	slli	x30,x30,0xc
    800145ec:	0c9f0f13          	addi	x30,x30,201
    800145f0:	00ef1f13          	slli	x30,x30,0xe
    800145f4:	000f3e03          	ld	x28,0(x30)
    800145f8:	c4460137          	lui	x2,0xc4460
    800145fc:	3351011b          	addiw	x2,x2,821 # ffffffffc4460335 <tp_csr_storage+0xeee7f2f00b9335>
    80014600:	00e11113          	slli	x2,x2,0xe
    80014604:	3a710113          	addi	x2,x2,935
    80014608:	00c11113          	slli	x2,x2,0xc
    8001460c:	00013383          	ld	x7,0(x2)
    80014610:	00047fb7          	lui	x31,0x47
    80014614:	f5ff8f9b          	addiw	x31,x31,-161 # 46f5f <_all_interrupts+0x444b5>
    80014618:	00ef9f93          	slli	x31,x31,0xe
    8001461c:	0a0f8f93          	addi	x31,x31,160
    80014620:	00900f13          	li	x30,9
    80014624:	01efb023          	sd	x30,0(x31)
    80014628:	000f0fb7          	lui	x31,0xf0
    8001462c:	001f8f9b          	addiw	x31,x31,1 # f0001 <SID_07_pm_disabled_s_hs_mode_stack+0x73001>
    80014630:	00cf9f93          	slli	x31,x31,0xc
    80014634:	005f8f93          	addi	x31,x31,5
    80014638:	00000073          	ecall

000000008001463c <SID_11_pm_enabled_s_hs_mode_passed>:
    8001463c:	00f00f9b          	addiw	x31,x0,15
    80014640:	01cf9f93          	slli	x31,x31,0x1c
    80014644:	001f8f93          	addi	x31,x31,1
    80014648:	00000073          	ecall

000000008001464c <SID_22_pm_disabled_mxr_set>:
    8001464c:	c4460137          	lui	x2,0xc4460
    80014650:	3351011b          	addiw	x2,x2,821 # ffffffffc4460335 <tp_csr_storage+0xeee7f2f00b9335>
    80014654:	00e11113          	slli	x2,x2,0xe
    80014658:	3a710113          	addi	x2,x2,935
    8001465c:	00c11113          	slli	x2,x2,0xc
    80014660:	00047fb7          	lui	x31,0x47
    80014664:	f5ff8f9b          	addiw	x31,x31,-161 # 46f5f <_all_interrupts+0x444b5>
    80014668:	00ef9f93          	slli	x31,x31,0xe
    8001466c:	0a0f8f93          	addi	x31,x31,160
    80014670:	00d00f13          	li	x30,13
    80014674:	01efb023          	sd	x30,0(x31)
    80014678:	000f0fb7          	lui	x31,0xf0
    8001467c:	001f8f9b          	addiw	x31,x31,1 # f0001 <SID_07_pm_disabled_s_hs_mode_stack+0x73001>
    80014680:	00cf9f93          	slli	x31,x31,0xc
    80014684:	005f8f93          	addi	x31,x31,5
    80014688:	00000073          	ecall
    8001468c:	00713023          	sd	x7,0(x2)
    80014690:	00047fb7          	lui	x31,0x47
    80014694:	f5ff8f9b          	addiw	x31,x31,-161 # 46f5f <_all_interrupts+0x444b5>
    80014698:	00ef9f93          	slli	x31,x31,0xe
    8001469c:	0a0f8f93          	addi	x31,x31,160
    800146a0:	00100f13          	li	x30,1
    800146a4:	01efb023          	sd	x30,0(x31)
    800146a8:	000f0fb7          	lui	x31,0xf0
    800146ac:	001f8f9b          	addiw	x31,x31,1 # f0001 <SID_07_pm_disabled_s_hs_mode_stack+0x73001>
    800146b0:	00cf9f93          	slli	x31,x31,0xc
    800146b4:	005f8f93          	addi	x31,x31,5
    800146b8:	00000073          	ecall
    800146bc:	00713423          	sd	x7,8(x2)
    800146c0:	02a4c137          	lui	x2,0x2a4c
    800146c4:	6991011b          	addiw	x2,x2,1689 # 2a4c699 <SID_27_pm_implicit_access_stack+0x2080699>
    800146c8:	00e11113          	slli	x2,x2,0xe
    800146cc:	000012b7          	lui	x5,0x1
    800146d0:	00510133          	add	x2,x2,x5
    800146d4:	ff017113          	andi	x2,x2,-16
    800146d8:	00100d1b          	addiw	x26,x0,1
    800146dc:	021d1d13          	slli	x26,x26,0x21
    800146e0:	10ad2f73          	csrrs	x30,0x10a,x26
    800146e4:	000807b7          	lui	x15,0x80
    800146e8:	00078393          	mv	x7,x15
    800146ec:	00047fb7          	lui	x31,0x47
    800146f0:	f5ff8f9b          	addiw	x31,x31,-161 # 46f5f <_all_interrupts+0x444b5>
    800146f4:	00ef9f93          	slli	x31,x31,0xe
    800146f8:	0a0f8f93          	addi	x31,x31,160
    800146fc:	00f00f13          	li	x30,15
    80014700:	01efb023          	sd	x30,0(x31)
    80014704:	000f0fb7          	lui	x31,0xf0
    80014708:	001f8f9b          	addiw	x31,x31,1 # f0001 <SID_07_pm_disabled_s_hs_mode_stack+0x73001>
    8001470c:	00cf9f93          	slli	x31,x31,0xc
    80014710:	005f8f93          	addi	x31,x31,5
    80014714:	00000073          	ecall
    80014718:	12345537          	lui	x10,0x12345
    8001471c:	6785051b          	addiw	x10,x10,1656 # 12345678 <maplic_255+0x1a46678>
    80014720:	000d77b7          	lui	x15,0xd7
    80014724:	7dd7879b          	addiw	x15,x15,2013 # d77dd <SID_07_pm_disabled_s_hs_mode_stack+0x5a7dd>
    80014728:	00c79793          	slli	x15,x15,0xc
    8001472c:	15778793          	addi	x15,x15,343
    80014730:	00c79793          	slli	x15,x15,0xc
    80014734:	24578793          	addi	x15,x15,581
    80014738:	00c79793          	slli	x15,x15,0xc
    8001473c:	00a78023          	sb	x10,0(x15)
    80014740:	000d79b7          	lui	x19,0xd7
    80014744:	7dd9899b          	addiw	x19,x19,2013 # d77dd <SID_07_pm_disabled_s_hs_mode_stack+0x5a7dd>
    80014748:	00c99993          	slli	x19,x19,0xc
    8001474c:	15798993          	addi	x19,x19,343
    80014750:	00c99993          	slli	x19,x19,0xc
    80014754:	24598993          	addi	x19,x19,581
    80014758:	00c99993          	slli	x19,x19,0xc
    8001475c:	fff0051b          	addiw	x10,x0,-1
    80014760:	03951513          	slli	x10,x10,0x39
    80014764:	00a9c533          	xor	x10,x19,x10
    80014768:	0f80f237          	lui	x4,0xf80f
    8001476c:	df92021b          	addiw	x4,x4,-519 # f80edf9 <SID_01_senvcfg_pmm_warl_stack+0x58c6df9>
    80014770:	00d21213          	slli	x4,x4,0xd
    80014774:	00d00e13          	li	x28,13
    80014778:	05c23823          	sd	x28,80(x4) # 50 <XLEN+0x10>
    8001477c:	00000e17          	auipc	x28,0x0
    80014780:	048e0e13          	addi	x28,x28,72 # 800147c4 <fault_label_1>
    80014784:	03c23023          	sd	x28,32(x4) # 20 <SECURE_ACCESS_PROBABILITY+0x2>
    80014788:	00000e13          	li	x28,0
    8001478c:	05c23023          	sd	x28,64(x4) # 40 <XLEN>
    80014790:	00000e13          	li	x28,0
    80014794:	05c23423          	sd	x28,72(x4) # 48 <XLEN+0x8>
    80014798:	00000e17          	auipc	x28,0x0
    8001479c:	048e0e13          	addi	x28,x28,72 # 800147e0 <excp_return_label_1>
    800147a0:	03c23823          	sd	x28,48(x4) # 30 <SECURE_ACCESS_PROBABILITY+0x12>
    800147a4:	00000e13          	li	x28,0
    800147a8:	03c23c23          	sd	x28,56(x4) # 38 <SECURE_ACCESS_PROBABILITY+0x1a>
    800147ac:	00000e13          	li	x28,0
    800147b0:	07c23023          	sd	x28,96(x4) # 60 <XLEN+0x20>
    800147b4:	00000e13          	li	x28,0
    800147b8:	07c23423          	sd	x28,104(x4) # 68 <FS_RANDOMIZATION+0x4>
    800147bc:	00000e13          	li	x28,0
    800147c0:	07c23823          	sd	x28,112(x4) # 70 <FS_RANDOMIZATION+0xc>

00000000800147c4 <fault_label_1>:
    800147c4:	00053d83          	ld	x27,0(x10)
    800147c8:	00047bb7          	lui	x23,0x47
    800147cc:	f5fb8b9b          	addiw	x23,x23,-161 # 46f5f <_all_interrupts+0x444b5>
    800147d0:	00eb9b93          	slli	x23,x23,0xe
    800147d4:	008b8b93          	addi	x23,x23,8
    800147d8:	000bbe83          	ld	x29,0(x23)
    800147dc:	000e8067          	jr	x29

00000000800147e0 <excp_return_label_1>:
    800147e0:	c4460137          	lui	x2,0xc4460
    800147e4:	3351011b          	addiw	x2,x2,821 # ffffffffc4460335 <tp_csr_storage+0xeee7f2f00b9335>
    800147e8:	00e11113          	slli	x2,x2,0xe
    800147ec:	3a710113          	addi	x2,x2,935
    800147f0:	00c11113          	slli	x2,x2,0xc
    800147f4:	00013383          	ld	x7,0(x2)
    800147f8:	00047fb7          	lui	x31,0x47
    800147fc:	f5ff8f9b          	addiw	x31,x31,-161 # 46f5f <_all_interrupts+0x444b5>
    80014800:	00ef9f93          	slli	x31,x31,0xe
    80014804:	0a0f8f93          	addi	x31,x31,160
    80014808:	01000f13          	li	x30,16
    8001480c:	01efb023          	sd	x30,0(x31)
    80014810:	000f0fb7          	lui	x31,0xf0
    80014814:	001f8f9b          	addiw	x31,x31,1 # f0001 <SID_07_pm_disabled_s_hs_mode_stack+0x73001>
    80014818:	00cf9f93          	slli	x31,x31,0xc
    8001481c:	005f8f93          	addi	x31,x31,5
    80014820:	00000073          	ecall
    80014824:	00813383          	ld	x7,8(x2)
    80014828:	00047fb7          	lui	x31,0x47
    8001482c:	f5ff8f9b          	addiw	x31,x31,-161 # 46f5f <_all_interrupts+0x444b5>
    80014830:	00ef9f93          	slli	x31,x31,0xe
    80014834:	0a0f8f93          	addi	x31,x31,160
    80014838:	00200f13          	li	x30,2
    8001483c:	01efb023          	sd	x30,0(x31)
    80014840:	000f0fb7          	lui	x31,0xf0
    80014844:	001f8f9b          	addiw	x31,x31,1 # f0001 <SID_07_pm_disabled_s_hs_mode_stack+0x73001>
    80014848:	00cf9f93          	slli	x31,x31,0xc
    8001484c:	005f8f93          	addi	x31,x31,5
    80014850:	00000073          	ecall

0000000080014854 <SID_22_pm_disabled_mxr_set_passed>:
    80014854:	00f00f9b          	addiw	x31,x0,15
    80014858:	01cf9f93          	slli	x31,x31,0x1c
    8001485c:	001f8f93          	addi	x31,x31,1
    80014860:	00000073          	ecall

0000000080014864 <SID_23_pm_invalidation_instructions>:
    80014864:	c4460137          	lui	x2,0xc4460
    80014868:	3351011b          	addiw	x2,x2,821 # ffffffffc4460335 <tp_csr_storage+0xeee7f2f00b9335>
    8001486c:	00e11113          	slli	x2,x2,0xe
    80014870:	3a710113          	addi	x2,x2,935
    80014874:	00c11113          	slli	x2,x2,0xc
    80014878:	00047fb7          	lui	x31,0x47
    8001487c:	f5ff8f9b          	addiw	x31,x31,-161 # 46f5f <_all_interrupts+0x444b5>
    80014880:	00ef9f93          	slli	x31,x31,0xe
    80014884:	0a0f8f93          	addi	x31,x31,160
    80014888:	00100f13          	li	x30,1
    8001488c:	01efb023          	sd	x30,0(x31)
    80014890:	000f0fb7          	lui	x31,0xf0
    80014894:	001f8f9b          	addiw	x31,x31,1 # f0001 <SID_07_pm_disabled_s_hs_mode_stack+0x73001>
    80014898:	00cf9f93          	slli	x31,x31,0xc
    8001489c:	005f8f93          	addi	x31,x31,5
    800148a0:	00000073          	ecall
    800148a4:	00713023          	sd	x7,0(x2)
    800148a8:	21bbd137          	lui	x2,0x21bbd
    800148ac:	9bb1011b          	addiw	x2,x2,-1605 # 21bbc9bb <saplic_255+0x12bd9bb>
    800148b0:	00c11113          	slli	x2,x2,0xc
    800148b4:	000012b7          	lui	x5,0x1
    800148b8:	00510133          	add	x2,x2,x5
    800148bc:	ff017113          	andi	x2,x2,-16
    800148c0:	0010079b          	addiw	x15,x0,1
    800148c4:	02179793          	slli	x15,x15,0x21
    800148c8:	10a7acf3          	csrrs	x25,0x10a,x15
    800148cc:	000acb37          	lui	x22,0xac
    800148d0:	cd1b0b1b          	addiw	x22,x22,-815 # abcd1 <SID_07_pm_disabled_s_hs_mode_stack+0x2ecd1>
    800148d4:	00cb1b13          	slli	x22,x22,0xc
    800148d8:	234b0b13          	addi	x22,x22,564
    800148dc:	0058dc37          	lui	x24,0x58d
    800148e0:	d02b76d3          	fcvt.s.l	f13,x22
    800148e4:	00dc2027          	fsw	f13,0(x24) # 58d000 <mem3>
    800148e8:	0058de37          	lui	x28,0x58d
    800148ec:	000e3383          	ld	x7,0(x28) # 58d000 <mem3>
    800148f0:	c4460137          	lui	x2,0xc4460
    800148f4:	3351011b          	addiw	x2,x2,821 # ffffffffc4460335 <tp_csr_storage+0xeee7f2f00b9335>
    800148f8:	00e11113          	slli	x2,x2,0xe
    800148fc:	3a710113          	addi	x2,x2,935
    80014900:	00c11113          	slli	x2,x2,0xc
    80014904:	00013383          	ld	x7,0(x2)
    80014908:	00047fb7          	lui	x31,0x47
    8001490c:	f5ff8f9b          	addiw	x31,x31,-161 # 46f5f <_all_interrupts+0x444b5>
    80014910:	00ef9f93          	slli	x31,x31,0xe
    80014914:	0a0f8f93          	addi	x31,x31,160
    80014918:	00200f13          	li	x30,2
    8001491c:	01efb023          	sd	x30,0(x31)
    80014920:	000f0fb7          	lui	x31,0xf0
    80014924:	001f8f9b          	addiw	x31,x31,1 # f0001 <SID_07_pm_disabled_s_hs_mode_stack+0x73001>
    80014928:	00cf9f93          	slli	x31,x31,0xc
    8001492c:	005f8f93          	addi	x31,x31,5
    80014930:	00000073          	ecall

0000000080014934 <SID_23_pm_invalidation_instructions_passed>:
    80014934:	00f00f9b          	addiw	x31,x0,15
    80014938:	01cf9f93          	slli	x31,x31,0x1c
    8001493c:	001f8f93          	addi	x31,x31,1
    80014940:	00000073          	ecall

0000000080014944 <SID_24_pm_instruction_set>:
    80014944:	c4460137          	lui	x2,0xc4460
    80014948:	3351011b          	addiw	x2,x2,821 # ffffffffc4460335 <tp_csr_storage+0xeee7f2f00b9335>
    8001494c:	00e11113          	slli	x2,x2,0xe
    80014950:	3a710113          	addi	x2,x2,935
    80014954:	00c11113          	slli	x2,x2,0xc
    80014958:	00047fb7          	lui	x31,0x47
    8001495c:	f5ff8f9b          	addiw	x31,x31,-161 # 46f5f <_all_interrupts+0x444b5>
    80014960:	00ef9f93          	slli	x31,x31,0xe
    80014964:	0a0f8f93          	addi	x31,x31,160
    80014968:	00100f13          	li	x30,1
    8001496c:	01efb023          	sd	x30,0(x31)
    80014970:	000f0fb7          	lui	x31,0xf0
    80014974:	001f8f9b          	addiw	x31,x31,1 # f0001 <SID_07_pm_disabled_s_hs_mode_stack+0x73001>
    80014978:	00cf9f93          	slli	x31,x31,0xc
    8001497c:	005f8f93          	addi	x31,x31,5
    80014980:	00000073          	ecall
    80014984:	00713023          	sd	x7,0(x2)
    80014988:	00731137          	lui	x2,0x731
    8001498c:	5931011b          	addiw	x2,x2,1427 # 731593 <mem3+0x1a4593>
    80014990:	00c11113          	slli	x2,x2,0xc
    80014994:	35710113          	addi	x2,x2,855
    80014998:	00c11113          	slli	x2,x2,0xc
    8001499c:	000012b7          	lui	x5,0x1
    800149a0:	00510133          	add	x2,x2,x5
    800149a4:	ff017113          	andi	x2,x2,-16
    800149a8:	00100e9b          	addiw	x29,x0,1
    800149ac:	021e9e93          	slli	x29,x29,0x21
    800149b0:	10aeaef3          	csrrs	x29,0x10a,x29
    800149b4:	11223937          	lui	x18,0x11223
    800149b8:	3449091b          	addiw	x18,x18,836 # 11223344 <maplic_255+0x924344>
    800149bc:	001dea37          	lui	x20,0x1de
    800149c0:	62da0a1b          	addiw	x20,x20,1581 # 1de62d <SID_07_pm_disabled_s_hs_mode_stack+0x16162d>
    800149c4:	00ca1a13          	slli	x20,x20,0xc
    800149c8:	71da0a13          	addi	x20,x20,1821
    800149cc:	00da1a13          	slli	x20,x20,0xd
    800149d0:	012a2023          	sw	x18,0(x20)
    800149d4:	001def37          	lui	x30,0x1de
    800149d8:	62df0f1b          	addiw	x30,x30,1581 # 1de62d <SID_07_pm_disabled_s_hs_mode_stack+0x16162d>
    800149dc:	00cf1f13          	slli	x30,x30,0xc
    800149e0:	71df0f13          	addi	x30,x30,1821
    800149e4:	00df1f13          	slli	x30,x30,0xd
    800149e8:	000f3583          	ld	x11,0(x30)
    800149ec:	c4460137          	lui	x2,0xc4460
    800149f0:	3351011b          	addiw	x2,x2,821 # ffffffffc4460335 <tp_csr_storage+0xeee7f2f00b9335>
    800149f4:	00e11113          	slli	x2,x2,0xe
    800149f8:	3a710113          	addi	x2,x2,935
    800149fc:	00c11113          	slli	x2,x2,0xc
    80014a00:	00013383          	ld	x7,0(x2)
    80014a04:	00047fb7          	lui	x31,0x47
    80014a08:	f5ff8f9b          	addiw	x31,x31,-161 # 46f5f <_all_interrupts+0x444b5>
    80014a0c:	00ef9f93          	slli	x31,x31,0xe
    80014a10:	0a0f8f93          	addi	x31,x31,160
    80014a14:	00200f13          	li	x30,2
    80014a18:	01efb023          	sd	x30,0(x31)
    80014a1c:	000f0fb7          	lui	x31,0xf0
    80014a20:	001f8f9b          	addiw	x31,x31,1 # f0001 <SID_07_pm_disabled_s_hs_mode_stack+0x73001>
    80014a24:	00cf9f93          	slli	x31,x31,0xc
    80014a28:	005f8f93          	addi	x31,x31,5
    80014a2c:	00000073          	ecall

0000000080014a30 <SID_24_pm_instruction_set_passed>:
    80014a30:	00f00f9b          	addiw	x31,x0,15
    80014a34:	01cf9f93          	slli	x31,x31,0x1c
    80014a38:	001f8f93          	addi	x31,x31,1
    80014a3c:	00000073          	ecall

0000000080014a40 <SID_25_pm_misaligned_access>:
    80014a40:	c4460137          	lui	x2,0xc4460
    80014a44:	3351011b          	addiw	x2,x2,821 # ffffffffc4460335 <tp_csr_storage+0xeee7f2f00b9335>
    80014a48:	00e11113          	slli	x2,x2,0xe
    80014a4c:	3a710113          	addi	x2,x2,935
    80014a50:	00c11113          	slli	x2,x2,0xc
    80014a54:	00047fb7          	lui	x31,0x47
    80014a58:	f5ff8f9b          	addiw	x31,x31,-161 # 46f5f <_all_interrupts+0x444b5>
    80014a5c:	00ef9f93          	slli	x31,x31,0xe
    80014a60:	0a0f8f93          	addi	x31,x31,160
    80014a64:	00100f13          	li	x30,1
    80014a68:	01efb023          	sd	x30,0(x31)
    80014a6c:	000f0fb7          	lui	x31,0xf0
    80014a70:	001f8f9b          	addiw	x31,x31,1 # f0001 <SID_07_pm_disabled_s_hs_mode_stack+0x73001>
    80014a74:	00cf9f93          	slli	x31,x31,0xc
    80014a78:	005f8f93          	addi	x31,x31,5
    80014a7c:	00000073          	ecall
    80014a80:	00713023          	sd	x7,0(x2)
    80014a84:	083ce137          	lui	x2,0x83ce
    80014a88:	000012b7          	lui	x5,0x1
    80014a8c:	00510133          	add	x2,x2,x5
    80014a90:	ff017113          	andi	x2,x2,-16
    80014a94:	0030041b          	addiw	x8,x0,3
    80014a98:	02041413          	slli	x8,x8,0x20
    80014a9c:	10a42af3          	csrrs	x21,0x10a,x8
    80014aa0:	55667eb7          	lui	x29,0x55667
    80014aa4:	788e8e9b          	addiw	x29,x29,1928 # 55667788 <saplic_255+0x34d68788>
    80014aa8:	083ccc37          	lui	x24,0x83cc
    80014aac:	01dc1023          	sh	x29,0(x24) # 83cc000 <mem5>
    80014ab0:	083cc537          	lui	x10,0x83cc
    80014ab4:	00053c87          	fld	f25,0(x10) # 83cc000 <mem5>
    80014ab8:	c4460137          	lui	x2,0xc4460
    80014abc:	3351011b          	addiw	x2,x2,821 # ffffffffc4460335 <tp_csr_storage+0xeee7f2f00b9335>
    80014ac0:	00e11113          	slli	x2,x2,0xe
    80014ac4:	3a710113          	addi	x2,x2,935
    80014ac8:	00c11113          	slli	x2,x2,0xc
    80014acc:	00013383          	ld	x7,0(x2)
    80014ad0:	00047fb7          	lui	x31,0x47
    80014ad4:	f5ff8f9b          	addiw	x31,x31,-161 # 46f5f <_all_interrupts+0x444b5>
    80014ad8:	00ef9f93          	slli	x31,x31,0xe
    80014adc:	0a0f8f93          	addi	x31,x31,160
    80014ae0:	00200f13          	li	x30,2
    80014ae4:	01efb023          	sd	x30,0(x31)
    80014ae8:	000f0fb7          	lui	x31,0xf0
    80014aec:	001f8f9b          	addiw	x31,x31,1 # f0001 <SID_07_pm_disabled_s_hs_mode_stack+0x73001>
    80014af0:	00cf9f93          	slli	x31,x31,0xc
    80014af4:	005f8f93          	addi	x31,x31,5
    80014af8:	00000073          	ecall

0000000080014afc <SID_25_pm_misaligned_access_passed>:
    80014afc:	00f00f9b          	addiw	x31,x0,15
    80014b00:	01cf9f93          	slli	x31,x31,0x1c
    80014b04:	001f8f93          	addi	x31,x31,1
    80014b08:	00000073          	ecall

0000000080014b0c <SID_26_pm_different_tags_same_address>:
    80014b0c:	c4460137          	lui	x2,0xc4460
    80014b10:	3351011b          	addiw	x2,x2,821 # ffffffffc4460335 <tp_csr_storage+0xeee7f2f00b9335>
    80014b14:	00e11113          	slli	x2,x2,0xe
    80014b18:	3a710113          	addi	x2,x2,935
    80014b1c:	00c11113          	slli	x2,x2,0xc
    80014b20:	00047fb7          	lui	x31,0x47
    80014b24:	f5ff8f9b          	addiw	x31,x31,-161 # 46f5f <_all_interrupts+0x444b5>
    80014b28:	00ef9f93          	slli	x31,x31,0xe
    80014b2c:	0a0f8f93          	addi	x31,x31,160
    80014b30:	00100f13          	li	x30,1
    80014b34:	01efb023          	sd	x30,0(x31)
    80014b38:	000f0fb7          	lui	x31,0xf0
    80014b3c:	001f8f9b          	addiw	x31,x31,1 # f0001 <SID_07_pm_disabled_s_hs_mode_stack+0x73001>
    80014b40:	00cf9f93          	slli	x31,x31,0xc
    80014b44:	005f8f93          	addi	x31,x31,5
    80014b48:	00000073          	ecall
    80014b4c:	00713023          	sd	x7,0(x2)
    80014b50:	73bc7137          	lui	x2,0x73bc7
    80014b54:	f771011b          	addiw	x2,x2,-137 # 73bc6f77 <SID_28_pm_faults_trap_values_stack+0xbfef77>
    80014b58:	00c11113          	slli	x2,x2,0xc
    80014b5c:	000012b7          	lui	x5,0x1
    80014b60:	00510133          	add	x2,x2,x5
    80014b64:	ff017113          	andi	x2,x2,-16
    80014b68:	00300a9b          	addiw	x21,x0,3
    80014b6c:	020a9a93          	slli	x21,x21,0x20
    80014b70:	10aaaf73          	csrrs	x30,0x10a,x21
    80014b74:	11111337          	lui	x6,0x11111
    80014b78:	1113031b          	addiw	x6,x6,273 # 11111111 <maplic_255+0x812111>
    80014b7c:	00d38bb7          	lui	x23,0xd38
    80014b80:	9c7b8b9b          	addiw	x23,x23,-1593 # d379c7 <SID_27_pm_implicit_access_stack+0x36b9c7>
    80014b84:	00cb9b93          	slli	x23,x23,0xc
    80014b88:	1d5b8b93          	addi	x23,x23,469
    80014b8c:	00cb9b93          	slli	x23,x23,0xc
    80014b90:	006bb023          	sd	x6,0(x23)
    80014b94:	22222437          	lui	x8,0x22222
    80014b98:	2224041b          	addiw	x8,x8,546 # 22222222 <saplic_255+0x1923222>
    80014b9c:	00d388b7          	lui	x17,0xd38
    80014ba0:	9c78889b          	addiw	x17,x17,-1593 # d379c7 <SID_27_pm_implicit_access_stack+0x36b9c7>
    80014ba4:	00c89893          	slli	x17,x17,0xc
    80014ba8:	1d588893          	addi	x17,x17,469
    80014bac:	00c89893          	slli	x17,x17,0xc
    80014bb0:	d0347bd3          	fcvt.s.lu	f23,x8
    80014bb4:	0178b027          	fsd	f23,0(x17)
    80014bb8:	00d38fb7          	lui	x31,0xd38
    80014bbc:	9c7f8f9b          	addiw	x31,x31,-1593 # d379c7 <SID_27_pm_implicit_access_stack+0x36b9c7>
    80014bc0:	00cf9f93          	slli	x31,x31,0xc
    80014bc4:	1d5f8f93          	addi	x31,x31,469
    80014bc8:	00cf9f93          	slli	x31,x31,0xc
    80014bcc:	000fb987          	fld	f19,0(x31)
    80014bd0:	c4460137          	lui	x2,0xc4460
    80014bd4:	3351011b          	addiw	x2,x2,821 # ffffffffc4460335 <tp_csr_storage+0xeee7f2f00b9335>
    80014bd8:	00e11113          	slli	x2,x2,0xe
    80014bdc:	3a710113          	addi	x2,x2,935
    80014be0:	00c11113          	slli	x2,x2,0xc
    80014be4:	00013383          	ld	x7,0(x2)
    80014be8:	00047fb7          	lui	x31,0x47
    80014bec:	f5ff8f9b          	addiw	x31,x31,-161 # 46f5f <_all_interrupts+0x444b5>
    80014bf0:	00ef9f93          	slli	x31,x31,0xe
    80014bf4:	0a0f8f93          	addi	x31,x31,160
    80014bf8:	00200f13          	li	x30,2
    80014bfc:	01efb023          	sd	x30,0(x31)
    80014c00:	000f0fb7          	lui	x31,0xf0
    80014c04:	001f8f9b          	addiw	x31,x31,1 # f0001 <SID_07_pm_disabled_s_hs_mode_stack+0x73001>
    80014c08:	00cf9f93          	slli	x31,x31,0xc
    80014c0c:	005f8f93          	addi	x31,x31,5
    80014c10:	00000073          	ecall

0000000080014c14 <SID_26_pm_different_tags_same_address_passed>:
    80014c14:	00f00f9b          	addiw	x31,x0,15
    80014c18:	01cf9f93          	slli	x31,x31,0x1c
    80014c1c:	001f8f93          	addi	x31,x31,1
    80014c20:	00000073          	ecall

0000000080014c24 <SID_27_pm_implicit_access>:
    80014c24:	c4460137          	lui	x2,0xc4460
    80014c28:	3351011b          	addiw	x2,x2,821 # ffffffffc4460335 <tp_csr_storage+0xeee7f2f00b9335>
    80014c2c:	00e11113          	slli	x2,x2,0xe
    80014c30:	3a710113          	addi	x2,x2,935
    80014c34:	00c11113          	slli	x2,x2,0xc
    80014c38:	00047fb7          	lui	x31,0x47
    80014c3c:	f5ff8f9b          	addiw	x31,x31,-161 # 46f5f <_all_interrupts+0x444b5>
    80014c40:	00ef9f93          	slli	x31,x31,0xe
    80014c44:	0a0f8f93          	addi	x31,x31,160
    80014c48:	00100f13          	li	x30,1
    80014c4c:	01efb023          	sd	x30,0(x31)
    80014c50:	000f0fb7          	lui	x31,0xf0
    80014c54:	001f8f9b          	addiw	x31,x31,1 # f0001 <SID_07_pm_disabled_s_hs_mode_stack+0x73001>
    80014c58:	00cf9f93          	slli	x31,x31,0xc
    80014c5c:	005f8f93          	addi	x31,x31,5
    80014c60:	00000073          	ecall
    80014c64:	00713023          	sd	x7,0(x2)
    80014c68:	009cc137          	lui	x2,0x9cc
    80014c6c:	000012b7          	lui	x5,0x1
    80014c70:	00510133          	add	x2,x2,x5
    80014c74:	ff017113          	andi	x2,x2,-16
    80014c78:	0010059b          	addiw	x11,x0,1
    80014c7c:	02159593          	slli	x11,x11,0x21
    80014c80:	10a5abf3          	csrrs	x23,0x10a,x11
    80014c84:	00040737          	lui	x14,0x40
    80014c88:	bb77071b          	addiw	x14,x14,-1097 # 3fbb7 <_all_interrupts+0x3d10d>
    80014c8c:	00e71713          	slli	x14,x14,0xe
    80014c90:	0de70713          	addi	x14,x14,222
    80014c94:	00482337          	lui	x6,0x482
    80014c98:	aa53031b          	addiw	x6,x6,-1371 # 481aa5 <SID_07_pm_disabled_s_hs_mode_stack+0x404aa5>
    80014c9c:	00c31313          	slli	x6,x6,0xc
    80014ca0:	d2070cd3          	fcvt.d.w	f25,x14
    80014ca4:	01933027          	fsd	f25,0(x6)
    80014ca8:	004827b7          	lui	x15,0x482
    80014cac:	aa57879b          	addiw	x15,x15,-1371 # 481aa5 <SID_07_pm_disabled_s_hs_mode_stack+0x404aa5>
    80014cb0:	00c79793          	slli	x15,x15,0xc
    80014cb4:	0007b907          	fld	f18,0(x15)
    80014cb8:	08942e37          	lui	x28,0x8942
    80014cbc:	075e0e1b          	addiw	x28,x28,117 # 8942075 <SID_25_pm_misaligned_access_stack+0x574075>
    80014cc0:	00ee1e13          	slli	x28,x28,0xe
    80014cc4:	000e00e7          	jalr	x28
    80014cc8:	c4460137          	lui	x2,0xc4460
    80014ccc:	3351011b          	addiw	x2,x2,821 # ffffffffc4460335 <tp_csr_storage+0xeee7f2f00b9335>
    80014cd0:	00e11113          	slli	x2,x2,0xe
    80014cd4:	3a710113          	addi	x2,x2,935
    80014cd8:	00c11113          	slli	x2,x2,0xc
    80014cdc:	00013383          	ld	x7,0(x2)
    80014ce0:	00047fb7          	lui	x31,0x47
    80014ce4:	f5ff8f9b          	addiw	x31,x31,-161 # 46f5f <_all_interrupts+0x444b5>
    80014ce8:	00ef9f93          	slli	x31,x31,0xe
    80014cec:	0a0f8f93          	addi	x31,x31,160
    80014cf0:	00200f13          	li	x30,2
    80014cf4:	01efb023          	sd	x30,0(x31)
    80014cf8:	000f0fb7          	lui	x31,0xf0
    80014cfc:	001f8f9b          	addiw	x31,x31,1 # f0001 <SID_07_pm_disabled_s_hs_mode_stack+0x73001>
    80014d00:	00cf9f93          	slli	x31,x31,0xc
    80014d04:	005f8f93          	addi	x31,x31,5
    80014d08:	00000073          	ecall

0000000080014d0c <SID_27_pm_implicit_access_passed>:
    80014d0c:	00f00f9b          	addiw	x31,x0,15
    80014d10:	01cf9f93          	slli	x31,x31,0x1c
    80014d14:	001f8f93          	addi	x31,x31,1
    80014d18:	00000073          	ecall

0000000080014d1c <SID_28_pm_faults_trap_values>:
    80014d1c:	c4460137          	lui	x2,0xc4460
    80014d20:	3351011b          	addiw	x2,x2,821 # ffffffffc4460335 <tp_csr_storage+0xeee7f2f00b9335>
    80014d24:	00e11113          	slli	x2,x2,0xe
    80014d28:	3a710113          	addi	x2,x2,935
    80014d2c:	00c11113          	slli	x2,x2,0xc
    80014d30:	00047fb7          	lui	x31,0x47
    80014d34:	f5ff8f9b          	addiw	x31,x31,-161 # 46f5f <_all_interrupts+0x444b5>
    80014d38:	00ef9f93          	slli	x31,x31,0xe
    80014d3c:	0a0f8f93          	addi	x31,x31,160
    80014d40:	00100f13          	li	x30,1
    80014d44:	01efb023          	sd	x30,0(x31)
    80014d48:	000f0fb7          	lui	x31,0xf0
    80014d4c:	001f8f9b          	addiw	x31,x31,1 # f0001 <SID_07_pm_disabled_s_hs_mode_stack+0x73001>
    80014d50:	00cf9f93          	slli	x31,x31,0xc
    80014d54:	005f8f93          	addi	x31,x31,5
    80014d58:	00000073          	ecall
    80014d5c:	00713023          	sd	x7,0(x2)
    80014d60:	72fc8137          	lui	x2,0x72fc8
    80014d64:	000012b7          	lui	x5,0x1
    80014d68:	00510133          	add	x2,x2,x5
    80014d6c:	ff017113          	andi	x2,x2,-16
    80014d70:	0010091b          	addiw	x18,x0,1
    80014d74:	02191913          	slli	x18,x18,0x21
    80014d78:	10a92bf3          	csrrs	x23,0x10a,x18
    80014d7c:	0badfa37          	lui	x20,0xbadf
    80014d80:	00da0a1b          	addiw	x20,x20,13 # badf00d <SID_01_senvcfg_pmm_warl_stack+0x1b9700d>
    80014d84:	0f80f237          	lui	x4,0xf80f
    80014d88:	df92021b          	addiw	x4,x4,-519 # f80edf9 <SID_01_senvcfg_pmm_warl_stack+0x58c6df9>
    80014d8c:	00d21213          	slli	x4,x4,0xd
    80014d90:	00f00e13          	li	x28,15
    80014d94:	05c23823          	sd	x28,80(x4) # 50 <XLEN+0x10>
    80014d98:	00000e17          	auipc	x28,0x0
    80014d9c:	054e0e13          	addi	x28,x28,84 # 80014dec <fault_label_2>
    80014da0:	03c23023          	sd	x28,32(x4) # 20 <SECURE_ACCESS_PROBABILITY+0x2>
    80014da4:	00000e13          	li	x28,0
    80014da8:	05c23023          	sd	x28,64(x4) # 40 <XLEN>
    80014dac:	00000e13          	li	x28,0
    80014db0:	05c23423          	sd	x28,72(x4) # 48 <XLEN+0x8>
    80014db4:	00000e17          	auipc	x28,0x0
    80014db8:	054e0e13          	addi	x28,x28,84 # 80014e08 <excp_return_label_2>
    80014dbc:	03c23823          	sd	x28,48(x4) # 30 <SECURE_ACCESS_PROBABILITY+0x12>
    80014dc0:	00000e13          	li	x28,0
    80014dc4:	03c23c23          	sd	x28,56(x4) # 38 <SECURE_ACCESS_PROBABILITY+0x1a>
    80014dc8:	00000e13          	li	x28,0
    80014dcc:	07c23023          	sd	x28,96(x4) # 60 <XLEN+0x20>
    80014dd0:	00000e13          	li	x28,0
    80014dd4:	07c23423          	sd	x28,104(x4) # 68 <FS_RANDOMIZATION+0x4>
    80014dd8:	00000e13          	li	x28,0
    80014ddc:	07c23823          	sd	x28,112(x4) # 70 <FS_RANDOMIZATION+0xc>
    80014de0:	5412edb7          	lui	x27,0x5412e
    80014de4:	82bd8d9b          	addiw	x27,x27,-2005 # 5412d82b <saplic_255+0x3382e82b>
    80014de8:	00ed9d93          	slli	x27,x27,0xe

0000000080014dec <fault_label_2>:
    80014dec:	014db023          	sd	x20,0(x27)
    80014df0:	000478b7          	lui	x17,0x47
    80014df4:	f5f8889b          	addiw	x17,x17,-161 # 46f5f <_all_interrupts+0x444b5>
    80014df8:	00e89893          	slli	x17,x17,0xe
    80014dfc:	00888893          	addi	x17,x17,8
    80014e00:	0008bc03          	ld	x24,0(x17)
    80014e04:	000c0067          	jr	x24

0000000080014e08 <excp_return_label_2>:
    80014e08:	c4460137          	lui	x2,0xc4460
    80014e0c:	3351011b          	addiw	x2,x2,821 # ffffffffc4460335 <tp_csr_storage+0xeee7f2f00b9335>
    80014e10:	00e11113          	slli	x2,x2,0xe
    80014e14:	3a710113          	addi	x2,x2,935
    80014e18:	00c11113          	slli	x2,x2,0xc
    80014e1c:	00013383          	ld	x7,0(x2)
    80014e20:	00047fb7          	lui	x31,0x47
    80014e24:	f5ff8f9b          	addiw	x31,x31,-161 # 46f5f <_all_interrupts+0x444b5>
    80014e28:	00ef9f93          	slli	x31,x31,0xe
    80014e2c:	0a0f8f93          	addi	x31,x31,160
    80014e30:	00200f13          	li	x30,2
    80014e34:	01efb023          	sd	x30,0(x31)
    80014e38:	000f0fb7          	lui	x31,0xf0
    80014e3c:	001f8f9b          	addiw	x31,x31,1 # f0001 <SID_07_pm_disabled_s_hs_mode_stack+0x73001>
    80014e40:	00cf9f93          	slli	x31,x31,0xc
    80014e44:	005f8f93          	addi	x31,x31,5
    80014e48:	00000073          	ecall

0000000080014e4c <SID_28_pm_faults_trap_values_passed>:
    80014e4c:	00f00f9b          	addiw	x31,x0,15
    80014e50:	01cf9f93          	slli	x31,x31,0x1c
    80014e54:	001f8f93          	addi	x31,x31,1
    80014e58:	00000073          	ecall

0000000080014e5c <SID_29_pm_xtvec_tagged_address>:
    80014e5c:	c4460137          	lui	x2,0xc4460
    80014e60:	3351011b          	addiw	x2,x2,821 # ffffffffc4460335 <tp_csr_storage+0xeee7f2f00b9335>
    80014e64:	00e11113          	slli	x2,x2,0xe
    80014e68:	3a710113          	addi	x2,x2,935
    80014e6c:	00c11113          	slli	x2,x2,0xc
    80014e70:	00047fb7          	lui	x31,0x47
    80014e74:	f5ff8f9b          	addiw	x31,x31,-161 # 46f5f <_all_interrupts+0x444b5>
    80014e78:	00ef9f93          	slli	x31,x31,0xe
    80014e7c:	0a0f8f93          	addi	x31,x31,160
    80014e80:	00100f13          	li	x30,1
    80014e84:	01efb023          	sd	x30,0(x31)
    80014e88:	000f0fb7          	lui	x31,0xf0
    80014e8c:	001f8f9b          	addiw	x31,x31,1 # f0001 <SID_07_pm_disabled_s_hs_mode_stack+0x73001>
    80014e90:	00cf9f93          	slli	x31,x31,0xc
    80014e94:	005f8f93          	addi	x31,x31,5
    80014e98:	00000073          	ecall
    80014e9c:	00713023          	sd	x7,0(x2)
    80014ea0:	00047fb7          	lui	x31,0x47
    80014ea4:	f5ff8f9b          	addiw	x31,x31,-161 # 46f5f <_all_interrupts+0x444b5>
    80014ea8:	00ef9f93          	slli	x31,x31,0xe
    80014eac:	0a0f8f93          	addi	x31,x31,160
    80014eb0:	01f00f13          	li	x30,31
    80014eb4:	01efb023          	sd	x30,0(x31)
    80014eb8:	000f0fb7          	lui	x31,0xf0
    80014ebc:	001f8f9b          	addiw	x31,x31,1 # f0001 <SID_07_pm_disabled_s_hs_mode_stack+0x73001>
    80014ec0:	00cf9f93          	slli	x31,x31,0xc
    80014ec4:	005f8f93          	addi	x31,x31,5
    80014ec8:	00000073          	ecall
    80014ecc:	00713423          	sd	x7,8(x2)
    80014ed0:	7113e137          	lui	x2,0x7113e
    80014ed4:	000012b7          	lui	x5,0x1
    80014ed8:	00510133          	add	x2,x2,x5
    80014edc:	ff017113          	andi	x2,x2,-16
    80014ee0:	0010071b          	addiw	x14,x0,1
    80014ee4:	02171713          	slli	x14,x14,0x21
    80014ee8:	10a72e73          	csrrs	x28,0x10a,x14
    80014eec:	00013c37          	lui	x24,0x13
    80014ef0:	105c1df3          	csrrw	x27,stvec,x24
    80014ef4:	10502e73          	csrr	x28,stvec
    80014ef8:	c4460137          	lui	x2,0xc4460
    80014efc:	3351011b          	addiw	x2,x2,821 # ffffffffc4460335 <tp_csr_storage+0xeee7f2f00b9335>
    80014f00:	00e11113          	slli	x2,x2,0xe
    80014f04:	3a710113          	addi	x2,x2,935
    80014f08:	00c11113          	slli	x2,x2,0xc
    80014f0c:	00013383          	ld	x7,0(x2)
    80014f10:	00047fb7          	lui	x31,0x47
    80014f14:	f5ff8f9b          	addiw	x31,x31,-161 # 46f5f <_all_interrupts+0x444b5>
    80014f18:	00ef9f93          	slli	x31,x31,0xe
    80014f1c:	0a0f8f93          	addi	x31,x31,160
    80014f20:	00200f13          	li	x30,2
    80014f24:	01efb023          	sd	x30,0(x31)
    80014f28:	000f0fb7          	lui	x31,0xf0
    80014f2c:	001f8f9b          	addiw	x31,x31,1 # f0001 <SID_07_pm_disabled_s_hs_mode_stack+0x73001>
    80014f30:	00cf9f93          	slli	x31,x31,0xc
    80014f34:	005f8f93          	addi	x31,x31,5
    80014f38:	00000073          	ecall
    80014f3c:	00813383          	ld	x7,8(x2)
    80014f40:	00047fb7          	lui	x31,0x47
    80014f44:	f5ff8f9b          	addiw	x31,x31,-161 # 46f5f <_all_interrupts+0x444b5>
    80014f48:	00ef9f93          	slli	x31,x31,0xe
    80014f4c:	0a0f8f93          	addi	x31,x31,160
    80014f50:	02100f13          	li	x30,33
    80014f54:	01efb023          	sd	x30,0(x31)
    80014f58:	000f0fb7          	lui	x31,0xf0
    80014f5c:	001f8f9b          	addiw	x31,x31,1 # f0001 <SID_07_pm_disabled_s_hs_mode_stack+0x73001>
    80014f60:	00cf9f93          	slli	x31,x31,0xc
    80014f64:	005f8f93          	addi	x31,x31,5
    80014f68:	00000073          	ecall

0000000080014f6c <SID_29_pm_xtvec_tagged_address_passed>:
    80014f6c:	00f00f9b          	addiw	x31,x0,15
    80014f70:	01cf9f93          	slli	x31,x31,0x1c
    80014f74:	001f8f93          	addi	x31,x31,1
    80014f78:	00000073          	ecall

0000000080014f7c <test_cleanup>:
    80014f7c:	00f00f9b          	addiw	x31,x0,15
    80014f80:	01cf9f93          	slli	x31,x31,0x1c
    80014f84:	001f8f93          	addi	x31,x31,1
    80014f88:	00000073          	ecall

0000000080014f8c <local_test_failed>:
    80014f8c:	00f00f9b          	addiw	x31,x0,15
    80014f90:	01cf9f93          	slli	x31,x31,0x1c
    80014f94:	002f8f93          	addi	x31,x31,2
    80014f98:	00000073          	ecall

Disassembly of section .csr_machine_0:

0000000080214000 <csr_access_senvcfg_supervisor_key_2_write-0xa8>:
    80214000:	22ee6fb7          	lui	x31,0x22ee6
    80214004:	613f8f9b          	addiw	x31,x31,1555 # 22ee6613 <saplic_255+0x25e7613>
    80214008:	00ef9f93          	slli	x31,x31,0xe
    8021400c:	0a0f8f93          	addi	x31,x31,160
    80214010:	000fbf83          	ld	x31,0(x31)
    80214014:	00200293          	li	x5,2
    80214018:	085f8863          	beq	x31,x5,802140a8 <csr_access_senvcfg_supervisor_key_2_write>
    8021401c:	00100293          	li	x5,1
    80214020:	085f8863          	beq	x31,x5,802140b0 <csr_access_senvcfg_supervisor_key_1_read>
    80214024:	00500293          	li	x5,5
    80214028:	085f8863          	beq	x31,x5,802140b8 <csr_access_henvcfg_supervisor_key_5_write>
    8021402c:	00300293          	li	x5,3
    80214030:	085f8863          	beq	x31,x5,802140c0 <csr_access_henvcfg_supervisor_key_3_read>
    80214034:	00600293          	li	x5,6
    80214038:	085f8863          	beq	x31,x5,802140c8 <csr_access_hstatus_supervisor_key_6_write>
    8021403c:	00400293          	li	x5,4
    80214040:	085f8863          	beq	x31,x5,802140d0 <csr_access_hstatus_supervisor_key_4_read>
    80214044:	00900293          	li	x5,9
    80214048:	085f8863          	beq	x31,x5,802140d8 <csr_access_menvcfg_machine_key_9_write>
    8021404c:	00700293          	li	x5,7
    80214050:	085f8863          	beq	x31,x5,802140e0 <csr_access_menvcfg_machine_key_7_read>
    80214054:	00b00293          	li	x5,11
    80214058:	085f8863          	beq	x31,x5,802140e8 <csr_access_menvcfg_machine_key_11_set>
    8021405c:	00800293          	li	x5,8
    80214060:	085f8863          	beq	x31,x5,802140f0 <csr_access_menvcfg_machine_key_8_clear>
    80214064:	01000293          	li	x5,16
    80214068:	085f8863          	beq	x31,x5,802140f8 <csr_access_mstatus_machine_key_16_write>
    8021406c:	00d00293          	li	x5,13
    80214070:	085f8863          	beq	x31,x5,80214100 <csr_access_mstatus_machine_key_13_read>
    80214074:	00f00293          	li	x5,15
    80214078:	085f8863          	beq	x31,x5,80214108 <csr_access_mstatus_machine_key_15_set>
    8021407c:	02200293          	li	x5,34
    80214080:	085f8863          	beq	x31,x5,80214110 <csr_access_mstatus_machine_key_34_clear>
    80214084:	02100293          	li	x5,33
    80214088:	085f8863          	beq	x31,x5,80214118 <csr_access_stvec_supervisor_key_33_write>
    8021408c:	01f00293          	li	x5,31
    80214090:	085f8863          	beq	x31,x5,80214120 <csr_access_stvec_supervisor_key_31_read>
    80214094:	02400293          	li	x5,36
    80214098:	085f8863          	beq	x31,x5,80214128 <csr_access_mtvec_machine_key_36_set>
    8021409c:	02300293          	li	x5,35
    802140a0:	085f8863          	beq	x31,x5,80214130 <csr_access_mtvec_machine_key_35_clear>
    802140a4:	0940006f          	j	80214138 <end_machine_label>

00000000802140a8 <csr_access_senvcfg_supervisor_key_2_write>:
    802140a8:	10a39073          	csrw	0x10a,x7
    802140ac:	08c0006f          	j	80214138 <end_machine_label>

00000000802140b0 <csr_access_senvcfg_supervisor_key_1_read>:
    802140b0:	10a023f3          	csrr	x7,0x10a
    802140b4:	0840006f          	j	80214138 <end_machine_label>

00000000802140b8 <csr_access_henvcfg_supervisor_key_5_write>:
    802140b8:	60a39073          	csrw	henvcfg,x7
    802140bc:	07c0006f          	j	80214138 <end_machine_label>

00000000802140c0 <csr_access_henvcfg_supervisor_key_3_read>:
    802140c0:	60a023f3          	csrr	x7,henvcfg
    802140c4:	0740006f          	j	80214138 <end_machine_label>

00000000802140c8 <csr_access_hstatus_supervisor_key_6_write>:
    802140c8:	60039073          	csrw	hstatus,x7
    802140cc:	06c0006f          	j	80214138 <end_machine_label>

00000000802140d0 <csr_access_hstatus_supervisor_key_4_read>:
    802140d0:	600023f3          	csrr	x7,hstatus
    802140d4:	0640006f          	j	80214138 <end_machine_label>

00000000802140d8 <csr_access_menvcfg_machine_key_9_write>:
    802140d8:	30a39073          	csrw	0x30a,x7
    802140dc:	05c0006f          	j	80214138 <end_machine_label>

00000000802140e0 <csr_access_menvcfg_machine_key_7_read>:
    802140e0:	30a023f3          	csrr	x7,0x30a
    802140e4:	0540006f          	j	80214138 <end_machine_label>

00000000802140e8 <csr_access_menvcfg_machine_key_11_set>:
    802140e8:	30a3a073          	csrs	0x30a,x7
    802140ec:	04c0006f          	j	80214138 <end_machine_label>

00000000802140f0 <csr_access_menvcfg_machine_key_8_clear>:
    802140f0:	30a3b073          	csrc	0x30a,x7
    802140f4:	0440006f          	j	80214138 <end_machine_label>

00000000802140f8 <csr_access_mstatus_machine_key_16_write>:
    802140f8:	30039073          	csrw	mstatus,x7
    802140fc:	03c0006f          	j	80214138 <end_machine_label>

0000000080214100 <csr_access_mstatus_machine_key_13_read>:
    80214100:	300023f3          	csrr	x7,mstatus
    80214104:	0340006f          	j	80214138 <end_machine_label>

0000000080214108 <csr_access_mstatus_machine_key_15_set>:
    80214108:	3003a073          	csrs	mstatus,x7
    8021410c:	02c0006f          	j	80214138 <end_machine_label>

0000000080214110 <csr_access_mstatus_machine_key_34_clear>:
    80214110:	3003b073          	csrc	mstatus,x7
    80214114:	0240006f          	j	80214138 <end_machine_label>

0000000080214118 <csr_access_stvec_supervisor_key_33_write>:
    80214118:	10539073          	csrw	stvec,x7
    8021411c:	01c0006f          	j	80214138 <end_machine_label>

0000000080214120 <csr_access_stvec_supervisor_key_31_read>:
    80214120:	105023f3          	csrr	x7,stvec
    80214124:	0140006f          	j	80214138 <end_machine_label>

0000000080214128 <csr_access_mtvec_machine_key_36_set>:
    80214128:	3053a073          	csrs	mtvec,x7
    8021412c:	00c0006f          	j	80214138 <end_machine_label>

0000000080214130 <csr_access_mtvec_machine_key_35_clear>:
    80214130:	3053b073          	csrc	mtvec,x7
    80214134:	0040006f          	j	80214138 <end_machine_label>

0000000080214138 <end_machine_label>:
    80214138:	000f0fb7          	lui	x31,0xf0
    8021413c:	001f8f9b          	addiw	x31,x31,1 # f0001 <SID_07_pm_disabled_s_hs_mode_stack+0x73001>
    80214140:	00cf9f93          	slli	x31,x31,0xc
    80214144:	004f8f93          	addi	x31,x31,4
    80214148:	00000073          	ecall

Disassembly of section .csr_super_0:

0000000080215000 <end_super_label-0x18>:
    80215000:	00047fb7          	lui	x31,0x47
    80215004:	f5ff8f9b          	addiw	x31,x31,-161 # 46f5f <_all_interrupts+0x444b5>
    80215008:	00ef9f93          	slli	x31,x31,0xe
    8021500c:	0a8f8f93          	addi	x31,x31,168
    80215010:	000fbf83          	ld	x31,0(x31)
    80215014:	0040006f          	j	80215018 <end_super_label>

0000000080215018 <end_super_label>:
    80215018:	000f0fb7          	lui	x31,0xf0
    8021501c:	001f8f9b          	addiw	x31,x31,1 # f0001 <SID_07_pm_disabled_s_hs_mode_stack+0x73001>
    80215020:	00cf9f93          	slli	x31,x31,0xc
    80215024:	004f8f93          	addi	x31,x31,4
    80215028:	00000073          	ecall

Disassembly of section .os_data:

000000011bd7c000 <passed_addr_ptr>:
   11bd7c000:	40a0                	.insn	2, 0x40a0
   11bd7c002:	8001                	.insn	2, 0x8001
   11bd7c004:	0000                	.insn	2, 0x0000
	...

000000011bd7c008 <failed_addr_ptr>:
   11bd7c008:	40b0                	.insn	2, 0x40b0
   11bd7c00a:	8001                	.insn	2, 0x8001
   11bd7c00c:	0000                	.insn	2, 0x0000
	...

000000011bd7c010 <end_test_addr_ptr>:
   11bd7c010:	40c0                	.insn	2, 0x40c0
   11bd7c012:	8001                	.insn	2, 0x8001
   11bd7c014:	0000                	.insn	2, 0x0000
	...

000000011bd7c018 <os_passed_addr_ptr>:
   11bd7c018:	0988                	.insn	2, 0x0988
   11bd7c01a:	8000                	.insn	2, 0x8000
   11bd7c01c:	0000                	.insn	2, 0x0000
	...

000000011bd7c020 <os_failed_addr_ptr>:
   11bd7c020:	0998                	.insn	2, 0x0998
   11bd7c022:	8000                	.insn	2, 0x8000
   11bd7c024:	0000                	.insn	2, 0x0000
	...

000000011bd7c028 <os_end_test_addr_ptr>:
   11bd7c028:	09a4                	.insn	2, 0x09a4
   11bd7c02a:	8000                	.insn	2, 0x8000
   11bd7c02c:	0000                	.insn	2, 0x0000
	...

000000011bd7c030 <rvcp_prefix_str_data>:
   11bd7c030:	5652                	.insn	2, 0x5652
   11bd7c032:	203a5043          	fmadd.s	f0,f20,f3,f4,unknown
   11bd7c036:	6554                	.insn	2, 0x6554
   11bd7c038:	46207473          	csrrci	x8,0x462,0
   11bd7c03c:	6c69                	.insn	2, 0x6c69
   11bd7c03e:	2065                	.insn	2, 0x2065
	...

000000011bd7c041 <rvcp_testname_str_data>:
   11bd7c041:	7074                	.insn	2, 0x7074
   11bd7c043:	7a5f 706a 5f6d      	.insn	6, 0x5f6d706a7a5f
   11bd7c049:	0031                	.insn	2, 0x0031

000000011bd7c04b <rvcp_passed_str_data>:
   11bd7c04b:	4150                	.insn	2, 0x4150
   11bd7c04d:	44455353          	fround.h	f6,f10,unknown
	...

000000011bd7c052 <rvcp_failed_str_data>:
   11bd7c052:	4146                	.insn	2, 0x4146
   11bd7c054:	4c49                	.insn	2, 0x4c49
   11bd7c056:	4445                	.insn	2, 0x4445
	...

000000011bd7c059 <rvcp_space_str_data>:
   11bd7c059:	0020                	.insn	2, 0x0020

000000011bd7c05b <rvcp_newline_str_data>:
   11bd7c05b:	000a                	.insn	2, 0x000a
   11bd7c05d:	0000                	.insn	2, 0x0000
	...

000000011bd7c060 <excp_ignored_count_mem>:
	...

000000011bd7c068 <machine_flags_mem>:
	...

000000011bd7c070 <user_flags_mem>:
	...

000000011bd7c078 <super_flags_mem>:
	...

000000011bd7c080 <machine_area_mem>:
	...

000000011bd7c088 <user_area_mem>:
	...

000000011bd7c090 <super_area_mem>:
	...

000000011bd7c098 <zero_data_mem>:
	...

000000011bd7c0a0 <machine_csr_jump_table_flags_mem>:
	...

000000011bd7c0a8 <super_csr_jump_table_flags_mem>:
	...

000000011bd7c0b0 <pte_access_flags_mem>:
	...

000000011bd7c0c8 <num_harts_ended_mem>:
	...

000000011bd7c0d0 <num_hard_fails_mem>:
	...

Disassembly of section .hart_context:

000001f01dbf2000 <hart_context_0>:
 1f01dbf2000:	5000                	.insn	2, 0x5000
 1f01dbf2002:	9a9e                	.insn	2, 0x9a9e
 1f01dbf2004:	000033af          	amoadd.d	x7,x0,(x0)
	...
 1f01dbf2018:	0001                	.insn	2, 0x0001
 1f01dbf201a:	0000                	.insn	2, 0x0000
 1f01dbf201c:	0000                	.insn	2, 0x0000
 1f01dbf201e:	0000                	.insn	2, 0x0000
 1f01dbf2020:	ffff                	.insn	2, 0xffff
 1f01dbf2022:	ffff                	.insn	2, 0xffff
 1f01dbf2024:	ffff                	.insn	2, 0xffff
 1f01dbf2026:	ffff                	.insn	2, 0xffff
 1f01dbf2028:	ffff                	.insn	2, 0xffff
 1f01dbf202a:	ffff                	.insn	2, 0xffff
 1f01dbf202c:	ffff                	.insn	2, 0xffff
 1f01dbf202e:	ffff                	.insn	2, 0xffff
 1f01dbf2030:	ffff                	.insn	2, 0xffff
 1f01dbf2032:	ffff                	.insn	2, 0xffff
 1f01dbf2034:	ffff                	.insn	2, 0xffff
 1f01dbf2036:	ffff                	.insn	2, 0xffff
	...
 1f01dbf2050:	00ff 0000 0000 0000 	.insn	10, 0x00ff00000000000000ff
 1f01dbf2058:	00ff 
	...
 1f01dbf2176:	0000                	.insn	2, 0x0000
 1f01dbf2178:	ffff                	.insn	2, 0xffff
 1f01dbf217a:	ffff                	.insn	2, 0xffff
 1f01dbf217c:	ffff                	.insn	2, 0xffff
 1f01dbf217e:	ffff                	.insn	2, 0xffff
	...
 1f01dbf2198:	ffff                	.insn	2, 0xffff
 1f01dbf219a:	ffff                	.insn	2, 0xffff
	...

Disassembly of section .hart_stack_0:

000033af9a9e4000 <hart_stack_0>:
	...

Disassembly of section .io_htif:

0000000070000000 <tohost>:
	...

0000000070000040 <fromhost>:
	...

Disassembly of section .code_mem8:

00000225081d4000 <.code_mem8>:
 225081d4000:	0020d497          	auipc	x9,0x20d
 225081d4004:	00008067          	ret

Disassembly of section .mem0:

0017c5c4820bf000 <.mem0>:
  17c5c4820bf000:	c0de                	.insn	2, 0xc0de
  17c5c4820bf002:	c001                	.insn	2, 0xc001
  17c5c4820bf004:	0000                	.insn	2, 0x0000
	...

Disassembly of section .mem1:

001e01c3f4324000 <.mem1>:
  1e01c3f4324000:	c0de                	.insn	2, 0xc0de
  1e01c3f4324002:	c001                	.insn	2, 0xc001
  1e01c3f4324004:	0000                	.insn	2, 0x0000
	...

Disassembly of section .mem2:

00d77dd157245000 <.mem2>:
  d77dd157245000:	c0de                	.insn	2, 0xc0de
  d77dd157245002:	c001                	.insn	2, 0xc001
  d77dd157245004:	0000                	.insn	2, 0x0000
	...

Disassembly of section .mem3:

000000000058d000 <.mem3>:
  58d000:	c0de                	.insn	2, 0xc0de
  58d002:	c001                	.insn	2, 0xc001
  58d004:	0000                	.insn	2, 0x0000
	...

Disassembly of section .mem4:

00003bcc5ae3a000 <.mem4>:
    3bcc5ae3a000:	c0de                	.insn	2, 0xc0de
    3bcc5ae3a002:	c001                	.insn	2, 0xc001
    3bcc5ae3a004:	0000                	.insn	2, 0x0000
	...

Disassembly of section .mem5:

00000000083cc000 <.mem5>:
 83cc000:	c0de                	.insn	2, 0xc0de
 83cc002:	c001                	.insn	2, 0xc001
 83cc004:	0000                	.insn	2, 0x0000
	...

Disassembly of section .mem6:

0000d379c71d5000 <.mem6>:
    d379c71d5000:	c0de                	.insn	2, 0xc0de
    d379c71d5002:	c001                	.insn	2, 0xc001
    d379c71d5004:	0000                	.insn	2, 0x0000
	...

Disassembly of section .mem7:

0000000481aa5000 <.mem7>:
   481aa5000:	c0de                	.insn	2, 0xc0de
   481aa5002:	c001                	.insn	2, 0xc001
   481aa5004:	0000                	.insn	2, 0x0000
	...

Disassembly of section .mem9:

00001504b60ac000 <.mem9>:
    1504b60ac000:	c0de                	.insn	2, 0xc0de
    1504b60ac002:	c001                	.insn	2, 0xc001
    1504b60ac004:	0000                	.insn	2, 0x0000
	...

Disassembly of section .tp_csr_storage:

ff11180cd43a7000 <.tp_csr_storage>:
ff11180cd43a7000:	c0de                	.insn	2, 0xc0de
ff11180cd43a7002:	c001                	.insn	2, 0xc001
ff11180cd43a7004:	0000                	.insn	2, 0x0000
	...

Disassembly of section .SID_01_senvcfg_pmm_warl_stack:

0000000009f48000 <.SID_01_senvcfg_pmm_warl_stack>:
 9f48000:	c0de                	.insn	2, 0xc0de
 9f48002:	c001                	.insn	2, 0xc001
 9f48004:	0000                	.insn	2, 0x0000
	...

Disassembly of section .SID_02_henvcfg_hstatus_pmm_warl_stack:

0000021a7eb0b000 <.SID_02_henvcfg_hstatus_pmm_warl_stack>:
 21a7eb0b000:	c0de                	.insn	2, 0xc0de
 21a7eb0b002:	c001                	.insn	2, 0xc001
 21a7eb0b004:	0000                	.insn	2, 0x0000
	...

Disassembly of section .SID_07_pm_disabled_s_hs_mode_stack:

000000000007d000 <.SID_07_pm_disabled_s_hs_mode_stack>:
   7d000:	c0de                	.insn	2, 0xc0de
   7d002:	c001                	.insn	2, 0xc001
   7d004:	0000                	.insn	2, 0x0000
	...

Disassembly of section .SID_11_pm_enabled_s_hs_mode_stack:

002a8fb36c793000 <.SID_11_pm_enabled_s_hs_mode_stack>:
  2a8fb36c793000:	c0de                	.insn	2, 0xc0de
  2a8fb36c793002:	c001                	.insn	2, 0xc001
  2a8fb36c793004:	0000                	.insn	2, 0x0000
	...

Disassembly of section .SID_22_pm_disabled_mxr_set_stack:

000000a931a64000 <.SID_22_pm_disabled_mxr_set_stack>:
  a931a64000:	c0de                	.insn	2, 0xc0de
  a931a64002:	c001                	.insn	2, 0xc001
  a931a64004:	0000                	.insn	2, 0x0000
	...

Disassembly of section .SID_23_pm_invalidation_instructions_stack:

0000021bbc9bb000 <.SID_23_pm_invalidation_instructions_stack>:
 21bbc9bb000:	c0de                	.insn	2, 0xc0de
 21bbc9bb002:	c001                	.insn	2, 0xc001
 21bbc9bb004:	0000                	.insn	2, 0x0000
	...

Disassembly of section .SID_24_pm_instruction_set_stack:

0000731593357000 <.SID_24_pm_instruction_set_stack>:
    731593357000:	c0de                	.insn	2, 0xc0de
    731593357002:	c001                	.insn	2, 0xc001
    731593357004:	0000                	.insn	2, 0x0000
	...

Disassembly of section .SID_25_pm_misaligned_access_stack:

00000000083ce000 <.SID_25_pm_misaligned_access_stack>:
 83ce000:	c0de                	.insn	2, 0xc0de
 83ce002:	c001                	.insn	2, 0xc001
 83ce004:	0000                	.insn	2, 0x0000
	...

Disassembly of section .SID_26_pm_different_tags_same_address_stack:

0000073bc6f77000 <.SID_26_pm_different_tags_same_address_stack>:
 73bc6f77000:	c0de                	.insn	2, 0xc0de
 73bc6f77002:	c001                	.insn	2, 0xc001
 73bc6f77004:	0000                	.insn	2, 0x0000
	...

Disassembly of section .SID_27_pm_implicit_access_stack:

00000000009cc000 <.SID_27_pm_implicit_access_stack>:
  9cc000:	c0de                	.insn	2, 0xc0de
  9cc002:	c001                	.insn	2, 0xc001
  9cc004:	0000                	.insn	2, 0x0000
	...

Disassembly of section .SID_28_pm_faults_trap_values_stack:

0000000072fc8000 <.SID_28_pm_faults_trap_values_stack>:
    72fc8000:	c0de                	.insn	2, 0xc0de
    72fc8002:	c001                	.insn	2, 0xc001
    72fc8004:	0000                	.insn	2, 0x0000
	...

Disassembly of section .SID_29_pm_xtvec_tagged_address_stack:

000000007113e000 <.SID_29_pm_xtvec_tagged_address_stack>:
    7113e000:	c0de                	.insn	2, 0xc0de
    7113e002:	c001                	.insn	2, 0xc001
    7113e004:	0000                	.insn	2, 0x0000
	...

Disassembly of section .__pagetable_map_os_0x000000037cee2000:

000000037cee2000 <__pagetable_map_os_0x000000037cee2000>:
   37cee2000:	d401                	.insn	2, 0xd401
   37cee2002:	b276                	.insn	2, 0xb276
   37cee2004:	2265                	.insn	2, 0x2265
	...
   37cee20b6:	0000                	.insn	2, 0x0000
   37cee20b8:	9001                	.insn	2, 0x9001
   37cee20ba:	391d                	.insn	2, 0x391d
	...
   37cee20f0:	a401                	.insn	2, 0xa401
   37cee20f2:	48f4                	.insn	2, 0x48f4
   37cee20f4:	0005                	.insn	2, 0x0005
	...
   37cee214e:	0000                	.insn	2, 0x0000
   37cee2150:	c801                	.insn	2, 0xc801
   37cee2152:	48c27933          	.insn	4, 0x48c27933
	...
   37cee26b6:	0000                	.insn	2, 0x0000
   37cee26b8:	f401                	.insn	2, 0xf401
   37cee26ba:	4d78                	.insn	2, 0x4d78
   37cee26bc:	001d                	.insn	2, 0x001d
	...
   37cee2886:	0000                	.insn	2, 0x0000
   37cee2888:	f401                	.insn	2, 0xf401
   37cee288a:	828c                	.insn	2, 0x828c
   37cee288c:	00000023          	sb	x0,0(x0) # 0 <ALL_4KB_PAGES>

Disassembly of section .__pagetable_map_os_0x00008996c9db5000:

00008996c9db5000 <__pagetable_map_os_0x00008996c9db5000>:
    8996c9db5000:	4001                	.insn	2, 0x4001
    8996c9db5002:	6c00                	.insn	2, 0x6c00
    8996c9db5004:	0904                	.insn	2, 0x0904
    8996c9db5006:	0000                	.insn	2, 0x0000
    8996c9db5008:	0c01                	.insn	2, 0x0c01
    8996c9db500a:	7dd5                	.insn	2, 0x7dd5
    8996c9db500c:	afc0                	.insn	2, 0xafc0
    8996c9db500e:	0001                	.insn	2, 0x0001
	...
    8996c9db5018:	4401                	.insn	2, 0x4401
    8996c9db501a:	00006313          	ori	x6,x0,0
    8996c9db501e:	0000                	.insn	2, 0x0000
    8996c9db5020:	a801                	.insn	2, 0xa801
    8996c9db5022:	0d04                	.insn	2, 0x0d04
    8996c9db5024:	0002                	.insn	2, 0x0002
	...
    8996c9db506e:	0000                	.insn	2, 0x0000
    8996c9db5070:	6801                	.insn	2, 0x6801
    8996c9db5072:	a2df 00d9 0000      	.insn	6, 0x00d9a2df
	...
    8996c9db5150:	0801                	.insn	2, 0x0801
    8996c9db5152:	fca4                	.insn	2, 0xfca4
	...
    8996c9db5338:	9801                	.insn	2, 0x9801
    8996c9db533a:	0034d1d3          	fadd.s	f3,f9,f3,unknown
	...
    8996c9db53b6:	0000                	.insn	2, 0x0000
    8996c9db53b8:	b401                	.insn	2, 0xb401
    8996c9db53ba:	7d30                	.insn	2, 0x7d30
    8996c9db53bc:	0368                	.insn	2, 0x0368
	...
    8996c9db572e:	0000                	.insn	2, 0x0000
    8996c9db5730:	1c01                	.insn	2, 0x1c01
    8996c9db5732:	00002763          	.insn	4, 0x2763
	...
    8996c9db5d2e:	0000                	.insn	2, 0x0000
    8996c9db5d30:	8c01                	.insn	2, 0x8c01
    8996c9db5d32:	fb2d                	.insn	2, 0xfb2d
    8996c9db5d34:	00000007          	vle8.v	v0,(x0),v0.t

Disassembly of section .__pagetable_map_os_0x00002411b0010000:

00002411b0010000 <__pagetable_map_os_0x00002411b0010000>:
    2411b0010000:	5401                	.insn	2, 0x5401
    2411b0010002:	fdd4                	.insn	2, 0xfdd4
    2411b0010004:	0494                	.insn	2, 0x0494
    2411b0010006:	0000                	.insn	2, 0x0000
    2411b0010008:	7c01                	.insn	2, 0x7c01
    2411b001000a:	0468                	.insn	2, 0x0468
    2411b001000c:	0001                	.insn	2, 0x0001
    2411b001000e:	0000                	.insn	2, 0x0000
    2411b0010010:	8c01                	.insn	2, 0x8c01
    2411b0010012:	b899                	.insn	2, 0xb899
    2411b0010014:	0002                	.insn	2, 0x0002
	...
    2411b001001e:	0000                	.insn	2, 0x0000
    2411b0010020:	e401                	.insn	2, 0xe401
    2411b0010022:	941e                	.insn	2, 0x941e
    2411b0010024:	0000013f 00000000 	.insn	8, 0x013f
	...
    2411b0010068:	8401                	.insn	2, 0x8401
    2411b001006a:	496f7a0f          	.insn	4, 0x496f7a0f
    2411b001006e:	00000003          	lb	x0,0(x0) # 0 <ALL_4KB_PAGES>
	...
    2411b001008e:	0000                	.insn	2, 0x0000
    2411b0010090:	cc01                	.insn	2, 0xcc01
    2411b0010092:	6975                	.insn	2, 0x6975
    2411b0010094:	0169                	.insn	2, 0x0169
	...
    2411b0010776:	0000                	.insn	2, 0x0000
    2411b0010778:	e801                	.insn	2, 0xe801
    2411b001077a:	2f1f 0000 0000      	.insn	6, 0x2f1f

Disassembly of section .__pagetable_map_os_0x0000000ae2663000:

0000000ae2663000 <__pagetable_map_os_0x0000000ae2663000>:
   ae2663000:	b801                	.insn	2, 0xb801
   ae2663002:	c276                	.insn	2, 0xc276
   ae2663004:	0000036b          	.insn	4, 0x036b
   ae2663008:	5c01                	.insn	2, 0x5c01
   ae266300a:	275d                	.insn	2, 0x275d
   ae266300c:	0000                	.insn	2, 0x0000
	...

Disassembly of section .__pagetable_map_os_0x00000daf09dae000:

00000daf09dae000 <__pagetable_map_os_0x00000daf09dae000>:
	...
 daf09dae080:	200040cf          	fnmadd.s	f1,f0,f0,f4,rmm
 daf09dae084:	0000                	.insn	2, 0x0000
 daf09dae086:	0000                	.insn	2, 0x0000
 daf09dae088:	200044cf          	fnmadd.s	f9,f0,f0,f4,rmm
 daf09dae08c:	0000                	.insn	2, 0x0000
 daf09dae08e:	0000                	.insn	2, 0x0000
 daf09dae090:	200048cf          	fnmadd.s	f17,f0,f0,f4,rmm
 daf09dae094:	0000                	.insn	2, 0x0000
 daf09dae096:	0000                	.insn	2, 0x0000
 daf09dae098:	20004ccf          	fnmadd.s	f25,f0,f0,f4,rmm
 daf09dae09c:	0000                	.insn	2, 0x0000
 daf09dae09e:	0000                	.insn	2, 0x0000
 daf09dae0a0:	d19800cf          	fnmadd.s	f1,f16,f25,f26,rne
 daf09dae0a4:	0600                	.insn	2, 0x0600
 daf09dae0a6:	0000                	.insn	2, 0x0000
 daf09dae0a8:	d19804cf          	fnmadd.s	f9,f16,f25,f26,rne
 daf09dae0ac:	0600                	.insn	2, 0x0600
 daf09dae0ae:	0000                	.insn	2, 0x0000
 daf09dae0b0:	d19808cf          	fnmadd.s	f17,f16,f25,f26,rne
 daf09dae0b4:	0600                	.insn	2, 0x0600
 daf09dae0b6:	0000                	.insn	2, 0x0000
 daf09dae0b8:	d1980ccf          	fnmadd.s	f25,f16,f25,f26,rne
 daf09dae0bc:	0600                	.insn	2, 0x0600
 daf09dae0be:	0000                	.insn	2, 0x0000
 daf09dae0c0:	d19810cf          	fnmadd.s	f1,f16,f25,f26,rtz
 daf09dae0c4:	0600                	.insn	2, 0x0600
 daf09dae0c6:	0000                	.insn	2, 0x0000
 daf09dae0c8:	d19814cf          	fnmadd.s	f9,f16,f25,f26,rtz
 daf09dae0cc:	0600                	.insn	2, 0x0600
 daf09dae0ce:	0000                	.insn	2, 0x0000
 daf09dae0d0:	d19818cf          	fnmadd.s	f17,f16,f25,f26,rtz
 daf09dae0d4:	0600                	.insn	2, 0x0600
 daf09dae0d6:	0000                	.insn	2, 0x0000
 daf09dae0d8:	d1981ccf          	fnmadd.s	f25,f16,f25,f26,rtz
 daf09dae0dc:	0600                	.insn	2, 0x0600
 daf09dae0de:	0000                	.insn	2, 0x0000
 daf09dae0e0:	d19820cf          	fnmadd.s	f1,f16,f25,f26,rdn
 daf09dae0e4:	0600                	.insn	2, 0x0600
 daf09dae0e6:	0000                	.insn	2, 0x0000
 daf09dae0e8:	d19824cf          	fnmadd.s	f9,f16,f25,f26,rdn
 daf09dae0ec:	0600                	.insn	2, 0x0600
 daf09dae0ee:	0000                	.insn	2, 0x0000
 daf09dae0f0:	d19828cf          	fnmadd.s	f17,f16,f25,f26,rdn
 daf09dae0f4:	0600                	.insn	2, 0x0600
 daf09dae0f6:	0000                	.insn	2, 0x0000
 daf09dae0f8:	d1982ccf          	fnmadd.s	f25,f16,f25,f26,rdn
 daf09dae0fc:	0600                	.insn	2, 0x0600
 daf09dae0fe:	0000                	.insn	2, 0x0000
 daf09dae100:	d19830cf          	fnmadd.s	f1,f16,f25,f26,rup
 daf09dae104:	0600                	.insn	2, 0x0600
 daf09dae106:	0000                	.insn	2, 0x0000
 daf09dae108:	d19834cf          	fnmadd.s	f9,f16,f25,f26,rup
 daf09dae10c:	0600                	.insn	2, 0x0600
 daf09dae10e:	0000                	.insn	2, 0x0000
 daf09dae110:	d19838cf          	fnmadd.s	f17,f16,f25,f26,rup
 daf09dae114:	0600                	.insn	2, 0x0600
 daf09dae116:	0000                	.insn	2, 0x0000
 daf09dae118:	d1983ccf          	fnmadd.s	f25,f16,f25,f26,rup
 daf09dae11c:	0600                	.insn	2, 0x0600
 daf09dae11e:	0000                	.insn	2, 0x0000
 daf09dae120:	d19840cf          	fnmadd.s	f1,f16,f25,f26,rmm
 daf09dae124:	0600                	.insn	2, 0x0600
 daf09dae126:	0000                	.insn	2, 0x0000
 daf09dae128:	d19844cf          	fnmadd.s	f9,f16,f25,f26,rmm
 daf09dae12c:	0600                	.insn	2, 0x0600
 daf09dae12e:	0000                	.insn	2, 0x0000
 daf09dae130:	d19848cf          	fnmadd.s	f17,f16,f25,f26,rmm
 daf09dae134:	0600                	.insn	2, 0x0600
 daf09dae136:	0000                	.insn	2, 0x0000
 daf09dae138:	d1984ccf          	fnmadd.s	f25,f16,f25,f26,rmm
 daf09dae13c:	0600                	.insn	2, 0x0600
 daf09dae13e:	0000                	.insn	2, 0x0000
 daf09dae140:	d19850cf          	fnmadd.s	f1,f16,f25,f26,unknown
 daf09dae144:	0600                	.insn	2, 0x0600
 daf09dae146:	0000                	.insn	2, 0x0000
 daf09dae148:	d19854cf          	fnmadd.s	f9,f16,f25,f26,unknown
 daf09dae14c:	0600                	.insn	2, 0x0600
 daf09dae14e:	0000                	.insn	2, 0x0000
 daf09dae150:	d19858cf          	fnmadd.s	f17,f16,f25,f26,unknown
 daf09dae154:	0600                	.insn	2, 0x0600
 daf09dae156:	0000                	.insn	2, 0x0000
 daf09dae158:	d1985ccf          	fnmadd.s	f25,f16,f25,f26,unknown
 daf09dae15c:	0600                	.insn	2, 0x0600
 daf09dae15e:	0000                	.insn	2, 0x0000
 daf09dae160:	d19860cf          	fnmadd.s	f1,f16,f25,f26,unknown
 daf09dae164:	0600                	.insn	2, 0x0600
 daf09dae166:	0000                	.insn	2, 0x0000
 daf09dae168:	d19864cf          	fnmadd.s	f9,f16,f25,f26,unknown
 daf09dae16c:	0600                	.insn	2, 0x0600
 daf09dae16e:	0000                	.insn	2, 0x0000
 daf09dae170:	d19868cf          	fnmadd.s	f17,f16,f25,f26,unknown
 daf09dae174:	0600                	.insn	2, 0x0600
 daf09dae176:	0000                	.insn	2, 0x0000
 daf09dae178:	d1986ccf          	fnmadd.s	f25,f16,f25,f26,unknown
 daf09dae17c:	0600                	.insn	2, 0x0600
 daf09dae17e:	0000                	.insn	2, 0x0000
 daf09dae180:	d19870cf          	fnmadd.s	f1,f16,f25,f26
 daf09dae184:	0600                	.insn	2, 0x0600
 daf09dae186:	0000                	.insn	2, 0x0000
 daf09dae188:	d19874cf          	fnmadd.s	f9,f16,f25,f26
 daf09dae18c:	0600                	.insn	2, 0x0600
 daf09dae18e:	0000                	.insn	2, 0x0000
 daf09dae190:	d19878cf          	fnmadd.s	f17,f16,f25,f26
 daf09dae194:	0600                	.insn	2, 0x0600
 daf09dae196:	0000                	.insn	2, 0x0000
 daf09dae198:	d1987ccf          	fnmadd.s	f25,f16,f25,f26
 daf09dae19c:	0600                	.insn	2, 0x0600
 daf09dae19e:	0000                	.insn	2, 0x0000
 daf09dae1a0:	d19880cf          	fnmadd.s	f1,f17,f25,f26,rne
 daf09dae1a4:	0600                	.insn	2, 0x0600
 daf09dae1a6:	0000                	.insn	2, 0x0000
 daf09dae1a8:	d19884cf          	fnmadd.s	f9,f17,f25,f26,rne
 daf09dae1ac:	0600                	.insn	2, 0x0600
 daf09dae1ae:	0000                	.insn	2, 0x0000
 daf09dae1b0:	d19888cf          	fnmadd.s	f17,f17,f25,f26,rne
 daf09dae1b4:	0600                	.insn	2, 0x0600
 daf09dae1b6:	0000                	.insn	2, 0x0000
 daf09dae1b8:	d1988ccf          	fnmadd.s	f25,f17,f25,f26,rne
 daf09dae1bc:	0600                	.insn	2, 0x0600
 daf09dae1be:	0000                	.insn	2, 0x0000
 daf09dae1c0:	d19890cf          	fnmadd.s	f1,f17,f25,f26,rtz
 daf09dae1c4:	0600                	.insn	2, 0x0600
 daf09dae1c6:	0000                	.insn	2, 0x0000
 daf09dae1c8:	d19894cf          	fnmadd.s	f9,f17,f25,f26,rtz
 daf09dae1cc:	0600                	.insn	2, 0x0600
 daf09dae1ce:	0000                	.insn	2, 0x0000
 daf09dae1d0:	d19898cf          	fnmadd.s	f17,f17,f25,f26,rtz
 daf09dae1d4:	0600                	.insn	2, 0x0600
 daf09dae1d6:	0000                	.insn	2, 0x0000
 daf09dae1d8:	d1989ccf          	fnmadd.s	f25,f17,f25,f26,rtz
 daf09dae1dc:	0600                	.insn	2, 0x0600
 daf09dae1de:	0000                	.insn	2, 0x0000
 daf09dae1e0:	d198a0cf          	fnmadd.s	f1,f17,f25,f26,rdn
 daf09dae1e4:	0600                	.insn	2, 0x0600
 daf09dae1e6:	0000                	.insn	2, 0x0000
 daf09dae1e8:	d198a4cf          	fnmadd.s	f9,f17,f25,f26,rdn
 daf09dae1ec:	0600                	.insn	2, 0x0600
 daf09dae1ee:	0000                	.insn	2, 0x0000
 daf09dae1f0:	d198a8cf          	fnmadd.s	f17,f17,f25,f26,rdn
 daf09dae1f4:	0600                	.insn	2, 0x0600
 daf09dae1f6:	0000                	.insn	2, 0x0000
 daf09dae1f8:	d198accf          	fnmadd.s	f25,f17,f25,f26,rdn
 daf09dae1fc:	0600                	.insn	2, 0x0600
 daf09dae1fe:	0000                	.insn	2, 0x0000
 daf09dae200:	d198b0cf          	fnmadd.s	f1,f17,f25,f26,rup
 daf09dae204:	0600                	.insn	2, 0x0600
 daf09dae206:	0000                	.insn	2, 0x0000
 daf09dae208:	d198b4cf          	fnmadd.s	f9,f17,f25,f26,rup
 daf09dae20c:	0600                	.insn	2, 0x0600
 daf09dae20e:	0000                	.insn	2, 0x0000
 daf09dae210:	d198b8cf          	fnmadd.s	f17,f17,f25,f26,rup
 daf09dae214:	0600                	.insn	2, 0x0600
 daf09dae216:	0000                	.insn	2, 0x0000
 daf09dae218:	d198bccf          	fnmadd.s	f25,f17,f25,f26,rup
 daf09dae21c:	0600                	.insn	2, 0x0600
 daf09dae21e:	0000                	.insn	2, 0x0000
 daf09dae220:	d198c0cf          	fnmadd.s	f1,f17,f25,f26,rmm
 daf09dae224:	0600                	.insn	2, 0x0600
 daf09dae226:	0000                	.insn	2, 0x0000
 daf09dae228:	d198c4cf          	fnmadd.s	f9,f17,f25,f26,rmm
 daf09dae22c:	0600                	.insn	2, 0x0600
 daf09dae22e:	0000                	.insn	2, 0x0000
 daf09dae230:	d198c8cf          	fnmadd.s	f17,f17,f25,f26,rmm
 daf09dae234:	0600                	.insn	2, 0x0600
 daf09dae236:	0000                	.insn	2, 0x0000
 daf09dae238:	d198cccf          	fnmadd.s	f25,f17,f25,f26,rmm
 daf09dae23c:	0600                	.insn	2, 0x0600
 daf09dae23e:	0000                	.insn	2, 0x0000
 daf09dae240:	d198d0cf          	fnmadd.s	f1,f17,f25,f26,unknown
 daf09dae244:	0600                	.insn	2, 0x0600
 daf09dae246:	0000                	.insn	2, 0x0000
 daf09dae248:	d198d4cf          	fnmadd.s	f9,f17,f25,f26,unknown
 daf09dae24c:	0600                	.insn	2, 0x0600
 daf09dae24e:	0000                	.insn	2, 0x0000
 daf09dae250:	d198d8cf          	fnmadd.s	f17,f17,f25,f26,unknown
 daf09dae254:	0600                	.insn	2, 0x0600
 daf09dae256:	0000                	.insn	2, 0x0000
 daf09dae258:	d198dccf          	fnmadd.s	f25,f17,f25,f26,unknown
 daf09dae25c:	0600                	.insn	2, 0x0600
 daf09dae25e:	0000                	.insn	2, 0x0000
 daf09dae260:	d198e0cf          	fnmadd.s	f1,f17,f25,f26,unknown
 daf09dae264:	0600                	.insn	2, 0x0600
 daf09dae266:	0000                	.insn	2, 0x0000
 daf09dae268:	d198e4cf          	fnmadd.s	f9,f17,f25,f26,unknown
 daf09dae26c:	0600                	.insn	2, 0x0600
 daf09dae26e:	0000                	.insn	2, 0x0000
 daf09dae270:	d198e8cf          	fnmadd.s	f17,f17,f25,f26,unknown
 daf09dae274:	0600                	.insn	2, 0x0600
 daf09dae276:	0000                	.insn	2, 0x0000
 daf09dae278:	d198eccf          	fnmadd.s	f25,f17,f25,f26,unknown
 daf09dae27c:	0600                	.insn	2, 0x0600
 daf09dae27e:	0000                	.insn	2, 0x0000
 daf09dae280:	d198f0cf          	fnmadd.s	f1,f17,f25,f26
 daf09dae284:	0600                	.insn	2, 0x0600
 daf09dae286:	0000                	.insn	2, 0x0000
 daf09dae288:	d198f4cf          	fnmadd.s	f9,f17,f25,f26
 daf09dae28c:	0600                	.insn	2, 0x0600
 daf09dae28e:	0000                	.insn	2, 0x0000
 daf09dae290:	d198f8cf          	fnmadd.s	f17,f17,f25,f26
 daf09dae294:	0600                	.insn	2, 0x0600
 daf09dae296:	0000                	.insn	2, 0x0000
 daf09dae298:	d198fccf          	fnmadd.s	f25,f17,f25,f26
 daf09dae29c:	0600                	.insn	2, 0x0600
 daf09dae29e:	0000                	.insn	2, 0x0000
 daf09dae2a0:	d19900cf          	fnmadd.s	f1,f18,f25,f26,rne
 daf09dae2a4:	0600                	.insn	2, 0x0600
 daf09dae2a6:	0000                	.insn	2, 0x0000
 daf09dae2a8:	d19904cf          	fnmadd.s	f9,f18,f25,f26,rne
 daf09dae2ac:	0600                	.insn	2, 0x0600
 daf09dae2ae:	0000                	.insn	2, 0x0000
 daf09dae2b0:	d19908cf          	fnmadd.s	f17,f18,f25,f26,rne
 daf09dae2b4:	0600                	.insn	2, 0x0600
 daf09dae2b6:	0000                	.insn	2, 0x0000
 daf09dae2b8:	d1990ccf          	fnmadd.s	f25,f18,f25,f26,rne
 daf09dae2bc:	0600                	.insn	2, 0x0600
 daf09dae2be:	0000                	.insn	2, 0x0000
 daf09dae2c0:	d19910cf          	fnmadd.s	f1,f18,f25,f26,rtz
 daf09dae2c4:	0600                	.insn	2, 0x0600
 daf09dae2c6:	0000                	.insn	2, 0x0000
 daf09dae2c8:	d19914cf          	fnmadd.s	f9,f18,f25,f26,rtz
 daf09dae2cc:	0600                	.insn	2, 0x0600
 daf09dae2ce:	0000                	.insn	2, 0x0000
 daf09dae2d0:	d19918cf          	fnmadd.s	f17,f18,f25,f26,rtz
 daf09dae2d4:	0600                	.insn	2, 0x0600
 daf09dae2d6:	0000                	.insn	2, 0x0000
 daf09dae2d8:	d1991ccf          	fnmadd.s	f25,f18,f25,f26,rtz
 daf09dae2dc:	0600                	.insn	2, 0x0600
 daf09dae2de:	0000                	.insn	2, 0x0000
 daf09dae2e0:	d19920cf          	fnmadd.s	f1,f18,f25,f26,rdn
 daf09dae2e4:	0600                	.insn	2, 0x0600
 daf09dae2e6:	0000                	.insn	2, 0x0000
 daf09dae2e8:	d19924cf          	fnmadd.s	f9,f18,f25,f26,rdn
 daf09dae2ec:	0600                	.insn	2, 0x0600
 daf09dae2ee:	0000                	.insn	2, 0x0000
 daf09dae2f0:	d19928cf          	fnmadd.s	f17,f18,f25,f26,rdn
 daf09dae2f4:	0600                	.insn	2, 0x0600
 daf09dae2f6:	0000                	.insn	2, 0x0000
 daf09dae2f8:	d1992ccf          	fnmadd.s	f25,f18,f25,f26,rdn
 daf09dae2fc:	0600                	.insn	2, 0x0600
 daf09dae2fe:	0000                	.insn	2, 0x0000
 daf09dae300:	d19930cf          	fnmadd.s	f1,f18,f25,f26,rup
 daf09dae304:	0600                	.insn	2, 0x0600
 daf09dae306:	0000                	.insn	2, 0x0000
 daf09dae308:	d19934cf          	fnmadd.s	f9,f18,f25,f26,rup
 daf09dae30c:	0600                	.insn	2, 0x0600
 daf09dae30e:	0000                	.insn	2, 0x0000
 daf09dae310:	d19938cf          	fnmadd.s	f17,f18,f25,f26,rup
 daf09dae314:	0600                	.insn	2, 0x0600
 daf09dae316:	0000                	.insn	2, 0x0000
 daf09dae318:	d1993ccf          	fnmadd.s	f25,f18,f25,f26,rup
 daf09dae31c:	0600                	.insn	2, 0x0600
 daf09dae31e:	0000                	.insn	2, 0x0000
 daf09dae320:	d19940cf          	fnmadd.s	f1,f18,f25,f26,rmm
 daf09dae324:	0600                	.insn	2, 0x0600
 daf09dae326:	0000                	.insn	2, 0x0000
 daf09dae328:	d19944cf          	fnmadd.s	f9,f18,f25,f26,rmm
 daf09dae32c:	0600                	.insn	2, 0x0600
 daf09dae32e:	0000                	.insn	2, 0x0000
 daf09dae330:	d19948cf          	fnmadd.s	f17,f18,f25,f26,rmm
 daf09dae334:	0600                	.insn	2, 0x0600
 daf09dae336:	0000                	.insn	2, 0x0000
 daf09dae338:	d1994ccf          	fnmadd.s	f25,f18,f25,f26,rmm
 daf09dae33c:	0600                	.insn	2, 0x0600
 daf09dae33e:	0000                	.insn	2, 0x0000
 daf09dae340:	d19950cf          	fnmadd.s	f1,f18,f25,f26,unknown
 daf09dae344:	0600                	.insn	2, 0x0600
 daf09dae346:	0000                	.insn	2, 0x0000
 daf09dae348:	d19954cf          	fnmadd.s	f9,f18,f25,f26,unknown
 daf09dae34c:	0600                	.insn	2, 0x0600
 daf09dae34e:	0000                	.insn	2, 0x0000
 daf09dae350:	d19958cf          	fnmadd.s	f17,f18,f25,f26,unknown
 daf09dae354:	0600                	.insn	2, 0x0600
 daf09dae356:	0000                	.insn	2, 0x0000
 daf09dae358:	d1995ccf          	fnmadd.s	f25,f18,f25,f26,unknown
 daf09dae35c:	0600                	.insn	2, 0x0600
 daf09dae35e:	0000                	.insn	2, 0x0000
 daf09dae360:	d19960cf          	fnmadd.s	f1,f18,f25,f26,unknown
 daf09dae364:	0600                	.insn	2, 0x0600
 daf09dae366:	0000                	.insn	2, 0x0000
 daf09dae368:	d19964cf          	fnmadd.s	f9,f18,f25,f26,unknown
 daf09dae36c:	0600                	.insn	2, 0x0600
 daf09dae36e:	0000                	.insn	2, 0x0000
 daf09dae370:	d19968cf          	fnmadd.s	f17,f18,f25,f26,unknown
 daf09dae374:	0600                	.insn	2, 0x0600
 daf09dae376:	0000                	.insn	2, 0x0000
 daf09dae378:	d1996ccf          	fnmadd.s	f25,f18,f25,f26,unknown
 daf09dae37c:	0600                	.insn	2, 0x0600
 daf09dae37e:	0000                	.insn	2, 0x0000
 daf09dae380:	d19970cf          	fnmadd.s	f1,f18,f25,f26
 daf09dae384:	0600                	.insn	2, 0x0600
 daf09dae386:	0000                	.insn	2, 0x0000
 daf09dae388:	d19974cf          	fnmadd.s	f9,f18,f25,f26
 daf09dae38c:	0600                	.insn	2, 0x0600
 daf09dae38e:	0000                	.insn	2, 0x0000
 daf09dae390:	d19978cf          	fnmadd.s	f17,f18,f25,f26
 daf09dae394:	0600                	.insn	2, 0x0600
 daf09dae396:	0000                	.insn	2, 0x0000
 daf09dae398:	d1997ccf          	fnmadd.s	f25,f18,f25,f26
 daf09dae39c:	0600                	.insn	2, 0x0600
 daf09dae39e:	0000                	.insn	2, 0x0000
 daf09dae3a0:	d19980cf          	fnmadd.s	f1,f19,f25,f26,rne
 daf09dae3a4:	0600                	.insn	2, 0x0600
 daf09dae3a6:	0000                	.insn	2, 0x0000
 daf09dae3a8:	d19984cf          	fnmadd.s	f9,f19,f25,f26,rne
 daf09dae3ac:	0600                	.insn	2, 0x0600
 daf09dae3ae:	0000                	.insn	2, 0x0000
 daf09dae3b0:	d19988cf          	fnmadd.s	f17,f19,f25,f26,rne
 daf09dae3b4:	0600                	.insn	2, 0x0600
 daf09dae3b6:	0000                	.insn	2, 0x0000
 daf09dae3b8:	d1998ccf          	fnmadd.s	f25,f19,f25,f26,rne
 daf09dae3bc:	0600                	.insn	2, 0x0600
 daf09dae3be:	0000                	.insn	2, 0x0000
 daf09dae3c0:	d19990cf          	fnmadd.s	f1,f19,f25,f26,rtz
 daf09dae3c4:	0600                	.insn	2, 0x0600
 daf09dae3c6:	0000                	.insn	2, 0x0000
 daf09dae3c8:	d19994cf          	fnmadd.s	f9,f19,f25,f26,rtz
 daf09dae3cc:	0600                	.insn	2, 0x0600
 daf09dae3ce:	0000                	.insn	2, 0x0000
 daf09dae3d0:	d19998cf          	fnmadd.s	f17,f19,f25,f26,rtz
 daf09dae3d4:	0600                	.insn	2, 0x0600
 daf09dae3d6:	0000                	.insn	2, 0x0000
 daf09dae3d8:	d1999ccf          	fnmadd.s	f25,f19,f25,f26,rtz
 daf09dae3dc:	0600                	.insn	2, 0x0600
 daf09dae3de:	0000                	.insn	2, 0x0000
 daf09dae3e0:	d199a0cf          	fnmadd.s	f1,f19,f25,f26,rdn
 daf09dae3e4:	0600                	.insn	2, 0x0600
 daf09dae3e6:	0000                	.insn	2, 0x0000
 daf09dae3e8:	d199a4cf          	fnmadd.s	f9,f19,f25,f26,rdn
 daf09dae3ec:	0600                	.insn	2, 0x0600
 daf09dae3ee:	0000                	.insn	2, 0x0000
 daf09dae3f0:	d199a8cf          	fnmadd.s	f17,f19,f25,f26,rdn
 daf09dae3f4:	0600                	.insn	2, 0x0600
 daf09dae3f6:	0000                	.insn	2, 0x0000
 daf09dae3f8:	d199accf          	fnmadd.s	f25,f19,f25,f26,rdn
 daf09dae3fc:	0600                	.insn	2, 0x0600
 daf09dae3fe:	0000                	.insn	2, 0x0000
 daf09dae400:	d199b0cf          	fnmadd.s	f1,f19,f25,f26,rup
 daf09dae404:	0600                	.insn	2, 0x0600
 daf09dae406:	0000                	.insn	2, 0x0000
 daf09dae408:	d199b4cf          	fnmadd.s	f9,f19,f25,f26,rup
 daf09dae40c:	0600                	.insn	2, 0x0600
 daf09dae40e:	0000                	.insn	2, 0x0000
 daf09dae410:	d199b8cf          	fnmadd.s	f17,f19,f25,f26,rup
 daf09dae414:	0600                	.insn	2, 0x0600
 daf09dae416:	0000                	.insn	2, 0x0000
 daf09dae418:	d199bccf          	fnmadd.s	f25,f19,f25,f26,rup
 daf09dae41c:	0600                	.insn	2, 0x0600
 daf09dae41e:	0000                	.insn	2, 0x0000
 daf09dae420:	d199c0cf          	fnmadd.s	f1,f19,f25,f26,rmm
 daf09dae424:	0600                	.insn	2, 0x0600
 daf09dae426:	0000                	.insn	2, 0x0000
 daf09dae428:	d199c4cf          	fnmadd.s	f9,f19,f25,f26,rmm
 daf09dae42c:	0600                	.insn	2, 0x0600
 daf09dae42e:	0000                	.insn	2, 0x0000
 daf09dae430:	d199c8cf          	fnmadd.s	f17,f19,f25,f26,rmm
 daf09dae434:	0600                	.insn	2, 0x0600
 daf09dae436:	0000                	.insn	2, 0x0000
 daf09dae438:	d199cccf          	fnmadd.s	f25,f19,f25,f26,rmm
 daf09dae43c:	0600                	.insn	2, 0x0600
 daf09dae43e:	0000                	.insn	2, 0x0000
 daf09dae440:	d199d0cf          	fnmadd.s	f1,f19,f25,f26,unknown
 daf09dae444:	0600                	.insn	2, 0x0600
 daf09dae446:	0000                	.insn	2, 0x0000
 daf09dae448:	d199d4cf          	fnmadd.s	f9,f19,f25,f26,unknown
 daf09dae44c:	0600                	.insn	2, 0x0600
 daf09dae44e:	0000                	.insn	2, 0x0000
 daf09dae450:	d199d8cf          	fnmadd.s	f17,f19,f25,f26,unknown
 daf09dae454:	0600                	.insn	2, 0x0600
 daf09dae456:	0000                	.insn	2, 0x0000
 daf09dae458:	d199dccf          	fnmadd.s	f25,f19,f25,f26,unknown
 daf09dae45c:	0600                	.insn	2, 0x0600
 daf09dae45e:	0000                	.insn	2, 0x0000
 daf09dae460:	d199e0cf          	fnmadd.s	f1,f19,f25,f26,unknown
 daf09dae464:	0600                	.insn	2, 0x0600
 daf09dae466:	0000                	.insn	2, 0x0000
 daf09dae468:	d199e4cf          	fnmadd.s	f9,f19,f25,f26,unknown
 daf09dae46c:	0600                	.insn	2, 0x0600
 daf09dae46e:	0000                	.insn	2, 0x0000
 daf09dae470:	d199e8cf          	fnmadd.s	f17,f19,f25,f26,unknown
 daf09dae474:	0600                	.insn	2, 0x0600
 daf09dae476:	0000                	.insn	2, 0x0000
 daf09dae478:	d199eccf          	fnmadd.s	f25,f19,f25,f26,unknown
 daf09dae47c:	0600                	.insn	2, 0x0600
 daf09dae47e:	0000                	.insn	2, 0x0000
 daf09dae480:	d199f0cf          	fnmadd.s	f1,f19,f25,f26
 daf09dae484:	0600                	.insn	2, 0x0600
 daf09dae486:	0000                	.insn	2, 0x0000
 daf09dae488:	d199f4cf          	fnmadd.s	f9,f19,f25,f26
 daf09dae48c:	0600                	.insn	2, 0x0600
 daf09dae48e:	0000                	.insn	2, 0x0000
 daf09dae490:	d199f8cf          	fnmadd.s	f17,f19,f25,f26
 daf09dae494:	0600                	.insn	2, 0x0600
 daf09dae496:	0000                	.insn	2, 0x0000
 daf09dae498:	d199fccf          	fnmadd.s	f25,f19,f25,f26
 daf09dae49c:	0600                	.insn	2, 0x0600
 daf09dae49e:	0000                	.insn	2, 0x0000
 daf09dae4a0:	d19a00cf          	fnmadd.s	f1,f20,f25,f26,rne
 daf09dae4a4:	0600                	.insn	2, 0x0600
 daf09dae4a6:	0000                	.insn	2, 0x0000
 daf09dae4a8:	d19a04cf          	fnmadd.s	f9,f20,f25,f26,rne
 daf09dae4ac:	0600                	.insn	2, 0x0600
 daf09dae4ae:	0000                	.insn	2, 0x0000
 daf09dae4b0:	d19a08cf          	fnmadd.s	f17,f20,f25,f26,rne
 daf09dae4b4:	0600                	.insn	2, 0x0600
 daf09dae4b6:	0000                	.insn	2, 0x0000
 daf09dae4b8:	d19a0ccf          	fnmadd.s	f25,f20,f25,f26,rne
 daf09dae4bc:	0600                	.insn	2, 0x0600
 daf09dae4be:	0000                	.insn	2, 0x0000
 daf09dae4c0:	d19a10cf          	fnmadd.s	f1,f20,f25,f26,rtz
 daf09dae4c4:	0600                	.insn	2, 0x0600
 daf09dae4c6:	0000                	.insn	2, 0x0000
 daf09dae4c8:	d19a14cf          	fnmadd.s	f9,f20,f25,f26,rtz
 daf09dae4cc:	0600                	.insn	2, 0x0600
 daf09dae4ce:	0000                	.insn	2, 0x0000
 daf09dae4d0:	d19a18cf          	fnmadd.s	f17,f20,f25,f26,rtz
 daf09dae4d4:	0600                	.insn	2, 0x0600
 daf09dae4d6:	0000                	.insn	2, 0x0000
 daf09dae4d8:	d19a1ccf          	fnmadd.s	f25,f20,f25,f26,rtz
 daf09dae4dc:	0600                	.insn	2, 0x0600
 daf09dae4de:	0000                	.insn	2, 0x0000
 daf09dae4e0:	d19a20cf          	fnmadd.s	f1,f20,f25,f26,rdn
 daf09dae4e4:	0600                	.insn	2, 0x0600
 daf09dae4e6:	0000                	.insn	2, 0x0000
 daf09dae4e8:	d19a24cf          	fnmadd.s	f9,f20,f25,f26,rdn
 daf09dae4ec:	0600                	.insn	2, 0x0600
 daf09dae4ee:	0000                	.insn	2, 0x0000
 daf09dae4f0:	d19a28cf          	fnmadd.s	f17,f20,f25,f26,rdn
 daf09dae4f4:	0600                	.insn	2, 0x0600
 daf09dae4f6:	0000                	.insn	2, 0x0000
 daf09dae4f8:	d19a2ccf          	fnmadd.s	f25,f20,f25,f26,rdn
 daf09dae4fc:	0600                	.insn	2, 0x0600
 daf09dae4fe:	0000                	.insn	2, 0x0000
 daf09dae500:	d19a30cf          	fnmadd.s	f1,f20,f25,f26,rup
 daf09dae504:	0600                	.insn	2, 0x0600
 daf09dae506:	0000                	.insn	2, 0x0000
 daf09dae508:	d19a34cf          	fnmadd.s	f9,f20,f25,f26,rup
 daf09dae50c:	0600                	.insn	2, 0x0600
 daf09dae50e:	0000                	.insn	2, 0x0000
 daf09dae510:	d19a38cf          	fnmadd.s	f17,f20,f25,f26,rup
 daf09dae514:	0600                	.insn	2, 0x0600
 daf09dae516:	0000                	.insn	2, 0x0000
 daf09dae518:	d19a3ccf          	fnmadd.s	f25,f20,f25,f26,rup
 daf09dae51c:	0600                	.insn	2, 0x0600
 daf09dae51e:	0000                	.insn	2, 0x0000
 daf09dae520:	d19a40cf          	fnmadd.s	f1,f20,f25,f26,rmm
 daf09dae524:	0600                	.insn	2, 0x0600
 daf09dae526:	0000                	.insn	2, 0x0000
 daf09dae528:	d19a44cf          	fnmadd.s	f9,f20,f25,f26,rmm
 daf09dae52c:	0600                	.insn	2, 0x0600
 daf09dae52e:	0000                	.insn	2, 0x0000
 daf09dae530:	d19a48cf          	fnmadd.s	f17,f20,f25,f26,rmm
 daf09dae534:	0600                	.insn	2, 0x0600
 daf09dae536:	0000                	.insn	2, 0x0000
 daf09dae538:	d19a4ccf          	fnmadd.s	f25,f20,f25,f26,rmm
 daf09dae53c:	0600                	.insn	2, 0x0600
 daf09dae53e:	0000                	.insn	2, 0x0000
 daf09dae540:	d19a50cf          	fnmadd.s	f1,f20,f25,f26,unknown
 daf09dae544:	0600                	.insn	2, 0x0600
 daf09dae546:	0000                	.insn	2, 0x0000
 daf09dae548:	d19a54cf          	fnmadd.s	f9,f20,f25,f26,unknown
 daf09dae54c:	0600                	.insn	2, 0x0600
 daf09dae54e:	0000                	.insn	2, 0x0000
 daf09dae550:	d19a58cf          	fnmadd.s	f17,f20,f25,f26,unknown
 daf09dae554:	0600                	.insn	2, 0x0600
 daf09dae556:	0000                	.insn	2, 0x0000
 daf09dae558:	d19a5ccf          	fnmadd.s	f25,f20,f25,f26,unknown
 daf09dae55c:	0600                	.insn	2, 0x0600
 daf09dae55e:	0000                	.insn	2, 0x0000
 daf09dae560:	d19a60cf          	fnmadd.s	f1,f20,f25,f26,unknown
 daf09dae564:	0600                	.insn	2, 0x0600
 daf09dae566:	0000                	.insn	2, 0x0000
 daf09dae568:	d19a64cf          	fnmadd.s	f9,f20,f25,f26,unknown
 daf09dae56c:	0600                	.insn	2, 0x0600
 daf09dae56e:	0000                	.insn	2, 0x0000
 daf09dae570:	d19a68cf          	fnmadd.s	f17,f20,f25,f26,unknown
 daf09dae574:	0600                	.insn	2, 0x0600
 daf09dae576:	0000                	.insn	2, 0x0000
 daf09dae578:	d19a6ccf          	fnmadd.s	f25,f20,f25,f26,unknown
 daf09dae57c:	0600                	.insn	2, 0x0600
 daf09dae57e:	0000                	.insn	2, 0x0000
 daf09dae580:	d19a70cf          	fnmadd.s	f1,f20,f25,f26
 daf09dae584:	0600                	.insn	2, 0x0600
 daf09dae586:	0000                	.insn	2, 0x0000
 daf09dae588:	d19a74cf          	fnmadd.s	f9,f20,f25,f26
 daf09dae58c:	0600                	.insn	2, 0x0600
 daf09dae58e:	0000                	.insn	2, 0x0000
 daf09dae590:	d19a78cf          	fnmadd.s	f17,f20,f25,f26
 daf09dae594:	0600                	.insn	2, 0x0600
 daf09dae596:	0000                	.insn	2, 0x0000
 daf09dae598:	d19a7ccf          	fnmadd.s	f25,f20,f25,f26
 daf09dae59c:	0600                	.insn	2, 0x0600
 daf09dae59e:	0000                	.insn	2, 0x0000
 daf09dae5a0:	d19a80cf          	fnmadd.s	f1,f21,f25,f26,rne
 daf09dae5a4:	0600                	.insn	2, 0x0600
 daf09dae5a6:	0000                	.insn	2, 0x0000
 daf09dae5a8:	d19a84cf          	fnmadd.s	f9,f21,f25,f26,rne
 daf09dae5ac:	0600                	.insn	2, 0x0600
 daf09dae5ae:	0000                	.insn	2, 0x0000
 daf09dae5b0:	d19a88cf          	fnmadd.s	f17,f21,f25,f26,rne
 daf09dae5b4:	0600                	.insn	2, 0x0600
 daf09dae5b6:	0000                	.insn	2, 0x0000
 daf09dae5b8:	d19a8ccf          	fnmadd.s	f25,f21,f25,f26,rne
 daf09dae5bc:	0600                	.insn	2, 0x0600
 daf09dae5be:	0000                	.insn	2, 0x0000
 daf09dae5c0:	d19a90cf          	fnmadd.s	f1,f21,f25,f26,rtz
 daf09dae5c4:	0600                	.insn	2, 0x0600
 daf09dae5c6:	0000                	.insn	2, 0x0000
 daf09dae5c8:	d19a94cf          	fnmadd.s	f9,f21,f25,f26,rtz
 daf09dae5cc:	0600                	.insn	2, 0x0600
 daf09dae5ce:	0000                	.insn	2, 0x0000
 daf09dae5d0:	d19a98cf          	fnmadd.s	f17,f21,f25,f26,rtz
 daf09dae5d4:	0600                	.insn	2, 0x0600
 daf09dae5d6:	0000                	.insn	2, 0x0000
 daf09dae5d8:	d19a9ccf          	fnmadd.s	f25,f21,f25,f26,rtz
 daf09dae5dc:	0600                	.insn	2, 0x0600
 daf09dae5de:	0000                	.insn	2, 0x0000
 daf09dae5e0:	d19aa0cf          	fnmadd.s	f1,f21,f25,f26,rdn
 daf09dae5e4:	0600                	.insn	2, 0x0600
 daf09dae5e6:	0000                	.insn	2, 0x0000
 daf09dae5e8:	d19aa4cf          	fnmadd.s	f9,f21,f25,f26,rdn
 daf09dae5ec:	0600                	.insn	2, 0x0600
 daf09dae5ee:	0000                	.insn	2, 0x0000
 daf09dae5f0:	d19aa8cf          	fnmadd.s	f17,f21,f25,f26,rdn
 daf09dae5f4:	0600                	.insn	2, 0x0600
 daf09dae5f6:	0000                	.insn	2, 0x0000
 daf09dae5f8:	d19aaccf          	fnmadd.s	f25,f21,f25,f26,rdn
 daf09dae5fc:	0600                	.insn	2, 0x0600
 daf09dae5fe:	0000                	.insn	2, 0x0000
 daf09dae600:	d19ab0cf          	fnmadd.s	f1,f21,f25,f26,rup
 daf09dae604:	0600                	.insn	2, 0x0600
 daf09dae606:	0000                	.insn	2, 0x0000
 daf09dae608:	d19ab4cf          	fnmadd.s	f9,f21,f25,f26,rup
 daf09dae60c:	0600                	.insn	2, 0x0600
 daf09dae60e:	0000                	.insn	2, 0x0000
 daf09dae610:	d19ab8cf          	fnmadd.s	f17,f21,f25,f26,rup
 daf09dae614:	0600                	.insn	2, 0x0600
 daf09dae616:	0000                	.insn	2, 0x0000
 daf09dae618:	d19abccf          	fnmadd.s	f25,f21,f25,f26,rup
 daf09dae61c:	0600                	.insn	2, 0x0600
 daf09dae61e:	0000                	.insn	2, 0x0000
 daf09dae620:	d19ac0cf          	fnmadd.s	f1,f21,f25,f26,rmm
 daf09dae624:	0600                	.insn	2, 0x0600
 daf09dae626:	0000                	.insn	2, 0x0000
 daf09dae628:	d19ac4cf          	fnmadd.s	f9,f21,f25,f26,rmm
 daf09dae62c:	0600                	.insn	2, 0x0600
 daf09dae62e:	0000                	.insn	2, 0x0000
 daf09dae630:	d19ac8cf          	fnmadd.s	f17,f21,f25,f26,rmm
 daf09dae634:	0600                	.insn	2, 0x0600
 daf09dae636:	0000                	.insn	2, 0x0000
 daf09dae638:	d19acccf          	fnmadd.s	f25,f21,f25,f26,rmm
 daf09dae63c:	0600                	.insn	2, 0x0600
 daf09dae63e:	0000                	.insn	2, 0x0000
 daf09dae640:	d19ad0cf          	fnmadd.s	f1,f21,f25,f26,unknown
 daf09dae644:	0600                	.insn	2, 0x0600
 daf09dae646:	0000                	.insn	2, 0x0000
 daf09dae648:	d19ad4cf          	fnmadd.s	f9,f21,f25,f26,unknown
 daf09dae64c:	0600                	.insn	2, 0x0600
 daf09dae64e:	0000                	.insn	2, 0x0000
 daf09dae650:	d19ad8cf          	fnmadd.s	f17,f21,f25,f26,unknown
 daf09dae654:	0600                	.insn	2, 0x0600
 daf09dae656:	0000                	.insn	2, 0x0000
 daf09dae658:	d19adccf          	fnmadd.s	f25,f21,f25,f26,unknown
 daf09dae65c:	0600                	.insn	2, 0x0600
 daf09dae65e:	0000                	.insn	2, 0x0000
 daf09dae660:	d19ae0cf          	fnmadd.s	f1,f21,f25,f26,unknown
 daf09dae664:	0600                	.insn	2, 0x0600
 daf09dae666:	0000                	.insn	2, 0x0000
 daf09dae668:	d19ae4cf          	fnmadd.s	f9,f21,f25,f26,unknown
 daf09dae66c:	0600                	.insn	2, 0x0600
 daf09dae66e:	0000                	.insn	2, 0x0000
 daf09dae670:	d19ae8cf          	fnmadd.s	f17,f21,f25,f26,unknown
 daf09dae674:	0600                	.insn	2, 0x0600
 daf09dae676:	0000                	.insn	2, 0x0000
 daf09dae678:	d19aeccf          	fnmadd.s	f25,f21,f25,f26,unknown
 daf09dae67c:	0600                	.insn	2, 0x0600
 daf09dae67e:	0000                	.insn	2, 0x0000
 daf09dae680:	d19af0cf          	fnmadd.s	f1,f21,f25,f26
 daf09dae684:	0600                	.insn	2, 0x0600
 daf09dae686:	0000                	.insn	2, 0x0000
 daf09dae688:	d19af4cf          	fnmadd.s	f9,f21,f25,f26
 daf09dae68c:	0600                	.insn	2, 0x0600
 daf09dae68e:	0000                	.insn	2, 0x0000
 daf09dae690:	d19af8cf          	fnmadd.s	f17,f21,f25,f26
 daf09dae694:	0600                	.insn	2, 0x0600
 daf09dae696:	0000                	.insn	2, 0x0000
 daf09dae698:	d19afccf          	fnmadd.s	f25,f21,f25,f26
 daf09dae69c:	0600                	.insn	2, 0x0600
 daf09dae69e:	0000                	.insn	2, 0x0000
 daf09dae6a0:	d19b00cf          	fnmadd.s	f1,f22,f25,f26,rne
 daf09dae6a4:	0600                	.insn	2, 0x0600
 daf09dae6a6:	0000                	.insn	2, 0x0000
 daf09dae6a8:	d19b04cf          	fnmadd.s	f9,f22,f25,f26,rne
 daf09dae6ac:	0600                	.insn	2, 0x0600
 daf09dae6ae:	0000                	.insn	2, 0x0000
 daf09dae6b0:	d19b08cf          	fnmadd.s	f17,f22,f25,f26,rne
 daf09dae6b4:	0600                	.insn	2, 0x0600
 daf09dae6b6:	0000                	.insn	2, 0x0000
 daf09dae6b8:	d19b0ccf          	fnmadd.s	f25,f22,f25,f26,rne
 daf09dae6bc:	0600                	.insn	2, 0x0600
 daf09dae6be:	0000                	.insn	2, 0x0000
 daf09dae6c0:	d19b10cf          	fnmadd.s	f1,f22,f25,f26,rtz
 daf09dae6c4:	0600                	.insn	2, 0x0600
 daf09dae6c6:	0000                	.insn	2, 0x0000
 daf09dae6c8:	d19b14cf          	fnmadd.s	f9,f22,f25,f26,rtz
 daf09dae6cc:	0600                	.insn	2, 0x0600
 daf09dae6ce:	0000                	.insn	2, 0x0000
 daf09dae6d0:	d19b18cf          	fnmadd.s	f17,f22,f25,f26,rtz
 daf09dae6d4:	0600                	.insn	2, 0x0600
 daf09dae6d6:	0000                	.insn	2, 0x0000
 daf09dae6d8:	d19b1ccf          	fnmadd.s	f25,f22,f25,f26,rtz
 daf09dae6dc:	0600                	.insn	2, 0x0600
 daf09dae6de:	0000                	.insn	2, 0x0000
 daf09dae6e0:	d19b20cf          	fnmadd.s	f1,f22,f25,f26,rdn
 daf09dae6e4:	0600                	.insn	2, 0x0600
 daf09dae6e6:	0000                	.insn	2, 0x0000
 daf09dae6e8:	d19b24cf          	fnmadd.s	f9,f22,f25,f26,rdn
 daf09dae6ec:	0600                	.insn	2, 0x0600
 daf09dae6ee:	0000                	.insn	2, 0x0000
 daf09dae6f0:	d19b28cf          	fnmadd.s	f17,f22,f25,f26,rdn
 daf09dae6f4:	0600                	.insn	2, 0x0600
 daf09dae6f6:	0000                	.insn	2, 0x0000
 daf09dae6f8:	d19b2ccf          	fnmadd.s	f25,f22,f25,f26,rdn
 daf09dae6fc:	0600                	.insn	2, 0x0600
 daf09dae6fe:	0000                	.insn	2, 0x0000
 daf09dae700:	d19b30cf          	fnmadd.s	f1,f22,f25,f26,rup
 daf09dae704:	0600                	.insn	2, 0x0600
 daf09dae706:	0000                	.insn	2, 0x0000
 daf09dae708:	d19b34cf          	fnmadd.s	f9,f22,f25,f26,rup
 daf09dae70c:	0600                	.insn	2, 0x0600
 daf09dae70e:	0000                	.insn	2, 0x0000
 daf09dae710:	d19b38cf          	fnmadd.s	f17,f22,f25,f26,rup
 daf09dae714:	0600                	.insn	2, 0x0600
 daf09dae716:	0000                	.insn	2, 0x0000
 daf09dae718:	d19b3ccf          	fnmadd.s	f25,f22,f25,f26,rup
 daf09dae71c:	0600                	.insn	2, 0x0600
 daf09dae71e:	0000                	.insn	2, 0x0000
 daf09dae720:	d19b40cf          	fnmadd.s	f1,f22,f25,f26,rmm
 daf09dae724:	0600                	.insn	2, 0x0600
 daf09dae726:	0000                	.insn	2, 0x0000
 daf09dae728:	d19b44cf          	fnmadd.s	f9,f22,f25,f26,rmm
 daf09dae72c:	0600                	.insn	2, 0x0600
 daf09dae72e:	0000                	.insn	2, 0x0000
 daf09dae730:	d19b48cf          	fnmadd.s	f17,f22,f25,f26,rmm
 daf09dae734:	0600                	.insn	2, 0x0600
 daf09dae736:	0000                	.insn	2, 0x0000
 daf09dae738:	d19b4ccf          	fnmadd.s	f25,f22,f25,f26,rmm
 daf09dae73c:	0600                	.insn	2, 0x0600
 daf09dae73e:	0000                	.insn	2, 0x0000
 daf09dae740:	d19b50cf          	fnmadd.s	f1,f22,f25,f26,unknown
 daf09dae744:	0600                	.insn	2, 0x0600
 daf09dae746:	0000                	.insn	2, 0x0000
 daf09dae748:	d19b54cf          	fnmadd.s	f9,f22,f25,f26,unknown
 daf09dae74c:	0600                	.insn	2, 0x0600
 daf09dae74e:	0000                	.insn	2, 0x0000
 daf09dae750:	d19b58cf          	fnmadd.s	f17,f22,f25,f26,unknown
 daf09dae754:	0600                	.insn	2, 0x0600
 daf09dae756:	0000                	.insn	2, 0x0000
 daf09dae758:	d19b5ccf          	fnmadd.s	f25,f22,f25,f26,unknown
 daf09dae75c:	0600                	.insn	2, 0x0600
 daf09dae75e:	0000                	.insn	2, 0x0000
 daf09dae760:	d19b60cf          	fnmadd.s	f1,f22,f25,f26,unknown
 daf09dae764:	0600                	.insn	2, 0x0600
 daf09dae766:	0000                	.insn	2, 0x0000
 daf09dae768:	d19b64cf          	fnmadd.s	f9,f22,f25,f26,unknown
 daf09dae76c:	0600                	.insn	2, 0x0600
 daf09dae76e:	0000                	.insn	2, 0x0000
 daf09dae770:	d19b68cf          	fnmadd.s	f17,f22,f25,f26,unknown
 daf09dae774:	0600                	.insn	2, 0x0600
 daf09dae776:	0000                	.insn	2, 0x0000
 daf09dae778:	d19b6ccf          	fnmadd.s	f25,f22,f25,f26,unknown
 daf09dae77c:	0600                	.insn	2, 0x0600
 daf09dae77e:	0000                	.insn	2, 0x0000
 daf09dae780:	d19b70cf          	fnmadd.s	f1,f22,f25,f26
 daf09dae784:	0600                	.insn	2, 0x0600
 daf09dae786:	0000                	.insn	2, 0x0000
 daf09dae788:	d19b74cf          	fnmadd.s	f9,f22,f25,f26
 daf09dae78c:	0600                	.insn	2, 0x0600
 daf09dae78e:	0000                	.insn	2, 0x0000
 daf09dae790:	d19b78cf          	fnmadd.s	f17,f22,f25,f26
 daf09dae794:	0600                	.insn	2, 0x0600
 daf09dae796:	0000                	.insn	2, 0x0000
 daf09dae798:	d19b7ccf          	fnmadd.s	f25,f22,f25,f26
 daf09dae79c:	0600                	.insn	2, 0x0600
 daf09dae79e:	0000                	.insn	2, 0x0000
 daf09dae7a0:	d19b80cf          	fnmadd.s	f1,f23,f25,f26,rne
 daf09dae7a4:	0600                	.insn	2, 0x0600
 daf09dae7a6:	0000                	.insn	2, 0x0000
 daf09dae7a8:	d19b84cf          	fnmadd.s	f9,f23,f25,f26,rne
 daf09dae7ac:	0600                	.insn	2, 0x0600
 daf09dae7ae:	0000                	.insn	2, 0x0000
 daf09dae7b0:	d19b88cf          	fnmadd.s	f17,f23,f25,f26,rne
 daf09dae7b4:	0600                	.insn	2, 0x0600
 daf09dae7b6:	0000                	.insn	2, 0x0000
 daf09dae7b8:	d19b8ccf          	fnmadd.s	f25,f23,f25,f26,rne
 daf09dae7bc:	0600                	.insn	2, 0x0600
 daf09dae7be:	0000                	.insn	2, 0x0000
 daf09dae7c0:	d19b90cf          	fnmadd.s	f1,f23,f25,f26,rtz
 daf09dae7c4:	0600                	.insn	2, 0x0600
 daf09dae7c6:	0000                	.insn	2, 0x0000
 daf09dae7c8:	d19b94cf          	fnmadd.s	f9,f23,f25,f26,rtz
 daf09dae7cc:	0600                	.insn	2, 0x0600
 daf09dae7ce:	0000                	.insn	2, 0x0000
 daf09dae7d0:	d19b98cf          	fnmadd.s	f17,f23,f25,f26,rtz
 daf09dae7d4:	0600                	.insn	2, 0x0600
 daf09dae7d6:	0000                	.insn	2, 0x0000
 daf09dae7d8:	d19b9ccf          	fnmadd.s	f25,f23,f25,f26,rtz
 daf09dae7dc:	0600                	.insn	2, 0x0600
 daf09dae7de:	0000                	.insn	2, 0x0000
 daf09dae7e0:	d19ba0cf          	fnmadd.s	f1,f23,f25,f26,rdn
 daf09dae7e4:	0600                	.insn	2, 0x0600
 daf09dae7e6:	0000                	.insn	2, 0x0000
 daf09dae7e8:	d19ba4cf          	fnmadd.s	f9,f23,f25,f26,rdn
 daf09dae7ec:	0600                	.insn	2, 0x0600
 daf09dae7ee:	0000                	.insn	2, 0x0000
 daf09dae7f0:	d19ba8cf          	fnmadd.s	f17,f23,f25,f26,rdn
 daf09dae7f4:	0600                	.insn	2, 0x0600
 daf09dae7f6:	0000                	.insn	2, 0x0000
 daf09dae7f8:	d19baccf          	fnmadd.s	f25,f23,f25,f26,rdn
 daf09dae7fc:	0600                	.insn	2, 0x0600
 daf09dae7fe:	0000                	.insn	2, 0x0000
 daf09dae800:	d19bb0cf          	fnmadd.s	f1,f23,f25,f26,rup
 daf09dae804:	0600                	.insn	2, 0x0600
 daf09dae806:	0000                	.insn	2, 0x0000
 daf09dae808:	d19bb4cf          	fnmadd.s	f9,f23,f25,f26,rup
 daf09dae80c:	0600                	.insn	2, 0x0600
 daf09dae80e:	0000                	.insn	2, 0x0000
 daf09dae810:	d19bb8cf          	fnmadd.s	f17,f23,f25,f26,rup
 daf09dae814:	0600                	.insn	2, 0x0600
 daf09dae816:	0000                	.insn	2, 0x0000
 daf09dae818:	d19bbccf          	fnmadd.s	f25,f23,f25,f26,rup
 daf09dae81c:	0600                	.insn	2, 0x0600
 daf09dae81e:	0000                	.insn	2, 0x0000
 daf09dae820:	d19bc0cf          	fnmadd.s	f1,f23,f25,f26,rmm
 daf09dae824:	0600                	.insn	2, 0x0600
 daf09dae826:	0000                	.insn	2, 0x0000
 daf09dae828:	d19bc4cf          	fnmadd.s	f9,f23,f25,f26,rmm
 daf09dae82c:	0600                	.insn	2, 0x0600
 daf09dae82e:	0000                	.insn	2, 0x0000
 daf09dae830:	d19bc8cf          	fnmadd.s	f17,f23,f25,f26,rmm
 daf09dae834:	0600                	.insn	2, 0x0600
 daf09dae836:	0000                	.insn	2, 0x0000
 daf09dae838:	d19bcccf          	fnmadd.s	f25,f23,f25,f26,rmm
 daf09dae83c:	0600                	.insn	2, 0x0600
 daf09dae83e:	0000                	.insn	2, 0x0000
 daf09dae840:	d19bd0cf          	fnmadd.s	f1,f23,f25,f26,unknown
 daf09dae844:	0600                	.insn	2, 0x0600
 daf09dae846:	0000                	.insn	2, 0x0000
 daf09dae848:	d19bd4cf          	fnmadd.s	f9,f23,f25,f26,unknown
 daf09dae84c:	0600                	.insn	2, 0x0600
 daf09dae84e:	0000                	.insn	2, 0x0000
 daf09dae850:	d19bd8cf          	fnmadd.s	f17,f23,f25,f26,unknown
 daf09dae854:	0600                	.insn	2, 0x0600
 daf09dae856:	0000                	.insn	2, 0x0000
 daf09dae858:	d19bdccf          	fnmadd.s	f25,f23,f25,f26,unknown
 daf09dae85c:	0600                	.insn	2, 0x0600
 daf09dae85e:	0000                	.insn	2, 0x0000
 daf09dae860:	d19be0cf          	fnmadd.s	f1,f23,f25,f26,unknown
 daf09dae864:	0600                	.insn	2, 0x0600
 daf09dae866:	0000                	.insn	2, 0x0000
 daf09dae868:	d19be4cf          	fnmadd.s	f9,f23,f25,f26,unknown
 daf09dae86c:	0600                	.insn	2, 0x0600
 daf09dae86e:	0000                	.insn	2, 0x0000
 daf09dae870:	d19be8cf          	fnmadd.s	f17,f23,f25,f26,unknown
 daf09dae874:	0600                	.insn	2, 0x0600
 daf09dae876:	0000                	.insn	2, 0x0000
 daf09dae878:	d19beccf          	fnmadd.s	f25,f23,f25,f26,unknown
 daf09dae87c:	0600                	.insn	2, 0x0600
 daf09dae87e:	0000                	.insn	2, 0x0000
 daf09dae880:	d19bf0cf          	fnmadd.s	f1,f23,f25,f26
 daf09dae884:	0600                	.insn	2, 0x0600
 daf09dae886:	0000                	.insn	2, 0x0000
 daf09dae888:	d19bf4cf          	fnmadd.s	f9,f23,f25,f26
 daf09dae88c:	0600                	.insn	2, 0x0600
 daf09dae88e:	0000                	.insn	2, 0x0000
 daf09dae890:	d19bf8cf          	fnmadd.s	f17,f23,f25,f26
 daf09dae894:	0600                	.insn	2, 0x0600
 daf09dae896:	0000                	.insn	2, 0x0000
 daf09dae898:	d19bfccf          	fnmadd.s	f25,f23,f25,f26
 daf09dae89c:	0600                	.insn	2, 0x0600
 daf09dae89e:	0000                	.insn	2, 0x0000
 daf09dae8a0:	00df d19c 0600      	.insn	6, 0x0600d19c00df
 daf09dae8a6:	0000                	.insn	2, 0x0000
 daf09dae8a8:	04df d19c 0600      	.insn	6, 0x0600d19c04df
 daf09dae8ae:	0000                	.insn	2, 0x0000
 daf09dae8b0:	08df d19c 0600      	.insn	6, 0x0600d19c08df
 daf09dae8b6:	0000                	.insn	2, 0x0000
 daf09dae8b8:	0cdf d19c 0600      	.insn	6, 0x0600d19c0cdf
 daf09dae8be:	0000                	.insn	2, 0x0000
 daf09dae8c0:	10df d19c 0600      	.insn	6, 0x0600d19c10df
 daf09dae8c6:	0000                	.insn	2, 0x0000
 daf09dae8c8:	14df d19c 0600      	.insn	6, 0x0600d19c14df
 daf09dae8ce:	0000                	.insn	2, 0x0000
 daf09dae8d0:	18df d19c 0600      	.insn	6, 0x0600d19c18df
 daf09dae8d6:	0000                	.insn	2, 0x0000
 daf09dae8d8:	1cdf d19c 0600      	.insn	6, 0x0600d19c1cdf
 daf09dae8de:	0000                	.insn	2, 0x0000
 daf09dae8e0:	20df d19c 0600      	.insn	6, 0x0600d19c20df
 daf09dae8e6:	0000                	.insn	2, 0x0000
 daf09dae8e8:	24df d19c 0600      	.insn	6, 0x0600d19c24df
 daf09dae8ee:	0000                	.insn	2, 0x0000
 daf09dae8f0:	28df d19c 0600      	.insn	6, 0x0600d19c28df
 daf09dae8f6:	0000                	.insn	2, 0x0000
 daf09dae8f8:	2cdf d19c 0600      	.insn	6, 0x0600d19c2cdf
 daf09dae8fe:	0000                	.insn	2, 0x0000
 daf09dae900:	30df d19c 0600      	.insn	6, 0x0600d19c30df
 daf09dae906:	0000                	.insn	2, 0x0000
 daf09dae908:	34df d19c 0600      	.insn	6, 0x0600d19c34df
 daf09dae90e:	0000                	.insn	2, 0x0000
 daf09dae910:	38df d19c 0600      	.insn	6, 0x0600d19c38df
 daf09dae916:	0000                	.insn	2, 0x0000
 daf09dae918:	3cdf d19c 0600      	.insn	6, 0x0600d19c3cdf
 daf09dae91e:	0000                	.insn	2, 0x0000
 daf09dae920:	40df d19c 0600      	.insn	6, 0x0600d19c40df
 daf09dae926:	0000                	.insn	2, 0x0000
 daf09dae928:	44df d19c 0600      	.insn	6, 0x0600d19c44df
 daf09dae92e:	0000                	.insn	2, 0x0000
 daf09dae930:	48df d19c 0600      	.insn	6, 0x0600d19c48df
 daf09dae936:	0000                	.insn	2, 0x0000
 daf09dae938:	4cdf d19c 0600      	.insn	6, 0x0600d19c4cdf
 daf09dae93e:	0000                	.insn	2, 0x0000
 daf09dae940:	50df d19c 0600      	.insn	6, 0x0600d19c50df
 daf09dae946:	0000                	.insn	2, 0x0000
 daf09dae948:	54df d19c 0600      	.insn	6, 0x0600d19c54df
 daf09dae94e:	0000                	.insn	2, 0x0000
 daf09dae950:	58df d19c 0600      	.insn	6, 0x0600d19c58df
 daf09dae956:	0000                	.insn	2, 0x0000
 daf09dae958:	5cdf d19c 0600      	.insn	6, 0x0600d19c5cdf
 daf09dae95e:	0000                	.insn	2, 0x0000
 daf09dae960:	60df d19c 0600      	.insn	6, 0x0600d19c60df
 daf09dae966:	0000                	.insn	2, 0x0000
 daf09dae968:	64df d19c 0600      	.insn	6, 0x0600d19c64df
 daf09dae96e:	0000                	.insn	2, 0x0000
 daf09dae970:	68df d19c 0600      	.insn	6, 0x0600d19c68df
 daf09dae976:	0000                	.insn	2, 0x0000
 daf09dae978:	6cdf d19c 0600      	.insn	6, 0x0600d19c6cdf
 daf09dae97e:	0000                	.insn	2, 0x0000
 daf09dae980:	70df d19c 0600      	.insn	6, 0x0600d19c70df
 daf09dae986:	0000                	.insn	2, 0x0000
 daf09dae988:	74df d19c 0600      	.insn	6, 0x0600d19c74df
 daf09dae98e:	0000                	.insn	2, 0x0000
 daf09dae990:	78df d19c 0600      	.insn	6, 0x0600d19c78df
 daf09dae996:	0000                	.insn	2, 0x0000
 daf09dae998:	7cdf d19c 0600      	.insn	6, 0x0600d19c7cdf
 daf09dae99e:	0000                	.insn	2, 0x0000
 daf09dae9a0:	80df d19c 0600      	.insn	6, 0x0600d19c80df
 daf09dae9a6:	0000                	.insn	2, 0x0000
 daf09dae9a8:	84df d19c 0600      	.insn	6, 0x0600d19c84df
 daf09dae9ae:	0000                	.insn	2, 0x0000
 daf09dae9b0:	88df d19c 0600      	.insn	6, 0x0600d19c88df
 daf09dae9b6:	0000                	.insn	2, 0x0000
 daf09dae9b8:	8cdf d19c 0600      	.insn	6, 0x0600d19c8cdf
 daf09dae9be:	0000                	.insn	2, 0x0000
 daf09dae9c0:	90df d19c 0600      	.insn	6, 0x0600d19c90df
 daf09dae9c6:	0000                	.insn	2, 0x0000
 daf09dae9c8:	94df d19c 0600      	.insn	6, 0x0600d19c94df
 daf09dae9ce:	0000                	.insn	2, 0x0000
 daf09dae9d0:	98df d19c 0600      	.insn	6, 0x0600d19c98df
 daf09dae9d6:	0000                	.insn	2, 0x0000
 daf09dae9d8:	9cdf d19c 0600      	.insn	6, 0x0600d19c9cdf
 daf09dae9de:	0000                	.insn	2, 0x0000
 daf09dae9e0:	a0df d19c 0600      	.insn	6, 0x0600d19ca0df
 daf09dae9e6:	0000                	.insn	2, 0x0000
 daf09dae9e8:	a4df d19c 0600      	.insn	6, 0x0600d19ca4df
 daf09dae9ee:	0000                	.insn	2, 0x0000
 daf09dae9f0:	a8df d19c 0600      	.insn	6, 0x0600d19ca8df
 daf09dae9f6:	0000                	.insn	2, 0x0000
 daf09dae9f8:	acdf d19c 0600      	.insn	6, 0x0600d19cacdf
 daf09dae9fe:	0000                	.insn	2, 0x0000
 daf09daea00:	b0df d19c 0600      	.insn	6, 0x0600d19cb0df
 daf09daea06:	0000                	.insn	2, 0x0000
 daf09daea08:	b4df d19c 0600      	.insn	6, 0x0600d19cb4df
 daf09daea0e:	0000                	.insn	2, 0x0000
 daf09daea10:	b8df d19c 0600      	.insn	6, 0x0600d19cb8df
 daf09daea16:	0000                	.insn	2, 0x0000
 daf09daea18:	bcdf d19c 0600      	.insn	6, 0x0600d19cbcdf
 daf09daea1e:	0000                	.insn	2, 0x0000
 daf09daea20:	c0df d19c 0600      	.insn	6, 0x0600d19cc0df
 daf09daea26:	0000                	.insn	2, 0x0000
 daf09daea28:	c4df d19c 0600      	.insn	6, 0x0600d19cc4df
 daf09daea2e:	0000                	.insn	2, 0x0000
 daf09daea30:	c8df d19c 0600      	.insn	6, 0x0600d19cc8df
 daf09daea36:	0000                	.insn	2, 0x0000
 daf09daea38:	ccdf d19c 0600      	.insn	6, 0x0600d19cccdf
 daf09daea3e:	0000                	.insn	2, 0x0000
 daf09daea40:	d0df d19c 0600      	.insn	6, 0x0600d19cd0df
 daf09daea46:	0000                	.insn	2, 0x0000
 daf09daea48:	d4df d19c 0600      	.insn	6, 0x0600d19cd4df
 daf09daea4e:	0000                	.insn	2, 0x0000
 daf09daea50:	d8df d19c 0600      	.insn	6, 0x0600d19cd8df
 daf09daea56:	0000                	.insn	2, 0x0000
 daf09daea58:	dcdf d19c 0600      	.insn	6, 0x0600d19cdcdf
 daf09daea5e:	0000                	.insn	2, 0x0000
 daf09daea60:	e0df d19c 0600      	.insn	6, 0x0600d19ce0df
 daf09daea66:	0000                	.insn	2, 0x0000
 daf09daea68:	e4df d19c 0600      	.insn	6, 0x0600d19ce4df
 daf09daea6e:	0000                	.insn	2, 0x0000
 daf09daea70:	e8df d19c 0600      	.insn	6, 0x0600d19ce8df
 daf09daea76:	0000                	.insn	2, 0x0000
 daf09daea78:	ecdf d19c 0600      	.insn	6, 0x0600d19cecdf
 daf09daea7e:	0000                	.insn	2, 0x0000
 daf09daea80:	f0df d19c 0600      	.insn	6, 0x0600d19cf0df
 daf09daea86:	0000                	.insn	2, 0x0000
 daf09daea88:	f4df d19c 0600      	.insn	6, 0x0600d19cf4df
 daf09daea8e:	0000                	.insn	2, 0x0000
 daf09daea90:	f8df d19c 0600      	.insn	6, 0x0600d19cf8df
 daf09daea96:	0000                	.insn	2, 0x0000
 daf09daea98:	fcdf d19c 0600      	.insn	6, 0x0600d19cfcdf
 daf09daea9e:	0000                	.insn	2, 0x0000
 daf09daeaa0:	00df d19d 0600      	.insn	6, 0x0600d19d00df
 daf09daeaa6:	0000                	.insn	2, 0x0000
 daf09daeaa8:	04df d19d 0600      	.insn	6, 0x0600d19d04df
 daf09daeaae:	0000                	.insn	2, 0x0000
 daf09daeab0:	08df d19d 0600      	.insn	6, 0x0600d19d08df
 daf09daeab6:	0000                	.insn	2, 0x0000
 daf09daeab8:	0cdf d19d 0600      	.insn	6, 0x0600d19d0cdf
 daf09daeabe:	0000                	.insn	2, 0x0000
 daf09daeac0:	10df d19d 0600      	.insn	6, 0x0600d19d10df
 daf09daeac6:	0000                	.insn	2, 0x0000
 daf09daeac8:	14df d19d 0600      	.insn	6, 0x0600d19d14df
 daf09daeace:	0000                	.insn	2, 0x0000
 daf09daead0:	18df d19d 0600      	.insn	6, 0x0600d19d18df
 daf09daead6:	0000                	.insn	2, 0x0000
 daf09daead8:	1cdf d19d 0600      	.insn	6, 0x0600d19d1cdf
 daf09daeade:	0000                	.insn	2, 0x0000
 daf09daeae0:	20df d19d 0600      	.insn	6, 0x0600d19d20df
 daf09daeae6:	0000                	.insn	2, 0x0000
 daf09daeae8:	24df d19d 0600      	.insn	6, 0x0600d19d24df
 daf09daeaee:	0000                	.insn	2, 0x0000
 daf09daeaf0:	28df d19d 0600      	.insn	6, 0x0600d19d28df
 daf09daeaf6:	0000                	.insn	2, 0x0000
 daf09daeaf8:	2cdf d19d 0600      	.insn	6, 0x0600d19d2cdf
 daf09daeafe:	0000                	.insn	2, 0x0000
 daf09daeb00:	30df d19d 0600      	.insn	6, 0x0600d19d30df
 daf09daeb06:	0000                	.insn	2, 0x0000
 daf09daeb08:	34df d19d 0600      	.insn	6, 0x0600d19d34df
 daf09daeb0e:	0000                	.insn	2, 0x0000
 daf09daeb10:	38df d19d 0600      	.insn	6, 0x0600d19d38df
 daf09daeb16:	0000                	.insn	2, 0x0000
 daf09daeb18:	3cdf d19d 0600      	.insn	6, 0x0600d19d3cdf
 daf09daeb1e:	0000                	.insn	2, 0x0000
 daf09daeb20:	40df d19d 0600      	.insn	6, 0x0600d19d40df
 daf09daeb26:	0000                	.insn	2, 0x0000
 daf09daeb28:	44df d19d 0600      	.insn	6, 0x0600d19d44df
 daf09daeb2e:	0000                	.insn	2, 0x0000
 daf09daeb30:	48df d19d 0600      	.insn	6, 0x0600d19d48df
 daf09daeb36:	0000                	.insn	2, 0x0000
 daf09daeb38:	4cdf d19d 0600      	.insn	6, 0x0600d19d4cdf
 daf09daeb3e:	0000                	.insn	2, 0x0000
 daf09daeb40:	50df d19d 0600      	.insn	6, 0x0600d19d50df
 daf09daeb46:	0000                	.insn	2, 0x0000
 daf09daeb48:	54df d19d 0600      	.insn	6, 0x0600d19d54df
 daf09daeb4e:	0000                	.insn	2, 0x0000
 daf09daeb50:	58df d19d 0600      	.insn	6, 0x0600d19d58df
 daf09daeb56:	0000                	.insn	2, 0x0000
 daf09daeb58:	5cdf d19d 0600      	.insn	6, 0x0600d19d5cdf
 daf09daeb5e:	0000                	.insn	2, 0x0000
 daf09daeb60:	60df d19d 0600      	.insn	6, 0x0600d19d60df
 daf09daeb66:	0000                	.insn	2, 0x0000
 daf09daeb68:	64df d19d 0600      	.insn	6, 0x0600d19d64df
 daf09daeb6e:	0000                	.insn	2, 0x0000
 daf09daeb70:	68df d19d 0600      	.insn	6, 0x0600d19d68df
 daf09daeb76:	0000                	.insn	2, 0x0000
 daf09daeb78:	6cdf d19d 0600      	.insn	6, 0x0600d19d6cdf
 daf09daeb7e:	0000                	.insn	2, 0x0000
 daf09daeb80:	70df d19d 0600      	.insn	6, 0x0600d19d70df
 daf09daeb86:	0000                	.insn	2, 0x0000
 daf09daeb88:	74df d19d 0600      	.insn	6, 0x0600d19d74df
 daf09daeb8e:	0000                	.insn	2, 0x0000
 daf09daeb90:	78df d19d 0600      	.insn	6, 0x0600d19d78df
 daf09daeb96:	0000                	.insn	2, 0x0000
 daf09daeb98:	7cdf d19d 0600      	.insn	6, 0x0600d19d7cdf
 daf09daeb9e:	0000                	.insn	2, 0x0000
 daf09daeba0:	80df d19d 0600      	.insn	6, 0x0600d19d80df
 daf09daeba6:	0000                	.insn	2, 0x0000
 daf09daeba8:	84df d19d 0600      	.insn	6, 0x0600d19d84df
 daf09daebae:	0000                	.insn	2, 0x0000
 daf09daebb0:	88df d19d 0600      	.insn	6, 0x0600d19d88df
 daf09daebb6:	0000                	.insn	2, 0x0000
 daf09daebb8:	8cdf d19d 0600      	.insn	6, 0x0600d19d8cdf
 daf09daebbe:	0000                	.insn	2, 0x0000
 daf09daebc0:	90df d19d 0600      	.insn	6, 0x0600d19d90df
 daf09daebc6:	0000                	.insn	2, 0x0000
 daf09daebc8:	94df d19d 0600      	.insn	6, 0x0600d19d94df
 daf09daebce:	0000                	.insn	2, 0x0000
 daf09daebd0:	98df d19d 0600      	.insn	6, 0x0600d19d98df
 daf09daebd6:	0000                	.insn	2, 0x0000
 daf09daebd8:	9cdf d19d 0600      	.insn	6, 0x0600d19d9cdf
 daf09daebde:	0000                	.insn	2, 0x0000
 daf09daebe0:	a0df d19d 0600      	.insn	6, 0x0600d19da0df
 daf09daebe6:	0000                	.insn	2, 0x0000
 daf09daebe8:	a4df d19d 0600      	.insn	6, 0x0600d19da4df
 daf09daebee:	0000                	.insn	2, 0x0000
 daf09daebf0:	a8df d19d 0600      	.insn	6, 0x0600d19da8df
 daf09daebf6:	0000                	.insn	2, 0x0000
 daf09daebf8:	acdf d19d 0600      	.insn	6, 0x0600d19dacdf
 daf09daebfe:	0000                	.insn	2, 0x0000
 daf09daec00:	b0df d19d 0600      	.insn	6, 0x0600d19db0df
 daf09daec06:	0000                	.insn	2, 0x0000
 daf09daec08:	b4df d19d 0600      	.insn	6, 0x0600d19db4df
 daf09daec0e:	0000                	.insn	2, 0x0000
 daf09daec10:	b8df d19d 0600      	.insn	6, 0x0600d19db8df
 daf09daec16:	0000                	.insn	2, 0x0000
 daf09daec18:	bcdf d19d 0600      	.insn	6, 0x0600d19dbcdf
 daf09daec1e:	0000                	.insn	2, 0x0000
 daf09daec20:	c0df d19d 0600      	.insn	6, 0x0600d19dc0df
 daf09daec26:	0000                	.insn	2, 0x0000
 daf09daec28:	c4df d19d 0600      	.insn	6, 0x0600d19dc4df
 daf09daec2e:	0000                	.insn	2, 0x0000
 daf09daec30:	c8df d19d 0600      	.insn	6, 0x0600d19dc8df
 daf09daec36:	0000                	.insn	2, 0x0000
 daf09daec38:	ccdf d19d 0600      	.insn	6, 0x0600d19dccdf
 daf09daec3e:	0000                	.insn	2, 0x0000
 daf09daec40:	d0df d19d 0600      	.insn	6, 0x0600d19dd0df
 daf09daec46:	0000                	.insn	2, 0x0000
 daf09daec48:	d4df d19d 0600      	.insn	6, 0x0600d19dd4df
 daf09daec4e:	0000                	.insn	2, 0x0000
 daf09daec50:	d8df d19d 0600      	.insn	6, 0x0600d19dd8df
 daf09daec56:	0000                	.insn	2, 0x0000
 daf09daec58:	dcdf d19d 0600      	.insn	6, 0x0600d19ddcdf
 daf09daec5e:	0000                	.insn	2, 0x0000
 daf09daec60:	e0df d19d 0600      	.insn	6, 0x0600d19de0df
 daf09daec66:	0000                	.insn	2, 0x0000
 daf09daec68:	e4df d19d 0600      	.insn	6, 0x0600d19de4df
 daf09daec6e:	0000                	.insn	2, 0x0000
 daf09daec70:	e8df d19d 0600      	.insn	6, 0x0600d19de8df
 daf09daec76:	0000                	.insn	2, 0x0000
 daf09daec78:	ecdf d19d 0600      	.insn	6, 0x0600d19decdf
 daf09daec7e:	0000                	.insn	2, 0x0000
 daf09daec80:	f0df d19d 0600      	.insn	6, 0x0600d19df0df
 daf09daec86:	0000                	.insn	2, 0x0000
 daf09daec88:	f4df d19d 0600      	.insn	6, 0x0600d19df4df
 daf09daec8e:	0000                	.insn	2, 0x0000
 daf09daec90:	f8df d19d 0600      	.insn	6, 0x0600d19df8df
 daf09daec96:	0000                	.insn	2, 0x0000
 daf09daec98:	fcdf d19d 0600      	.insn	6, 0x0600d19dfcdf
	...

Disassembly of section .__pagetable_map_os_0x000000009d757000:

000000009d757000 <__pagetable_map_os_0x000000009d757000>:
	...
    9d7570a8:	d1a004cf          	fnmadd.s	f9,f0,f26,f26,rne
    9d7570ac:	0600                	.insn	2, 0x0600
	...

Disassembly of section .__pagetable_map_os_0x00000000bc7fa000:

00000000bc7fa000 <__pagetable_map_os_0x00000000bc7fa000>:
	...
    bc7fa5c0:	2401                	.insn	2, 0x2401
    bc7fa5c2:	ea99                	.insn	2, 0xea99
    bc7fa5c4:	0000                	.insn	2, 0x0000
	...

Disassembly of section .__pagetable_map_os_0x00000003aa649000:

00000003aa649000 <__pagetable_map_os_0x00000003aa649000>:
	...
   3aa649fb0:	d0b108cf          	fnmadd.s	f17,f2,f11,f26,rne
   3aa649fb4:	008d                	.insn	2, 0x008d
   3aa649fb6:	0000                	.insn	2, 0x0000
   3aa649fb8:	d0b10ccf          	fnmadd.s	f25,f2,f11,f26,rne
   3aa649fbc:	008d                	.insn	2, 0x008d
	...

Disassembly of section .__pagetable_map_os_0x000004fe507b9000:

000004fe507b9000 <__pagetable_map_os_0x000004fe507b9000>:
	...
 4fe507b96f0:	7801                	.insn	2, 0x7801
 4fe507b96f2:	83f4                	.insn	2, 0x83f4
 4fe507b96f4:	48e0                	.insn	2, 0x48e0
	...

Disassembly of section .__pagetable_map_os_0x000123820fd1e000:

000123820fd1e000 <__pagetable_map_os_0x000123820fd1e000>:
	...
   123820fd1ebe0:	e66130cf          	.insn	4, 0xe66130cf
   123820fd1ebe4:	022e                	.insn	2, 0x022e
   123820fd1ebe6:	0000                	.insn	2, 0x0000
   123820fd1ebe8:	e66134cf          	.insn	4, 0xe66134cf
   123820fd1ebec:	022e                	.insn	2, 0x022e
	...

Disassembly of section .__pagetable_map_os_0x0000000411a1f000:

0000000411a1f000 <__pagetable_map_os_0x0000000411a1f000>:
	...
   411a1fc00:	5c01                	.insn	2, 0x5c01
   411a1fc02:	4b1f 487a 0000      	.insn	6, 0x487a4b1f
	...
   411a1fc40:	2401                	.insn	2, 0x2401
   411a1fc42:	413c                	.insn	2, 0x413c
   411a1fc44:	092e                	.insn	2, 0x092e
	...
   411a1fcb6:	0000                	.insn	2, 0x0000
   411a1fcb8:	dc01                	.insn	2, 0xdc01
   411a1fcba:	89c0                	.insn	2, 0x89c0
   411a1fcbc:	13d9                	.insn	2, 0x13d9
	...

Disassembly of section .__pagetable_map_os_0x000121e92c7d7000:

000121e92c7d7000 <__pagetable_map_os_0x000121e92c7d7000>:
   121e92c7d7000:	1c0000cf          	fnmadd.h	f1,f0,f0,f3,rne
   121e92c7d7004:	0000                	.insn	2, 0x0000
	...

Disassembly of section .__pagetable_map_os_0x00004f6627037000:

00004f6627037000 <__pagetable_map_os_0x00004f6627037000>:
	...
    4f6627037e40:	b89988c7          	fmsub.s	f17,f19,f9,f23,rne
    4f6627037e44:	0002                	.insn	2, 0x0002
	...

Disassembly of section .__pagetable_map_os_0x000024b904f09000:

000024b904f09000 <__pagetable_map_os_0x000024b904f09000>:
	...
    24b904f099f0:	ff2128c7          	.insn	4, 0xff2128c7
    24b904f099f4:	0000                	.insn	2, 0x0000
	...

Disassembly of section .__pagetable_map_os_0x00001253f7515000:

00001253f7515000 <__pagetable_map_os_0x00001253f7515000>:
    1253f7515000:	c401                	.insn	2, 0xc401
    1253f7515002:	6975                	.insn	2, 0x6975
    1253f7515004:	0169                	.insn	2, 0x0169
	...
    1253f751500e:	0000                	.insn	2, 0x0000
    1253f7515010:	4c01                	.insn	2, 0x4c01
    1253f7515012:	8c76                	.insn	2, 0x8c76
    1253f7515014:	0082                	.insn	2, 0x0082
	...
    1253f751501e:	0000                	.insn	2, 0x0000
    1253f7515020:	3801                	.insn	2, 0x3801
    1253f7515022:	eba5                	.insn	2, 0xeba5
    1253f7515024:	00000057          	vadd.vv	v0,v0,v0,v0.t
	...
    1253f7515208:	0c01                	.insn	2, 0x0c01
    1253f751520a:	2765                	.insn	2, 0x2765
	...
    1253f7515278:	8c01                	.insn	2, 0x8c01
    1253f751527a:	cfd9                	.insn	2, 0xcfd9
    1253f751527c:	e2a4                	.insn	2, 0xe2a4
	...
    1253f751541e:	0000                	.insn	2, 0x0000
    1253f7515420:	3c01                	.insn	2, 0x3c01
    1253f7515422:	ba3d                	.insn	2, 0xba3d
    1253f7515424:	000191cf          	fnmadd.s	f3,f3,f0,f0,rtz
	...
    1253f7515820:	ac01                	.insn	2, 0xac01
    1253f7515822:	000000cbb87f 	.6byte	0x000000cbb87f

Disassembly of section .__pagetable_map_os_0x0006473ee8f4f000:

0006473ee8f4f000 <__pagetable_map_os_0x0006473ee8f4f000>:
   6473ee8f4f000:	042000cf          	fnmadd.h	f1,f0,f2,f0,rne
   6473ee8f4f004:	0000                	.insn	2, 0x0000
   6473ee8f4f006:	0000                	.insn	2, 0x0000
   6473ee8f4f008:	042004cf          	fnmadd.h	f9,f0,f2,f0,rne
   6473ee8f4f00c:	0000                	.insn	2, 0x0000
   6473ee8f4f00e:	0000                	.insn	2, 0x0000
   6473ee8f4f010:	042008cf          	fnmadd.h	f17,f0,f2,f0,rne
   6473ee8f4f014:	0000                	.insn	2, 0x0000
   6473ee8f4f016:	0000                	.insn	2, 0x0000
   6473ee8f4f018:	04200ccf          	fnmadd.h	f25,f0,f2,f0,rne
   6473ee8f4f01c:	0000                	.insn	2, 0x0000
   6473ee8f4f01e:	0000                	.insn	2, 0x0000
   6473ee8f4f020:	042010cf          	fnmadd.h	f1,f0,f2,f0,rtz
   6473ee8f4f024:	0000                	.insn	2, 0x0000
   6473ee8f4f026:	0000                	.insn	2, 0x0000
   6473ee8f4f028:	042014cf          	fnmadd.h	f9,f0,f2,f0,rtz
   6473ee8f4f02c:	0000                	.insn	2, 0x0000
   6473ee8f4f02e:	0000                	.insn	2, 0x0000
   6473ee8f4f030:	042018cf          	fnmadd.h	f17,f0,f2,f0,rtz
   6473ee8f4f034:	0000                	.insn	2, 0x0000
   6473ee8f4f036:	0000                	.insn	2, 0x0000
   6473ee8f4f038:	04201ccf          	fnmadd.h	f25,f0,f2,f0,rtz
   6473ee8f4f03c:	0000                	.insn	2, 0x0000
   6473ee8f4f03e:	0000                	.insn	2, 0x0000
   6473ee8f4f040:	042020cf          	fnmadd.h	f1,f0,f2,f0,rdn
   6473ee8f4f044:	0000                	.insn	2, 0x0000
   6473ee8f4f046:	0000                	.insn	2, 0x0000
   6473ee8f4f048:	042024cf          	fnmadd.h	f9,f0,f2,f0,rdn
   6473ee8f4f04c:	0000                	.insn	2, 0x0000
   6473ee8f4f04e:	0000                	.insn	2, 0x0000
   6473ee8f4f050:	042028cf          	fnmadd.h	f17,f0,f2,f0,rdn
   6473ee8f4f054:	0000                	.insn	2, 0x0000
   6473ee8f4f056:	0000                	.insn	2, 0x0000
   6473ee8f4f058:	04202ccf          	fnmadd.h	f25,f0,f2,f0,rdn
   6473ee8f4f05c:	0000                	.insn	2, 0x0000
   6473ee8f4f05e:	0000                	.insn	2, 0x0000
   6473ee8f4f060:	042030cf          	fnmadd.h	f1,f0,f2,f0,rup
   6473ee8f4f064:	0000                	.insn	2, 0x0000
   6473ee8f4f066:	0000                	.insn	2, 0x0000
   6473ee8f4f068:	042034cf          	fnmadd.h	f9,f0,f2,f0,rup
   6473ee8f4f06c:	0000                	.insn	2, 0x0000
   6473ee8f4f06e:	0000                	.insn	2, 0x0000
   6473ee8f4f070:	042038cf          	fnmadd.h	f17,f0,f2,f0,rup
   6473ee8f4f074:	0000                	.insn	2, 0x0000
   6473ee8f4f076:	0000                	.insn	2, 0x0000
   6473ee8f4f078:	04203ccf          	fnmadd.h	f25,f0,f2,f0,rup
   6473ee8f4f07c:	0000                	.insn	2, 0x0000
   6473ee8f4f07e:	0000                	.insn	2, 0x0000
   6473ee8f4f080:	042040cf          	fnmadd.h	f1,f0,f2,f0,rmm
   6473ee8f4f084:	0000                	.insn	2, 0x0000
   6473ee8f4f086:	0000                	.insn	2, 0x0000
   6473ee8f4f088:	042044cf          	fnmadd.h	f9,f0,f2,f0,rmm
   6473ee8f4f08c:	0000                	.insn	2, 0x0000
   6473ee8f4f08e:	0000                	.insn	2, 0x0000
   6473ee8f4f090:	042048cf          	fnmadd.h	f17,f0,f2,f0,rmm
   6473ee8f4f094:	0000                	.insn	2, 0x0000
   6473ee8f4f096:	0000                	.insn	2, 0x0000
   6473ee8f4f098:	04204ccf          	fnmadd.h	f25,f0,f2,f0,rmm
   6473ee8f4f09c:	0000                	.insn	2, 0x0000
   6473ee8f4f09e:	0000                	.insn	2, 0x0000
   6473ee8f4f0a0:	042050cf          	fnmadd.h	f1,f0,f2,f0,unknown
   6473ee8f4f0a4:	0000                	.insn	2, 0x0000
   6473ee8f4f0a6:	0000                	.insn	2, 0x0000
   6473ee8f4f0a8:	042054cf          	fnmadd.h	f9,f0,f2,f0,unknown
   6473ee8f4f0ac:	0000                	.insn	2, 0x0000
   6473ee8f4f0ae:	0000                	.insn	2, 0x0000
   6473ee8f4f0b0:	042058cf          	fnmadd.h	f17,f0,f2,f0,unknown
   6473ee8f4f0b4:	0000                	.insn	2, 0x0000
   6473ee8f4f0b6:	0000                	.insn	2, 0x0000
   6473ee8f4f0b8:	04205ccf          	fnmadd.h	f25,f0,f2,f0,unknown
   6473ee8f4f0bc:	0000                	.insn	2, 0x0000
   6473ee8f4f0be:	0000                	.insn	2, 0x0000
   6473ee8f4f0c0:	042060cf          	fnmadd.h	f1,f0,f2,f0,unknown
   6473ee8f4f0c4:	0000                	.insn	2, 0x0000
   6473ee8f4f0c6:	0000                	.insn	2, 0x0000
   6473ee8f4f0c8:	042064cf          	fnmadd.h	f9,f0,f2,f0,unknown
   6473ee8f4f0cc:	0000                	.insn	2, 0x0000
   6473ee8f4f0ce:	0000                	.insn	2, 0x0000
   6473ee8f4f0d0:	042068cf          	fnmadd.h	f17,f0,f2,f0,unknown
   6473ee8f4f0d4:	0000                	.insn	2, 0x0000
   6473ee8f4f0d6:	0000                	.insn	2, 0x0000
   6473ee8f4f0d8:	04206ccf          	fnmadd.h	f25,f0,f2,f0,unknown
   6473ee8f4f0dc:	0000                	.insn	2, 0x0000
   6473ee8f4f0de:	0000                	.insn	2, 0x0000
   6473ee8f4f0e0:	042070cf          	fnmadd.h	f1,f0,f2,f0
   6473ee8f4f0e4:	0000                	.insn	2, 0x0000
   6473ee8f4f0e6:	0000                	.insn	2, 0x0000
   6473ee8f4f0e8:	042074cf          	fnmadd.h	f9,f0,f2,f0
   6473ee8f4f0ec:	0000                	.insn	2, 0x0000
   6473ee8f4f0ee:	0000                	.insn	2, 0x0000
   6473ee8f4f0f0:	042078cf          	fnmadd.h	f17,f0,f2,f0
   6473ee8f4f0f4:	0000                	.insn	2, 0x0000
   6473ee8f4f0f6:	0000                	.insn	2, 0x0000
   6473ee8f4f0f8:	04207ccf          	fnmadd.h	f25,f0,f2,f0
   6473ee8f4f0fc:	0000                	.insn	2, 0x0000
   6473ee8f4f0fe:	0000                	.insn	2, 0x0000
   6473ee8f4f100:	042080cf          	fnmadd.h	f1,f1,f2,f0,rne
   6473ee8f4f104:	0000                	.insn	2, 0x0000
   6473ee8f4f106:	0000                	.insn	2, 0x0000
   6473ee8f4f108:	042084cf          	fnmadd.h	f9,f1,f2,f0,rne
   6473ee8f4f10c:	0000                	.insn	2, 0x0000
   6473ee8f4f10e:	0000                	.insn	2, 0x0000
   6473ee8f4f110:	042088cf          	fnmadd.h	f17,f1,f2,f0,rne
   6473ee8f4f114:	0000                	.insn	2, 0x0000
   6473ee8f4f116:	0000                	.insn	2, 0x0000
   6473ee8f4f118:	04208ccf          	fnmadd.h	f25,f1,f2,f0,rne
   6473ee8f4f11c:	0000                	.insn	2, 0x0000
   6473ee8f4f11e:	0000                	.insn	2, 0x0000
   6473ee8f4f120:	042090cf          	fnmadd.h	f1,f1,f2,f0,rtz
   6473ee8f4f124:	0000                	.insn	2, 0x0000
   6473ee8f4f126:	0000                	.insn	2, 0x0000
   6473ee8f4f128:	042094cf          	fnmadd.h	f9,f1,f2,f0,rtz
   6473ee8f4f12c:	0000                	.insn	2, 0x0000
   6473ee8f4f12e:	0000                	.insn	2, 0x0000
   6473ee8f4f130:	042098cf          	fnmadd.h	f17,f1,f2,f0,rtz
   6473ee8f4f134:	0000                	.insn	2, 0x0000
   6473ee8f4f136:	0000                	.insn	2, 0x0000
   6473ee8f4f138:	04209ccf          	fnmadd.h	f25,f1,f2,f0,rtz
   6473ee8f4f13c:	0000                	.insn	2, 0x0000
   6473ee8f4f13e:	0000                	.insn	2, 0x0000
   6473ee8f4f140:	0420a0cf          	fnmadd.h	f1,f1,f2,f0,rdn
   6473ee8f4f144:	0000                	.insn	2, 0x0000
   6473ee8f4f146:	0000                	.insn	2, 0x0000
   6473ee8f4f148:	0420a4cf          	fnmadd.h	f9,f1,f2,f0,rdn
   6473ee8f4f14c:	0000                	.insn	2, 0x0000
   6473ee8f4f14e:	0000                	.insn	2, 0x0000
   6473ee8f4f150:	0420a8cf          	fnmadd.h	f17,f1,f2,f0,rdn
   6473ee8f4f154:	0000                	.insn	2, 0x0000
   6473ee8f4f156:	0000                	.insn	2, 0x0000
   6473ee8f4f158:	0420accf          	fnmadd.h	f25,f1,f2,f0,rdn
   6473ee8f4f15c:	0000                	.insn	2, 0x0000
   6473ee8f4f15e:	0000                	.insn	2, 0x0000
   6473ee8f4f160:	0420b0cf          	fnmadd.h	f1,f1,f2,f0,rup
   6473ee8f4f164:	0000                	.insn	2, 0x0000
   6473ee8f4f166:	0000                	.insn	2, 0x0000
   6473ee8f4f168:	0420b4cf          	fnmadd.h	f9,f1,f2,f0,rup
   6473ee8f4f16c:	0000                	.insn	2, 0x0000
   6473ee8f4f16e:	0000                	.insn	2, 0x0000
   6473ee8f4f170:	0420b8cf          	fnmadd.h	f17,f1,f2,f0,rup
   6473ee8f4f174:	0000                	.insn	2, 0x0000
   6473ee8f4f176:	0000                	.insn	2, 0x0000
   6473ee8f4f178:	0420bccf          	fnmadd.h	f25,f1,f2,f0,rup
   6473ee8f4f17c:	0000                	.insn	2, 0x0000
   6473ee8f4f17e:	0000                	.insn	2, 0x0000
   6473ee8f4f180:	0420c0cf          	fnmadd.h	f1,f1,f2,f0,rmm
   6473ee8f4f184:	0000                	.insn	2, 0x0000
   6473ee8f4f186:	0000                	.insn	2, 0x0000
   6473ee8f4f188:	0420c4cf          	fnmadd.h	f9,f1,f2,f0,rmm
   6473ee8f4f18c:	0000                	.insn	2, 0x0000
   6473ee8f4f18e:	0000                	.insn	2, 0x0000
   6473ee8f4f190:	0420c8cf          	fnmadd.h	f17,f1,f2,f0,rmm
   6473ee8f4f194:	0000                	.insn	2, 0x0000
   6473ee8f4f196:	0000                	.insn	2, 0x0000
   6473ee8f4f198:	0420cccf          	fnmadd.h	f25,f1,f2,f0,rmm
   6473ee8f4f19c:	0000                	.insn	2, 0x0000
   6473ee8f4f19e:	0000                	.insn	2, 0x0000
   6473ee8f4f1a0:	0420d0cf          	fnmadd.h	f1,f1,f2,f0,unknown
   6473ee8f4f1a4:	0000                	.insn	2, 0x0000
   6473ee8f4f1a6:	0000                	.insn	2, 0x0000
   6473ee8f4f1a8:	0420d4cf          	fnmadd.h	f9,f1,f2,f0,unknown
   6473ee8f4f1ac:	0000                	.insn	2, 0x0000
   6473ee8f4f1ae:	0000                	.insn	2, 0x0000
   6473ee8f4f1b0:	0420d8cf          	fnmadd.h	f17,f1,f2,f0,unknown
   6473ee8f4f1b4:	0000                	.insn	2, 0x0000
   6473ee8f4f1b6:	0000                	.insn	2, 0x0000
   6473ee8f4f1b8:	0420dccf          	fnmadd.h	f25,f1,f2,f0,unknown
   6473ee8f4f1bc:	0000                	.insn	2, 0x0000
   6473ee8f4f1be:	0000                	.insn	2, 0x0000
   6473ee8f4f1c0:	0420e0cf          	fnmadd.h	f1,f1,f2,f0,unknown
   6473ee8f4f1c4:	0000                	.insn	2, 0x0000
   6473ee8f4f1c6:	0000                	.insn	2, 0x0000
   6473ee8f4f1c8:	0420e4cf          	fnmadd.h	f9,f1,f2,f0,unknown
   6473ee8f4f1cc:	0000                	.insn	2, 0x0000
   6473ee8f4f1ce:	0000                	.insn	2, 0x0000
   6473ee8f4f1d0:	0420e8cf          	fnmadd.h	f17,f1,f2,f0,unknown
   6473ee8f4f1d4:	0000                	.insn	2, 0x0000
   6473ee8f4f1d6:	0000                	.insn	2, 0x0000
   6473ee8f4f1d8:	0420eccf          	fnmadd.h	f25,f1,f2,f0,unknown
   6473ee8f4f1dc:	0000                	.insn	2, 0x0000
   6473ee8f4f1de:	0000                	.insn	2, 0x0000
   6473ee8f4f1e0:	0420f0cf          	fnmadd.h	f1,f1,f2,f0
   6473ee8f4f1e4:	0000                	.insn	2, 0x0000
   6473ee8f4f1e6:	0000                	.insn	2, 0x0000
   6473ee8f4f1e8:	0420f4cf          	fnmadd.h	f9,f1,f2,f0
   6473ee8f4f1ec:	0000                	.insn	2, 0x0000
   6473ee8f4f1ee:	0000                	.insn	2, 0x0000
   6473ee8f4f1f0:	0420f8cf          	fnmadd.h	f17,f1,f2,f0
   6473ee8f4f1f4:	0000                	.insn	2, 0x0000
   6473ee8f4f1f6:	0000                	.insn	2, 0x0000
   6473ee8f4f1f8:	0420fccf          	fnmadd.h	f25,f1,f2,f0
   6473ee8f4f1fc:	0000                	.insn	2, 0x0000
   6473ee8f4f1fe:	0000                	.insn	2, 0x0000
   6473ee8f4f200:	042100cf          	fnmadd.h	f1,f2,f2,f0,rne
   6473ee8f4f204:	0000                	.insn	2, 0x0000
   6473ee8f4f206:	0000                	.insn	2, 0x0000
   6473ee8f4f208:	042104cf          	fnmadd.h	f9,f2,f2,f0,rne
   6473ee8f4f20c:	0000                	.insn	2, 0x0000
   6473ee8f4f20e:	0000                	.insn	2, 0x0000
   6473ee8f4f210:	042108cf          	fnmadd.h	f17,f2,f2,f0,rne
   6473ee8f4f214:	0000                	.insn	2, 0x0000
   6473ee8f4f216:	0000                	.insn	2, 0x0000
   6473ee8f4f218:	04210ccf          	fnmadd.h	f25,f2,f2,f0,rne
   6473ee8f4f21c:	0000                	.insn	2, 0x0000
   6473ee8f4f21e:	0000                	.insn	2, 0x0000
   6473ee8f4f220:	042110cf          	fnmadd.h	f1,f2,f2,f0,rtz
   6473ee8f4f224:	0000                	.insn	2, 0x0000
   6473ee8f4f226:	0000                	.insn	2, 0x0000
   6473ee8f4f228:	042114cf          	fnmadd.h	f9,f2,f2,f0,rtz
   6473ee8f4f22c:	0000                	.insn	2, 0x0000
   6473ee8f4f22e:	0000                	.insn	2, 0x0000
   6473ee8f4f230:	042118cf          	fnmadd.h	f17,f2,f2,f0,rtz
   6473ee8f4f234:	0000                	.insn	2, 0x0000
   6473ee8f4f236:	0000                	.insn	2, 0x0000
   6473ee8f4f238:	04211ccf          	fnmadd.h	f25,f2,f2,f0,rtz
   6473ee8f4f23c:	0000                	.insn	2, 0x0000
   6473ee8f4f23e:	0000                	.insn	2, 0x0000
   6473ee8f4f240:	042120cf          	fnmadd.h	f1,f2,f2,f0,rdn
   6473ee8f4f244:	0000                	.insn	2, 0x0000
   6473ee8f4f246:	0000                	.insn	2, 0x0000
   6473ee8f4f248:	042124cf          	fnmadd.h	f9,f2,f2,f0,rdn
   6473ee8f4f24c:	0000                	.insn	2, 0x0000
   6473ee8f4f24e:	0000                	.insn	2, 0x0000
   6473ee8f4f250:	042128cf          	fnmadd.h	f17,f2,f2,f0,rdn
   6473ee8f4f254:	0000                	.insn	2, 0x0000
   6473ee8f4f256:	0000                	.insn	2, 0x0000
   6473ee8f4f258:	04212ccf          	fnmadd.h	f25,f2,f2,f0,rdn
   6473ee8f4f25c:	0000                	.insn	2, 0x0000
   6473ee8f4f25e:	0000                	.insn	2, 0x0000
   6473ee8f4f260:	042130cf          	fnmadd.h	f1,f2,f2,f0,rup
   6473ee8f4f264:	0000                	.insn	2, 0x0000
   6473ee8f4f266:	0000                	.insn	2, 0x0000
   6473ee8f4f268:	042134cf          	fnmadd.h	f9,f2,f2,f0,rup
   6473ee8f4f26c:	0000                	.insn	2, 0x0000
   6473ee8f4f26e:	0000                	.insn	2, 0x0000
   6473ee8f4f270:	042138cf          	fnmadd.h	f17,f2,f2,f0,rup
   6473ee8f4f274:	0000                	.insn	2, 0x0000
   6473ee8f4f276:	0000                	.insn	2, 0x0000
   6473ee8f4f278:	04213ccf          	fnmadd.h	f25,f2,f2,f0,rup
   6473ee8f4f27c:	0000                	.insn	2, 0x0000
   6473ee8f4f27e:	0000                	.insn	2, 0x0000
   6473ee8f4f280:	042140cf          	fnmadd.h	f1,f2,f2,f0,rmm
   6473ee8f4f284:	0000                	.insn	2, 0x0000
   6473ee8f4f286:	0000                	.insn	2, 0x0000
   6473ee8f4f288:	042144cf          	fnmadd.h	f9,f2,f2,f0,rmm
   6473ee8f4f28c:	0000                	.insn	2, 0x0000
   6473ee8f4f28e:	0000                	.insn	2, 0x0000
   6473ee8f4f290:	042148cf          	fnmadd.h	f17,f2,f2,f0,rmm
   6473ee8f4f294:	0000                	.insn	2, 0x0000
   6473ee8f4f296:	0000                	.insn	2, 0x0000
   6473ee8f4f298:	04214ccf          	fnmadd.h	f25,f2,f2,f0,rmm
   6473ee8f4f29c:	0000                	.insn	2, 0x0000
   6473ee8f4f29e:	0000                	.insn	2, 0x0000
   6473ee8f4f2a0:	042150cf          	fnmadd.h	f1,f2,f2,f0,unknown
   6473ee8f4f2a4:	0000                	.insn	2, 0x0000
   6473ee8f4f2a6:	0000                	.insn	2, 0x0000
   6473ee8f4f2a8:	042154cf          	fnmadd.h	f9,f2,f2,f0,unknown
   6473ee8f4f2ac:	0000                	.insn	2, 0x0000
   6473ee8f4f2ae:	0000                	.insn	2, 0x0000
   6473ee8f4f2b0:	042158cf          	fnmadd.h	f17,f2,f2,f0,unknown
   6473ee8f4f2b4:	0000                	.insn	2, 0x0000
   6473ee8f4f2b6:	0000                	.insn	2, 0x0000
   6473ee8f4f2b8:	04215ccf          	fnmadd.h	f25,f2,f2,f0,unknown
   6473ee8f4f2bc:	0000                	.insn	2, 0x0000
   6473ee8f4f2be:	0000                	.insn	2, 0x0000
   6473ee8f4f2c0:	042160cf          	fnmadd.h	f1,f2,f2,f0,unknown
   6473ee8f4f2c4:	0000                	.insn	2, 0x0000
   6473ee8f4f2c6:	0000                	.insn	2, 0x0000
   6473ee8f4f2c8:	042164cf          	fnmadd.h	f9,f2,f2,f0,unknown
   6473ee8f4f2cc:	0000                	.insn	2, 0x0000
   6473ee8f4f2ce:	0000                	.insn	2, 0x0000
   6473ee8f4f2d0:	042168cf          	fnmadd.h	f17,f2,f2,f0,unknown
   6473ee8f4f2d4:	0000                	.insn	2, 0x0000
   6473ee8f4f2d6:	0000                	.insn	2, 0x0000
   6473ee8f4f2d8:	04216ccf          	fnmadd.h	f25,f2,f2,f0,unknown
   6473ee8f4f2dc:	0000                	.insn	2, 0x0000
   6473ee8f4f2de:	0000                	.insn	2, 0x0000
   6473ee8f4f2e0:	042170cf          	fnmadd.h	f1,f2,f2,f0
   6473ee8f4f2e4:	0000                	.insn	2, 0x0000
   6473ee8f4f2e6:	0000                	.insn	2, 0x0000
   6473ee8f4f2e8:	042174cf          	fnmadd.h	f9,f2,f2,f0
   6473ee8f4f2ec:	0000                	.insn	2, 0x0000
   6473ee8f4f2ee:	0000                	.insn	2, 0x0000
   6473ee8f4f2f0:	042178cf          	fnmadd.h	f17,f2,f2,f0
   6473ee8f4f2f4:	0000                	.insn	2, 0x0000
   6473ee8f4f2f6:	0000                	.insn	2, 0x0000
   6473ee8f4f2f8:	04217ccf          	fnmadd.h	f25,f2,f2,f0
   6473ee8f4f2fc:	0000                	.insn	2, 0x0000
   6473ee8f4f2fe:	0000                	.insn	2, 0x0000
   6473ee8f4f300:	042180cf          	fnmadd.h	f1,f3,f2,f0,rne
   6473ee8f4f304:	0000                	.insn	2, 0x0000
   6473ee8f4f306:	0000                	.insn	2, 0x0000
   6473ee8f4f308:	042184cf          	fnmadd.h	f9,f3,f2,f0,rne
   6473ee8f4f30c:	0000                	.insn	2, 0x0000
   6473ee8f4f30e:	0000                	.insn	2, 0x0000
   6473ee8f4f310:	042188cf          	fnmadd.h	f17,f3,f2,f0,rne
   6473ee8f4f314:	0000                	.insn	2, 0x0000
   6473ee8f4f316:	0000                	.insn	2, 0x0000
   6473ee8f4f318:	04218ccf          	fnmadd.h	f25,f3,f2,f0,rne
   6473ee8f4f31c:	0000                	.insn	2, 0x0000
   6473ee8f4f31e:	0000                	.insn	2, 0x0000
   6473ee8f4f320:	042190cf          	fnmadd.h	f1,f3,f2,f0,rtz
   6473ee8f4f324:	0000                	.insn	2, 0x0000
   6473ee8f4f326:	0000                	.insn	2, 0x0000
   6473ee8f4f328:	042194cf          	fnmadd.h	f9,f3,f2,f0,rtz
   6473ee8f4f32c:	0000                	.insn	2, 0x0000
   6473ee8f4f32e:	0000                	.insn	2, 0x0000
   6473ee8f4f330:	042198cf          	fnmadd.h	f17,f3,f2,f0,rtz
   6473ee8f4f334:	0000                	.insn	2, 0x0000
   6473ee8f4f336:	0000                	.insn	2, 0x0000
   6473ee8f4f338:	04219ccf          	fnmadd.h	f25,f3,f2,f0,rtz
   6473ee8f4f33c:	0000                	.insn	2, 0x0000
   6473ee8f4f33e:	0000                	.insn	2, 0x0000
   6473ee8f4f340:	0421a0cf          	fnmadd.h	f1,f3,f2,f0,rdn
   6473ee8f4f344:	0000                	.insn	2, 0x0000
   6473ee8f4f346:	0000                	.insn	2, 0x0000
   6473ee8f4f348:	0421a4cf          	fnmadd.h	f9,f3,f2,f0,rdn
   6473ee8f4f34c:	0000                	.insn	2, 0x0000
   6473ee8f4f34e:	0000                	.insn	2, 0x0000
   6473ee8f4f350:	0421a8cf          	fnmadd.h	f17,f3,f2,f0,rdn
   6473ee8f4f354:	0000                	.insn	2, 0x0000
   6473ee8f4f356:	0000                	.insn	2, 0x0000
   6473ee8f4f358:	0421accf          	fnmadd.h	f25,f3,f2,f0,rdn
   6473ee8f4f35c:	0000                	.insn	2, 0x0000
   6473ee8f4f35e:	0000                	.insn	2, 0x0000
   6473ee8f4f360:	0421b0cf          	fnmadd.h	f1,f3,f2,f0,rup
   6473ee8f4f364:	0000                	.insn	2, 0x0000
   6473ee8f4f366:	0000                	.insn	2, 0x0000
   6473ee8f4f368:	0421b4cf          	fnmadd.h	f9,f3,f2,f0,rup
   6473ee8f4f36c:	0000                	.insn	2, 0x0000
   6473ee8f4f36e:	0000                	.insn	2, 0x0000
   6473ee8f4f370:	0421b8cf          	fnmadd.h	f17,f3,f2,f0,rup
   6473ee8f4f374:	0000                	.insn	2, 0x0000
   6473ee8f4f376:	0000                	.insn	2, 0x0000
   6473ee8f4f378:	0421bccf          	fnmadd.h	f25,f3,f2,f0,rup
   6473ee8f4f37c:	0000                	.insn	2, 0x0000
   6473ee8f4f37e:	0000                	.insn	2, 0x0000
   6473ee8f4f380:	0421c0cf          	fnmadd.h	f1,f3,f2,f0,rmm
   6473ee8f4f384:	0000                	.insn	2, 0x0000
   6473ee8f4f386:	0000                	.insn	2, 0x0000
   6473ee8f4f388:	0421c4cf          	fnmadd.h	f9,f3,f2,f0,rmm
   6473ee8f4f38c:	0000                	.insn	2, 0x0000
   6473ee8f4f38e:	0000                	.insn	2, 0x0000
   6473ee8f4f390:	0421c8cf          	fnmadd.h	f17,f3,f2,f0,rmm
   6473ee8f4f394:	0000                	.insn	2, 0x0000
   6473ee8f4f396:	0000                	.insn	2, 0x0000
   6473ee8f4f398:	0421cccf          	fnmadd.h	f25,f3,f2,f0,rmm
   6473ee8f4f39c:	0000                	.insn	2, 0x0000
   6473ee8f4f39e:	0000                	.insn	2, 0x0000
   6473ee8f4f3a0:	0421d0cf          	fnmadd.h	f1,f3,f2,f0,unknown
   6473ee8f4f3a4:	0000                	.insn	2, 0x0000
   6473ee8f4f3a6:	0000                	.insn	2, 0x0000
   6473ee8f4f3a8:	0421d4cf          	fnmadd.h	f9,f3,f2,f0,unknown
   6473ee8f4f3ac:	0000                	.insn	2, 0x0000
   6473ee8f4f3ae:	0000                	.insn	2, 0x0000
   6473ee8f4f3b0:	0421d8cf          	fnmadd.h	f17,f3,f2,f0,unknown
   6473ee8f4f3b4:	0000                	.insn	2, 0x0000
   6473ee8f4f3b6:	0000                	.insn	2, 0x0000
   6473ee8f4f3b8:	0421dccf          	fnmadd.h	f25,f3,f2,f0,unknown
   6473ee8f4f3bc:	0000                	.insn	2, 0x0000
   6473ee8f4f3be:	0000                	.insn	2, 0x0000
   6473ee8f4f3c0:	0421e0cf          	fnmadd.h	f1,f3,f2,f0,unknown
   6473ee8f4f3c4:	0000                	.insn	2, 0x0000
   6473ee8f4f3c6:	0000                	.insn	2, 0x0000
   6473ee8f4f3c8:	0421e4cf          	fnmadd.h	f9,f3,f2,f0,unknown
   6473ee8f4f3cc:	0000                	.insn	2, 0x0000
   6473ee8f4f3ce:	0000                	.insn	2, 0x0000
   6473ee8f4f3d0:	0421e8cf          	fnmadd.h	f17,f3,f2,f0,unknown
   6473ee8f4f3d4:	0000                	.insn	2, 0x0000
   6473ee8f4f3d6:	0000                	.insn	2, 0x0000
   6473ee8f4f3d8:	0421eccf          	fnmadd.h	f25,f3,f2,f0,unknown
   6473ee8f4f3dc:	0000                	.insn	2, 0x0000
   6473ee8f4f3de:	0000                	.insn	2, 0x0000
   6473ee8f4f3e0:	0421f0cf          	fnmadd.h	f1,f3,f2,f0
   6473ee8f4f3e4:	0000                	.insn	2, 0x0000
   6473ee8f4f3e6:	0000                	.insn	2, 0x0000
   6473ee8f4f3e8:	0421f4cf          	fnmadd.h	f9,f3,f2,f0
   6473ee8f4f3ec:	0000                	.insn	2, 0x0000
   6473ee8f4f3ee:	0000                	.insn	2, 0x0000
   6473ee8f4f3f0:	0421f8cf          	fnmadd.h	f17,f3,f2,f0
   6473ee8f4f3f4:	0000                	.insn	2, 0x0000
   6473ee8f4f3f6:	0000                	.insn	2, 0x0000
   6473ee8f4f3f8:	0421fccf          	fnmadd.h	f25,f3,f2,f0
   6473ee8f4f3fc:	0000                	.insn	2, 0x0000
