
/home/abdullah/RiescueC/riescue/10x_R/exceptions/testsuite/exceptions/user_sv48/tp_exceptions_2:     file format elf64-littleriscv


Disassembly of section .runtime:

0000000041000000 <_start>:
    41000000:	00000093          	li	x1,0
    41000004:	00000113          	li	x2,0
    41000008:	00000193          	li	x3,0
    4100000c:	00000213          	li	x4,0
    41000010:	00000293          	li	x5,0
    41000014:	00000313          	li	x6,0
    41000018:	00000393          	li	x7,0
    4100001c:	00000413          	li	x8,0
    41000020:	00000493          	li	x9,0
    41000024:	00000513          	li	x10,0
    41000028:	00000593          	li	x11,0
    4100002c:	00000613          	li	x12,0
    41000030:	00000693          	li	x13,0
    41000034:	00000713          	li	x14,0
    41000038:	00000793          	li	x15,0
    4100003c:	00000813          	li	x16,0
    41000040:	00000893          	li	x17,0
    41000044:	00000913          	li	x18,0
    41000048:	00000993          	li	x19,0
    4100004c:	00000a13          	li	x20,0
    41000050:	00000a93          	li	x21,0
    41000054:	00000b13          	li	x22,0
    41000058:	00000b93          	li	x23,0
    4100005c:	00000c13          	li	x24,0
    41000060:	00000c93          	li	x25,0
    41000064:	00000d13          	li	x26,0
    41000068:	00000d93          	li	x27,0
    4100006c:	00000e13          	li	x28,0
    41000070:	00000e93          	li	x29,0
    41000074:	00000f13          	li	x30,0
    41000078:	00000f93          	li	x31,0

000000004100007c <loader__load_panic_address>:
    4100007c:	00001297          	auipc	x5,0x1
    41000080:	9e828293          	addi	x5,x5,-1560 # 41000a64 <eot__failed>
    41000084:	30529073          	csrw	mtvec,x5

0000000041000088 <loader__initialize_runtime>:
    41000088:	00000293          	li	x5,0
    4100008c:	3012a2f3          	csrrs	x5,misa,x5

0000000041000090 <loader__set_mstatus>:
    41000090:	000402b7          	lui	x5,0x40
    41000094:	00a2829b          	addiw	x5,x5,10 # 4000a <pma_region_0_size+0xa>
    41000098:	3002a2f3          	csrrs	x5,mstatus,x5
    4100009c:	42cff237          	lui	x4,0x42cff
    410000a0:	34021073          	csrw	mscratch,x4

00000000410000a4 <loader__setup_menvcfg>:
    410000a4:	00000297          	auipc	x5,0x0
    410000a8:	4a828293          	addi	x5,x5,1192 # 4100054c <trap_handler_m__trap_entry>
    410000ac:	30529073          	csrw	mtvec,x5

00000000410000b0 <loader__enable_paging>:
    410000b0:	fffe40b7          	lui	x1,0xfffe4
    410000b4:	0210809b          	addiw	x1,x1,33 # fffffffffffe4021 <SID_EXCEP_06_stack+0xffffcd603807c021>
    410000b8:	02209093          	slli	x1,x1,0x22
    410000bc:	04308093          	addi	x1,x1,67
    410000c0:	00c09093          	slli	x1,x1,0xc
    410000c4:	a9e08093          	addi	x1,x1,-1378
    410000c8:	18009073          	csrw	satp,x1

00000000410000cc <loader__done>:
    410000cc:	1c10006f          	j	41000a8c <scheduler__init>

00000000410000d0 <loader__panic>:
    410000d0:	1950006f          	j	41000a64 <eot__failed>

00000000410000d4 <syscalls__syscall_check_schedule_next_test>:
    410000d4:	00f0029b          	addiw	x5,x0,15
    410000d8:	01c29293          	slli	x5,x5,0x1c
    410000dc:	00128293          	addi	x5,x5,1
    410000e0:	01f29a63          	bne	x5,x31,410000f4 <syscalls__syscall_check_fail_test>
    410000e4:	00000317          	auipc	x6,0x0
    410000e8:	46830313          	addi	x6,x6,1128 # 4100054c <trap_handler_m__trap_entry>
    410000ec:	30531073          	csrw	mtvec,x6
    410000f0:	6a00006f          	j	41000790 <enter_scheduler>

00000000410000f4 <syscalls__syscall_check_fail_test>:
    410000f4:	00f0029b          	addiw	x5,x0,15
    410000f8:	01c29293          	slli	x5,x5,0x1c
    410000fc:	00228293          	addi	x5,x5,2
    41000100:	01f29a63          	bne	x5,x31,41000114 <syscalls__syscall_check_end_test_without_failure>
    41000104:	00000317          	auipc	x6,0x0
    41000108:	44830313          	addi	x6,x6,1096 # 4100054c <trap_handler_m__trap_entry>
    4100010c:	30531073          	csrw	mtvec,x6
    41000110:	6b00006f          	j	410007c0 <test_failed>

0000000041000114 <syscalls__syscall_check_end_test_without_failure>:
    41000114:	00f0029b          	addiw	x5,x0,15
    41000118:	01c29293          	slli	x5,x5,0x1c
    4100011c:	00328293          	addi	x5,x5,3
    41000120:	01f29a63          	bne	x5,x31,41000134 <syscalls__syscall_check_switch_machine_mode>
    41000124:	00000317          	auipc	x6,0x0
    41000128:	42830313          	addi	x6,x6,1064 # 4100054c <trap_handler_m__trap_entry>
    4100012c:	30531073          	csrw	mtvec,x6
    41000130:	69c0006f          	j	410007cc <os_end_test>

0000000041000134 <syscalls__syscall_check_switch_machine_mode>:
    41000134:	000f02b7          	lui	x5,0xf0
    41000138:	0012829b          	addiw	x5,x5,1 # f0001 <__section_os_data_1+0x75001>
    4100013c:	00c29293          	slli	x5,x5,0xc
    41000140:	00128293          	addi	x5,x5,1
    41000144:	0a5f8463          	beq	x31,x5,410001ec <syscalls__os_fn_f0001001>

0000000041000148 <syscalls__syscall_check_switch_super_mode>:
    41000148:	000f02b7          	lui	x5,0xf0
    4100014c:	0012829b          	addiw	x5,x5,1 # f0001 <__section_os_data_1+0x75001>
    41000150:	00c29293          	slli	x5,x5,0xc
    41000154:	00228293          	addi	x5,x5,2
    41000158:	0c5f8063          	beq	x31,x5,41000218 <syscalls__os_fn_f0001002>

000000004100015c <syscalls__syscall_check_switch_user_mode>:
    4100015c:	000f02b7          	lui	x5,0xf0
    41000160:	0012829b          	addiw	x5,x5,1 # f0001 <__section_os_data_1+0x75001>
    41000164:	00c29293          	slli	x5,x5,0xc
    41000168:	00328293          	addi	x5,x5,3
    4100016c:	0c5f8e63          	beq	x31,x5,41000248 <syscalls__os_fn_f0001003>

0000000041000170 <syscalls__syscall_check_switch_test_mode>:
    41000170:	000f02b7          	lui	x5,0xf0
    41000174:	0012829b          	addiw	x5,x5,1 # f0001 <__section_os_data_1+0x75001>
    41000178:	00c29293          	slli	x5,x5,0xc
    4100017c:	00428293          	addi	x5,x5,4
    41000180:	0c5f8863          	beq	x31,x5,41000250 <syscalls__os_fn_f0001004>

0000000041000184 <syscalls__syscall_machine_csr_rw>:
    41000184:	000f02b7          	lui	x5,0xf0
    41000188:	0012829b          	addiw	x5,x5,1 # f0001 <__section_os_data_1+0x75001>
    4100018c:	00c29293          	slli	x5,x5,0xc
    41000190:	00528293          	addi	x5,x5,5
    41000194:	0e5f8263          	beq	x31,x5,41000278 <syscalls__os_fn_f0001005>

0000000041000198 <syscalls__syscall_supervisor_csr_rw>:
    41000198:	000f02b7          	lui	x5,0xf0
    4100019c:	0012829b          	addiw	x5,x5,1 # f0001 <__section_os_data_1+0x75001>
    410001a0:	00c29293          	slli	x5,x5,0xc
    410001a4:	00628293          	addi	x5,x5,6
    410001a8:	0e5f8e63          	beq	x31,x5,410002a4 <syscalls__os_fn_f0001006>

00000000410001ac <syscalls__syscall_machine_pte_read>:
    410001ac:	000f02b7          	lui	x5,0xf0
    410001b0:	0012829b          	addiw	x5,x5,1 # f0001 <__section_os_data_1+0x75001>
    410001b4:	00c29293          	slli	x5,x5,0xc
    410001b8:	00728293          	addi	x5,x5,7
    410001bc:	105f8c63          	beq	x31,x5,410002d4 <syscalls__os_fn_f0001007>

00000000410001c0 <syscalls__syscall_machine_pte_write>:
    410001c0:	000f02b7          	lui	x5,0xf0
    410001c4:	0012829b          	addiw	x5,x5,1 # f0001 <__section_os_data_1+0x75001>
    410001c8:	00c29293          	slli	x5,x5,0xc
    410001cc:	00828293          	addi	x5,x5,8
    410001d0:	1e5f8863          	beq	x31,x5,410003c0 <syscalls__os_fn_f0001008>

00000000410001d4 <syscalls__syscall_check_get_hart_context>:
    410001d4:	000782b7          	lui	x5,0x78
    410001d8:	0012829b          	addiw	x5,x5,1 # 78001 <SID_EXCEP_04_SU_stack+0x26001>
    410001dc:	00d29293          	slli	x5,x5,0xd
    410001e0:	00128293          	addi	x5,x5,1
    410001e4:	2c5f8463          	beq	x31,x5,410004ac <syscalls__os_get_hart_context>
    410001e8:	4c00006f          	j	410006a8 <trap_handler_m__check_exception_label>

00000000410001ec <syscalls__os_fn_f0001001>:
    410001ec:	000022b7          	lui	x5,0x2
    410001f0:	8002829b          	addiw	x5,x5,-2048 # 1800 <pma_region_1_size+0x800>
    410001f4:	3002b073          	csrc	mstatus,x5
    410001f8:	000022b7          	lui	x5,0x2
    410001fc:	8002829b          	addiw	x5,x5,-2048 # 1800 <pma_region_1_size+0x800>
    41000200:	3002a073          	csrs	mstatus,x5
    41000204:	0010029b          	addiw	x5,x0,1
    41000208:	02729293          	slli	x5,x5,0x27
    4100020c:	3002b073          	csrc	mstatus,x5
    41000210:	411952b7          	lui	x5,0x41195
    41000214:	2a80006f          	j	410004bc <syscalls__ret_from_os_fn>

0000000041000218 <syscalls__os_fn_f0001002>:
    41000218:	000022b7          	lui	x5,0x2
    4100021c:	8002829b          	addiw	x5,x5,-2048 # 1800 <pma_region_1_size+0x800>
    41000220:	3002b073          	csrc	mstatus,x5
    41000224:	000012b7          	lui	x5,0x1
    41000228:	8002829b          	addiw	x5,x5,-2048 # 800 <XLEN+0x7c0>
    4100022c:	3002a073          	csrs	mstatus,x5
    41000230:	0010029b          	addiw	x5,x0,1
    41000234:	02729293          	slli	x5,x5,0x27
    41000238:	3002b073          	csrc	mstatus,x5
    4100023c:	12000073          	sfence.vma
    41000240:	410952b7          	lui	x5,0x41095
    41000244:	2780006f          	j	410004bc <syscalls__ret_from_os_fn>

0000000041000248 <syscalls__os_fn_f0001003>:
    41000248:	411152b7          	lui	x5,0x41115
    4100024c:	2700006f          	j	410004bc <syscalls__ret_from_os_fn>

0000000041000250 <syscalls__os_fn_f0001004>:
    41000250:	000022b7          	lui	x5,0x2
    41000254:	8002829b          	addiw	x5,x5,-2048 # 1800 <pma_region_1_size+0x800>
    41000258:	3002b073          	csrc	mstatus,x5
    4100025c:	00000293          	li	x5,0
    41000260:	3002a073          	csrs	mstatus,x5
    41000264:	0010029b          	addiw	x5,x0,1
    41000268:	02729293          	slli	x5,x5,0x27
    4100026c:	3002b073          	csrc	mstatus,x5
    41000270:	17823283          	ld	x5,376(x4) # 42cff178 <__section_hart_context+0x178>
    41000274:	2480006f          	j	410004bc <syscalls__ret_from_os_fn>

0000000041000278 <syscalls__os_fn_f0001005>:
    41000278:	000022b7          	lui	x5,0x2
    4100027c:	8002829b          	addiw	x5,x5,-2048 # 1800 <pma_region_1_size+0x800>
    41000280:	3002b073          	csrc	mstatus,x5
    41000284:	000022b7          	lui	x5,0x2
    41000288:	8002829b          	addiw	x5,x5,-2048 # 1800 <pma_region_1_size+0x800>
    4100028c:	3002a073          	csrs	mstatus,x5
    41000290:	0010029b          	addiw	x5,x0,1
    41000294:	02729293          	slli	x5,x5,0x27
    41000298:	3002b073          	csrc	mstatus,x5
    4100029c:	412152b7          	lui	x5,0x41215
    410002a0:	21c0006f          	j	410004bc <syscalls__ret_from_os_fn>

00000000410002a4 <syscalls__os_fn_f0001006>:
    410002a4:	000022b7          	lui	x5,0x2
    410002a8:	8002829b          	addiw	x5,x5,-2048 # 1800 <pma_region_1_size+0x800>
    410002ac:	3002b073          	csrc	mstatus,x5
    410002b0:	000012b7          	lui	x5,0x1
    410002b4:	8002829b          	addiw	x5,x5,-2048 # 800 <XLEN+0x7c0>
    410002b8:	3002a073          	csrs	mstatus,x5
    410002bc:	0010029b          	addiw	x5,x0,1
    410002c0:	02729293          	slli	x5,x5,0x27
    410002c4:	3002b073          	csrc	mstatus,x5
    410002c8:	12000073          	sfence.vma
    410002cc:	412162b7          	lui	x5,0x41216
    410002d0:	1ec0006f          	j	410004bc <syscalls__ret_from_os_fn>

00000000410002d4 <syscalls__os_fn_f0001007>:
    410002d4:	43ecefb7          	lui	x31,0x43ece
    410002d8:	0b8f8f9b          	addiw	x31,x31,184 # 43ece0b8 <pte_access_flags_pa>
    410002dc:	000fbf83          	ld	x31,0(x31)
    410002e0:	43ece2b7          	lui	x5,0x43ece
    410002e4:	0c02829b          	addiw	x5,x5,192 # 43ece0c0 <pte_access_flags_pa+0x8>
    410002e8:	0002b283          	ld	x5,0(x5)
    410002ec:	43ecee37          	lui	x28,0x43ece
    410002f0:	0c8e0e1b          	addiw	x28,x28,200 # 43ece0c8 <pte_access_flags_pa+0x10>
    410002f4:	000e3e03          	ld	x28,0(x28)

00000000410002f8 <syscalls__pte_walk_check_glevel_without_gstage_read>:
    410002f8:	fff00f93          	li	x31,-1
    410002fc:	0dfe1063          	bne	x28,x31,410003bc <syscalls__pte_walk_fail_read>
    41000300:	18002373          	csrr	x6,satp
    41000304:	03c35e93          	srli	x29,x6,0x3c
    41000308:	01431313          	slli	x6,x6,0x14
    4100030c:	01435313          	srli	x6,x6,0x14
    41000310:	00c31313          	slli	x6,x6,0xc
    41000314:	ff8e8e93          	addi	x29,x29,-8
    41000318:	003e9f13          	slli	x30,x29,0x3
    4100031c:	01df0eb3          	add	x29,x30,x29
    41000320:	01ee8e93          	addi	x29,x29,30
    41000324:	00000f13          	li	x30,0

0000000041000328 <syscalls__pte_walk_loop_read>:
    41000328:	43ecefb7          	lui	x31,0x43ece
    4100032c:	0b8f8f9b          	addiw	x31,x31,184 # 43ece0b8 <pte_access_flags_pa>
    41000330:	000fbf83          	ld	x31,0(x31)
    41000334:	01dfdfb3          	srl	x31,x31,x29
    41000338:	1fffff93          	andi	x31,x31,511
    4100033c:	003f9f93          	slli	x31,x31,0x3
    41000340:	01f30333          	add	x6,x6,x31
    41000344:	005f0e63          	beq	x30,x5,41000360 <syscalls__pte_walk_done_read>
    41000348:	00033f83          	ld	x31,0(x6)
    4100034c:	00afdf93          	srli	x31,x31,0xa
    41000350:	00cf9313          	slli	x6,x31,0xc
    41000354:	001f0f13          	addi	x30,x30,1
    41000358:	ff7e8e93          	addi	x29,x29,-9
    4100035c:	fcdff06f          	j	41000328 <syscalls__pte_walk_loop_read>

0000000041000360 <syscalls__pte_walk_done_read>:
    41000360:	fff00f93          	li	x31,-1
    41000364:	05fe0263          	beq	x28,x31,410003a8 <syscalls__pte_walk_final_read>

0000000041000368 <syscalls__pte_walk_gstage_read>:
    41000368:	43ecefb7          	lui	x31,0x43ece
    4100036c:	0b8f8f9b          	addiw	x31,x31,184 # 43ece0b8 <pte_access_flags_pa>
    41000370:	006fb023          	sd	x6,0(x31)
    41000374:	000e0293          	mv	x5,x28
    41000378:	fff00e13          	li	x28,-1
    4100037c:	68002373          	csrr	x6,hgatp
    41000380:	03c35e93          	srli	x29,x6,0x3c
    41000384:	01431313          	slli	x6,x6,0x14
    41000388:	01435313          	srli	x6,x6,0x14
    4100038c:	00c31313          	slli	x6,x6,0xc
    41000390:	ff8e8e93          	addi	x29,x29,-8
    41000394:	003e9f13          	slli	x30,x29,0x3
    41000398:	01df0eb3          	add	x29,x30,x29
    4100039c:	01ee8e93          	addi	x29,x29,30
    410003a0:	00000f13          	li	x30,0
    410003a4:	f85ff06f          	j	41000328 <syscalls__pte_walk_loop_read>

00000000410003a8 <syscalls__pte_walk_final_read>:
    410003a8:	00033383          	ld	x7,0(x6)
    410003ac:	341022f3          	csrr	x5,mepc
    410003b0:	00428293          	addi	x5,x5,4
    410003b4:	16523c23          	sd	x5,376(x4) # 178 <XLEN+0x138>
    410003b8:	e99ff06f          	j	41000250 <syscalls__os_fn_f0001004>

00000000410003bc <syscalls__pte_walk_fail_read>:
    410003bc:	4040006f          	j	410007c0 <test_failed>

00000000410003c0 <syscalls__os_fn_f0001008>:
    410003c0:	43ecefb7          	lui	x31,0x43ece
    410003c4:	0b8f8f9b          	addiw	x31,x31,184 # 43ece0b8 <pte_access_flags_pa>
    410003c8:	000fbf83          	ld	x31,0(x31)
    410003cc:	43ece2b7          	lui	x5,0x43ece
    410003d0:	0c02829b          	addiw	x5,x5,192 # 43ece0c0 <pte_access_flags_pa+0x8>
    410003d4:	0002b283          	ld	x5,0(x5)
    410003d8:	43ecee37          	lui	x28,0x43ece
    410003dc:	0c8e0e1b          	addiw	x28,x28,200 # 43ece0c8 <pte_access_flags_pa+0x10>
    410003e0:	000e3e03          	ld	x28,0(x28)

00000000410003e4 <syscalls__pte_walk_check_glevel_without_gstage_write>:
    410003e4:	fff00f93          	li	x31,-1
    410003e8:	0dfe1063          	bne	x28,x31,410004a8 <syscalls__pte_walk_fail_write>
    410003ec:	18002373          	csrr	x6,satp
    410003f0:	03c35e93          	srli	x29,x6,0x3c
    410003f4:	01431313          	slli	x6,x6,0x14
    410003f8:	01435313          	srli	x6,x6,0x14
    410003fc:	00c31313          	slli	x6,x6,0xc
    41000400:	ff8e8e93          	addi	x29,x29,-8
    41000404:	003e9f13          	slli	x30,x29,0x3
    41000408:	01df0eb3          	add	x29,x30,x29
    4100040c:	01ee8e93          	addi	x29,x29,30
    41000410:	00000f13          	li	x30,0

0000000041000414 <syscalls__pte_walk_loop_write>:
    41000414:	43ecefb7          	lui	x31,0x43ece
    41000418:	0b8f8f9b          	addiw	x31,x31,184 # 43ece0b8 <pte_access_flags_pa>
    4100041c:	000fbf83          	ld	x31,0(x31)
    41000420:	01dfdfb3          	srl	x31,x31,x29
    41000424:	1fffff93          	andi	x31,x31,511
    41000428:	003f9f93          	slli	x31,x31,0x3
    4100042c:	01f30333          	add	x6,x6,x31
    41000430:	005f0e63          	beq	x30,x5,4100044c <syscalls__pte_walk_done_write>
    41000434:	00033f83          	ld	x31,0(x6)
    41000438:	00afdf93          	srli	x31,x31,0xa
    4100043c:	00cf9313          	slli	x6,x31,0xc
    41000440:	001f0f13          	addi	x30,x30,1
    41000444:	ff7e8e93          	addi	x29,x29,-9
    41000448:	fcdff06f          	j	41000414 <syscalls__pte_walk_loop_write>

000000004100044c <syscalls__pte_walk_done_write>:
    4100044c:	fff00f93          	li	x31,-1
    41000450:	05fe0263          	beq	x28,x31,41000494 <syscalls__pte_walk_final_write>

0000000041000454 <syscalls__pte_walk_gstage_write>:
    41000454:	43ecefb7          	lui	x31,0x43ece
    41000458:	0b8f8f9b          	addiw	x31,x31,184 # 43ece0b8 <pte_access_flags_pa>
    4100045c:	006fb023          	sd	x6,0(x31)
    41000460:	000e0293          	mv	x5,x28
    41000464:	fff00e13          	li	x28,-1
    41000468:	68002373          	csrr	x6,hgatp
    4100046c:	03c35e93          	srli	x29,x6,0x3c
    41000470:	01431313          	slli	x6,x6,0x14
    41000474:	01435313          	srli	x6,x6,0x14
    41000478:	00c31313          	slli	x6,x6,0xc
    4100047c:	ff8e8e93          	addi	x29,x29,-8
    41000480:	003e9f13          	slli	x30,x29,0x3
    41000484:	01df0eb3          	add	x29,x30,x29
    41000488:	01ee8e93          	addi	x29,x29,30
    4100048c:	00000f13          	li	x30,0
    41000490:	f85ff06f          	j	41000414 <syscalls__pte_walk_loop_write>

0000000041000494 <syscalls__pte_walk_final_write>:
    41000494:	00733023          	sd	x7,0(x6)
    41000498:	341022f3          	csrr	x5,mepc
    4100049c:	00428293          	addi	x5,x5,4
    410004a0:	16523c23          	sd	x5,376(x4) # 178 <XLEN+0x138>
    410004a4:	dadff06f          	j	41000250 <syscalls__os_fn_f0001004>

00000000410004a8 <syscalls__pte_walk_fail_write>:
    410004a8:	3180006f          	j	410007c0 <test_failed>

00000000410004ac <syscalls__os_get_hart_context>:
    410004ac:	14002573          	csrr	x10,sscratch
    410004b0:	341022f3          	csrr	x5,mepc
    410004b4:	00428293          	addi	x5,x5,4
    410004b8:	0040006f          	j	410004bc <syscalls__ret_from_os_fn>

00000000410004bc <syscalls__ret_from_os_fn>:
    410004bc:	34102373          	csrr	x6,mepc
    410004c0:	00430313          	addi	x6,x6,4
    410004c4:	16623c23          	sd	x6,376(x4) # 178 <XLEN+0x138>
    410004c8:	34129073          	csrw	mepc,x5
    410004cc:	fff00f93          	li	x31,-1
    410004d0:	2a40006f          	j	41000774 <trap_handler_m__skip_xepc_write>

00000000410004d4 <trap_handler_m__invalid_interrupt>:
    410004d4:	2ec0006f          	j	410007c0 <test_failed>

00000000410004d8 <trap_handler_m__clear_all_interrupts>:
    410004d8:	34401073          	csrw	mip,x0
    410004dc:	30200073          	mret

00000000410004e0 <trap_handler_m___CLEAR_SSI>:
    410004e0:	00200293          	li	x5,2
    410004e4:	3442b073          	csrc	mip,x5
    410004e8:	30200073          	mret

00000000410004ec <trap_handler_m___CLEAR_MSI>:
    410004ec:	00800293          	li	x5,8
    410004f0:	3442b073          	csrc	mip,x5
    410004f4:	30200073          	mret

00000000410004f8 <trap_handler_m___CLEAR_STI>:
    410004f8:	02000293          	li	x5,32
    410004fc:	3442b073          	csrc	mip,x5
    41000500:	30200073          	mret

0000000041000504 <trap_handler_m___CLEAR_MTI>:
    41000504:	08000293          	li	x5,128
    41000508:	3442b073          	csrc	mip,x5
    4100050c:	30200073          	mret

0000000041000510 <trap_handler_m___CLEAR_SEI>:
    41000510:	20000293          	li	x5,512
    41000514:	3442b073          	csrc	mip,x5
    41000518:	30200073          	mret

000000004100051c <trap_handler_m___CLEAR_MEI>:
    4100051c:	000012b7          	lui	x5,0x1
    41000520:	8002829b          	addiw	x5,x5,-2048 # 800 <XLEN+0x7c0>
    41000524:	3442b073          	csrc	mip,x5
    41000528:	30200073          	mret

000000004100052c <trap_handler_m___CLEAR_COI>:
    4100052c:	000022b7          	lui	x5,0x2
    41000530:	3442b073          	csrc	mip,x5
    41000534:	30200073          	mret

0000000041000538 <trap_handler_m__clear_highest_priority_interrupt>:
    41000538:	344022f3          	csrr	x5,mip
    4100053c:	40500333          	neg	x6,x5
    41000540:	0062f2b3          	and	x5,x5,x6
    41000544:	3442b073          	csrc	mip,x5
    41000548:	30200073          	mret

000000004100054c <trap_handler_m__trap_entry>:
    4100054c:	0fc0006f          	j	41000648 <trap_handler_m__trap_handler>

0000000041000550 <trap_handler_m__interrupt_vector_table>:
    41000550:	f91ff06f          	j	410004e0 <trap_handler_m___CLEAR_SSI>
    41000554:	f81ff06f          	j	410004d4 <trap_handler_m__invalid_interrupt>
    41000558:	f95ff06f          	j	410004ec <trap_handler_m___CLEAR_MSI>
    4100055c:	f79ff06f          	j	410004d4 <trap_handler_m__invalid_interrupt>
    41000560:	f99ff06f          	j	410004f8 <trap_handler_m___CLEAR_STI>
    41000564:	f71ff06f          	j	410004d4 <trap_handler_m__invalid_interrupt>
    41000568:	f9dff06f          	j	41000504 <trap_handler_m___CLEAR_MTI>
    4100056c:	f69ff06f          	j	410004d4 <trap_handler_m__invalid_interrupt>
    41000570:	fa1ff06f          	j	41000510 <trap_handler_m___CLEAR_SEI>
    41000574:	f61ff06f          	j	410004d4 <trap_handler_m__invalid_interrupt>
    41000578:	fa5ff06f          	j	4100051c <trap_handler_m___CLEAR_MEI>
    4100057c:	f59ff06f          	j	410004d4 <trap_handler_m__invalid_interrupt>
    41000580:	fadff06f          	j	4100052c <trap_handler_m___CLEAR_COI>
    41000584:	f51ff06f          	j	410004d4 <trap_handler_m__invalid_interrupt>
    41000588:	f4dff06f          	j	410004d4 <trap_handler_m__invalid_interrupt>
    4100058c:	fadff06f          	j	41000538 <trap_handler_m__clear_highest_priority_interrupt>
    41000590:	fa9ff06f          	j	41000538 <trap_handler_m__clear_highest_priority_interrupt>
    41000594:	fa5ff06f          	j	41000538 <trap_handler_m__clear_highest_priority_interrupt>
    41000598:	fa1ff06f          	j	41000538 <trap_handler_m__clear_highest_priority_interrupt>
    4100059c:	f9dff06f          	j	41000538 <trap_handler_m__clear_highest_priority_interrupt>
    410005a0:	f99ff06f          	j	41000538 <trap_handler_m__clear_highest_priority_interrupt>
    410005a4:	f95ff06f          	j	41000538 <trap_handler_m__clear_highest_priority_interrupt>
    410005a8:	f91ff06f          	j	41000538 <trap_handler_m__clear_highest_priority_interrupt>
    410005ac:	f8dff06f          	j	41000538 <trap_handler_m__clear_highest_priority_interrupt>
    410005b0:	f89ff06f          	j	41000538 <trap_handler_m__clear_highest_priority_interrupt>
    410005b4:	f85ff06f          	j	41000538 <trap_handler_m__clear_highest_priority_interrupt>
    410005b8:	f81ff06f          	j	41000538 <trap_handler_m__clear_highest_priority_interrupt>
    410005bc:	f7dff06f          	j	41000538 <trap_handler_m__clear_highest_priority_interrupt>
    410005c0:	f79ff06f          	j	41000538 <trap_handler_m__clear_highest_priority_interrupt>
    410005c4:	f75ff06f          	j	41000538 <trap_handler_m__clear_highest_priority_interrupt>
    410005c8:	f71ff06f          	j	41000538 <trap_handler_m__clear_highest_priority_interrupt>
    410005cc:	f6dff06f          	j	41000538 <trap_handler_m__clear_highest_priority_interrupt>
    410005d0:	f69ff06f          	j	41000538 <trap_handler_m__clear_highest_priority_interrupt>
    410005d4:	f65ff06f          	j	41000538 <trap_handler_m__clear_highest_priority_interrupt>
    410005d8:	f61ff06f          	j	41000538 <trap_handler_m__clear_highest_priority_interrupt>
    410005dc:	f5dff06f          	j	41000538 <trap_handler_m__clear_highest_priority_interrupt>
    410005e0:	f59ff06f          	j	41000538 <trap_handler_m__clear_highest_priority_interrupt>
    410005e4:	f55ff06f          	j	41000538 <trap_handler_m__clear_highest_priority_interrupt>
    410005e8:	f51ff06f          	j	41000538 <trap_handler_m__clear_highest_priority_interrupt>
    410005ec:	f4dff06f          	j	41000538 <trap_handler_m__clear_highest_priority_interrupt>
    410005f0:	f49ff06f          	j	41000538 <trap_handler_m__clear_highest_priority_interrupt>
    410005f4:	f45ff06f          	j	41000538 <trap_handler_m__clear_highest_priority_interrupt>
    410005f8:	f41ff06f          	j	41000538 <trap_handler_m__clear_highest_priority_interrupt>
    410005fc:	f3dff06f          	j	41000538 <trap_handler_m__clear_highest_priority_interrupt>
    41000600:	f39ff06f          	j	41000538 <trap_handler_m__clear_highest_priority_interrupt>
    41000604:	f35ff06f          	j	41000538 <trap_handler_m__clear_highest_priority_interrupt>
    41000608:	f31ff06f          	j	41000538 <trap_handler_m__clear_highest_priority_interrupt>
    4100060c:	f2dff06f          	j	41000538 <trap_handler_m__clear_highest_priority_interrupt>
    41000610:	f29ff06f          	j	41000538 <trap_handler_m__clear_highest_priority_interrupt>
    41000614:	f25ff06f          	j	41000538 <trap_handler_m__clear_highest_priority_interrupt>
    41000618:	f21ff06f          	j	41000538 <trap_handler_m__clear_highest_priority_interrupt>
    4100061c:	f1dff06f          	j	41000538 <trap_handler_m__clear_highest_priority_interrupt>
    41000620:	f19ff06f          	j	41000538 <trap_handler_m__clear_highest_priority_interrupt>
    41000624:	f15ff06f          	j	41000538 <trap_handler_m__clear_highest_priority_interrupt>
    41000628:	f11ff06f          	j	41000538 <trap_handler_m__clear_highest_priority_interrupt>
    4100062c:	f0dff06f          	j	41000538 <trap_handler_m__clear_highest_priority_interrupt>
    41000630:	f09ff06f          	j	41000538 <trap_handler_m__clear_highest_priority_interrupt>
    41000634:	f05ff06f          	j	41000538 <trap_handler_m__clear_highest_priority_interrupt>
    41000638:	f01ff06f          	j	41000538 <trap_handler_m__clear_highest_priority_interrupt>
    4100063c:	efdff06f          	j	41000538 <trap_handler_m__clear_highest_priority_interrupt>
    41000640:	ef9ff06f          	j	41000538 <trap_handler_m__clear_highest_priority_interrupt>
    41000644:	ef5ff06f          	j	41000538 <trap_handler_m__clear_highest_priority_interrupt>

0000000041000648 <trap_handler_m__trap_handler>:
    41000648:	342022f3          	csrr	x5,mcause
    4100064c:	fff0031b          	addiw	x6,x0,-1
    41000650:	03f31313          	slli	x6,x6,0x3f
    41000654:	00537333          	and	x6,x6,x5
    41000658:	02030263          	beqz	x6,4100067c <trap_handler_m__exception_path>

000000004100065c <trap_handler_m__interrupt_handler>:
    4100065c:	fff0031b          	addiw	x6,x0,-1
    41000660:	03f31313          	slli	x6,x6,0x3f
    41000664:	0062c2b3          	xor	x5,x5,x6
    41000668:	00000317          	auipc	x6,0x0
    4100066c:	ee430313          	addi	x6,x6,-284 # 4100054c <trap_handler_m__trap_entry>
    41000670:	00229293          	slli	x5,x5,0x2
    41000674:	005302b3          	add	x5,x6,x5
    41000678:	00028067          	jr	x5 # 2000 <hart_context>

000000004100067c <trap_handler_m__exception_path>:
    4100067c:	34021273          	csrrw	x4,mscratch,x4
    41000680:	00000297          	auipc	x5,0x0
    41000684:	10828293          	addi	x5,x5,264 # 41000788 <trap_handler_m__trap_panic>
    41000688:	30529073          	csrw	mtvec,x5
    4100068c:	0040006f          	j	41000690 <trap_handler_m__excp_entry>

0000000041000690 <trap_handler_m__excp_entry>:
    41000690:	34202373          	csrr	x6,mcause
    41000694:	00800293          	li	x5,8
    41000698:	00534863          	blt	x6,x5,410006a8 <trap_handler_m__check_exception_label>
    4100069c:	00b00293          	li	x5,11
    410006a0:	0062c463          	blt	x5,x6,410006a8 <trap_handler_m__check_exception_label>
    410006a4:	a31ff06f          	j	410000d4 <syscalls__syscall_check_schedule_next_test>

00000000410006a8 <trap_handler_m__check_exception_label>:
    410006a8:	04623c23          	sd	x6,88(x4) # 58 <XLEN+0x18>
    410006ac:	341022f3          	csrr	x5,mepc
    410006b0:	02523423          	sd	x5,40(x4) # 28 <SECURE_ACCESS_PROBABILITY+0xa>
    410006b4:	01820283          	lb	x5,24(x4) # 18 <STORE_GUEST_PAGE_FAULT+0x1>
    410006b8:	00029863          	bnez	x5,410006c8 <trap_handler_m__check_excp>
    410006bc:	00128293          	addi	x5,x5,1
    410006c0:	00520c23          	sb	x5,24(x4) # 18 <STORE_GUEST_PAGE_FAULT+0x1>
    410006c4:	0980006f          	j	4100075c <trap_handler_m__ecall_from_machine>

00000000410006c8 <trap_handler_m__check_excp>:
    410006c8:	06823283          	ld	x5,104(x4) # 68 <XLEN+0x28>
    410006cc:	06023423          	sd	x0,104(x4) # 68 <XLEN+0x28>
    410006d0:	00028663          	beqz	x5,410006dc <trap_handler_m__skip_mode_check>
    410006d4:	00100393          	li	x7,1
    410006d8:	0e729463          	bne	x5,x7,410007c0 <test_failed>

00000000410006dc <trap_handler_m__skip_mode_check>:
    410006dc:	05023283          	ld	x5,80(x4) # 50 <XLEN+0x10>
    410006e0:	04023823          	sd	x0,80(x4) # 50 <XLEN+0x10>
    410006e4:	0c531e63          	bne	x6,x5,410007c0 <test_failed>
    410006e8:	03823283          	ld	x5,56(x4) # 38 <SECURE_ACCESS_PROBABILITY+0x1a>
    410006ec:	02023c23          	sd	x0,56(x4) # 38 <SECURE_ACCESS_PROBABILITY+0x1a>
    410006f0:	06029463          	bnez	x5,41000758 <trap_handler_m__skip_gva_check>
    410006f4:	02023303          	ld	x6,32(x4) # 20 <SECURE_ACCESS_PROBABILITY+0x2>
    410006f8:	02023023          	sd	x0,32(x4) # 20 <SECURE_ACCESS_PROBABILITY+0x2>
    410006fc:	02823283          	ld	x5,40(x4) # 28 <SECURE_ACCESS_PROBABILITY+0xa>
    41000700:	02023423          	sd	x0,40(x4) # 28 <SECURE_ACCESS_PROBABILITY+0xa>
    41000704:	0a531e63          	bne	x6,x5,410007c0 <test_failed>
    41000708:	04023283          	ld	x5,64(x4) # 40 <XLEN>
    4100070c:	04023023          	sd	x0,64(x4) # 40 <XLEN>
    41000710:	00028663          	beqz	x5,4100071c <trap_handler_m__skip_nonzero_tval_check>

0000000041000714 <trap_handler_m__nonzero_tval_check>:
    41000714:	34302373          	csrr	x6,mtval
    41000718:	0a531463          	bne	x6,x5,410007c0 <test_failed>

000000004100071c <trap_handler_m__skip_nonzero_tval_check>:
    4100071c:	04823283          	ld	x5,72(x4) # 48 <XLEN+0x8>
    41000720:	04023423          	sd	x0,72(x4) # 48 <XLEN+0x8>
    41000724:	00028663          	beqz	x5,41000730 <trap_handler_m__skip_nonzero_htval_check>

0000000041000728 <trap_handler_m__nonzero_htval_check>:
    41000728:	34b02373          	csrr	x6,0x34b
    4100072c:	08531a63          	bne	x6,x5,410007c0 <test_failed>

0000000041000730 <trap_handler_m__skip_nonzero_htval_check>:
    41000730:	06023283          	ld	x5,96(x4) # 60 <XLEN+0x20>
    41000734:	06023023          	sd	x0,96(x4) # 60 <XLEN+0x20>
    41000738:	02028063          	beqz	x5,41000758 <trap_handler_m__skip_gva_check>

000000004100073c <trap_handler_m__gva_check>:
    4100073c:	30002373          	csrr	x6,mstatus
    41000740:	02635313          	srli	x6,x6,0x26
    41000744:	00137313          	andi	x6,x6,1
    41000748:	06030c63          	beqz	x6,410007c0 <test_failed>
    4100074c:	0010031b          	addiw	x6,x0,1
    41000750:	02631313          	slli	x6,x6,0x26
    41000754:	30033073          	csrc	mstatus,x6

0000000041000758 <trap_handler_m__skip_gva_check>:
    41000758:	0040006f          	j	4100075c <trap_handler_m__ecall_from_machine>

000000004100075c <trap_handler_m__ecall_from_machine>:
    4100075c:	03023283          	ld	x5,48(x4) # 30 <SECURE_ACCESS_PROBABILITY+0x12>
    41000760:	02023823          	sd	x0,48(x4) # 30 <SECURE_ACCESS_PROBABILITY+0x12>
    41000764:	07023303          	ld	x6,112(x4) # 70 <XLEN+0x30>
    41000768:	06023823          	sd	x0,112(x4) # 70 <XLEN+0x30>
    4100076c:	00031463          	bnez	x6,41000774 <trap_handler_m__skip_xepc_write>
    41000770:	34129073          	csrw	mepc,x5

0000000041000774 <trap_handler_m__skip_xepc_write>:
    41000774:	00000317          	auipc	x6,0x0
    41000778:	dd830313          	addi	x6,x6,-552 # 4100054c <trap_handler_m__trap_entry>
    4100077c:	30531073          	csrw	mtvec,x6
    41000780:	34021273          	csrrw	x4,mscratch,x4
    41000784:	30200073          	mret

0000000041000788 <trap_handler_m__trap_panic>:
    41000788:	00000193          	li	x3,0
    4100078c:	2b40006f          	j	41000a40 <eot__end_test>

0000000041000790 <enter_scheduler>:
    41000790:	0002f337          	lui	x6,0x2f
    41000794:	ab73031b          	addiw	x6,x6,-1353 # 2eab7 <SID_EXCEP_10_stack+0xaab7>
    41000798:	00e31313          	slli	x6,x6,0xe
    4100079c:	0de30313          	addi	x6,x6,222
    410007a0:	02628063          	beq	x5,x6,410007c0 <test_failed>
    410007a4:	00000513          	li	x10,0
    410007a8:	030000ef          	jal	410007d8 <rvcp_print_test_result>
    410007ac:	3180006f          	j	41000ac4 <scheduler__dispatch>

00000000410007b0 <test_passed>:
    410007b0:	34021273          	csrrw	x4,mscratch,x4
    410007b4:	00000513          	li	x10,0
    410007b8:	020000ef          	jal	410007d8 <rvcp_print_test_result>
    410007bc:	3080006f          	j	41000ac4 <scheduler__dispatch>

00000000410007c0 <test_failed>:
    410007c0:	34021273          	csrrw	x4,mscratch,x4
    410007c4:	00300193          	li	x3,3
    410007c8:	2780006f          	j	41000a40 <eot__end_test>

00000000410007cc <os_end_test>:
    410007cc:	34021273          	csrrw	x4,mscratch,x4
    410007d0:	00100193          	li	x3,1
    410007d4:	26c0006f          	j	41000a40 <eot__end_test>

00000000410007d8 <rvcp_print_test_result>:
    410007d8:	00050e13          	mv	x28,x10
    410007dc:	18823283          	ld	x5,392(x4) # 188 <XLEN+0x148>
    410007e0:	0010031b          	addiw	x6,x0,1
    410007e4:	02031313          	slli	x6,x6,0x20
    410007e8:	ffe30313          	addi	x6,x6,-2
    410007ec:	1c628063          	beq	x5,x6,410009ac <rvcp_print_test_result+0x1d4>
    410007f0:	0010031b          	addiw	x6,x0,1
    410007f4:	02031313          	slli	x6,x6,0x20
    410007f8:	fff30313          	addi	x6,x6,-1
    410007fc:	1a628863          	beq	x5,x6,410009ac <rvcp_print_test_result+0x1d4>
    41000800:	1a02c663          	bltz	x5,410009ac <rvcp_print_test_result+0x1d4>
    41000804:	00000317          	auipc	x6,0x0
    41000808:	3e830313          	addi	x6,x6,1000 # 41000bec <dtest_descriptor_table>
    4100080c:	00329393          	slli	x7,x5,0x3
    41000810:	00730333          	add	x6,x6,x7
    41000814:	00033e83          	ld	x29,0(x6)
    41000818:	43ecef37          	lui	x30,0x43ece
    4100081c:	030f0f1b          	addiw	x30,x30,48 # 43ece030 <rvcp_prefix_str_pa>
    41000820:	000f4283          	lbu	x5,0(x30)
    41000824:	02028663          	beqz	x5,41000850 <rvcp_print_test_result+0x78>
    41000828:	1010031b          	addiw	x6,x0,257
    4100082c:	03031313          	slli	x6,x6,0x30
    41000830:	005362b3          	or	x5,x6,x5
    41000834:	0003f317          	auipc	x6,0x3f
    41000838:	7cc30313          	addi	x6,x6,1996 # 41040000 <tohost>
    4100083c:	00033383          	ld	x7,0(x6)
    41000840:	fe039ee3          	bnez	x7,4100083c <rvcp_print_test_result+0x64>
    41000844:	00533023          	sd	x5,0(x6)
    41000848:	001f0f13          	addi	x30,x30,1
    4100084c:	fd5ff06f          	j	41000820 <rvcp_print_test_result+0x48>
    41000850:	43ecef37          	lui	x30,0x43ece
    41000854:	041f0f1b          	addiw	x30,x30,65 # 43ece041 <rvcp_testname_str_pa>
    41000858:	000f4283          	lbu	x5,0(x30)
    4100085c:	02028663          	beqz	x5,41000888 <rvcp_print_test_result+0xb0>
    41000860:	1010031b          	addiw	x6,x0,257
    41000864:	03031313          	slli	x6,x6,0x30
    41000868:	005362b3          	or	x5,x6,x5
    4100086c:	0003f317          	auipc	x6,0x3f
    41000870:	79430313          	addi	x6,x6,1940 # 41040000 <tohost>
    41000874:	00033383          	ld	x7,0(x6)
    41000878:	fe039ee3          	bnez	x7,41000874 <rvcp_print_test_result+0x9c>
    4100087c:	00533023          	sd	x5,0(x6)
    41000880:	001f0f13          	addi	x30,x30,1
    41000884:	fd5ff06f          	j	41000858 <rvcp_print_test_result+0x80>
    41000888:	43ecef37          	lui	x30,0x43ece
    4100088c:	05ff0f1b          	addiw	x30,x30,95 # 43ece05f <rvcp_space_str_pa>
    41000890:	000f4283          	lbu	x5,0(x30)
    41000894:	02028663          	beqz	x5,410008c0 <rvcp_print_test_result+0xe8>
    41000898:	1010031b          	addiw	x6,x0,257
    4100089c:	03031313          	slli	x6,x6,0x30
    410008a0:	005362b3          	or	x5,x6,x5
    410008a4:	0003f317          	auipc	x6,0x3f
    410008a8:	75c30313          	addi	x6,x6,1884 # 41040000 <tohost>
    410008ac:	00033383          	ld	x7,0(x6)
    410008b0:	fe039ee3          	bnez	x7,410008ac <rvcp_print_test_result+0xd4>
    410008b4:	00533023          	sd	x5,0(x6)
    410008b8:	001f0f13          	addi	x30,x30,1
    410008bc:	fd5ff06f          	j	41000890 <rvcp_print_test_result+0xb8>
    410008c0:	000e8f13          	mv	x30,x29
    410008c4:	000f4283          	lbu	x5,0(x30)
    410008c8:	02028663          	beqz	x5,410008f4 <rvcp_print_test_result+0x11c>
    410008cc:	1010031b          	addiw	x6,x0,257
    410008d0:	03031313          	slli	x6,x6,0x30
    410008d4:	005362b3          	or	x5,x6,x5
    410008d8:	0003f317          	auipc	x6,0x3f
    410008dc:	72830313          	addi	x6,x6,1832 # 41040000 <tohost>
    410008e0:	00033383          	ld	x7,0(x6)
    410008e4:	fe039ee3          	bnez	x7,410008e0 <rvcp_print_test_result+0x108>
    410008e8:	00533023          	sd	x5,0(x6)
    410008ec:	001f0f13          	addi	x30,x30,1
    410008f0:	fd5ff06f          	j	410008c4 <rvcp_print_test_result+0xec>
    410008f4:	43ecef37          	lui	x30,0x43ece
    410008f8:	05ff0f1b          	addiw	x30,x30,95 # 43ece05f <rvcp_space_str_pa>
    410008fc:	000f4283          	lbu	x5,0(x30)
    41000900:	02028663          	beqz	x5,4100092c <rvcp_print_test_result+0x154>
    41000904:	1010031b          	addiw	x6,x0,257
    41000908:	03031313          	slli	x6,x6,0x30
    4100090c:	005362b3          	or	x5,x6,x5
    41000910:	0003f317          	auipc	x6,0x3f
    41000914:	6f030313          	addi	x6,x6,1776 # 41040000 <tohost>
    41000918:	00033383          	ld	x7,0(x6)
    4100091c:	fe039ee3          	bnez	x7,41000918 <rvcp_print_test_result+0x140>
    41000920:	00533023          	sd	x5,0(x6)
    41000924:	001f0f13          	addi	x30,x30,1
    41000928:	fd5ff06f          	j	410008fc <rvcp_print_test_result+0x124>
    4100092c:	000e1863          	bnez	x28,4100093c <rvcp_print_test_result+0x164>
    41000930:	43ecef37          	lui	x30,0x43ece
    41000934:	051f0f1b          	addiw	x30,x30,81 # 43ece051 <rvcp_passed_str_pa>
    41000938:	00c0006f          	j	41000944 <rvcp_print_test_result+0x16c>
    4100093c:	43ecef37          	lui	x30,0x43ece
    41000940:	058f0f1b          	addiw	x30,x30,88 # 43ece058 <rvcp_failed_str_pa>
    41000944:	000f4283          	lbu	x5,0(x30)
    41000948:	02028663          	beqz	x5,41000974 <rvcp_print_test_result+0x19c>
    4100094c:	1010031b          	addiw	x6,x0,257
    41000950:	03031313          	slli	x6,x6,0x30
    41000954:	005362b3          	or	x5,x6,x5
    41000958:	0003f317          	auipc	x6,0x3f
    4100095c:	6a830313          	addi	x6,x6,1704 # 41040000 <tohost>
    41000960:	00033383          	ld	x7,0(x6)
    41000964:	fe039ee3          	bnez	x7,41000960 <rvcp_print_test_result+0x188>
    41000968:	00533023          	sd	x5,0(x6)
    4100096c:	001f0f13          	addi	x30,x30,1
    41000970:	fd5ff06f          	j	41000944 <rvcp_print_test_result+0x16c>
    41000974:	43ecef37          	lui	x30,0x43ece
    41000978:	061f0f1b          	addiw	x30,x30,97 # 43ece061 <rvcp_newline_str_pa>
    4100097c:	000f4283          	lbu	x5,0(x30)
    41000980:	02028663          	beqz	x5,410009ac <rvcp_print_test_result+0x1d4>
    41000984:	1010031b          	addiw	x6,x0,257
    41000988:	03031313          	slli	x6,x6,0x30
    4100098c:	005362b3          	or	x5,x6,x5
    41000990:	0003f317          	auipc	x6,0x3f
    41000994:	67030313          	addi	x6,x6,1648 # 41040000 <tohost>
    41000998:	00033383          	ld	x7,0(x6)
    4100099c:	fe039ee3          	bnez	x7,41000998 <rvcp_print_test_result+0x1c0>
    410009a0:	00533023          	sd	x5,0(x6)
    410009a4:	001f0f13          	addi	x30,x30,1
    410009a8:	fd5ff06f          	j	4100097c <rvcp_print_test_result+0x1a4>
    410009ac:	00008067          	ret

00000000410009b0 <os_rng_orig>:
    410009b0:	f14023f3          	csrr	x7,mhartid
    410009b4:	00068313          	mv	x6,x13
    410009b8:	026383b3          	mul	x7,x7,x6
    410009bc:	00058313          	mv	x6,x11
    410009c0:	00730333          	add	x6,x6,x7
    410009c4:	00033283          	ld	x5,0(x6)
    410009c8:	01529313          	slli	x6,x5,0x15
    410009cc:	0062c2b3          	xor	x5,x5,x6
    410009d0:	0232d313          	srli	x6,x5,0x23
    410009d4:	0062c2b3          	xor	x5,x5,x6
    410009d8:	00429313          	slli	x6,x5,0x4
    410009dc:	0062c2b3          	xor	x5,x5,x6
    410009e0:	00058313          	mv	x6,x11
    410009e4:	00730333          	add	x6,x6,x7
    410009e8:	00533023          	sd	x5,0(x6)
    410009ec:	00060313          	mv	x6,x12
    410009f0:	0262f2b3          	remu	x5,x5,x6
    410009f4:	00028513          	mv	x10,x5
    410009f8:	00008067          	ret
    410009fc:	02a00513          	li	x10,42
    41000a00:	001965b7          	lui	x11,0x196
    41000a04:	60d5859b          	addiw	x11,x11,1549 # 19660d <SID_EXCEP_17_stack+0x1460d>
    41000a08:	3c6ef637          	lui	x12,0x3c6ef
    41000a0c:	35f6061b          	addiw	x12,x12,863 # 3c6ef35f <SID_EXCEP_08_stack+0x19aec35f>
    41000a10:	02200693          	li	x13,34
    41000a14:	02b50533          	mul	x10,x10,x11
    41000a18:	00c50533          	add	x10,x10,x12
    41000a1c:	02d56533          	rem	x10,x10,x13
    41000a20:	00b00593          	li	x11,11
    41000a24:	02b56533          	rem	x10,x10,x11
    41000a28:	00008067          	ret
    41000a2c:	0000                	.insn	2, 0x0000
	...

0000000041000a30 <tohost_mutex>:
	...

0000000041000a38 <tohost_addr_mem>:
    41000a38:	0000                	.insn	2, 0x0000
    41000a3a:	4104                	.insn	2, 0x4104
    41000a3c:	0000                	.insn	2, 0x0000
	...

0000000041000a40 <eot__end_test>:
    41000a40:	00100293          	li	x5,1
    41000a44:	00328463          	beq	x5,x3,41000a4c <eot__passed>
    41000a48:	01c0006f          	j	41000a64 <eot__failed>

0000000041000a4c <eot__passed>:
    41000a4c:	0ff0000f          	fence
    41000a50:	00000297          	auipc	x5,0x0
    41000a54:	fe82b283          	ld	x5,-24(x5) # 41000a38 <tohost_addr_mem>
    41000a58:	00100313          	li	x6,1
    41000a5c:	0062a023          	sw	x6,0(x5)
    41000a60:	0240006f          	j	41000a84 <eot__halt>

0000000041000a64 <eot__failed>:
    41000a64:	00100513          	li	x10,1
    41000a68:	d71ff0ef          	jal	410007d8 <rvcp_print_test_result>
    41000a6c:	0ff0000f          	fence
    41000a70:	00000297          	auipc	x5,0x0
    41000a74:	fc82b283          	ld	x5,-56(x5) # 41000a38 <tohost_addr_mem>
    41000a78:	00300313          	li	x6,3
    41000a7c:	0062a023          	sw	x6,0(x5)
    41000a80:	0040006f          	j	41000a84 <eot__halt>

0000000041000a84 <eot__halt>:
    41000a84:	10500073          	wfi
    41000a88:	ffdff06f          	j	41000a84 <eot__halt>

0000000041000a8c <scheduler__init>:
    41000a8c:	00000297          	auipc	x5,0x0
    41000a90:	0e428293          	addi	x5,x5,228 # 41000b70 <scheduler__panic>
    41000a94:	305292f3          	csrrw	x5,mtvec,x5
    41000a98:	18523023          	sd	x5,384(x4) # 180 <XLEN+0x140>
    41000a9c:	00d00293          	li	x5,13
    41000aa0:	18523823          	sd	x5,400(x4) # 190 <XLEN+0x150>
    41000aa4:	0010029b          	addiw	x5,x0,1
    41000aa8:	02029293          	slli	x5,x5,0x20
    41000aac:	ffe28293          	addi	x5,x5,-2
    41000ab0:	18523423          	sd	x5,392(x4) # 188 <XLEN+0x148>
    41000ab4:	00000317          	auipc	x6,0x0
    41000ab8:	27030313          	addi	x6,x6,624 # 41000d24 <scheduler__test_setup_ptr>
    41000abc:	00033303          	ld	x6,0(x6)
    41000ac0:	0880006f          	j	41000b48 <scheduler__execute_test>

0000000041000ac4 <scheduler__dispatch>:
    41000ac4:	00000297          	auipc	x5,0x0
    41000ac8:	0ac28293          	addi	x5,x5,172 # 41000b70 <scheduler__panic>
    41000acc:	305292f3          	csrrw	x5,mtvec,x5
    41000ad0:	18523023          	sd	x5,384(x4) # 180 <XLEN+0x140>

0000000041000ad4 <scheduler__csr_read_randomization>:
    41000ad4:	f11022f3          	csrr	x5,mvendorid
    41000ad8:	f11022f3          	csrr	x5,mvendorid
    41000adc:	342022f3          	csrr	x5,mcause
    41000ae0:	106022f3          	csrr	x5,scounteren
    41000ae4:	f13022f3          	csrr	x5,mimpid
    41000ae8:	f12022f3          	csrr	x5,marchid
    41000aec:	140022f3          	csrr	x5,sscratch
    41000af0:	141022f3          	csrr	x5,sepc
    41000af4:	344022f3          	csrr	x5,mip
    41000af8:	344022f3          	csrr	x5,mip
    41000afc:	f15022f3          	csrr	x5,0xf15
    41000b00:	142022f3          	csrr	x5,scause
    41000b04:	f11022f3          	csrr	x5,mvendorid
    41000b08:	105022f3          	csrr	x5,stvec

0000000041000b0c <scheduler__load_num_runs>:
    41000b0c:	19023303          	ld	x6,400(x4) # 190 <XLEN+0x150>
    41000b10:	04030c63          	beqz	x6,41000b68 <scheduler__finished>

0000000041000b14 <scheduler__decrement_num_runs>:
    41000b14:	fff30393          	addi	x7,x6,-1
    41000b18:	18723823          	sd	x7,400(x4) # 190 <XLEN+0x150>
    41000b1c:	00000e17          	auipc	x28,0x0
    41000b20:	1d4e0e13          	addi	x28,x28,468 # 41000cf0 <dtest_index_map>
    41000b24:	00239e93          	slli	x29,x7,0x2
    41000b28:	01de0e33          	add	x28,x28,x29
    41000b2c:	000e2e03          	lw	x28,0(x28)
    41000b30:	19c23423          	sd	x28,392(x4) # 188 <XLEN+0x148>

0000000041000b34 <scheduler__calc_test_pointer>:
    41000b34:	00339293          	slli	x5,x7,0x3

0000000041000b38 <scheduler__load_test_addr>:
    41000b38:	00000317          	auipc	x6,0x0
    41000b3c:	04c30313          	addi	x6,x6,76 # 41000b84 <os_test_sequence>
    41000b40:	006282b3          	add	x5,x5,x6
    41000b44:	0002b303          	ld	x6,0(x5)

0000000041000b48 <scheduler__execute_test>:
    41000b48:	18023283          	ld	x5,384(x4) # 180 <XLEN+0x140>
    41000b4c:	30529073          	csrw	mtvec,x5
    41000b50:	34021273          	csrrw	x4,mscratch,x4
    41000b54:	00000213          	li	x4,0
    41000b58:	14131073          	csrw	sepc,x6
    41000b5c:	10000293          	li	x5,256
    41000b60:	1002b073          	csrc	sstatus,x5
    41000b64:	10200073          	sret

0000000041000b68 <scheduler__finished>:
    41000b68:	00100193          	li	x3,1
    41000b6c:	ed5ff06f          	j	41000a40 <eot__end_test>

0000000041000b70 <scheduler__panic>:
    41000b70:	00000193          	li	x3,0
    41000b74:	ecdff06f          	j	41000a40 <eot__end_test>
    41000b78:	0000                	.insn	2, 0x0000
	...

0000000041000b7c <num_runs>:
    41000b7c:	000d                	.insn	2, 0x000d
    41000b7e:	0000                	.insn	2, 0x0000
    41000b80:	0000                	.insn	2, 0x0000
	...

0000000041000b84 <os_test_sequence>:
    41000b84:	66b4                	.insn	2, 0x66b4
    41000b86:	4101                	.insn	2, 0x4101
    41000b88:	0000                	.insn	2, 0x0000
    41000b8a:	0000                	.insn	2, 0x0000
    41000b8c:	648c                	.insn	2, 0x648c
    41000b8e:	4101                	.insn	2, 0x4101
    41000b90:	0000                	.insn	2, 0x0000
    41000b92:	0000                	.insn	2, 0x0000
    41000b94:	65fc                	.insn	2, 0x65fc
    41000b96:	4101                	.insn	2, 0x4101
    41000b98:	0000                	.insn	2, 0x0000
    41000b9a:	0000                	.insn	2, 0x0000
    41000b9c:	581c                	.insn	2, 0x581c
    41000b9e:	4101                	.insn	2, 0x4101
    41000ba0:	0000                	.insn	2, 0x0000
    41000ba2:	0000                	.insn	2, 0x0000
    41000ba4:	5b9c                	.insn	2, 0x5b9c
    41000ba6:	4101                	.insn	2, 0x4101
    41000ba8:	0000                	.insn	2, 0x0000
    41000baa:	0000                	.insn	2, 0x0000
    41000bac:	6370                	.insn	2, 0x6370
    41000bae:	4101                	.insn	2, 0x4101
    41000bb0:	0000                	.insn	2, 0x0000
    41000bb2:	0000                	.insn	2, 0x0000
    41000bb4:	605c                	.insn	2, 0x605c
    41000bb6:	4101                	.insn	2, 0x4101
    41000bb8:	0000                	.insn	2, 0x0000
    41000bba:	0000                	.insn	2, 0x0000
    41000bbc:	6404                	.insn	2, 0x6404
    41000bbe:	4101                	.insn	2, 0x4101
    41000bc0:	0000                	.insn	2, 0x0000
    41000bc2:	0000                	.insn	2, 0x0000
    41000bc4:	549c                	.insn	2, 0x549c
    41000bc6:	4101                	.insn	2, 0x4101
    41000bc8:	0000                	.insn	2, 0x0000
    41000bca:	0000                	.insn	2, 0x0000
    41000bcc:	5e78                	.insn	2, 0x5e78
    41000bce:	4101                	.insn	2, 0x4101
    41000bd0:	0000                	.insn	2, 0x0000
    41000bd2:	0000                	.insn	2, 0x0000
    41000bd4:	65cc                	.insn	2, 0x65cc
    41000bd6:	4101                	.insn	2, 0x4101
    41000bd8:	0000                	.insn	2, 0x0000
    41000bda:	0000                	.insn	2, 0x0000
    41000bdc:	52cc                	.insn	2, 0x52cc
    41000bde:	4101                	.insn	2, 0x4101
    41000be0:	0000                	.insn	2, 0x0000
    41000be2:	0000                	.insn	2, 0x0000
    41000be4:	50f0                	.insn	2, 0x50f0
    41000be6:	4101                	.insn	2, 0x4101
    41000be8:	0000                	.insn	2, 0x0000
	...

0000000041000bec <dtest_descriptor_table>:
    41000bec:	0c4c                	.insn	2, 0x0c4c
    41000bee:	4100                	.insn	2, 0x4100
    41000bf0:	0000                	.insn	2, 0x0000
    41000bf2:	0000                	.insn	2, 0x0000
    41000bf4:	0c5c                	.insn	2, 0x0c5c
    41000bf6:	4100                	.insn	2, 0x4100
    41000bf8:	0000                	.insn	2, 0x0000
    41000bfa:	0000                	.insn	2, 0x0000
    41000bfc:	0c69                	.insn	2, 0x0c69
    41000bfe:	4100                	.insn	2, 0x4100
    41000c00:	0000                	.insn	2, 0x0000
    41000c02:	0000                	.insn	2, 0x0000
    41000c04:	0c76                	.insn	2, 0x0c76
    41000c06:	4100                	.insn	2, 0x4100
    41000c08:	0000                	.insn	2, 0x0000
    41000c0a:	0000                	.insn	2, 0x0000
    41000c0c:	41000c83          	lb	x25,1040(x0) # 410 <XLEN+0x3d0>
    41000c10:	0000                	.insn	2, 0x0000
    41000c12:	0000                	.insn	2, 0x0000
    41000c14:	0c90                	.insn	2, 0x0c90
    41000c16:	4100                	.insn	2, 0x4100
    41000c18:	0000                	.insn	2, 0x0000
    41000c1a:	0000                	.insn	2, 0x0000
    41000c1c:	0c9d                	.insn	2, 0x0c9d
    41000c1e:	4100                	.insn	2, 0x4100
    41000c20:	0000                	.insn	2, 0x0000
    41000c22:	0000                	.insn	2, 0x0000
    41000c24:	0cac                	.insn	2, 0x0cac
    41000c26:	4100                	.insn	2, 0x4100
    41000c28:	0000                	.insn	2, 0x0000
    41000c2a:	0000                	.insn	2, 0x0000
    41000c2c:	0cb9                	.insn	2, 0x0cb9
    41000c2e:	4100                	.insn	2, 0x4100
    41000c30:	0000                	.insn	2, 0x0000
    41000c32:	0000                	.insn	2, 0x0000
    41000c34:	0cc6                	.insn	2, 0x0cc6
    41000c36:	4100                	.insn	2, 0x4100
    41000c38:	0000                	.insn	2, 0x0000
    41000c3a:	0000                	.insn	2, 0x0000
    41000c3c:	0cd5                	.insn	2, 0x0cd5
    41000c3e:	4100                	.insn	2, 0x4100
    41000c40:	0000                	.insn	2, 0x0000
    41000c42:	0000                	.insn	2, 0x0000
    41000c44:	0ce2                	.insn	2, 0x0ce2
    41000c46:	4100                	.insn	2, 0x4100
    41000c48:	0000                	.insn	2, 0x0000
	...

0000000041000c4c <dtest_name_0>:
    41000c4c:	5f444953          	.insn	4, 0x5f444953
    41000c50:	5845                	.insn	2, 0x5845
    41000c52:	5f504543          	.insn	4, 0x5f504543
    41000c56:	3430                	.insn	2, 0x3430
    41000c58:	535f 0055       	.insn	6, 0x49530055535f

0000000041000c5c <dtest_name_1>:
    41000c5c:	5f444953          	.insn	4, 0x5f444953
    41000c60:	5845                	.insn	2, 0x5845
    41000c62:	5f504543          	.insn	4, 0x5f504543
    41000c66:	3530                	.insn	2, 0x3530
	...

0000000041000c69 <dtest_name_2>:
    41000c69:	5f444953          	.insn	4, 0x5f444953
    41000c6d:	5845                	.insn	2, 0x5845
    41000c6f:	5f504543          	.insn	4, 0x5f504543
    41000c73:	3630                	.insn	2, 0x3630
	...

0000000041000c76 <dtest_name_3>:
    41000c76:	5f444953          	.insn	4, 0x5f444953
    41000c7a:	5845                	.insn	2, 0x5845
    41000c7c:	5f504543          	.insn	4, 0x5f504543
    41000c80:	3730                	.insn	2, 0x3730
	...

0000000041000c83 <dtest_name_4>:
    41000c83:	5f444953          	.insn	4, 0x5f444953
    41000c87:	5845                	.insn	2, 0x5845
    41000c89:	5f504543          	.insn	4, 0x5f504543
    41000c8d:	3830                	.insn	2, 0x3830
	...

0000000041000c90 <dtest_name_5>:
    41000c90:	5f444953          	.insn	4, 0x5f444953
    41000c94:	5845                	.insn	2, 0x5845
    41000c96:	5f504543          	.insn	4, 0x5f504543
    41000c9a:	3031                	.insn	2, 0x3031
	...

0000000041000c9d <dtest_name_6>:
    41000c9d:	5f444953          	.insn	4, 0x5f444953
    41000ca1:	5845                	.insn	2, 0x5845
    41000ca3:	5f504543          	.insn	4, 0x5f504543
    41000ca7:	3531                	.insn	2, 0x3531
    41000ca9:	555f        	.insn	6, 0x44495300555f

0000000041000cac <dtest_name_7>:
    41000cac:	5f444953          	.insn	4, 0x5f444953
    41000cb0:	5845                	.insn	2, 0x5845
    41000cb2:	5f504543          	.insn	4, 0x5f504543
    41000cb6:	3631                	.insn	2, 0x3631
	...

0000000041000cb9 <dtest_name_8>:
    41000cb9:	5f444953          	.insn	4, 0x5f444953
    41000cbd:	5845                	.insn	2, 0x5845
    41000cbf:	5f504543          	.insn	4, 0x5f504543
    41000cc3:	3731                	.insn	2, 0x3731
	...

0000000041000cc6 <dtest_name_9>:
    41000cc6:	5f444953          	.insn	4, 0x5f444953
    41000cca:	5845                	.insn	2, 0x5845
    41000ccc:	5f504543          	.insn	4, 0x5f504543
    41000cd0:	555f3533          	.insn	4, 0x555f3533
	...

0000000041000cd5 <dtest_name_10>:
    41000cd5:	5f444953          	.insn	4, 0x5f444953
    41000cd9:	5845                	.insn	2, 0x5845
    41000cdb:	5f504543          	.insn	4, 0x5f504543
    41000cdf:	          	.insn	4, 0x53003733

0000000041000ce2 <dtest_name_11>:
    41000ce2:	5f444953          	.insn	4, 0x5f444953
    41000ce6:	5845                	.insn	2, 0x5845
    41000ce8:	5f504543          	.insn	4, 0x5f504543
    41000cec:	00003833          	snez	x16,x0

0000000041000cf0 <dtest_index_map>:
    41000cf0:	ffff                	.insn	2, 0xffff
    41000cf2:	ffff                	.insn	2, 0xffff
    41000cf4:	0009                	.insn	2, 0x0009
    41000cf6:	0000                	.insn	2, 0x0000
    41000cf8:	0000000b          	.insn	4, 0x000b
    41000cfc:	00000003          	lb	x0,0(x0) # 0 <ALL_4KB_PAGES>
    41000d00:	0004                	.insn	2, 0x0004
    41000d02:	0000                	.insn	2, 0x0000
    41000d04:	00000007          	vle8.v	v0,(x0),v0.t
    41000d08:	0006                	.insn	2, 0x0006
    41000d0a:	0000                	.insn	2, 0x0000
    41000d0c:	0008                	.insn	2, 0x0008
    41000d0e:	0000                	.insn	2, 0x0000
    41000d10:	0002                	.insn	2, 0x0002
    41000d12:	0000                	.insn	2, 0x0000
    41000d14:	0005                	.insn	2, 0x0005
    41000d16:	0000                	.insn	2, 0x0000
    41000d18:	000a                	.insn	2, 0x000a
    41000d1a:	0000                	.insn	2, 0x0000
    41000d1c:	0001                	.insn	2, 0x0001
    41000d1e:	0000                	.insn	2, 0x0000
    41000d20:	0000                	.insn	2, 0x0000
	...

0000000041000d24 <scheduler__test_setup_ptr>:
    41000d24:	50e0                	.insn	2, 0x50e0
    41000d26:	4101                	.insn	2, 0x4101
    41000d28:	0000                	.insn	2, 0x0000
	...

0000000041000d2c <scheduler__test_cleanup_ptr>:
    41000d2c:	66b4                	.insn	2, 0x66b4
    41000d2e:	4101                	.insn	2, 0x4101
    41000d30:	0000                	.insn	2, 0x0000
	...

Disassembly of section .runtime_s:

0000000041011000 <trap_handler_s__invalid_interrupt>:
    41011000:	1740006f          	j	41011174 <trap_handler_s__test_failed>

0000000041011004 <trap_handler_s__clear_all_interrupts>:
    41011004:	14401073          	csrw	sip,x0
    41011008:	10200073          	sret

000000004101100c <trap_handler_s___CLEAR_SSI>:
    4101100c:	00200293          	li	x5,2
    41011010:	1442b073          	csrc	sip,x5
    41011014:	10200073          	sret

0000000041011018 <trap_handler_s___CLEAR_MSI>:
    41011018:	00800293          	li	x5,8
    4101101c:	1442b073          	csrc	sip,x5
    41011020:	10200073          	sret

0000000041011024 <trap_handler_s___CLEAR_STI>:
    41011024:	02000293          	li	x5,32
    41011028:	1442b073          	csrc	sip,x5
    4101102c:	10200073          	sret

0000000041011030 <trap_handler_s___CLEAR_MTI>:
    41011030:	08000293          	li	x5,128
    41011034:	1442b073          	csrc	sip,x5
    41011038:	10200073          	sret

000000004101103c <trap_handler_s___CLEAR_SEI>:
    4101103c:	20000293          	li	x5,512
    41011040:	1442b073          	csrc	sip,x5
    41011044:	10200073          	sret

0000000041011048 <trap_handler_s___CLEAR_MEI>:
    41011048:	000012b7          	lui	x5,0x1
    4101104c:	8002829b          	addiw	x5,x5,-2048 # 800 <XLEN+0x7c0>
    41011050:	1442b073          	csrc	sip,x5
    41011054:	10200073          	sret

0000000041011058 <trap_handler_s___CLEAR_COI>:
    41011058:	000022b7          	lui	x5,0x2
    4101105c:	1442b073          	csrc	sip,x5
    41011060:	10200073          	sret

0000000041011064 <trap_handler_s__clear_highest_priority_interrupt>:
    41011064:	144022f3          	csrr	x5,sip
    41011068:	40500333          	neg	x6,x5
    4101106c:	0062f2b3          	and	x5,x5,x6
    41011070:	1442b073          	csrc	sip,x5
    41011074:	10200073          	sret

0000000041011078 <trap_handler_s__trap_entry>:
    41011078:	10c0006f          	j	41011184 <trap_handler_s__trap_handler>

000000004101107c <trap_handler_s__interrupt_vector_table>:
    4101107c:	f91ff06f          	j	4101100c <trap_handler_s___CLEAR_SSI>
    41011080:	f81ff06f          	j	41011000 <trap_handler_s__invalid_interrupt>
    41011084:	f95ff06f          	j	41011018 <trap_handler_s___CLEAR_MSI>
    41011088:	f79ff06f          	j	41011000 <trap_handler_s__invalid_interrupt>
    4101108c:	f99ff06f          	j	41011024 <trap_handler_s___CLEAR_STI>
    41011090:	f71ff06f          	j	41011000 <trap_handler_s__invalid_interrupt>
    41011094:	f9dff06f          	j	41011030 <trap_handler_s___CLEAR_MTI>
    41011098:	f69ff06f          	j	41011000 <trap_handler_s__invalid_interrupt>
    4101109c:	fa1ff06f          	j	4101103c <trap_handler_s___CLEAR_SEI>
    410110a0:	f61ff06f          	j	41011000 <trap_handler_s__invalid_interrupt>
    410110a4:	fa5ff06f          	j	41011048 <trap_handler_s___CLEAR_MEI>
    410110a8:	f59ff06f          	j	41011000 <trap_handler_s__invalid_interrupt>
    410110ac:	fadff06f          	j	41011058 <trap_handler_s___CLEAR_COI>
    410110b0:	f51ff06f          	j	41011000 <trap_handler_s__invalid_interrupt>
    410110b4:	f4dff06f          	j	41011000 <trap_handler_s__invalid_interrupt>
    410110b8:	fadff06f          	j	41011064 <trap_handler_s__clear_highest_priority_interrupt>
    410110bc:	fa9ff06f          	j	41011064 <trap_handler_s__clear_highest_priority_interrupt>
    410110c0:	fa5ff06f          	j	41011064 <trap_handler_s__clear_highest_priority_interrupt>
    410110c4:	fa1ff06f          	j	41011064 <trap_handler_s__clear_highest_priority_interrupt>
    410110c8:	f9dff06f          	j	41011064 <trap_handler_s__clear_highest_priority_interrupt>
    410110cc:	f99ff06f          	j	41011064 <trap_handler_s__clear_highest_priority_interrupt>
    410110d0:	f95ff06f          	j	41011064 <trap_handler_s__clear_highest_priority_interrupt>
    410110d4:	f91ff06f          	j	41011064 <trap_handler_s__clear_highest_priority_interrupt>
    410110d8:	f8dff06f          	j	41011064 <trap_handler_s__clear_highest_priority_interrupt>
    410110dc:	f89ff06f          	j	41011064 <trap_handler_s__clear_highest_priority_interrupt>
    410110e0:	f85ff06f          	j	41011064 <trap_handler_s__clear_highest_priority_interrupt>
    410110e4:	f81ff06f          	j	41011064 <trap_handler_s__clear_highest_priority_interrupt>
    410110e8:	f7dff06f          	j	41011064 <trap_handler_s__clear_highest_priority_interrupt>
    410110ec:	f79ff06f          	j	41011064 <trap_handler_s__clear_highest_priority_interrupt>
    410110f0:	f75ff06f          	j	41011064 <trap_handler_s__clear_highest_priority_interrupt>
    410110f4:	f71ff06f          	j	41011064 <trap_handler_s__clear_highest_priority_interrupt>
    410110f8:	f6dff06f          	j	41011064 <trap_handler_s__clear_highest_priority_interrupt>
    410110fc:	f69ff06f          	j	41011064 <trap_handler_s__clear_highest_priority_interrupt>
    41011100:	f65ff06f          	j	41011064 <trap_handler_s__clear_highest_priority_interrupt>
    41011104:	f61ff06f          	j	41011064 <trap_handler_s__clear_highest_priority_interrupt>
    41011108:	f5dff06f          	j	41011064 <trap_handler_s__clear_highest_priority_interrupt>
    4101110c:	f59ff06f          	j	41011064 <trap_handler_s__clear_highest_priority_interrupt>
    41011110:	f55ff06f          	j	41011064 <trap_handler_s__clear_highest_priority_interrupt>
    41011114:	f51ff06f          	j	41011064 <trap_handler_s__clear_highest_priority_interrupt>
    41011118:	f4dff06f          	j	41011064 <trap_handler_s__clear_highest_priority_interrupt>
    4101111c:	f49ff06f          	j	41011064 <trap_handler_s__clear_highest_priority_interrupt>
    41011120:	f45ff06f          	j	41011064 <trap_handler_s__clear_highest_priority_interrupt>
    41011124:	f41ff06f          	j	41011064 <trap_handler_s__clear_highest_priority_interrupt>
    41011128:	f3dff06f          	j	41011064 <trap_handler_s__clear_highest_priority_interrupt>
    4101112c:	f39ff06f          	j	41011064 <trap_handler_s__clear_highest_priority_interrupt>
    41011130:	f35ff06f          	j	41011064 <trap_handler_s__clear_highest_priority_interrupt>
    41011134:	f31ff06f          	j	41011064 <trap_handler_s__clear_highest_priority_interrupt>
    41011138:	f2dff06f          	j	41011064 <trap_handler_s__clear_highest_priority_interrupt>
    4101113c:	f29ff06f          	j	41011064 <trap_handler_s__clear_highest_priority_interrupt>
    41011140:	f25ff06f          	j	41011064 <trap_handler_s__clear_highest_priority_interrupt>
    41011144:	f21ff06f          	j	41011064 <trap_handler_s__clear_highest_priority_interrupt>
    41011148:	f1dff06f          	j	41011064 <trap_handler_s__clear_highest_priority_interrupt>
    4101114c:	f19ff06f          	j	41011064 <trap_handler_s__clear_highest_priority_interrupt>
    41011150:	f15ff06f          	j	41011064 <trap_handler_s__clear_highest_priority_interrupt>
    41011154:	f11ff06f          	j	41011064 <trap_handler_s__clear_highest_priority_interrupt>
    41011158:	f0dff06f          	j	41011064 <trap_handler_s__clear_highest_priority_interrupt>
    4101115c:	f09ff06f          	j	41011064 <trap_handler_s__clear_highest_priority_interrupt>
    41011160:	f05ff06f          	j	41011064 <trap_handler_s__clear_highest_priority_interrupt>
    41011164:	f01ff06f          	j	41011064 <trap_handler_s__clear_highest_priority_interrupt>
    41011168:	efdff06f          	j	41011064 <trap_handler_s__clear_highest_priority_interrupt>
    4101116c:	ef9ff06f          	j	41011064 <trap_handler_s__clear_highest_priority_interrupt>
    41011170:	ef5ff06f          	j	41011064 <trap_handler_s__clear_highest_priority_interrupt>

0000000041011174 <trap_handler_s__test_failed>:
    41011174:	00f00f9b          	addiw	x31,x0,15
    41011178:	01cf9f93          	slli	x31,x31,0x1c
    4101117c:	002f8f93          	addi	x31,x31,2
    41011180:	00000073          	ecall

0000000041011184 <trap_handler_s__trap_handler>:
    41011184:	142022f3          	csrr	x5,scause
    41011188:	fff0031b          	addiw	x6,x0,-1
    4101118c:	03f31313          	slli	x6,x6,0x3f
    41011190:	00537333          	and	x6,x6,x5
    41011194:	02030263          	beqz	x6,410111b8 <trap_handler_s__exception_path>

0000000041011198 <trap_handler_s__interrupt_handler>:
    41011198:	fff0031b          	addiw	x6,x0,-1
    4101119c:	03f31313          	slli	x6,x6,0x3f
    410111a0:	0062c2b3          	xor	x5,x5,x6
    410111a4:	00000317          	auipc	x6,0x0
    410111a8:	ed430313          	addi	x6,x6,-300 # 41011078 <trap_handler_s__trap_entry>
    410111ac:	00229293          	slli	x5,x5,0x2
    410111b0:	005302b3          	add	x5,x6,x5
    410111b4:	00028067          	jr	x5 # 2000 <hart_context>

00000000410111b8 <trap_handler_s__exception_path>:
    410111b8:	14021273          	csrrw	x4,sscratch,x4
    410111bc:	00000297          	auipc	x5,0x0
    410111c0:	0cc28293          	addi	x5,x5,204 # 41011288 <trap_handler_s__trap_panic>
    410111c4:	10529073          	csrw	stvec,x5
    410111c8:	0040006f          	j	410111cc <trap_handler_s__excp_entry>

00000000410111cc <trap_handler_s__excp_entry>:
    410111cc:	14202373          	csrr	x6,scause
    410111d0:	00800293          	li	x5,8
    410111d4:	00534863          	blt	x6,x5,410111e4 <trap_handler_s__check_exception_label>
    410111d8:	00b00293          	li	x5,11
    410111dc:	0062c463          	blt	x5,x6,410111e4 <trap_handler_s__check_exception_label>
    410111e0:	0a80006f          	j	41011288 <trap_handler_s__trap_panic>

00000000410111e4 <trap_handler_s__check_exception_label>:
    410111e4:	04623c23          	sd	x6,88(x4) # 58 <XLEN+0x18>
    410111e8:	141022f3          	csrr	x5,sepc
    410111ec:	02523423          	sd	x5,40(x4) # 28 <SECURE_ACCESS_PROBABILITY+0xa>
    410111f0:	01820283          	lb	x5,24(x4) # 18 <STORE_GUEST_PAGE_FAULT+0x1>
    410111f4:	00029863          	bnez	x5,41011204 <trap_handler_s__check_excp>
    410111f8:	00128293          	addi	x5,x5,1
    410111fc:	00520c23          	sb	x5,24(x4) # 18 <STORE_GUEST_PAGE_FAULT+0x1>
    41011200:	05c0006f          	j	4101125c <trap_handler_s__ecall_from_machine>

0000000041011204 <trap_handler_s__check_excp>:
    41011204:	06823283          	ld	x5,104(x4) # 68 <XLEN+0x28>
    41011208:	06023423          	sd	x0,104(x4) # 68 <XLEN+0x28>
    4101120c:	00028663          	beqz	x5,41011218 <trap_handler_s__skip_mode_check>
    41011210:	00300393          	li	x7,3
    41011214:	f67290e3          	bne	x5,x7,41011174 <trap_handler_s__test_failed>

0000000041011218 <trap_handler_s__skip_mode_check>:
    41011218:	05023283          	ld	x5,80(x4) # 50 <XLEN+0x10>
    4101121c:	04023823          	sd	x0,80(x4) # 50 <XLEN+0x10>
    41011220:	f4531ae3          	bne	x6,x5,41011174 <trap_handler_s__test_failed>
    41011224:	03823283          	ld	x5,56(x4) # 38 <SECURE_ACCESS_PROBABILITY+0x1a>
    41011228:	02023c23          	sd	x0,56(x4) # 38 <SECURE_ACCESS_PROBABILITY+0x1a>
    4101122c:	02029663          	bnez	x5,41011258 <trap_handler_s__skip_nonzero_tval_check>
    41011230:	02023303          	ld	x6,32(x4) # 20 <SECURE_ACCESS_PROBABILITY+0x2>
    41011234:	02023023          	sd	x0,32(x4) # 20 <SECURE_ACCESS_PROBABILITY+0x2>
    41011238:	02823283          	ld	x5,40(x4) # 28 <SECURE_ACCESS_PROBABILITY+0xa>
    4101123c:	02023423          	sd	x0,40(x4) # 28 <SECURE_ACCESS_PROBABILITY+0xa>
    41011240:	f2531ae3          	bne	x6,x5,41011174 <trap_handler_s__test_failed>
    41011244:	04023283          	ld	x5,64(x4) # 40 <XLEN>
    41011248:	04023023          	sd	x0,64(x4) # 40 <XLEN>
    4101124c:	00028663          	beqz	x5,41011258 <trap_handler_s__skip_nonzero_tval_check>

0000000041011250 <trap_handler_s__nonzero_tval_check>:
    41011250:	14302373          	csrr	x6,stval
    41011254:	f25310e3          	bne	x6,x5,41011174 <trap_handler_s__test_failed>

0000000041011258 <trap_handler_s__skip_nonzero_tval_check>:
    41011258:	0040006f          	j	4101125c <trap_handler_s__ecall_from_machine>

000000004101125c <trap_handler_s__ecall_from_machine>:
    4101125c:	03023283          	ld	x5,48(x4) # 30 <SECURE_ACCESS_PROBABILITY+0x12>
    41011260:	02023823          	sd	x0,48(x4) # 30 <SECURE_ACCESS_PROBABILITY+0x12>
    41011264:	07023303          	ld	x6,112(x4) # 70 <XLEN+0x30>
    41011268:	06023823          	sd	x0,112(x4) # 70 <XLEN+0x30>
    4101126c:	00031463          	bnez	x6,41011274 <trap_handler_s__skip_xepc_write>
    41011270:	14129073          	csrw	sepc,x5

0000000041011274 <trap_handler_s__skip_xepc_write>:
    41011274:	00000317          	auipc	x6,0x0
    41011278:	e0430313          	addi	x6,x6,-508 # 41011078 <trap_handler_s__trap_entry>
    4101127c:	10531073          	csrw	stvec,x6
    41011280:	14021273          	csrrw	x4,sscratch,x4
    41011284:	10200073          	sret

0000000041011288 <trap_handler_s__trap_panic>:
    41011288:	00000193          	li	x3,0
    4101128c:	00f00f9b          	addiw	x31,x0,15
    41011290:	01cf9f93          	slli	x31,x31,0x1c
    41011294:	002f8f93          	addi	x31,x31,2
    41011298:	00000073          	ecall

Disassembly of section .code:

00000000410150b0 <passed>:
    410150b0:	00f00f9b          	addiw	x31,x0,15
    410150b4:	01cf9f93          	slli	x31,x31,0x1c
    410150b8:	001f8f93          	addi	x31,x31,1
    410150bc:	00000073          	ecall

00000000410150c0 <failed>:
    410150c0:	00f00f9b          	addiw	x31,x0,15
    410150c4:	01cf9f93          	slli	x31,x31,0x1c
    410150c8:	002f8f93          	addi	x31,x31,2
    410150cc:	00000073          	ecall

00000000410150d0 <end_test>:
    410150d0:	00f00f9b          	addiw	x31,x0,15
    410150d4:	01cf9f93          	slli	x31,x31,0x1c
    410150d8:	003f8f93          	addi	x31,x31,3
    410150dc:	00000073          	ecall

00000000410150e0 <test_setup>:
    410150e0:	00f00f9b          	addiw	x31,x0,15
    410150e4:	01cf9f93          	slli	x31,x31,0x1c
    410150e8:	001f8f93          	addi	x31,x31,1
    410150ec:	00000073          	ecall

00000000410150f0 <SID_EXCEP_04_SU>:
    410150f0:	00052137          	lui	x2,0x52
    410150f4:	000012b7          	lui	x5,0x1
    410150f8:	00510133          	add	x2,x2,x5
    410150fc:	ff017113          	andi	x2,x2,-16
    41015100:	00002237          	lui	x4,0x2
    41015104:	00200e13          	li	x28,2
    41015108:	05c23823          	sd	x28,80(x4) # 2050 <check_excp_expected_cause>
    4101510c:	00000e17          	auipc	x28,0x0
    41015110:	048e0e13          	addi	x28,x28,72 # 41015154 <fault_label_0>
    41015114:	03c23023          	sd	x28,32(x4) # 20 <SECURE_ACCESS_PROBABILITY+0x2>
    41015118:	00000e13          	li	x28,0
    4101511c:	05c23023          	sd	x28,64(x4) # 40 <XLEN>
    41015120:	00000e13          	li	x28,0
    41015124:	05c23423          	sd	x28,72(x4) # 48 <XLEN+0x8>
    41015128:	00000e17          	auipc	x28,0x0
    4101512c:	044e0e13          	addi	x28,x28,68 # 4101516c <excp_return_label_0>
    41015130:	03c23823          	sd	x28,48(x4) # 30 <SECURE_ACCESS_PROBABILITY+0x12>
    41015134:	00000e13          	li	x28,0
    41015138:	03c23c23          	sd	x28,56(x4) # 38 <SECURE_ACCESS_PROBABILITY+0x1a>
    4101513c:	00000e13          	li	x28,0
    41015140:	07c23023          	sd	x28,96(x4) # 60 <XLEN+0x20>
    41015144:	00000e13          	li	x28,0
    41015148:	07c23423          	sd	x28,104(x4) # 68 <XLEN+0x28>
    4101514c:	00000e13          	li	x28,0
    41015150:	07c23823          	sd	x28,112(x4) # 70 <XLEN+0x30>

0000000041015154 <fault_label_0>:
    41015154:	300023f3          	csrr	x7,mstatus
    41015158:	00038413          	mv	x8,x7
    4101515c:	0007a537          	lui	x10,0x7a
    41015160:	0085051b          	addiw	x10,x10,8 # 7a008 <failed_addr>
    41015164:	00053583          	ld	x11,0(x10)
    41015168:	00058067          	jr	x11

000000004101516c <excp_return_label_0>:
    4101516c:	00001b37          	lui	x22,0x1
    41015170:	234b0b1b          	addiw	x22,x22,564 # 1234 <pma_region_1_size+0x234>
    41015174:	00002237          	lui	x4,0x2
    41015178:	00200e13          	li	x28,2
    4101517c:	05c23823          	sd	x28,80(x4) # 2050 <check_excp_expected_cause>
    41015180:	00000e17          	auipc	x28,0x0
    41015184:	04ce0e13          	addi	x28,x28,76 # 410151cc <fault_label_1>
    41015188:	03c23023          	sd	x28,32(x4) # 20 <SECURE_ACCESS_PROBABILITY+0x2>
    4101518c:	00000e13          	li	x28,0
    41015190:	05c23023          	sd	x28,64(x4) # 40 <XLEN>
    41015194:	00000e13          	li	x28,0
    41015198:	05c23423          	sd	x28,72(x4) # 48 <XLEN+0x8>
    4101519c:	00000e17          	auipc	x28,0x0
    410151a0:	044e0e13          	addi	x28,x28,68 # 410151e0 <excp_return_label_1>
    410151a4:	03c23823          	sd	x28,48(x4) # 30 <SECURE_ACCESS_PROBABILITY+0x12>
    410151a8:	00000e13          	li	x28,0
    410151ac:	03c23c23          	sd	x28,56(x4) # 38 <SECURE_ACCESS_PROBABILITY+0x1a>
    410151b0:	00000e13          	li	x28,0
    410151b4:	07c23023          	sd	x28,96(x4) # 60 <XLEN+0x20>
    410151b8:	00000e13          	li	x28,0
    410151bc:	07c23423          	sd	x28,104(x4) # 68 <XLEN+0x28>
    410151c0:	00000e13          	li	x28,0
    410151c4:	07c23823          	sd	x28,112(x4) # 70 <XLEN+0x30>
    410151c8:	000b0393          	mv	x7,x22

00000000410151cc <fault_label_1>:
    410151cc:	f11393f3          	csrrw	x7,mvendorid,x7
    410151d0:	0007a7b7          	lui	x15,0x7a
    410151d4:	0087879b          	addiw	x15,x15,8 # 7a008 <failed_addr>
    410151d8:	0007bb03          	ld	x22,0(x15)
    410151dc:	000b0067          	jr	x22

00000000410151e0 <excp_return_label_1>:
    410151e0:	00002237          	lui	x4,0x2
    410151e4:	00200e13          	li	x28,2
    410151e8:	05c23823          	sd	x28,80(x4) # 2050 <check_excp_expected_cause>
    410151ec:	00000e17          	auipc	x28,0x0
    410151f0:	048e0e13          	addi	x28,x28,72 # 41015234 <fault_label_2>
    410151f4:	03c23023          	sd	x28,32(x4) # 20 <SECURE_ACCESS_PROBABILITY+0x2>
    410151f8:	00000e13          	li	x28,0
    410151fc:	05c23023          	sd	x28,64(x4) # 40 <XLEN>
    41015200:	00000e13          	li	x28,0
    41015204:	05c23423          	sd	x28,72(x4) # 48 <XLEN+0x8>
    41015208:	00000e17          	auipc	x28,0x0
    4101520c:	044e0e13          	addi	x28,x28,68 # 4101524c <excp_return_label_2>
    41015210:	03c23823          	sd	x28,48(x4) # 30 <SECURE_ACCESS_PROBABILITY+0x12>
    41015214:	00000e13          	li	x28,0
    41015218:	03c23c23          	sd	x28,56(x4) # 38 <SECURE_ACCESS_PROBABILITY+0x1a>
    4101521c:	00000e13          	li	x28,0
    41015220:	07c23023          	sd	x28,96(x4) # 60 <XLEN+0x20>
    41015224:	00000e13          	li	x28,0
    41015228:	07c23423          	sd	x28,104(x4) # 68 <XLEN+0x28>
    4101522c:	00000e13          	li	x28,0
    41015230:	07c23823          	sd	x28,112(x4) # 70 <XLEN+0x30>

0000000041015234 <fault_label_2>:
    41015234:	000023f3          	csrr	x7,ustatus
    41015238:	00038393          	mv	x7,x7
    4101523c:	0007a537          	lui	x10,0x7a
    41015240:	0085051b          	addiw	x10,x10,8 # 7a008 <failed_addr>
    41015244:	00053a03          	ld	x20,0(x10)
    41015248:	000a0067          	jr	x20

000000004101524c <excp_return_label_2>:
    4101524c:	00000a93          	li	x21,0
    41015250:	00002237          	lui	x4,0x2
    41015254:	00200e13          	li	x28,2
    41015258:	05c23823          	sd	x28,80(x4) # 2050 <check_excp_expected_cause>
    4101525c:	00000e17          	auipc	x28,0x0
    41015260:	04ce0e13          	addi	x28,x28,76 # 410152a8 <fault_label_3>
    41015264:	03c23023          	sd	x28,32(x4) # 20 <SECURE_ACCESS_PROBABILITY+0x2>
    41015268:	00000e13          	li	x28,0
    4101526c:	05c23023          	sd	x28,64(x4) # 40 <XLEN>
    41015270:	00000e13          	li	x28,0
    41015274:	05c23423          	sd	x28,72(x4) # 48 <XLEN+0x8>
    41015278:	00000e17          	auipc	x28,0x0
    4101527c:	044e0e13          	addi	x28,x28,68 # 410152bc <SID_EXCEP_04_SU_passed>
    41015280:	03c23823          	sd	x28,48(x4) # 30 <SECURE_ACCESS_PROBABILITY+0x12>
    41015284:	00000e13          	li	x28,0
    41015288:	03c23c23          	sd	x28,56(x4) # 38 <SECURE_ACCESS_PROBABILITY+0x1a>
    4101528c:	00000e13          	li	x28,0
    41015290:	07c23023          	sd	x28,96(x4) # 60 <XLEN+0x20>
    41015294:	00000e13          	li	x28,0
    41015298:	07c23423          	sd	x28,104(x4) # 68 <XLEN+0x28>
    4101529c:	00000e13          	li	x28,0
    410152a0:	07c23823          	sd	x28,112(x4) # 70 <XLEN+0x30>
    410152a4:	000a8393          	mv	x7,x21

00000000410152a8 <fault_label_3>:
    410152a8:	c00393f3          	csrrw	x7,cycle,x7
    410152ac:	0007a5b7          	lui	x11,0x7a
    410152b0:	0085859b          	addiw	x11,x11,8 # 7a008 <failed_addr>
    410152b4:	0005b883          	ld	x17,0(x11)
    410152b8:	00088067          	jr	x17

00000000410152bc <SID_EXCEP_04_SU_passed>:
    410152bc:	00f00f9b          	addiw	x31,x0,15
    410152c0:	01cf9f93          	slli	x31,x31,0x1c
    410152c4:	001f8f93          	addi	x31,x31,1
    410152c8:	00000073          	ecall

00000000410152cc <SID_EXCEP_05>:
    410152cc:	000c4137          	lui	x2,0xc4
    410152d0:	6ab1011b          	addiw	x2,x2,1707 # c46ab <__section_os_data_1+0x496ab>
    410152d4:	00d11113          	slli	x2,x2,0xd
    410152d8:	5b510113          	addi	x2,x2,1461
    410152dc:	00c11113          	slli	x2,x2,0xc
    410152e0:	000012b7          	lui	x5,0x1
    410152e4:	00510133          	add	x2,x2,x5
    410152e8:	ff017113          	andi	x2,x2,-16
    410152ec:	00002237          	lui	x4,0x2
    410152f0:	00200e13          	li	x28,2
    410152f4:	05c23823          	sd	x28,80(x4) # 2050 <check_excp_expected_cause>
    410152f8:	00000e17          	auipc	x28,0x0
    410152fc:	048e0e13          	addi	x28,x28,72 # 41015340 <fault_label_4>
    41015300:	03c23023          	sd	x28,32(x4) # 20 <SECURE_ACCESS_PROBABILITY+0x2>
    41015304:	00000e13          	li	x28,0
    41015308:	05c23023          	sd	x28,64(x4) # 40 <XLEN>
    4101530c:	00000e13          	li	x28,0
    41015310:	05c23423          	sd	x28,72(x4) # 48 <XLEN+0x8>
    41015314:	00000e17          	auipc	x28,0x0
    41015318:	040e0e13          	addi	x28,x28,64 # 41015354 <excp_return_label_4>
    4101531c:	03c23823          	sd	x28,48(x4) # 30 <SECURE_ACCESS_PROBABILITY+0x12>
    41015320:	00000e13          	li	x28,0
    41015324:	03c23c23          	sd	x28,56(x4) # 38 <SECURE_ACCESS_PROBABILITY+0x1a>
    41015328:	00000e13          	li	x28,0
    4101532c:	07c23023          	sd	x28,96(x4) # 60 <XLEN+0x20>
    41015330:	00000e13          	li	x28,0
    41015334:	07c23423          	sd	x28,104(x4) # 68 <XLEN+0x28>
    41015338:	00000e13          	li	x28,0
    4101533c:	07c23823          	sd	x28,112(x4) # 70 <XLEN+0x30>

0000000041015340 <fault_label_4>:
    41015340:	0000                	.insn	2, 0x0000
    41015342:	0000                	.insn	2, 0x0000
    41015344:	0007acb7          	lui	x25,0x7a
    41015348:	008c8c9b          	addiw	x25,x25,8 # 7a008 <failed_addr>
    4101534c:	000cb383          	ld	x7,0(x25)
    41015350:	00038067          	jr	x7

0000000041015354 <excp_return_label_4>:
    41015354:	00002237          	lui	x4,0x2
    41015358:	00200e13          	li	x28,2
    4101535c:	05c23823          	sd	x28,80(x4) # 2050 <check_excp_expected_cause>
    41015360:	00000e17          	auipc	x28,0x0
    41015364:	048e0e13          	addi	x28,x28,72 # 410153a8 <fault_label_5>
    41015368:	03c23023          	sd	x28,32(x4) # 20 <SECURE_ACCESS_PROBABILITY+0x2>
    4101536c:	00000e13          	li	x28,0
    41015370:	05c23023          	sd	x28,64(x4) # 40 <XLEN>
    41015374:	00000e13          	li	x28,0
    41015378:	05c23423          	sd	x28,72(x4) # 48 <XLEN+0x8>
    4101537c:	00000e17          	auipc	x28,0x0
    41015380:	040e0e13          	addi	x28,x28,64 # 410153bc <excp_return_label_5>
    41015384:	03c23823          	sd	x28,48(x4) # 30 <SECURE_ACCESS_PROBABILITY+0x12>
    41015388:	00000e13          	li	x28,0
    4101538c:	03c23c23          	sd	x28,56(x4) # 38 <SECURE_ACCESS_PROBABILITY+0x1a>
    41015390:	00000e13          	li	x28,0
    41015394:	07c23023          	sd	x28,96(x4) # 60 <XLEN+0x20>
    41015398:	00000e13          	li	x28,0
    4101539c:	07c23423          	sd	x28,104(x4) # 68 <XLEN+0x28>
    410153a0:	00000e13          	li	x28,0
    410153a4:	07c23823          	sd	x28,112(x4) # 70 <XLEN+0x30>

00000000410153a8 <fault_label_5>:
    410153a8:	ffff                	.insn	2, 0xffff
    410153aa:	ffff                	.insn	2, 0xffff
    410153ac:	0007ad37          	lui	x26,0x7a
    410153b0:	008d0d1b          	addiw	x26,x26,8 # 7a008 <failed_addr>
    410153b4:	000d3f03          	ld	x30,0(x26)
    410153b8:	000f0067          	jr	x30

00000000410153bc <excp_return_label_5>:
    410153bc:	00002237          	lui	x4,0x2
    410153c0:	00200e13          	li	x28,2
    410153c4:	05c23823          	sd	x28,80(x4) # 2050 <check_excp_expected_cause>
    410153c8:	00000e17          	auipc	x28,0x0
    410153cc:	048e0e13          	addi	x28,x28,72 # 41015410 <fault_label_6>
    410153d0:	03c23023          	sd	x28,32(x4) # 20 <SECURE_ACCESS_PROBABILITY+0x2>
    410153d4:	00000e13          	li	x28,0
    410153d8:	05c23023          	sd	x28,64(x4) # 40 <XLEN>
    410153dc:	00000e13          	li	x28,0
    410153e0:	05c23423          	sd	x28,72(x4) # 48 <XLEN+0x8>
    410153e4:	00000e17          	auipc	x28,0x0
    410153e8:	040e0e13          	addi	x28,x28,64 # 41015424 <excp_return_label_6>
    410153ec:	03c23823          	sd	x28,48(x4) # 30 <SECURE_ACCESS_PROBABILITY+0x12>
    410153f0:	00000e13          	li	x28,0
    410153f4:	03c23c23          	sd	x28,56(x4) # 38 <SECURE_ACCESS_PROBABILITY+0x1a>
    410153f8:	00000e13          	li	x28,0
    410153fc:	07c23023          	sd	x28,96(x4) # 60 <XLEN+0x20>
    41015400:	00000e13          	li	x28,0
    41015404:	07c23423          	sd	x28,104(x4) # 68 <XLEN+0x28>
    41015408:	00000e13          	li	x28,0
    4101540c:	07c23823          	sd	x28,112(x4) # 70 <XLEN+0x30>

0000000041015410 <fault_label_6>:
    41015410:	0000                	.insn	2, 0x0000
    41015412:	dead                	.insn	2, 0xdead
    41015414:	0007a637          	lui	x12,0x7a
    41015418:	0086061b          	addiw	x12,x12,8 # 7a008 <failed_addr>
    4101541c:	00063a83          	ld	x21,0(x12)
    41015420:	000a8067          	jr	x21

0000000041015424 <excp_return_label_6>:
    41015424:	00002237          	lui	x4,0x2
    41015428:	00200e13          	li	x28,2
    4101542c:	05c23823          	sd	x28,80(x4) # 2050 <check_excp_expected_cause>
    41015430:	00000e17          	auipc	x28,0x0
    41015434:	048e0e13          	addi	x28,x28,72 # 41015478 <fault_label_7>
    41015438:	03c23023          	sd	x28,32(x4) # 20 <SECURE_ACCESS_PROBABILITY+0x2>
    4101543c:	00000e13          	li	x28,0
    41015440:	05c23023          	sd	x28,64(x4) # 40 <XLEN>
    41015444:	00000e13          	li	x28,0
    41015448:	05c23423          	sd	x28,72(x4) # 48 <XLEN+0x8>
    4101544c:	00000e17          	auipc	x28,0x0
    41015450:	040e0e13          	addi	x28,x28,64 # 4101548c <SID_EXCEP_05_passed>
    41015454:	03c23823          	sd	x28,48(x4) # 30 <SECURE_ACCESS_PROBABILITY+0x12>
    41015458:	00000e13          	li	x28,0
    4101545c:	03c23c23          	sd	x28,56(x4) # 38 <SECURE_ACCESS_PROBABILITY+0x1a>
    41015460:	00000e13          	li	x28,0
    41015464:	07c23023          	sd	x28,96(x4) # 60 <XLEN+0x20>
    41015468:	00000e13          	li	x28,0
    4101546c:	07c23423          	sd	x28,104(x4) # 68 <XLEN+0x28>
    41015470:	00000e13          	li	x28,0
    41015474:	07c23823          	sd	x28,112(x4) # 70 <XLEN+0x30>

0000000041015478 <fault_label_7>:
    41015478:	007f 0000 acb7 0007 	.insn	10, 0x8c9b0007acb70000007f
    41015480:	8c9b 
    41015482:	008c                	.insn	2, 0x008c
    41015484:	000cba03          	ld	x20,0(x25)
    41015488:	000a0067          	jr	x20

000000004101548c <SID_EXCEP_05_passed>:
    4101548c:	00f00f9b          	addiw	x31,x0,15
    41015490:	01cf9f93          	slli	x31,x31,0x1c
    41015494:	001f8f93          	addi	x31,x31,1
    41015498:	00000073          	ecall

000000004101549c <SID_EXCEP_06>:
    4101549c:	2c850137          	lui	x2,0x2c850
    410154a0:	64b1011b          	addiw	x2,x2,1611 # 2c85064b <SID_EXCEP_08_stack+0x9c4d64b>
    410154a4:	00e11113          	slli	x2,x2,0xe
    410154a8:	0007afb7          	lui	x31,0x7a
    410154ac:	0a8f8f9b          	addiw	x31,x31,168 # 7a0a8 <machine_csr_jump_table_flags>
    410154b0:	00500f13          	li	x30,5
    410154b4:	01efb023          	sd	x30,0(x31)
    410154b8:	000f0fb7          	lui	x31,0xf0
    410154bc:	001f8f9b          	addiw	x31,x31,1 # f0001 <__section_os_data_1+0x75001>
    410154c0:	00cf9f93          	slli	x31,x31,0xc
    410154c4:	005f8f93          	addi	x31,x31,5
    410154c8:	00000073          	ecall
    410154cc:	00713023          	sd	x7,0(x2)
    410154d0:	653f9137          	lui	x2,0x653f9
    410154d4:	fed1011b          	addiw	x2,x2,-19 # 653f8fed <pma_region_2_end+0x203b7fed>
    410154d8:	00f11113          	slli	x2,x2,0xf
    410154dc:	000012b7          	lui	x5,0x1
    410154e0:	00510133          	add	x2,x2,x5
    410154e4:	ff017113          	andi	x2,x2,-16
    410154e8:	00001c37          	lui	x24,0x1
    410154ec:	000c0393          	mv	x7,x24
    410154f0:	0007afb7          	lui	x31,0x7a
    410154f4:	0a8f8f9b          	addiw	x31,x31,168 # 7a0a8 <machine_csr_jump_table_flags>
    410154f8:	00600f13          	li	x30,6
    410154fc:	01efb023          	sd	x30,0(x31)
    41015500:	000f0fb7          	lui	x31,0xf0
    41015504:	001f8f9b          	addiw	x31,x31,1 # f0001 <__section_os_data_1+0x75001>
    41015508:	00cf9f93          	slli	x31,x31,0xc
    4101550c:	005f8f93          	addi	x31,x31,5
    41015510:	00000073          	ecall
    41015514:	00002237          	lui	x4,0x2
    41015518:	00200e13          	li	x28,2
    4101551c:	05c23823          	sd	x28,80(x4) # 2050 <check_excp_expected_cause>
    41015520:	00000e17          	auipc	x28,0x0
    41015524:	048e0e13          	addi	x28,x28,72 # 41015568 <fault_label_8>
    41015528:	03c23023          	sd	x28,32(x4) # 20 <SECURE_ACCESS_PROBABILITY+0x2>
    4101552c:	00000e13          	li	x28,0
    41015530:	05c23023          	sd	x28,64(x4) # 40 <XLEN>
    41015534:	00000e13          	li	x28,0
    41015538:	05c23423          	sd	x28,72(x4) # 48 <XLEN+0x8>
    4101553c:	00000e17          	auipc	x28,0x0
    41015540:	040e0e13          	addi	x28,x28,64 # 4101557c <excp_return_label_8>
    41015544:	03c23823          	sd	x28,48(x4) # 30 <SECURE_ACCESS_PROBABILITY+0x12>
    41015548:	00000e13          	li	x28,0
    4101554c:	03c23c23          	sd	x28,56(x4) # 38 <SECURE_ACCESS_PROBABILITY+0x1a>
    41015550:	00000e13          	li	x28,0
    41015554:	07c23023          	sd	x28,96(x4) # 60 <XLEN+0x20>
    41015558:	00000e13          	li	x28,0
    4101555c:	07c23423          	sd	x28,104(x4) # 68 <XLEN+0x28>
    41015560:	00000e13          	li	x28,0
    41015564:	07c23823          	sd	x28,112(x4) # 70 <XLEN+0x30>

0000000041015568 <fault_label_8>:
    41015568:	02c58533          	mul	x10,x11,x12
    4101556c:	0007a937          	lui	x18,0x7a
    41015570:	0089091b          	addiw	x18,x18,8 # 7a008 <failed_addr>
    41015574:	00093d03          	ld	x26,0(x18)
    41015578:	000d0067          	jr	x26

000000004101557c <excp_return_label_8>:
    4101557c:	000c0393          	mv	x7,x24
    41015580:	0007afb7          	lui	x31,0x7a
    41015584:	0a8f8f9b          	addiw	x31,x31,168 # 7a0a8 <machine_csr_jump_table_flags>
    41015588:	00700f13          	li	x30,7
    4101558c:	01efb023          	sd	x30,0(x31)
    41015590:	000f0fb7          	lui	x31,0xf0
    41015594:	001f8f9b          	addiw	x31,x31,1 # f0001 <__section_os_data_1+0x75001>
    41015598:	00cf9f93          	slli	x31,x31,0xc
    4101559c:	005f8f93          	addi	x31,x31,5
    410155a0:	00000073          	ecall
    410155a4:	02000b93          	li	x23,32
    410155a8:	000b8393          	mv	x7,x23
    410155ac:	0007afb7          	lui	x31,0x7a
    410155b0:	0a8f8f9b          	addiw	x31,x31,168 # 7a0a8 <machine_csr_jump_table_flags>
    410155b4:	00600f13          	li	x30,6
    410155b8:	01efb023          	sd	x30,0(x31)
    410155bc:	000f0fb7          	lui	x31,0xf0
    410155c0:	001f8f9b          	addiw	x31,x31,1 # f0001 <__section_os_data_1+0x75001>
    410155c4:	00cf9f93          	slli	x31,x31,0xc
    410155c8:	005f8f93          	addi	x31,x31,5
    410155cc:	00000073          	ecall
    410155d0:	00002237          	lui	x4,0x2
    410155d4:	00200e13          	li	x28,2
    410155d8:	05c23823          	sd	x28,80(x4) # 2050 <check_excp_expected_cause>
    410155dc:	00000e17          	auipc	x28,0x0
    410155e0:	048e0e13          	addi	x28,x28,72 # 41015624 <fault_label_9>
    410155e4:	03c23023          	sd	x28,32(x4) # 20 <SECURE_ACCESS_PROBABILITY+0x2>
    410155e8:	00000e13          	li	x28,0
    410155ec:	05c23023          	sd	x28,64(x4) # 40 <XLEN>
    410155f0:	00000e13          	li	x28,0
    410155f4:	05c23423          	sd	x28,72(x4) # 48 <XLEN+0x8>
    410155f8:	00000e17          	auipc	x28,0x0
    410155fc:	040e0e13          	addi	x28,x28,64 # 41015638 <excp_return_label_9>
    41015600:	03c23823          	sd	x28,48(x4) # 30 <SECURE_ACCESS_PROBABILITY+0x12>
    41015604:	00000e13          	li	x28,0
    41015608:	03c23c23          	sd	x28,56(x4) # 38 <SECURE_ACCESS_PROBABILITY+0x1a>
    4101560c:	00000e13          	li	x28,0
    41015610:	07c23023          	sd	x28,96(x4) # 60 <XLEN+0x20>
    41015614:	00000e13          	li	x28,0
    41015618:	07c23423          	sd	x28,104(x4) # 68 <XLEN+0x28>
    4101561c:	00000e13          	li	x28,0
    41015620:	07c23823          	sd	x28,112(x4) # 70 <XLEN+0x30>

0000000041015624 <fault_label_9>:
    41015624:	00c5f553          	fadd.s	f10,f11,f12
    41015628:	0007adb7          	lui	x27,0x7a
    4101562c:	008d8d9b          	addiw	x27,x27,8 # 7a008 <failed_addr>
    41015630:	000db783          	ld	x15,0(x27)
    41015634:	00078067          	jr	x15

0000000041015638 <excp_return_label_9>:
    41015638:	000b8393          	mv	x7,x23
    4101563c:	0007afb7          	lui	x31,0x7a
    41015640:	0a8f8f9b          	addiw	x31,x31,168 # 7a0a8 <machine_csr_jump_table_flags>
    41015644:	00700f13          	li	x30,7
    41015648:	01efb023          	sd	x30,0(x31)
    4101564c:	000f0fb7          	lui	x31,0xf0
    41015650:	001f8f9b          	addiw	x31,x31,1 # f0001 <__section_os_data_1+0x75001>
    41015654:	00cf9f93          	slli	x31,x31,0xc
    41015658:	005f8f93          	addi	x31,x31,5
    4101565c:	00000073          	ecall
    41015660:	00800493          	li	x9,8
    41015664:	00048393          	mv	x7,x9
    41015668:	0007afb7          	lui	x31,0x7a
    4101566c:	0a8f8f9b          	addiw	x31,x31,168 # 7a0a8 <machine_csr_jump_table_flags>
    41015670:	00600f13          	li	x30,6
    41015674:	01efb023          	sd	x30,0(x31)
    41015678:	000f0fb7          	lui	x31,0xf0
    4101567c:	001f8f9b          	addiw	x31,x31,1 # f0001 <__section_os_data_1+0x75001>
    41015680:	00cf9f93          	slli	x31,x31,0xc
    41015684:	005f8f93          	addi	x31,x31,5
    41015688:	00000073          	ecall
    4101568c:	00002237          	lui	x4,0x2
    41015690:	00200e13          	li	x28,2
    41015694:	05c23823          	sd	x28,80(x4) # 2050 <check_excp_expected_cause>
    41015698:	00000e17          	auipc	x28,0x0
    4101569c:	048e0e13          	addi	x28,x28,72 # 410156e0 <fault_label_10>
    410156a0:	03c23023          	sd	x28,32(x4) # 20 <SECURE_ACCESS_PROBABILITY+0x2>
    410156a4:	00000e13          	li	x28,0
    410156a8:	05c23023          	sd	x28,64(x4) # 40 <XLEN>
    410156ac:	00000e13          	li	x28,0
    410156b0:	05c23423          	sd	x28,72(x4) # 48 <XLEN+0x8>
    410156b4:	00000e17          	auipc	x28,0x0
    410156b8:	040e0e13          	addi	x28,x28,64 # 410156f4 <excp_return_label_10>
    410156bc:	03c23823          	sd	x28,48(x4) # 30 <SECURE_ACCESS_PROBABILITY+0x12>
    410156c0:	00000e13          	li	x28,0
    410156c4:	03c23c23          	sd	x28,56(x4) # 38 <SECURE_ACCESS_PROBABILITY+0x1a>
    410156c8:	00000e13          	li	x28,0
    410156cc:	07c23023          	sd	x28,96(x4) # 60 <XLEN+0x20>
    410156d0:	00000e13          	li	x28,0
    410156d4:	07c23423          	sd	x28,104(x4) # 68 <XLEN+0x28>
    410156d8:	00000e13          	li	x28,0
    410156dc:	07c23823          	sd	x28,112(x4) # 70 <XLEN+0x30>

00000000410156e0 <fault_label_10>:
    410156e0:	02c5f553          	fadd.d	f10,f11,f12
    410156e4:	0007a337          	lui	x6,0x7a
    410156e8:	0083031b          	addiw	x6,x6,8 # 7a008 <failed_addr>
    410156ec:	00033b03          	ld	x22,0(x6)
    410156f0:	000b0067          	jr	x22

00000000410156f4 <excp_return_label_10>:
    410156f4:	00048393          	mv	x7,x9
    410156f8:	0007afb7          	lui	x31,0x7a
    410156fc:	0a8f8f9b          	addiw	x31,x31,168 # 7a0a8 <machine_csr_jump_table_flags>
    41015700:	00700f13          	li	x30,7
    41015704:	01efb023          	sd	x30,0(x31)
    41015708:	000f0fb7          	lui	x31,0xf0
    4101570c:	001f8f9b          	addiw	x31,x31,1 # f0001 <__section_os_data_1+0x75001>
    41015710:	00cf9f93          	slli	x31,x31,0xc
    41015714:	005f8f93          	addi	x31,x31,5
    41015718:	00000073          	ecall
    4101571c:	00200d37          	lui	x26,0x200
    41015720:	000d0393          	mv	x7,x26
    41015724:	0007afb7          	lui	x31,0x7a
    41015728:	0a8f8f9b          	addiw	x31,x31,168 # 7a0a8 <machine_csr_jump_table_flags>
    4101572c:	00600f13          	li	x30,6
    41015730:	01efb023          	sd	x30,0(x31)
    41015734:	000f0fb7          	lui	x31,0xf0
    41015738:	001f8f9b          	addiw	x31,x31,1 # f0001 <__section_os_data_1+0x75001>
    4101573c:	00cf9f93          	slli	x31,x31,0xc
    41015740:	005f8f93          	addi	x31,x31,5
    41015744:	00000073          	ecall
    41015748:	00002237          	lui	x4,0x2
    4101574c:	00200e13          	li	x28,2
    41015750:	05c23823          	sd	x28,80(x4) # 2050 <check_excp_expected_cause>
    41015754:	00000e17          	auipc	x28,0x0
    41015758:	048e0e13          	addi	x28,x28,72 # 4101579c <fault_label_11>
    4101575c:	03c23023          	sd	x28,32(x4) # 20 <SECURE_ACCESS_PROBABILITY+0x2>
    41015760:	00000e13          	li	x28,0
    41015764:	05c23023          	sd	x28,64(x4) # 40 <XLEN>
    41015768:	00000e13          	li	x28,0
    4101576c:	05c23423          	sd	x28,72(x4) # 48 <XLEN+0x8>
    41015770:	00000e17          	auipc	x28,0x0
    41015774:	040e0e13          	addi	x28,x28,64 # 410157b0 <excp_return_label_11>
    41015778:	03c23823          	sd	x28,48(x4) # 30 <SECURE_ACCESS_PROBABILITY+0x12>
    4101577c:	00000e13          	li	x28,0
    41015780:	03c23c23          	sd	x28,56(x4) # 38 <SECURE_ACCESS_PROBABILITY+0x1a>
    41015784:	00000e13          	li	x28,0
    41015788:	07c23023          	sd	x28,96(x4) # 60 <XLEN+0x20>
    4101578c:	00000e13          	li	x28,0
    41015790:	07c23423          	sd	x28,104(x4) # 68 <XLEN+0x28>
    41015794:	00000e13          	li	x28,0
    41015798:	07c23823          	sd	x28,112(x4) # 70 <XLEN+0x30>

000000004101579c <fault_label_11>:
    4101579c:	02110057          	vadd.vv	v0,v1,v2
    410157a0:	0007aab7          	lui	x21,0x7a
    410157a4:	008a8a9b          	addiw	x21,x21,8 # 7a008 <failed_addr>
    410157a8:	000abe83          	ld	x29,0(x21)
    410157ac:	000e8067          	jr	x29

00000000410157b0 <excp_return_label_11>:
    410157b0:	000d0393          	mv	x7,x26
    410157b4:	0007afb7          	lui	x31,0x7a
    410157b8:	0a8f8f9b          	addiw	x31,x31,168 # 7a0a8 <machine_csr_jump_table_flags>
    410157bc:	00700f13          	li	x30,7
    410157c0:	01efb023          	sd	x30,0(x31)
    410157c4:	000f0fb7          	lui	x31,0xf0
    410157c8:	001f8f9b          	addiw	x31,x31,1 # f0001 <__section_os_data_1+0x75001>
    410157cc:	00cf9f93          	slli	x31,x31,0xc
    410157d0:	005f8f93          	addi	x31,x31,5
    410157d4:	00000073          	ecall
    410157d8:	2c850137          	lui	x2,0x2c850
    410157dc:	64b1011b          	addiw	x2,x2,1611 # 2c85064b <SID_EXCEP_08_stack+0x9c4d64b>
    410157e0:	00e11113          	slli	x2,x2,0xe
    410157e4:	00013383          	ld	x7,0(x2)
    410157e8:	0007afb7          	lui	x31,0x7a
    410157ec:	0a8f8f9b          	addiw	x31,x31,168 # 7a0a8 <machine_csr_jump_table_flags>
    410157f0:	00e00f13          	li	x30,14
    410157f4:	01efb023          	sd	x30,0(x31)
    410157f8:	000f0fb7          	lui	x31,0xf0
    410157fc:	001f8f9b          	addiw	x31,x31,1 # f0001 <__section_os_data_1+0x75001>
    41015800:	00cf9f93          	slli	x31,x31,0xc
    41015804:	005f8f93          	addi	x31,x31,5
    41015808:	00000073          	ecall

000000004101580c <SID_EXCEP_06_passed>:
    4101580c:	00f00f9b          	addiw	x31,x0,15
    41015810:	01cf9f93          	slli	x31,x31,0x1c
    41015814:	001f8f93          	addi	x31,x31,1
    41015818:	00000073          	ecall

000000004101581c <SID_EXCEP_07>:
    4101581c:	2c850137          	lui	x2,0x2c850
    41015820:	64b1011b          	addiw	x2,x2,1611 # 2c85064b <SID_EXCEP_08_stack+0x9c4d64b>
    41015824:	00e11113          	slli	x2,x2,0xe
    41015828:	0007afb7          	lui	x31,0x7a
    4101582c:	0a8f8f9b          	addiw	x31,x31,168 # 7a0a8 <machine_csr_jump_table_flags>
    41015830:	00500f13          	li	x30,5
    41015834:	01efb023          	sd	x30,0(x31)
    41015838:	000f0fb7          	lui	x31,0xf0
    4101583c:	001f8f9b          	addiw	x31,x31,1 # f0001 <__section_os_data_1+0x75001>
    41015840:	00cf9f93          	slli	x31,x31,0xc
    41015844:	005f8f93          	addi	x31,x31,5
    41015848:	00000073          	ecall
    4101584c:	00713023          	sd	x7,0(x2)
    41015850:	000e0137          	lui	x2,0xe0
    41015854:	1611011b          	addiw	x2,x2,353 # e0161 <__section_os_data_1+0x65161>
    41015858:	01011113          	slli	x2,x2,0x10
    4101585c:	000012b7          	lui	x5,0x1
    41015860:	00510133          	add	x2,x2,x5
    41015864:	ff017113          	andi	x2,x2,-16
    41015868:	02000a93          	li	x21,32
    4101586c:	000a8393          	mv	x7,x21
    41015870:	0007afb7          	lui	x31,0x7a
    41015874:	0a8f8f9b          	addiw	x31,x31,168 # 7a0a8 <machine_csr_jump_table_flags>
    41015878:	00600f13          	li	x30,6
    4101587c:	01efb023          	sd	x30,0(x31)
    41015880:	000f0fb7          	lui	x31,0xf0
    41015884:	001f8f9b          	addiw	x31,x31,1 # f0001 <__section_os_data_1+0x75001>
    41015888:	00cf9f93          	slli	x31,x31,0xc
    4101588c:	005f8f93          	addi	x31,x31,5
    41015890:	00000073          	ecall
    41015894:	00002237          	lui	x4,0x2
    41015898:	00200e13          	li	x28,2
    4101589c:	05c23823          	sd	x28,80(x4) # 2050 <check_excp_expected_cause>
    410158a0:	00000e17          	auipc	x28,0x0
    410158a4:	048e0e13          	addi	x28,x28,72 # 410158e8 <fault_label_12>
    410158a8:	03c23023          	sd	x28,32(x4) # 20 <SECURE_ACCESS_PROBABILITY+0x2>
    410158ac:	00000e13          	li	x28,0
    410158b0:	05c23023          	sd	x28,64(x4) # 40 <XLEN>
    410158b4:	00000e13          	li	x28,0
    410158b8:	05c23423          	sd	x28,72(x4) # 48 <XLEN+0x8>
    410158bc:	00000e17          	auipc	x28,0x0
    410158c0:	040e0e13          	addi	x28,x28,64 # 410158fc <excp_return_label_12>
    410158c4:	03c23823          	sd	x28,48(x4) # 30 <SECURE_ACCESS_PROBABILITY+0x12>
    410158c8:	00000e13          	li	x28,0
    410158cc:	03c23c23          	sd	x28,56(x4) # 38 <SECURE_ACCESS_PROBABILITY+0x1a>
    410158d0:	00000e13          	li	x28,0
    410158d4:	07c23023          	sd	x28,96(x4) # 60 <XLEN+0x20>
    410158d8:	00000e13          	li	x28,0
    410158dc:	07c23423          	sd	x28,104(x4) # 68 <XLEN+0x28>
    410158e0:	00000e13          	li	x28,0
    410158e4:	07c23823          	sd	x28,112(x4) # 70 <XLEN+0x30>

00000000410158e8 <fault_label_12>:
    410158e8:	02c5f553          	fadd.d	f10,f11,f12
    410158ec:	0007ac37          	lui	x24,0x7a
    410158f0:	008c0c1b          	addiw	x24,x24,8 # 7a008 <failed_addr>
    410158f4:	000c3603          	ld	x12,0(x24)
    410158f8:	00060067          	jr	x12

00000000410158fc <excp_return_label_12>:
    410158fc:	000a8393          	mv	x7,x21
    41015900:	0007afb7          	lui	x31,0x7a
    41015904:	0a8f8f9b          	addiw	x31,x31,168 # 7a0a8 <machine_csr_jump_table_flags>
    41015908:	00700f13          	li	x30,7
    4101590c:	01efb023          	sd	x30,0(x31)
    41015910:	000f0fb7          	lui	x31,0xf0
    41015914:	001f8f9b          	addiw	x31,x31,1 # f0001 <__section_os_data_1+0x75001>
    41015918:	00cf9f93          	slli	x31,x31,0xc
    4101591c:	005f8f93          	addi	x31,x31,5
    41015920:	00000073          	ecall
    41015924:	02000e93          	li	x29,32
    41015928:	000e8393          	mv	x7,x29
    4101592c:	0007afb7          	lui	x31,0x7a
    41015930:	0a8f8f9b          	addiw	x31,x31,168 # 7a0a8 <machine_csr_jump_table_flags>
    41015934:	00600f13          	li	x30,6
    41015938:	01efb023          	sd	x30,0(x31)
    4101593c:	000f0fb7          	lui	x31,0xf0
    41015940:	001f8f9b          	addiw	x31,x31,1 # f0001 <__section_os_data_1+0x75001>
    41015944:	00cf9f93          	slli	x31,x31,0xc
    41015948:	005f8f93          	addi	x31,x31,5
    4101594c:	00000073          	ecall
    41015950:	00002237          	lui	x4,0x2
    41015954:	00200e13          	li	x28,2
    41015958:	05c23823          	sd	x28,80(x4) # 2050 <check_excp_expected_cause>
    4101595c:	00000e17          	auipc	x28,0x0
    41015960:	048e0e13          	addi	x28,x28,72 # 410159a4 <fault_label_13>
    41015964:	03c23023          	sd	x28,32(x4) # 20 <SECURE_ACCESS_PROBABILITY+0x2>
    41015968:	00000e13          	li	x28,0
    4101596c:	05c23023          	sd	x28,64(x4) # 40 <XLEN>
    41015970:	00000e13          	li	x28,0
    41015974:	05c23423          	sd	x28,72(x4) # 48 <XLEN+0x8>
    41015978:	00000e17          	auipc	x28,0x0
    4101597c:	040e0e13          	addi	x28,x28,64 # 410159b8 <excp_return_label_13>
    41015980:	03c23823          	sd	x28,48(x4) # 30 <SECURE_ACCESS_PROBABILITY+0x12>
    41015984:	00000e13          	li	x28,0
    41015988:	03c23c23          	sd	x28,56(x4) # 38 <SECURE_ACCESS_PROBABILITY+0x1a>
    4101598c:	00000e13          	li	x28,0
    41015990:	07c23023          	sd	x28,96(x4) # 60 <XLEN+0x20>
    41015994:	00000e13          	li	x28,0
    41015998:	07c23423          	sd	x28,104(x4) # 68 <XLEN+0x28>
    4101599c:	00000e13          	li	x28,0
    410159a0:	07c23823          	sd	x28,112(x4) # 70 <XLEN+0x30>

00000000410159a4 <fault_label_13>:
    410159a4:	04c5f553          	fadd.h	f10,f11,f12
    410159a8:	0007a6b7          	lui	x13,0x7a
    410159ac:	0086869b          	addiw	x13,x13,8 # 7a008 <failed_addr>
    410159b0:	0006b803          	ld	x16,0(x13)
    410159b4:	00080067          	jr	x16

00000000410159b8 <excp_return_label_13>:
    410159b8:	000e8393          	mv	x7,x29
    410159bc:	0007afb7          	lui	x31,0x7a
    410159c0:	0a8f8f9b          	addiw	x31,x31,168 # 7a0a8 <machine_csr_jump_table_flags>
    410159c4:	00700f13          	li	x30,7
    410159c8:	01efb023          	sd	x30,0(x31)
    410159cc:	000f0fb7          	lui	x31,0xf0
    410159d0:	001f8f9b          	addiw	x31,x31,1 # f0001 <__section_os_data_1+0x75001>
    410159d4:	00cf9f93          	slli	x31,x31,0xc
    410159d8:	005f8f93          	addi	x31,x31,5
    410159dc:	00000073          	ecall
    410159e0:	02000913          	li	x18,32
    410159e4:	00090393          	mv	x7,x18
    410159e8:	0007afb7          	lui	x31,0x7a
    410159ec:	0a8f8f9b          	addiw	x31,x31,168 # 7a0a8 <machine_csr_jump_table_flags>
    410159f0:	00600f13          	li	x30,6
    410159f4:	01efb023          	sd	x30,0(x31)
    410159f8:	000f0fb7          	lui	x31,0xf0
    410159fc:	001f8f9b          	addiw	x31,x31,1 # f0001 <__section_os_data_1+0x75001>
    41015a00:	00cf9f93          	slli	x31,x31,0xc
    41015a04:	005f8f93          	addi	x31,x31,5
    41015a08:	00000073          	ecall
    41015a0c:	00002237          	lui	x4,0x2
    41015a10:	00200e13          	li	x28,2
    41015a14:	05c23823          	sd	x28,80(x4) # 2050 <check_excp_expected_cause>
    41015a18:	00000e17          	auipc	x28,0x0
    41015a1c:	048e0e13          	addi	x28,x28,72 # 41015a60 <fault_label_14>
    41015a20:	03c23023          	sd	x28,32(x4) # 20 <SECURE_ACCESS_PROBABILITY+0x2>
    41015a24:	00000e13          	li	x28,0
    41015a28:	05c23023          	sd	x28,64(x4) # 40 <XLEN>
    41015a2c:	00000e13          	li	x28,0
    41015a30:	05c23423          	sd	x28,72(x4) # 48 <XLEN+0x8>
    41015a34:	00000e17          	auipc	x28,0x0
    41015a38:	040e0e13          	addi	x28,x28,64 # 41015a74 <excp_return_label_14>
    41015a3c:	03c23823          	sd	x28,48(x4) # 30 <SECURE_ACCESS_PROBABILITY+0x12>
    41015a40:	00000e13          	li	x28,0
    41015a44:	03c23c23          	sd	x28,56(x4) # 38 <SECURE_ACCESS_PROBABILITY+0x1a>
    41015a48:	00000e13          	li	x28,0
    41015a4c:	07c23023          	sd	x28,96(x4) # 60 <XLEN+0x20>
    41015a50:	00000e13          	li	x28,0
    41015a54:	07c23423          	sd	x28,104(x4) # 68 <XLEN+0x28>
    41015a58:	00000e13          	li	x28,0
    41015a5c:	07c23823          	sd	x28,112(x4) # 70 <XLEN+0x30>

0000000041015a60 <fault_label_14>:
    41015a60:	02111057          	vfadd.vv	v0,v1,v2
    41015a64:	0007a337          	lui	x6,0x7a
    41015a68:	0083031b          	addiw	x6,x6,8 # 7a008 <failed_addr>
    41015a6c:	00033783          	ld	x15,0(x6)
    41015a70:	00078067          	jr	x15

0000000041015a74 <excp_return_label_14>:
    41015a74:	00090393          	mv	x7,x18
    41015a78:	0007afb7          	lui	x31,0x7a
    41015a7c:	0a8f8f9b          	addiw	x31,x31,168 # 7a0a8 <machine_csr_jump_table_flags>
    41015a80:	00700f13          	li	x30,7
    41015a84:	01efb023          	sd	x30,0(x31)
    41015a88:	000f0fb7          	lui	x31,0xf0
    41015a8c:	001f8f9b          	addiw	x31,x31,1 # f0001 <__section_os_data_1+0x75001>
    41015a90:	00cf9f93          	slli	x31,x31,0xc
    41015a94:	005f8f93          	addi	x31,x31,5
    41015a98:	00000073          	ecall
    41015a9c:	00200cb7          	lui	x25,0x200
    41015aa0:	000c8393          	mv	x7,x25
    41015aa4:	0007afb7          	lui	x31,0x7a
    41015aa8:	0a8f8f9b          	addiw	x31,x31,168 # 7a0a8 <machine_csr_jump_table_flags>
    41015aac:	00600f13          	li	x30,6
    41015ab0:	01efb023          	sd	x30,0(x31)
    41015ab4:	000f0fb7          	lui	x31,0xf0
    41015ab8:	001f8f9b          	addiw	x31,x31,1 # f0001 <__section_os_data_1+0x75001>
    41015abc:	00cf9f93          	slli	x31,x31,0xc
    41015ac0:	005f8f93          	addi	x31,x31,5
    41015ac4:	00000073          	ecall
    41015ac8:	00002237          	lui	x4,0x2
    41015acc:	00200e13          	li	x28,2
    41015ad0:	05c23823          	sd	x28,80(x4) # 2050 <check_excp_expected_cause>
    41015ad4:	00000e17          	auipc	x28,0x0
    41015ad8:	048e0e13          	addi	x28,x28,72 # 41015b1c <fault_label_15>
    41015adc:	03c23023          	sd	x28,32(x4) # 20 <SECURE_ACCESS_PROBABILITY+0x2>
    41015ae0:	00000e13          	li	x28,0
    41015ae4:	05c23023          	sd	x28,64(x4) # 40 <XLEN>
    41015ae8:	00000e13          	li	x28,0
    41015aec:	05c23423          	sd	x28,72(x4) # 48 <XLEN+0x8>
    41015af0:	00000e17          	auipc	x28,0x0
    41015af4:	040e0e13          	addi	x28,x28,64 # 41015b30 <excp_return_label_15>
    41015af8:	03c23823          	sd	x28,48(x4) # 30 <SECURE_ACCESS_PROBABILITY+0x12>
    41015afc:	00000e13          	li	x28,0
    41015b00:	03c23c23          	sd	x28,56(x4) # 38 <SECURE_ACCESS_PROBABILITY+0x1a>
    41015b04:	00000e13          	li	x28,0
    41015b08:	07c23023          	sd	x28,96(x4) # 60 <XLEN+0x20>
    41015b0c:	00000e13          	li	x28,0
    41015b10:	07c23423          	sd	x28,104(x4) # 68 <XLEN+0x28>
    41015b14:	00000e13          	li	x28,0
    41015b18:	07c23823          	sd	x28,112(x4) # 70 <XLEN+0x30>

0000000041015b1c <fault_label_15>:
    41015b1c:	06110057          	vandn.vv	v0,v1,v2
    41015b20:	0007a8b7          	lui	x17,0x7a
    41015b24:	0088889b          	addiw	x17,x17,8 # 7a008 <failed_addr>
    41015b28:	0008b703          	ld	x14,0(x17)
    41015b2c:	00070067          	jr	x14

0000000041015b30 <excp_return_label_15>:
    41015b30:	000c8393          	mv	x7,x25
    41015b34:	0007afb7          	lui	x31,0x7a
    41015b38:	0a8f8f9b          	addiw	x31,x31,168 # 7a0a8 <machine_csr_jump_table_flags>
    41015b3c:	00700f13          	li	x30,7
    41015b40:	01efb023          	sd	x30,0(x31)
    41015b44:	000f0fb7          	lui	x31,0xf0
    41015b48:	001f8f9b          	addiw	x31,x31,1 # f0001 <__section_os_data_1+0x75001>
    41015b4c:	00cf9f93          	slli	x31,x31,0xc
    41015b50:	005f8f93          	addi	x31,x31,5
    41015b54:	00000073          	ecall
    41015b58:	2c850137          	lui	x2,0x2c850
    41015b5c:	64b1011b          	addiw	x2,x2,1611 # 2c85064b <SID_EXCEP_08_stack+0x9c4d64b>
    41015b60:	00e11113          	slli	x2,x2,0xe
    41015b64:	00013383          	ld	x7,0(x2)
    41015b68:	0007afb7          	lui	x31,0x7a
    41015b6c:	0a8f8f9b          	addiw	x31,x31,168 # 7a0a8 <machine_csr_jump_table_flags>
    41015b70:	00e00f13          	li	x30,14
    41015b74:	01efb023          	sd	x30,0(x31)
    41015b78:	000f0fb7          	lui	x31,0xf0
    41015b7c:	001f8f9b          	addiw	x31,x31,1 # f0001 <__section_os_data_1+0x75001>
    41015b80:	00cf9f93          	slli	x31,x31,0xc
    41015b84:	005f8f93          	addi	x31,x31,5
    41015b88:	00000073          	ecall

0000000041015b8c <SID_EXCEP_07_passed>:
    41015b8c:	00f00f9b          	addiw	x31,x0,15
    41015b90:	01cf9f93          	slli	x31,x31,0x1c
    41015b94:	001f8f93          	addi	x31,x31,1
    41015b98:	00000073          	ecall

0000000041015b9c <SID_EXCEP_08>:
    41015b9c:	2c850137          	lui	x2,0x2c850
    41015ba0:	64b1011b          	addiw	x2,x2,1611 # 2c85064b <SID_EXCEP_08_stack+0x9c4d64b>
    41015ba4:	00e11113          	slli	x2,x2,0xe
    41015ba8:	0007afb7          	lui	x31,0x7a
    41015bac:	0a8f8f9b          	addiw	x31,x31,168 # 7a0a8 <machine_csr_jump_table_flags>
    41015bb0:	01900f13          	li	x30,25
    41015bb4:	01efb023          	sd	x30,0(x31)
    41015bb8:	000f0fb7          	lui	x31,0xf0
    41015bbc:	001f8f9b          	addiw	x31,x31,1 # f0001 <__section_os_data_1+0x75001>
    41015bc0:	00cf9f93          	slli	x31,x31,0xc
    41015bc4:	005f8f93          	addi	x31,x31,5
    41015bc8:	00000073          	ecall
    41015bcc:	00713023          	sd	x7,0(x2)
    41015bd0:	22c03137          	lui	x2,0x22c03
    41015bd4:	000012b7          	lui	x5,0x1
    41015bd8:	00510133          	add	x2,x2,x5
    41015bdc:	ff017113          	andi	x2,x2,-16
    41015be0:	00006b37          	lui	x22,0x6
    41015be4:	000b0393          	mv	x7,x22
    41015be8:	0007afb7          	lui	x31,0x7a
    41015bec:	0a8f8f9b          	addiw	x31,x31,168 # 7a0a8 <machine_csr_jump_table_flags>
    41015bf0:	01a00f13          	li	x30,26
    41015bf4:	01efb023          	sd	x30,0(x31)
    41015bf8:	000f0fb7          	lui	x31,0xf0
    41015bfc:	001f8f9b          	addiw	x31,x31,1 # f0001 <__section_os_data_1+0x75001>
    41015c00:	00cf9f93          	slli	x31,x31,0xc
    41015c04:	005f8f93          	addi	x31,x31,5
    41015c08:	00000073          	ecall
    41015c0c:	00002237          	lui	x4,0x2
    41015c10:	00200e13          	li	x28,2
    41015c14:	05c23823          	sd	x28,80(x4) # 2050 <check_excp_expected_cause>
    41015c18:	00000e17          	auipc	x28,0x0
    41015c1c:	048e0e13          	addi	x28,x28,72 # 41015c60 <fault_label_16>
    41015c20:	03c23023          	sd	x28,32(x4) # 20 <SECURE_ACCESS_PROBABILITY+0x2>
    41015c24:	00000e13          	li	x28,0
    41015c28:	05c23023          	sd	x28,64(x4) # 40 <XLEN>
    41015c2c:	00000e13          	li	x28,0
    41015c30:	05c23423          	sd	x28,72(x4) # 48 <XLEN+0x8>
    41015c34:	00000e17          	auipc	x28,0x0
    41015c38:	040e0e13          	addi	x28,x28,64 # 41015c74 <excp_return_label_16>
    41015c3c:	03c23823          	sd	x28,48(x4) # 30 <SECURE_ACCESS_PROBABILITY+0x12>
    41015c40:	00000e13          	li	x28,0
    41015c44:	03c23c23          	sd	x28,56(x4) # 38 <SECURE_ACCESS_PROBABILITY+0x1a>
    41015c48:	00000e13          	li	x28,0
    41015c4c:	07c23023          	sd	x28,96(x4) # 60 <XLEN+0x20>
    41015c50:	00000e13          	li	x28,0
    41015c54:	07c23423          	sd	x28,104(x4) # 68 <XLEN+0x28>
    41015c58:	00000e13          	li	x28,0
    41015c5c:	07c23823          	sd	x28,112(x4) # 70 <XLEN+0x30>

0000000041015c60 <fault_label_16>:
    41015c60:	00c5f553          	fadd.s	f10,f11,f12
    41015c64:	0007ac37          	lui	x24,0x7a
    41015c68:	008c0c1b          	addiw	x24,x24,8 # 7a008 <failed_addr>
    41015c6c:	000c3903          	ld	x18,0(x24)
    41015c70:	00090067          	jr	x18

0000000041015c74 <excp_return_label_16>:
    41015c74:	00002237          	lui	x4,0x2
    41015c78:	00200e13          	li	x28,2
    41015c7c:	05c23823          	sd	x28,80(x4) # 2050 <check_excp_expected_cause>
    41015c80:	00000e17          	auipc	x28,0x0
    41015c84:	048e0e13          	addi	x28,x28,72 # 41015cc8 <fault_label_17>
    41015c88:	03c23023          	sd	x28,32(x4) # 20 <SECURE_ACCESS_PROBABILITY+0x2>
    41015c8c:	00000e13          	li	x28,0
    41015c90:	05c23023          	sd	x28,64(x4) # 40 <XLEN>
    41015c94:	00000e13          	li	x28,0
    41015c98:	05c23423          	sd	x28,72(x4) # 48 <XLEN+0x8>
    41015c9c:	00000e17          	auipc	x28,0x0
    41015ca0:	040e0e13          	addi	x28,x28,64 # 41015cdc <excp_return_label_17>
    41015ca4:	03c23823          	sd	x28,48(x4) # 30 <SECURE_ACCESS_PROBABILITY+0x12>
    41015ca8:	00000e13          	li	x28,0
    41015cac:	03c23c23          	sd	x28,56(x4) # 38 <SECURE_ACCESS_PROBABILITY+0x1a>
    41015cb0:	00000e13          	li	x28,0
    41015cb4:	07c23023          	sd	x28,96(x4) # 60 <XLEN+0x20>
    41015cb8:	00000e13          	li	x28,0
    41015cbc:	07c23423          	sd	x28,104(x4) # 68 <XLEN+0x28>
    41015cc0:	00000e13          	li	x28,0
    41015cc4:	07c23823          	sd	x28,112(x4) # 70 <XLEN+0x30>

0000000041015cc8 <fault_label_17>:
    41015cc8:	00052507          	flw	f10,0(x10)
    41015ccc:	0007ad37          	lui	x26,0x7a
    41015cd0:	008d0d1b          	addiw	x26,x26,8 # 7a008 <failed_addr>
    41015cd4:	000d3b03          	ld	x22,0(x26)
    41015cd8:	000b0067          	jr	x22 # 6000 <SID_EXCEP_38_stack+0x1000>

0000000041015cdc <excp_return_label_17>:
    41015cdc:	00006e37          	lui	x28,0x6
    41015ce0:	000e0393          	mv	x7,x28
    41015ce4:	0007afb7          	lui	x31,0x7a
    41015ce8:	0a8f8f9b          	addiw	x31,x31,168 # 7a0a8 <machine_csr_jump_table_flags>
    41015cec:	01b00f13          	li	x30,27
    41015cf0:	01efb023          	sd	x30,0(x31)
    41015cf4:	000f0fb7          	lui	x31,0xf0
    41015cf8:	001f8f9b          	addiw	x31,x31,1 # f0001 <__section_os_data_1+0x75001>
    41015cfc:	00cf9f93          	slli	x31,x31,0xc
    41015d00:	005f8f93          	addi	x31,x31,5
    41015d04:	00000073          	ecall
    41015d08:	60000613          	li	x12,1536
    41015d0c:	00060393          	mv	x7,x12
    41015d10:	0007afb7          	lui	x31,0x7a
    41015d14:	0a8f8f9b          	addiw	x31,x31,168 # 7a0a8 <machine_csr_jump_table_flags>
    41015d18:	01a00f13          	li	x30,26
    41015d1c:	01efb023          	sd	x30,0(x31)
    41015d20:	000f0fb7          	lui	x31,0xf0
    41015d24:	001f8f9b          	addiw	x31,x31,1 # f0001 <__section_os_data_1+0x75001>
    41015d28:	00cf9f93          	slli	x31,x31,0xc
    41015d2c:	005f8f93          	addi	x31,x31,5
    41015d30:	00000073          	ecall
    41015d34:	00002237          	lui	x4,0x2
    41015d38:	00200e13          	li	x28,2
    41015d3c:	05c23823          	sd	x28,80(x4) # 2050 <check_excp_expected_cause>
    41015d40:	00000e17          	auipc	x28,0x0
    41015d44:	048e0e13          	addi	x28,x28,72 # 41015d88 <fault_label_18>
    41015d48:	03c23023          	sd	x28,32(x4) # 20 <SECURE_ACCESS_PROBABILITY+0x2>
    41015d4c:	00000e13          	li	x28,0
    41015d50:	05c23023          	sd	x28,64(x4) # 40 <XLEN>
    41015d54:	00000e13          	li	x28,0
    41015d58:	05c23423          	sd	x28,72(x4) # 48 <XLEN+0x8>
    41015d5c:	00000e17          	auipc	x28,0x0
    41015d60:	040e0e13          	addi	x28,x28,64 # 41015d9c <excp_return_label_18>
    41015d64:	03c23823          	sd	x28,48(x4) # 30 <SECURE_ACCESS_PROBABILITY+0x12>
    41015d68:	00000e13          	li	x28,0
    41015d6c:	03c23c23          	sd	x28,56(x4) # 38 <SECURE_ACCESS_PROBABILITY+0x1a>
    41015d70:	00000e13          	li	x28,0
    41015d74:	07c23023          	sd	x28,96(x4) # 60 <XLEN+0x20>
    41015d78:	00000e13          	li	x28,0
    41015d7c:	07c23423          	sd	x28,104(x4) # 68 <XLEN+0x28>
    41015d80:	00000e13          	li	x28,0
    41015d84:	07c23823          	sd	x28,112(x4) # 70 <XLEN+0x30>

0000000041015d88 <fault_label_18>:
    41015d88:	02110057          	vadd.vv	v0,v1,v2
    41015d8c:	0007acb7          	lui	x25,0x7a
    41015d90:	008c8c9b          	addiw	x25,x25,8 # 7a008 <failed_addr>
    41015d94:	000cbc83          	ld	x25,0(x25)
    41015d98:	000c8067          	jr	x25

0000000041015d9c <excp_return_label_18>:
    41015d9c:	00002237          	lui	x4,0x2
    41015da0:	00200e13          	li	x28,2
    41015da4:	05c23823          	sd	x28,80(x4) # 2050 <check_excp_expected_cause>
    41015da8:	00000e17          	auipc	x28,0x0
    41015dac:	048e0e13          	addi	x28,x28,72 # 41015df0 <fault_label_19>
    41015db0:	03c23023          	sd	x28,32(x4) # 20 <SECURE_ACCESS_PROBABILITY+0x2>
    41015db4:	00000e13          	li	x28,0
    41015db8:	05c23023          	sd	x28,64(x4) # 40 <XLEN>
    41015dbc:	00000e13          	li	x28,0
    41015dc0:	05c23423          	sd	x28,72(x4) # 48 <XLEN+0x8>
    41015dc4:	00000e17          	auipc	x28,0x0
    41015dc8:	044e0e13          	addi	x28,x28,68 # 41015e08 <excp_return_label_19>
    41015dcc:	03c23823          	sd	x28,48(x4) # 30 <SECURE_ACCESS_PROBABILITY+0x12>
    41015dd0:	00000e13          	li	x28,0
    41015dd4:	03c23c23          	sd	x28,56(x4) # 38 <SECURE_ACCESS_PROBABILITY+0x1a>
    41015dd8:	00000e13          	li	x28,0
    41015ddc:	07c23023          	sd	x28,96(x4) # 60 <XLEN+0x20>
    41015de0:	00000e13          	li	x28,0
    41015de4:	07c23423          	sd	x28,104(x4) # 68 <XLEN+0x28>
    41015de8:	00000e13          	li	x28,0
    41015dec:	07c23823          	sd	x28,112(x4) # 70 <XLEN+0x30>

0000000041015df0 <fault_label_19>:
    41015df0:	c20023f3          	csrr	x7,vl
    41015df4:	00038b93          	mv	x23,x7
    41015df8:	0007acb7          	lui	x25,0x7a
    41015dfc:	008c8c9b          	addiw	x25,x25,8 # 7a008 <failed_addr>
    41015e00:	000cbf83          	ld	x31,0(x25)
    41015e04:	000f8067          	jr	x31

0000000041015e08 <excp_return_label_19>:
    41015e08:	60000c93          	li	x25,1536
    41015e0c:	000c8393          	mv	x7,x25
    41015e10:	0007afb7          	lui	x31,0x7a
    41015e14:	0a8f8f9b          	addiw	x31,x31,168 # 7a0a8 <machine_csr_jump_table_flags>
    41015e18:	01b00f13          	li	x30,27
    41015e1c:	01efb023          	sd	x30,0(x31)
    41015e20:	000f0fb7          	lui	x31,0xf0
    41015e24:	001f8f9b          	addiw	x31,x31,1 # f0001 <__section_os_data_1+0x75001>
    41015e28:	00cf9f93          	slli	x31,x31,0xc
    41015e2c:	005f8f93          	addi	x31,x31,5
    41015e30:	00000073          	ecall
    41015e34:	2c850137          	lui	x2,0x2c850
    41015e38:	64b1011b          	addiw	x2,x2,1611 # 2c85064b <SID_EXCEP_08_stack+0x9c4d64b>
    41015e3c:	00e11113          	slli	x2,x2,0xe
    41015e40:	00013383          	ld	x7,0(x2)
    41015e44:	0007afb7          	lui	x31,0x7a
    41015e48:	0a8f8f9b          	addiw	x31,x31,168 # 7a0a8 <machine_csr_jump_table_flags>
    41015e4c:	01f00f13          	li	x30,31
    41015e50:	01efb023          	sd	x30,0(x31)
    41015e54:	000f0fb7          	lui	x31,0xf0
    41015e58:	001f8f9b          	addiw	x31,x31,1 # f0001 <__section_os_data_1+0x75001>
    41015e5c:	00cf9f93          	slli	x31,x31,0xc
    41015e60:	005f8f93          	addi	x31,x31,5
    41015e64:	00000073          	ecall

0000000041015e68 <SID_EXCEP_08_passed>:
    41015e68:	00f00f9b          	addiw	x31,x0,15
    41015e6c:	01cf9f93          	slli	x31,x31,0x1c
    41015e70:	001f8f93          	addi	x31,x31,1
    41015e74:	00000073          	ecall

0000000041015e78 <SID_EXCEP_10>:
    41015e78:	2c850137          	lui	x2,0x2c850
    41015e7c:	64b1011b          	addiw	x2,x2,1611 # 2c85064b <SID_EXCEP_08_stack+0x9c4d64b>
    41015e80:	00e11113          	slli	x2,x2,0xe
    41015e84:	0007afb7          	lui	x31,0x7a
    41015e88:	0a8f8f9b          	addiw	x31,x31,168 # 7a0a8 <machine_csr_jump_table_flags>
    41015e8c:	02000f13          	li	x30,32
    41015e90:	01efb023          	sd	x30,0(x31)
    41015e94:	000f0fb7          	lui	x31,0xf0
    41015e98:	001f8f9b          	addiw	x31,x31,1 # f0001 <__section_os_data_1+0x75001>
    41015e9c:	00cf9f93          	slli	x31,x31,0xc
    41015ea0:	005f8f93          	addi	x31,x31,5
    41015ea4:	00000073          	ecall
    41015ea8:	00713023          	sd	x7,0(x2)
    41015eac:	00024137          	lui	x2,0x24
    41015eb0:	000012b7          	lui	x5,0x1
    41015eb4:	00510133          	add	x2,x2,x5
    41015eb8:	ff017113          	andi	x2,x2,-16
    41015ebc:	0a000893          	li	x17,160
    41015ec0:	00088393          	mv	x7,x17
    41015ec4:	003393f3          	fscsr	x7,x7
    41015ec8:	00002237          	lui	x4,0x2
    41015ecc:	00200e13          	li	x28,2
    41015ed0:	05c23823          	sd	x28,80(x4) # 2050 <check_excp_expected_cause>
    41015ed4:	00000e17          	auipc	x28,0x0
    41015ed8:	048e0e13          	addi	x28,x28,72 # 41015f1c <fault_label_20>
    41015edc:	03c23023          	sd	x28,32(x4) # 20 <SECURE_ACCESS_PROBABILITY+0x2>
    41015ee0:	00000e13          	li	x28,0
    41015ee4:	05c23023          	sd	x28,64(x4) # 40 <XLEN>
    41015ee8:	00000e13          	li	x28,0
    41015eec:	05c23423          	sd	x28,72(x4) # 48 <XLEN+0x8>
    41015ef0:	00000e17          	auipc	x28,0x0
    41015ef4:	040e0e13          	addi	x28,x28,64 # 41015f30 <excp_return_label_20>
    41015ef8:	03c23823          	sd	x28,48(x4) # 30 <SECURE_ACCESS_PROBABILITY+0x12>
    41015efc:	00000e13          	li	x28,0
    41015f00:	03c23c23          	sd	x28,56(x4) # 38 <SECURE_ACCESS_PROBABILITY+0x1a>
    41015f04:	00000e13          	li	x28,0
    41015f08:	07c23023          	sd	x28,96(x4) # 60 <XLEN+0x20>
    41015f0c:	00000e13          	li	x28,0
    41015f10:	07c23423          	sd	x28,104(x4) # 68 <XLEN+0x28>
    41015f14:	00000e13          	li	x28,0
    41015f18:	07c23823          	sd	x28,112(x4) # 70 <XLEN+0x30>

0000000041015f1c <fault_label_20>:
    41015f1c:	00c5f553          	fadd.s	f10,f11,f12
    41015f20:	0007a3b7          	lui	x7,0x7a
    41015f24:	0083839b          	addiw	x7,x7,8 # 7a008 <failed_addr>
    41015f28:	0003bd03          	ld	x26,0(x7)
    41015f2c:	000d0067          	jr	x26

0000000041015f30 <excp_return_label_20>:
    41015f30:	0c000993          	li	x19,192
    41015f34:	00098393          	mv	x7,x19
    41015f38:	003393f3          	fscsr	x7,x7
    41015f3c:	00002237          	lui	x4,0x2
    41015f40:	00200e13          	li	x28,2
    41015f44:	05c23823          	sd	x28,80(x4) # 2050 <check_excp_expected_cause>
    41015f48:	00000e17          	auipc	x28,0x0
    41015f4c:	048e0e13          	addi	x28,x28,72 # 41015f90 <fault_label_21>
    41015f50:	03c23023          	sd	x28,32(x4) # 20 <SECURE_ACCESS_PROBABILITY+0x2>
    41015f54:	00000e13          	li	x28,0
    41015f58:	05c23023          	sd	x28,64(x4) # 40 <XLEN>
    41015f5c:	00000e13          	li	x28,0
    41015f60:	05c23423          	sd	x28,72(x4) # 48 <XLEN+0x8>
    41015f64:	00000e17          	auipc	x28,0x0
    41015f68:	040e0e13          	addi	x28,x28,64 # 41015fa4 <excp_return_label_21>
    41015f6c:	03c23823          	sd	x28,48(x4) # 30 <SECURE_ACCESS_PROBABILITY+0x12>
    41015f70:	00000e13          	li	x28,0
    41015f74:	03c23c23          	sd	x28,56(x4) # 38 <SECURE_ACCESS_PROBABILITY+0x1a>
    41015f78:	00000e13          	li	x28,0
    41015f7c:	07c23023          	sd	x28,96(x4) # 60 <XLEN+0x20>
    41015f80:	00000e13          	li	x28,0
    41015f84:	07c23423          	sd	x28,104(x4) # 68 <XLEN+0x28>
    41015f88:	00000e13          	li	x28,0
    41015f8c:	07c23823          	sd	x28,112(x4) # 70 <XLEN+0x30>

0000000041015f90 <fault_label_21>:
    41015f90:	00c5f553          	fadd.s	f10,f11,f12
    41015f94:	0007aa37          	lui	x20,0x7a
    41015f98:	008a0a1b          	addiw	x20,x20,8 # 7a008 <failed_addr>
    41015f9c:	000a3c03          	ld	x24,0(x20)
    41015fa0:	000c0067          	jr	x24

0000000041015fa4 <excp_return_label_21>:
    41015fa4:	0e000613          	li	x12,224
    41015fa8:	00060393          	mv	x7,x12
    41015fac:	003393f3          	fscsr	x7,x7
    41015fb0:	00002237          	lui	x4,0x2
    41015fb4:	00200e13          	li	x28,2
    41015fb8:	05c23823          	sd	x28,80(x4) # 2050 <check_excp_expected_cause>
    41015fbc:	00000e17          	auipc	x28,0x0
    41015fc0:	048e0e13          	addi	x28,x28,72 # 41016004 <fault_label_22>
    41015fc4:	03c23023          	sd	x28,32(x4) # 20 <SECURE_ACCESS_PROBABILITY+0x2>
    41015fc8:	00000e13          	li	x28,0
    41015fcc:	05c23023          	sd	x28,64(x4) # 40 <XLEN>
    41015fd0:	00000e13          	li	x28,0
    41015fd4:	05c23423          	sd	x28,72(x4) # 48 <XLEN+0x8>
    41015fd8:	00000e17          	auipc	x28,0x0
    41015fdc:	040e0e13          	addi	x28,x28,64 # 41016018 <excp_return_label_22>
    41015fe0:	03c23823          	sd	x28,48(x4) # 30 <SECURE_ACCESS_PROBABILITY+0x12>
    41015fe4:	00000e13          	li	x28,0
    41015fe8:	03c23c23          	sd	x28,56(x4) # 38 <SECURE_ACCESS_PROBABILITY+0x1a>
    41015fec:	00000e13          	li	x28,0
    41015ff0:	07c23023          	sd	x28,96(x4) # 60 <XLEN+0x20>
    41015ff4:	00000e13          	li	x28,0
    41015ff8:	07c23423          	sd	x28,104(x4) # 68 <XLEN+0x28>
    41015ffc:	00000e13          	li	x28,0
    41016000:	07c23823          	sd	x28,112(x4) # 70 <XLEN+0x30>

0000000041016004 <fault_label_22>:
    41016004:	00c5f553          	fadd.s	f10,f11,f12
    41016008:	0007a637          	lui	x12,0x7a
    4101600c:	0086061b          	addiw	x12,x12,8 # 7a008 <failed_addr>
    41016010:	00063b83          	ld	x23,0(x12)
    41016014:	000b8067          	jr	x23

0000000041016018 <excp_return_label_22>:
    41016018:	2c850137          	lui	x2,0x2c850
    4101601c:	64b1011b          	addiw	x2,x2,1611 # 2c85064b <SID_EXCEP_08_stack+0x9c4d64b>
    41016020:	00e11113          	slli	x2,x2,0xe
    41016024:	00013383          	ld	x7,0(x2)
    41016028:	0007afb7          	lui	x31,0x7a
    4101602c:	0a8f8f9b          	addiw	x31,x31,168 # 7a0a8 <machine_csr_jump_table_flags>
    41016030:	02400f13          	li	x30,36
    41016034:	01efb023          	sd	x30,0(x31)
    41016038:	000f0fb7          	lui	x31,0xf0
    4101603c:	001f8f9b          	addiw	x31,x31,1 # f0001 <__section_os_data_1+0x75001>
    41016040:	00cf9f93          	slli	x31,x31,0xc
    41016044:	005f8f93          	addi	x31,x31,5
    41016048:	00000073          	ecall

000000004101604c <SID_EXCEP_10_passed>:
    4101604c:	00f00f9b          	addiw	x31,x0,15
    41016050:	01cf9f93          	slli	x31,x31,0x1c
    41016054:	001f8f93          	addi	x31,x31,1
    41016058:	00000073          	ecall

000000004101605c <SID_EXCEP_15_U>:
    4101605c:	2c850137          	lui	x2,0x2c850
    41016060:	64b1011b          	addiw	x2,x2,1611 # 2c85064b <SID_EXCEP_08_stack+0x9c4d64b>
    41016064:	00e11113          	slli	x2,x2,0xe
    41016068:	0007afb7          	lui	x31,0x7a
    4101606c:	0a8f8f9b          	addiw	x31,x31,168 # 7a0a8 <machine_csr_jump_table_flags>
    41016070:	02500f13          	li	x30,37
    41016074:	01efb023          	sd	x30,0(x31)
    41016078:	000f0fb7          	lui	x31,0xf0
    4101607c:	001f8f9b          	addiw	x31,x31,1 # f0001 <__section_os_data_1+0x75001>
    41016080:	00cf9f93          	slli	x31,x31,0xc
    41016084:	005f8f93          	addi	x31,x31,5
    41016088:	00000073          	ecall
    4101608c:	00713023          	sd	x7,0(x2)
    41016090:	0007afb7          	lui	x31,0x7a
    41016094:	0a8f8f9b          	addiw	x31,x31,168 # 7a0a8 <machine_csr_jump_table_flags>
    41016098:	02600f13          	li	x30,38
    4101609c:	01efb023          	sd	x30,0(x31)
    410160a0:	000f0fb7          	lui	x31,0xf0
    410160a4:	001f8f9b          	addiw	x31,x31,1 # f0001 <__section_os_data_1+0x75001>
    410160a8:	00cf9f93          	slli	x31,x31,0xc
    410160ac:	005f8f93          	addi	x31,x31,5
    410160b0:	00000073          	ecall
    410160b4:	00713423          	sd	x7,8(x2)
    410160b8:	1c094137          	lui	x2,0x1c094
    410160bc:	6151011b          	addiw	x2,x2,1557 # 1c094615 <hart_stack_0_end+0xf1d7615>
    410160c0:	00d11113          	slli	x2,x2,0xd
    410160c4:	000012b7          	lui	x5,0x1
    410160c8:	00510133          	add	x2,x2,x5
    410160cc:	ff017113          	andi	x2,x2,-16
    410160d0:	00000e13          	li	x28,0
    410160d4:	000e0393          	mv	x7,x28
    410160d8:	0007afb7          	lui	x31,0x7a
    410160dc:	0a8f8f9b          	addiw	x31,x31,168 # 7a0a8 <machine_csr_jump_table_flags>
    410160e0:	02700f13          	li	x30,39
    410160e4:	01efb023          	sd	x30,0(x31)
    410160e8:	000f0fb7          	lui	x31,0xf0
    410160ec:	001f8f9b          	addiw	x31,x31,1 # f0001 <__section_os_data_1+0x75001>
    410160f0:	00cf9f93          	slli	x31,x31,0xc
    410160f4:	005f8f93          	addi	x31,x31,5
    410160f8:	00000073          	ecall
    410160fc:	00002237          	lui	x4,0x2
    41016100:	00200e13          	li	x28,2
    41016104:	05c23823          	sd	x28,80(x4) # 2050 <check_excp_expected_cause>
    41016108:	00000e17          	auipc	x28,0x0
    4101610c:	048e0e13          	addi	x28,x28,72 # 41016150 <fault_label_23>
    41016110:	03c23023          	sd	x28,32(x4) # 20 <SECURE_ACCESS_PROBABILITY+0x2>
    41016114:	00000e13          	li	x28,0
    41016118:	05c23023          	sd	x28,64(x4) # 40 <XLEN>
    4101611c:	00000e13          	li	x28,0
    41016120:	05c23423          	sd	x28,72(x4) # 48 <XLEN+0x8>
    41016124:	00000e17          	auipc	x28,0x0
    41016128:	044e0e13          	addi	x28,x28,68 # 41016168 <excp_return_label_23>
    4101612c:	03c23823          	sd	x28,48(x4) # 30 <SECURE_ACCESS_PROBABILITY+0x12>
    41016130:	00000e13          	li	x28,0
    41016134:	03c23c23          	sd	x28,56(x4) # 38 <SECURE_ACCESS_PROBABILITY+0x1a>
    41016138:	00000e13          	li	x28,0
    4101613c:	07c23023          	sd	x28,96(x4) # 60 <XLEN+0x20>
    41016140:	00000e13          	li	x28,0
    41016144:	07c23423          	sd	x28,104(x4) # 68 <XLEN+0x28>
    41016148:	00000e13          	li	x28,0
    4101614c:	07c23823          	sd	x28,112(x4) # 70 <XLEN+0x30>

0000000041016150 <fault_label_23>:
    41016150:	c00023f3          	rdcycle	x7
    41016154:	00038f93          	mv	x31,x7
    41016158:	0007aab7          	lui	x21,0x7a
    4101615c:	008a8a9b          	addiw	x21,x21,8 # 7a008 <failed_addr>
    41016160:	000abe83          	ld	x29,0(x21)
    41016164:	000e8067          	jr	x29

0000000041016168 <excp_return_label_23>:
    41016168:	00002237          	lui	x4,0x2
    4101616c:	00200e13          	li	x28,2
    41016170:	05c23823          	sd	x28,80(x4) # 2050 <check_excp_expected_cause>
    41016174:	00000e17          	auipc	x28,0x0
    41016178:	048e0e13          	addi	x28,x28,72 # 410161bc <fault_label_24>
    4101617c:	03c23023          	sd	x28,32(x4) # 20 <SECURE_ACCESS_PROBABILITY+0x2>
    41016180:	00000e13          	li	x28,0
    41016184:	05c23023          	sd	x28,64(x4) # 40 <XLEN>
    41016188:	00000e13          	li	x28,0
    4101618c:	05c23423          	sd	x28,72(x4) # 48 <XLEN+0x8>
    41016190:	00000e17          	auipc	x28,0x0
    41016194:	044e0e13          	addi	x28,x28,68 # 410161d4 <excp_return_label_24>
    41016198:	03c23823          	sd	x28,48(x4) # 30 <SECURE_ACCESS_PROBABILITY+0x12>
    4101619c:	00000e13          	li	x28,0
    410161a0:	03c23c23          	sd	x28,56(x4) # 38 <SECURE_ACCESS_PROBABILITY+0x1a>
    410161a4:	00000e13          	li	x28,0
    410161a8:	07c23023          	sd	x28,96(x4) # 60 <XLEN+0x20>
    410161ac:	00000e13          	li	x28,0
    410161b0:	07c23423          	sd	x28,104(x4) # 68 <XLEN+0x28>
    410161b4:	00000e13          	li	x28,0
    410161b8:	07c23823          	sd	x28,112(x4) # 70 <XLEN+0x30>

00000000410161bc <fault_label_24>:
    410161bc:	c01023f3          	rdtime	x7
    410161c0:	00038c13          	mv	x24,x7
    410161c4:	0007a737          	lui	x14,0x7a
    410161c8:	0087071b          	addiw	x14,x14,8 # 7a008 <failed_addr>
    410161cc:	00073c83          	ld	x25,0(x14)
    410161d0:	000c8067          	jr	x25

00000000410161d4 <excp_return_label_24>:
    410161d4:	00002237          	lui	x4,0x2
    410161d8:	00200e13          	li	x28,2
    410161dc:	05c23823          	sd	x28,80(x4) # 2050 <check_excp_expected_cause>
    410161e0:	00000e17          	auipc	x28,0x0
    410161e4:	048e0e13          	addi	x28,x28,72 # 41016228 <fault_label_25>
    410161e8:	03c23023          	sd	x28,32(x4) # 20 <SECURE_ACCESS_PROBABILITY+0x2>
    410161ec:	00000e13          	li	x28,0
    410161f0:	05c23023          	sd	x28,64(x4) # 40 <XLEN>
    410161f4:	00000e13          	li	x28,0
    410161f8:	05c23423          	sd	x28,72(x4) # 48 <XLEN+0x8>
    410161fc:	00000e17          	auipc	x28,0x0
    41016200:	044e0e13          	addi	x28,x28,68 # 41016240 <excp_return_label_25>
    41016204:	03c23823          	sd	x28,48(x4) # 30 <SECURE_ACCESS_PROBABILITY+0x12>
    41016208:	00000e13          	li	x28,0
    4101620c:	03c23c23          	sd	x28,56(x4) # 38 <SECURE_ACCESS_PROBABILITY+0x1a>
    41016210:	00000e13          	li	x28,0
    41016214:	07c23023          	sd	x28,96(x4) # 60 <XLEN+0x20>
    41016218:	00000e13          	li	x28,0
    4101621c:	07c23423          	sd	x28,104(x4) # 68 <XLEN+0x28>
    41016220:	00000e13          	li	x28,0
    41016224:	07c23823          	sd	x28,112(x4) # 70 <XLEN+0x30>

0000000041016228 <fault_label_25>:
    41016228:	c02023f3          	rdinstret	x7
    4101622c:	00038813          	mv	x16,x7
    41016230:	0007adb7          	lui	x27,0x7a
    41016234:	008d8d9b          	addiw	x27,x27,8 # 7a008 <failed_addr>
    41016238:	000dbe03          	ld	x28,0(x27)
    4101623c:	000e0067          	jr	x28

0000000041016240 <excp_return_label_25>:
    41016240:	fff00f93          	li	x31,-1
    41016244:	000f8393          	mv	x7,x31
    41016248:	0007afb7          	lui	x31,0x7a
    4101624c:	0a8f8f9b          	addiw	x31,x31,168 # 7a0a8 <machine_csr_jump_table_flags>
    41016250:	02700f13          	li	x30,39
    41016254:	01efb023          	sd	x30,0(x31)
    41016258:	000f0fb7          	lui	x31,0xf0
    4101625c:	001f8f9b          	addiw	x31,x31,1 # f0001 <__section_os_data_1+0x75001>
    41016260:	00cf9f93          	slli	x31,x31,0xc
    41016264:	005f8f93          	addi	x31,x31,5
    41016268:	00000073          	ecall
    4101626c:	00000393          	li	x7,0
    41016270:	00038393          	mv	x7,x7
    41016274:	0007afb7          	lui	x31,0x7a
    41016278:	0b0f8f9b          	addiw	x31,x31,176 # 7a0b0 <super_csr_jump_table_flags>
    4101627c:	02c00f13          	li	x30,44
    41016280:	01efb023          	sd	x30,0(x31)
    41016284:	000f0fb7          	lui	x31,0xf0
    41016288:	001f8f9b          	addiw	x31,x31,1 # f0001 <__section_os_data_1+0x75001>
    4101628c:	00cf9f93          	slli	x31,x31,0xc
    41016290:	006f8f93          	addi	x31,x31,6
    41016294:	00000073          	ecall
    41016298:	00002237          	lui	x4,0x2
    4101629c:	00200e13          	li	x28,2
    410162a0:	05c23823          	sd	x28,80(x4) # 2050 <check_excp_expected_cause>
    410162a4:	00000e17          	auipc	x28,0x0
    410162a8:	048e0e13          	addi	x28,x28,72 # 410162ec <fault_label_26>
    410162ac:	03c23023          	sd	x28,32(x4) # 20 <SECURE_ACCESS_PROBABILITY+0x2>
    410162b0:	00000e13          	li	x28,0
    410162b4:	05c23023          	sd	x28,64(x4) # 40 <XLEN>
    410162b8:	00000e13          	li	x28,0
    410162bc:	05c23423          	sd	x28,72(x4) # 48 <XLEN+0x8>
    410162c0:	00000e17          	auipc	x28,0x0
    410162c4:	044e0e13          	addi	x28,x28,68 # 41016304 <excp_return_label_26>
    410162c8:	03c23823          	sd	x28,48(x4) # 30 <SECURE_ACCESS_PROBABILITY+0x12>
    410162cc:	00000e13          	li	x28,0
    410162d0:	03c23c23          	sd	x28,56(x4) # 38 <SECURE_ACCESS_PROBABILITY+0x1a>
    410162d4:	00000e13          	li	x28,0
    410162d8:	07c23023          	sd	x28,96(x4) # 60 <XLEN+0x20>
    410162dc:	00000e13          	li	x28,0
    410162e0:	07c23423          	sd	x28,104(x4) # 68 <XLEN+0x28>
    410162e4:	00000e13          	li	x28,0
    410162e8:	07c23823          	sd	x28,112(x4) # 70 <XLEN+0x30>

00000000410162ec <fault_label_26>:
    410162ec:	c00023f3          	rdcycle	x7
    410162f0:	00038a13          	mv	x20,x7
    410162f4:	0007adb7          	lui	x27,0x7a
    410162f8:	008d8d9b          	addiw	x27,x27,8 # 7a008 <failed_addr>
    410162fc:	000dbf03          	ld	x30,0(x27)
    41016300:	000f0067          	jr	x30

0000000041016304 <excp_return_label_26>:
    41016304:	2c850137          	lui	x2,0x2c850
    41016308:	64b1011b          	addiw	x2,x2,1611 # 2c85064b <SID_EXCEP_08_stack+0x9c4d64b>
    4101630c:	00e11113          	slli	x2,x2,0xe
    41016310:	00013383          	ld	x7,0(x2)
    41016314:	0007afb7          	lui	x31,0x7a
    41016318:	0a8f8f9b          	addiw	x31,x31,168 # 7a0a8 <machine_csr_jump_table_flags>
    4101631c:	02e00f13          	li	x30,46
    41016320:	01efb023          	sd	x30,0(x31)
    41016324:	000f0fb7          	lui	x31,0xf0
    41016328:	001f8f9b          	addiw	x31,x31,1 # f0001 <__section_os_data_1+0x75001>
    4101632c:	00cf9f93          	slli	x31,x31,0xc
    41016330:	005f8f93          	addi	x31,x31,5
    41016334:	00000073          	ecall
    41016338:	00813383          	ld	x7,8(x2)
    4101633c:	0007afb7          	lui	x31,0x7a
    41016340:	0a8f8f9b          	addiw	x31,x31,168 # 7a0a8 <machine_csr_jump_table_flags>
    41016344:	02f00f13          	li	x30,47
    41016348:	01efb023          	sd	x30,0(x31)
    4101634c:	000f0fb7          	lui	x31,0xf0
    41016350:	001f8f9b          	addiw	x31,x31,1 # f0001 <__section_os_data_1+0x75001>
    41016354:	00cf9f93          	slli	x31,x31,0xc
    41016358:	005f8f93          	addi	x31,x31,5
    4101635c:	00000073          	ecall

0000000041016360 <SID_EXCEP_15_U_passed>:
    41016360:	00f00f9b          	addiw	x31,x0,15
    41016364:	01cf9f93          	slli	x31,x31,0x1c
    41016368:	001f8f93          	addi	x31,x31,1
    4101636c:	00000073          	ecall

0000000041016370 <SID_EXCEP_16>:
    41016370:	003b2137          	lui	x2,0x3b2
    41016374:	000012b7          	lui	x5,0x1
    41016378:	00510133          	add	x2,x2,x5
    4101637c:	ff017113          	andi	x2,x2,-16
    41016380:	00002237          	lui	x4,0x2
    41016384:	00200e13          	li	x28,2
    41016388:	05c23823          	sd	x28,80(x4) # 2050 <check_excp_expected_cause>
    4101638c:	00000e17          	auipc	x28,0x0
    41016390:	054e0e13          	addi	x28,x28,84 # 410163e0 <fault_label_27>
    41016394:	03c23023          	sd	x28,32(x4) # 20 <SECURE_ACCESS_PROBABILITY+0x2>
    41016398:	000c0e37          	lui	x28,0xc0
    4101639c:	001e0e1b          	addiw	x28,x28,1 # c0001 <__section_os_data_1+0x45001>
    410163a0:	00ce1e13          	slli	x28,x28,0xc
    410163a4:	073e0e13          	addi	x28,x28,115
    410163a8:	05c23023          	sd	x28,64(x4) # 40 <XLEN>
    410163ac:	00000e13          	li	x28,0
    410163b0:	05c23423          	sd	x28,72(x4) # 48 <XLEN+0x8>
    410163b4:	00000e17          	auipc	x28,0x0
    410163b8:	040e0e13          	addi	x28,x28,64 # 410163f4 <SID_EXCEP_16_passed>
    410163bc:	03c23823          	sd	x28,48(x4) # 30 <SECURE_ACCESS_PROBABILITY+0x12>
    410163c0:	00000e13          	li	x28,0
    410163c4:	03c23c23          	sd	x28,56(x4) # 38 <SECURE_ACCESS_PROBABILITY+0x1a>
    410163c8:	00000e13          	li	x28,0
    410163cc:	07c23023          	sd	x28,96(x4) # 60 <XLEN+0x20>
    410163d0:	00000e13          	li	x28,0
    410163d4:	07c23423          	sd	x28,104(x4) # 68 <XLEN+0x28>
    410163d8:	00000e13          	li	x28,0
    410163dc:	07c23823          	sd	x28,112(x4) # 70 <XLEN+0x30>

00000000410163e0 <fault_label_27>:
    410163e0:	c0001073          	unimp
    410163e4:	0007aa37          	lui	x20,0x7a
    410163e8:	008a0a1b          	addiw	x20,x20,8 # 7a008 <failed_addr>
    410163ec:	000a3883          	ld	x17,0(x20)
    410163f0:	00088067          	jr	x17

00000000410163f4 <SID_EXCEP_16_passed>:
    410163f4:	00f00f9b          	addiw	x31,x0,15
    410163f8:	01cf9f93          	slli	x31,x31,0x1c
    410163fc:	001f8f93          	addi	x31,x31,1
    41016400:	00000073          	ecall

0000000041016404 <SID_EXCEP_17>:
    41016404:	00182137          	lui	x2,0x182
    41016408:	000012b7          	lui	x5,0x1
    4101640c:	00510133          	add	x2,x2,x5
    41016410:	ff017113          	andi	x2,x2,-16
    41016414:	00002237          	lui	x4,0x2
    41016418:	00800e13          	li	x28,8
    4101641c:	05c23823          	sd	x28,80(x4) # 2050 <check_excp_expected_cause>
    41016420:	00000e17          	auipc	x28,0x0
    41016424:	048e0e13          	addi	x28,x28,72 # 41016468 <fault_label_28>
    41016428:	03c23023          	sd	x28,32(x4) # 20 <SECURE_ACCESS_PROBABILITY+0x2>
    4101642c:	00000e13          	li	x28,0
    41016430:	05c23023          	sd	x28,64(x4) # 40 <XLEN>
    41016434:	00000e13          	li	x28,0
    41016438:	05c23423          	sd	x28,72(x4) # 48 <XLEN+0x8>
    4101643c:	00000e17          	auipc	x28,0x0
    41016440:	040e0e13          	addi	x28,x28,64 # 4101647c <SID_EXCEP_17_passed>
    41016444:	03c23823          	sd	x28,48(x4) # 30 <SECURE_ACCESS_PROBABILITY+0x12>
    41016448:	00000e13          	li	x28,0
    4101644c:	03c23c23          	sd	x28,56(x4) # 38 <SECURE_ACCESS_PROBABILITY+0x1a>
    41016450:	00000e13          	li	x28,0
    41016454:	07c23023          	sd	x28,96(x4) # 60 <XLEN+0x20>
    41016458:	00000e13          	li	x28,0
    4101645c:	07c23423          	sd	x28,104(x4) # 68 <XLEN+0x28>
    41016460:	00000e13          	li	x28,0
    41016464:	07c23823          	sd	x28,112(x4) # 70 <XLEN+0x30>

0000000041016468 <fault_label_28>:
    41016468:	00000073          	ecall
    4101646c:	0007ac37          	lui	x24,0x7a
    41016470:	008c0c1b          	addiw	x24,x24,8 # 7a008 <failed_addr>
    41016474:	000c3f03          	ld	x30,0(x24)
    41016478:	000f0067          	jr	x30

000000004101647c <SID_EXCEP_17_passed>:
    4101647c:	00f00f9b          	addiw	x31,x0,15
    41016480:	01cf9f93          	slli	x31,x31,0x1c
    41016484:	001f8f93          	addi	x31,x31,1
    41016488:	00000073          	ecall

000000004101648c <SID_EXCEP_35_U>:
    4101648c:	2c850137          	lui	x2,0x2c850
    41016490:	64b1011b          	addiw	x2,x2,1611 # 2c85064b <SID_EXCEP_08_stack+0x9c4d64b>
    41016494:	00e11113          	slli	x2,x2,0xe
    41016498:	0007afb7          	lui	x31,0x7a
    4101649c:	0a8f8f9b          	addiw	x31,x31,168 # 7a0a8 <machine_csr_jump_table_flags>
    410164a0:	02500f13          	li	x30,37
    410164a4:	01efb023          	sd	x30,0(x31)
    410164a8:	000f0fb7          	lui	x31,0xf0
    410164ac:	001f8f9b          	addiw	x31,x31,1 # f0001 <__section_os_data_1+0x75001>
    410164b0:	00cf9f93          	slli	x31,x31,0xc
    410164b4:	005f8f93          	addi	x31,x31,5
    410164b8:	00000073          	ecall
    410164bc:	00713023          	sd	x7,0(x2)
    410164c0:	0007afb7          	lui	x31,0x7a
    410164c4:	0a8f8f9b          	addiw	x31,x31,168 # 7a0a8 <machine_csr_jump_table_flags>
    410164c8:	02600f13          	li	x30,38
    410164cc:	01efb023          	sd	x30,0(x31)
    410164d0:	000f0fb7          	lui	x31,0xf0
    410164d4:	001f8f9b          	addiw	x31,x31,1 # f0001 <__section_os_data_1+0x75001>
    410164d8:	00cf9f93          	slli	x31,x31,0xc
    410164dc:	005f8f93          	addi	x31,x31,5
    410164e0:	00000073          	ecall
    410164e4:	00713423          	sd	x7,8(x2)
    410164e8:	001e3137          	lui	x2,0x1e3
    410164ec:	000012b7          	lui	x5,0x1
    410164f0:	00510133          	add	x2,x2,x5
    410164f4:	ff017113          	andi	x2,x2,-16
    410164f8:	00100b93          	li	x23,1
    410164fc:	000b8393          	mv	x7,x23
    41016500:	0007afb7          	lui	x31,0x7a
    41016504:	0a8f8f9b          	addiw	x31,x31,168 # 7a0a8 <machine_csr_jump_table_flags>
    41016508:	03200f13          	li	x30,50
    4101650c:	01efb023          	sd	x30,0(x31)
    41016510:	000f0fb7          	lui	x31,0xf0
    41016514:	001f8f9b          	addiw	x31,x31,1 # f0001 <__section_os_data_1+0x75001>
    41016518:	00cf9f93          	slli	x31,x31,0xc
    4101651c:	005f8f93          	addi	x31,x31,5
    41016520:	00000073          	ecall
    41016524:	00100f93          	li	x31,1
    41016528:	000f8393          	mv	x7,x31
    4101652c:	0007afb7          	lui	x31,0x7a
    41016530:	0b0f8f9b          	addiw	x31,x31,176 # 7a0b0 <super_csr_jump_table_flags>
    41016534:	03300f13          	li	x30,51
    41016538:	01efb023          	sd	x30,0(x31)
    4101653c:	000f0fb7          	lui	x31,0xf0
    41016540:	001f8f9b          	addiw	x31,x31,1 # f0001 <__section_os_data_1+0x75001>
    41016544:	00cf9f93          	slli	x31,x31,0xc
    41016548:	006f8f93          	addi	x31,x31,6
    4101654c:	00000073          	ecall
    41016550:	c0002af3          	rdcycle	x21
    41016554:	c0003c73          	csrrc	x24,cycle,x0
    41016558:	c0006bf3          	csrrsi	x23,cycle,0
    4101655c:	c0007773          	csrrci	x14,cycle,0
    41016560:	2c850137          	lui	x2,0x2c850
    41016564:	64b1011b          	addiw	x2,x2,1611 # 2c85064b <SID_EXCEP_08_stack+0x9c4d64b>
    41016568:	00e11113          	slli	x2,x2,0xe
    4101656c:	00013383          	ld	x7,0(x2)
    41016570:	0007afb7          	lui	x31,0x7a
    41016574:	0a8f8f9b          	addiw	x31,x31,168 # 7a0a8 <machine_csr_jump_table_flags>
    41016578:	02e00f13          	li	x30,46
    4101657c:	01efb023          	sd	x30,0(x31)
    41016580:	000f0fb7          	lui	x31,0xf0
    41016584:	001f8f9b          	addiw	x31,x31,1 # f0001 <__section_os_data_1+0x75001>
    41016588:	00cf9f93          	slli	x31,x31,0xc
    4101658c:	005f8f93          	addi	x31,x31,5
    41016590:	00000073          	ecall
    41016594:	00813383          	ld	x7,8(x2)
    41016598:	0007afb7          	lui	x31,0x7a
    4101659c:	0a8f8f9b          	addiw	x31,x31,168 # 7a0a8 <machine_csr_jump_table_flags>
    410165a0:	02f00f13          	li	x30,47
    410165a4:	01efb023          	sd	x30,0(x31)
    410165a8:	000f0fb7          	lui	x31,0xf0
    410165ac:	001f8f9b          	addiw	x31,x31,1 # f0001 <__section_os_data_1+0x75001>
    410165b0:	00cf9f93          	slli	x31,x31,0xc
    410165b4:	005f8f93          	addi	x31,x31,5
    410165b8:	00000073          	ecall

00000000410165bc <SID_EXCEP_35_U_passed>:
    410165bc:	00f00f9b          	addiw	x31,x0,15
    410165c0:	01cf9f93          	slli	x31,x31,0x1c
    410165c4:	001f8f93          	addi	x31,x31,1
    410165c8:	00000073          	ecall

00000000410165cc <SID_EXCEP_37>:
    410165cc:	00020137          	lui	x2,0x20
    410165d0:	000012b7          	lui	x5,0x1
    410165d4:	00510133          	add	x2,x2,x5
    410165d8:	ff017113          	andi	x2,x2,-16
    410165dc:	00000817          	auipc	x16,0x0
    410165e0:	00d80e93          	addi	x29,x16,13 # 410165e9 <SID_EXCEP_37+0x1d>
    410165e4:	000e85e7          	jalr	x11,x29
    410165e8:	00000013          	nop

00000000410165ec <SID_EXCEP_37_passed>:
    410165ec:	00f00f9b          	addiw	x31,x0,15
    410165f0:	01cf9f93          	slli	x31,x31,0x1c
    410165f4:	001f8f93          	addi	x31,x31,1
    410165f8:	00000073          	ecall

00000000410165fc <SID_EXCEP_38>:
    410165fc:	2c850137          	lui	x2,0x2c850
    41016600:	64b1011b          	addiw	x2,x2,1611 # 2c85064b <SID_EXCEP_08_stack+0x9c4d64b>
    41016604:	00e11113          	slli	x2,x2,0xe
    41016608:	0007afb7          	lui	x31,0x7a
    4101660c:	0a8f8f9b          	addiw	x31,x31,168 # 7a0a8 <machine_csr_jump_table_flags>
    41016610:	02000f13          	li	x30,32
    41016614:	01efb023          	sd	x30,0(x31)
    41016618:	000f0fb7          	lui	x31,0xf0
    4101661c:	001f8f9b          	addiw	x31,x31,1 # f0001 <__section_os_data_1+0x75001>
    41016620:	00cf9f93          	slli	x31,x31,0xc
    41016624:	005f8f93          	addi	x31,x31,5
    41016628:	00000073          	ecall
    4101662c:	00713023          	sd	x7,0(x2)
    41016630:	00005137          	lui	x2,0x5
    41016634:	000012b7          	lui	x5,0x1
    41016638:	00510133          	add	x2,x2,x5
    4101663c:	ff017113          	andi	x2,x2,-16
    41016640:	0a000c93          	li	x25,160
    41016644:	000c8393          	mv	x7,x25
    41016648:	003393f3          	fscsr	x7,x7
    4101664c:	00c58553          	fadd.s	f10,f11,f12,rne
    41016650:	0c000793          	li	x15,192
    41016654:	00078393          	mv	x7,x15
    41016658:	003393f3          	fscsr	x7,x7
    4101665c:	10c59553          	fmul.s	f10,f11,f12,rtz
    41016660:	0e000793          	li	x15,224
    41016664:	00078393          	mv	x7,x15
    41016668:	003393f3          	fscsr	x7,x7
    4101666c:	08c5a553          	fsub.s	f10,f11,f12,rdn
    41016670:	2c850137          	lui	x2,0x2c850
    41016674:	64b1011b          	addiw	x2,x2,1611 # 2c85064b <SID_EXCEP_08_stack+0x9c4d64b>
    41016678:	00e11113          	slli	x2,x2,0xe
    4101667c:	00013383          	ld	x7,0(x2)
    41016680:	0007afb7          	lui	x31,0x7a
    41016684:	0a8f8f9b          	addiw	x31,x31,168 # 7a0a8 <machine_csr_jump_table_flags>
    41016688:	02400f13          	li	x30,36
    4101668c:	01efb023          	sd	x30,0(x31)
    41016690:	000f0fb7          	lui	x31,0xf0
    41016694:	001f8f9b          	addiw	x31,x31,1 # f0001 <__section_os_data_1+0x75001>
    41016698:	00cf9f93          	slli	x31,x31,0xc
    4101669c:	005f8f93          	addi	x31,x31,5
    410166a0:	00000073          	ecall

00000000410166a4 <SID_EXCEP_38_passed>:
    410166a4:	00f00f9b          	addiw	x31,x0,15
    410166a8:	01cf9f93          	slli	x31,x31,0x1c
    410166ac:	001f8f93          	addi	x31,x31,1
    410166b0:	00000073          	ecall

00000000410166b4 <test_cleanup>:
    410166b4:	00f00f9b          	addiw	x31,x0,15
    410166b8:	01cf9f93          	slli	x31,x31,0x1c
    410166bc:	001f8f93          	addi	x31,x31,1
    410166c0:	00000073          	ecall

00000000410166c4 <local_test_failed>:
    410166c4:	00f00f9b          	addiw	x31,x0,15
    410166c8:	01cf9f93          	slli	x31,x31,0x1c
    410166cc:	002f8f93          	addi	x31,x31,2
    410166d0:	00000073          	ecall

Disassembly of section .csr_machine_0:

0000000041215000 <csr_access_mstatus_machine_key_31_write-0xb0>:
    41215000:	43ecefb7          	lui	x31,0x43ece
    41215004:	0a8f8f9b          	addiw	x31,x31,168 # 43ece0a8 <machine_csr_jump_table_flags_pa>
    41215008:	000fbf83          	ld	x31,0(x31)
    4121500c:	01f00293          	li	x5,31
    41215010:	0a5f8063          	beq	x31,x5,412150b0 <csr_access_mstatus_machine_key_31_write>
    41215014:	00100293          	li	x5,1
    41215018:	0a5f8063          	beq	x31,x5,412150b8 <csr_access_mstatus_machine_key_1_read>
    4121501c:	01900293          	li	x5,25
    41215020:	0a5f8063          	beq	x31,x5,412150c0 <csr_access_mstatus_machine_key_25_read>
    41215024:	01b00293          	li	x5,27
    41215028:	0a5f8063          	beq	x31,x5,412150c8 <csr_access_mstatus_machine_key_27_set>
    4121502c:	01a00293          	li	x5,26
    41215030:	0a5f8063          	beq	x31,x5,412150d0 <csr_access_mstatus_machine_key_26_clear>
    41215034:	00200293          	li	x5,2
    41215038:	0a5f8063          	beq	x31,x5,412150d8 <csr_access_mvendorid_machine_key_2_write>
    4121503c:	00e00293          	li	x5,14
    41215040:	0a5f8063          	beq	x31,x5,412150e0 <csr_access_misa_machine_key_14_write>
    41215044:	00500293          	li	x5,5
    41215048:	0a5f8063          	beq	x31,x5,412150e8 <csr_access_misa_machine_key_5_read>
    4121504c:	00700293          	li	x5,7
    41215050:	0a5f8063          	beq	x31,x5,412150f0 <csr_access_misa_machine_key_7_set>
    41215054:	00600293          	li	x5,6
    41215058:	0a5f8063          	beq	x31,x5,412150f8 <csr_access_misa_machine_key_6_clear>
    4121505c:	02400293          	li	x5,36
    41215060:	0a5f8063          	beq	x31,x5,41215100 <csr_access_fcsr_user_key_36_write>
    41215064:	02000293          	li	x5,32
    41215068:	0a5f8063          	beq	x31,x5,41215108 <csr_access_fcsr_user_key_32_read>
    4121506c:	02700293          	li	x5,39
    41215070:	0a5f8063          	beq	x31,x5,41215110 <csr_access_mcounteren_machine_key_39_write>
    41215074:	02e00293          	li	x5,46
    41215078:	0a5f8063          	beq	x31,x5,41215118 <csr_access_mcounteren_machine_key_46_write>
    4121507c:	02500293          	li	x5,37
    41215080:	0a5f8063          	beq	x31,x5,41215120 <csr_access_mcounteren_machine_key_37_read>
    41215084:	03200293          	li	x5,50
    41215088:	0a5f8063          	beq	x31,x5,41215128 <csr_access_mcounteren_machine_key_50_set>
    4121508c:	02f00293          	li	x5,47
    41215090:	0a5f8063          	beq	x31,x5,41215130 <csr_access_scounteren_supervisor_key_47_write>
    41215094:	02600293          	li	x5,38
    41215098:	0a5f8063          	beq	x31,x5,41215138 <csr_access_scounteren_supervisor_key_38_read>
    4121509c:	03700293          	li	x5,55
    412150a0:	0a5f8063          	beq	x31,x5,41215140 <csr_access_mtvec_machine_key_55_set>
    412150a4:	03600293          	li	x5,54
    412150a8:	0a5f8063          	beq	x31,x5,41215148 <csr_access_mtvec_machine_key_54_clear>
    412150ac:	0a40006f          	j	41215150 <end_machine_label>

00000000412150b0 <csr_access_mstatus_machine_key_31_write>:
    412150b0:	30039073          	csrw	mstatus,x7
    412150b4:	09c0006f          	j	41215150 <end_machine_label>

00000000412150b8 <csr_access_mstatus_machine_key_1_read>:
    412150b8:	300023f3          	csrr	x7,mstatus
    412150bc:	0940006f          	j	41215150 <end_machine_label>

00000000412150c0 <csr_access_mstatus_machine_key_25_read>:
    412150c0:	300023f3          	csrr	x7,mstatus
    412150c4:	08c0006f          	j	41215150 <end_machine_label>

00000000412150c8 <csr_access_mstatus_machine_key_27_set>:
    412150c8:	3003a073          	csrs	mstatus,x7
    412150cc:	0840006f          	j	41215150 <end_machine_label>

00000000412150d0 <csr_access_mstatus_machine_key_26_clear>:
    412150d0:	3003b073          	csrc	mstatus,x7
    412150d4:	07c0006f          	j	41215150 <end_machine_label>

00000000412150d8 <csr_access_mvendorid_machine_key_2_write>:
    412150d8:	f1139073          	csrw	mvendorid,x7
    412150dc:	0740006f          	j	41215150 <end_machine_label>

00000000412150e0 <csr_access_misa_machine_key_14_write>:
    412150e0:	30139073          	csrw	misa,x7
    412150e4:	06c0006f          	j	41215150 <end_machine_label>

00000000412150e8 <csr_access_misa_machine_key_5_read>:
    412150e8:	301023f3          	csrr	x7,misa
    412150ec:	0640006f          	j	41215150 <end_machine_label>

00000000412150f0 <csr_access_misa_machine_key_7_set>:
    412150f0:	3013a073          	csrs	misa,x7
    412150f4:	05c0006f          	j	41215150 <end_machine_label>

00000000412150f8 <csr_access_misa_machine_key_6_clear>:
    412150f8:	3013b073          	csrc	misa,x7
    412150fc:	0540006f          	j	41215150 <end_machine_label>

0000000041215100 <csr_access_fcsr_user_key_36_write>:
    41215100:	00339073          	fscsr	x7
    41215104:	04c0006f          	j	41215150 <end_machine_label>

0000000041215108 <csr_access_fcsr_user_key_32_read>:
    41215108:	003023f3          	frcsr	x7
    4121510c:	0440006f          	j	41215150 <end_machine_label>

0000000041215110 <csr_access_mcounteren_machine_key_39_write>:
    41215110:	30639073          	csrw	mcounteren,x7
    41215114:	03c0006f          	j	41215150 <end_machine_label>

0000000041215118 <csr_access_mcounteren_machine_key_46_write>:
    41215118:	30639073          	csrw	mcounteren,x7
    4121511c:	0340006f          	j	41215150 <end_machine_label>

0000000041215120 <csr_access_mcounteren_machine_key_37_read>:
    41215120:	306023f3          	csrr	x7,mcounteren
    41215124:	02c0006f          	j	41215150 <end_machine_label>

0000000041215128 <csr_access_mcounteren_machine_key_50_set>:
    41215128:	3063a073          	csrs	mcounteren,x7
    4121512c:	0240006f          	j	41215150 <end_machine_label>

0000000041215130 <csr_access_scounteren_supervisor_key_47_write>:
    41215130:	10639073          	csrw	scounteren,x7
    41215134:	01c0006f          	j	41215150 <end_machine_label>

0000000041215138 <csr_access_scounteren_supervisor_key_38_read>:
    41215138:	106023f3          	csrr	x7,scounteren
    4121513c:	0140006f          	j	41215150 <end_machine_label>

0000000041215140 <csr_access_mtvec_machine_key_55_set>:
    41215140:	3053a073          	csrs	mtvec,x7
    41215144:	00c0006f          	j	41215150 <end_machine_label>

0000000041215148 <csr_access_mtvec_machine_key_54_clear>:
    41215148:	3053b073          	csrc	mtvec,x7
    4121514c:	0040006f          	j	41215150 <end_machine_label>

0000000041215150 <end_machine_label>:
    41215150:	000f0fb7          	lui	x31,0xf0
    41215154:	001f8f9b          	addiw	x31,x31,1 # f0001 <__section_os_data_1+0x75001>
    41215158:	00cf9f93          	slli	x31,x31,0xc
    4121515c:	004f8f93          	addi	x31,x31,4
    41215160:	00000073          	ecall

Disassembly of section .csr_super_0:

0000000041216000 <csr_access_vl_supervisor_key_29_read-0x48>:
    41216000:	0007afb7          	lui	x31,0x7a
    41216004:	0b0f8f9b          	addiw	x31,x31,176 # 7a0b0 <super_csr_jump_table_flags>
    41216008:	000fbf83          	ld	x31,0(x31)
    4121600c:	01d00293          	li	x5,29
    41216010:	025f8c63          	beq	x31,x5,41216048 <csr_access_vl_supervisor_key_29_read>
    41216014:	02c00293          	li	x5,44
    41216018:	025f8c63          	beq	x31,x5,41216050 <csr_access_scounteren_supervisor_key_44_write>
    4121601c:	03300293          	li	x5,51
    41216020:	025f8c63          	beq	x31,x5,41216058 <csr_access_scounteren_supervisor_key_51_set>
    41216024:	03500293          	li	x5,53
    41216028:	025f8c63          	beq	x31,x5,41216060 <csr_access_sstatus_supervisor_key_53_set>
    4121602c:	03400293          	li	x5,52
    41216030:	025f8c63          	beq	x31,x5,41216068 <csr_access_sstatus_supervisor_key_52_clear>
    41216034:	03900293          	li	x5,57
    41216038:	025f8c63          	beq	x31,x5,41216070 <csr_access_stvec_supervisor_key_57_set>
    4121603c:	03800293          	li	x5,56
    41216040:	025f8c63          	beq	x31,x5,41216078 <csr_access_stvec_supervisor_key_56_clear>
    41216044:	03c0006f          	j	41216080 <end_super_label>

0000000041216048 <csr_access_vl_supervisor_key_29_read>:
    41216048:	c20023f3          	csrr	x7,vl
    4121604c:	0340006f          	j	41216080 <end_super_label>

0000000041216050 <csr_access_scounteren_supervisor_key_44_write>:
    41216050:	10639073          	csrw	scounteren,x7
    41216054:	02c0006f          	j	41216080 <end_super_label>

0000000041216058 <csr_access_scounteren_supervisor_key_51_set>:
    41216058:	1063a073          	csrs	scounteren,x7
    4121605c:	0240006f          	j	41216080 <end_super_label>

0000000041216060 <csr_access_sstatus_supervisor_key_53_set>:
    41216060:	1003a073          	csrs	sstatus,x7
    41216064:	01c0006f          	j	41216080 <end_super_label>

0000000041216068 <csr_access_sstatus_supervisor_key_52_clear>:
    41216068:	1003b073          	csrc	sstatus,x7
    4121606c:	0140006f          	j	41216080 <end_super_label>

0000000041216070 <csr_access_stvec_supervisor_key_57_set>:
    41216070:	1053a073          	csrs	stvec,x7
    41216074:	00c0006f          	j	41216080 <end_super_label>

0000000041216078 <csr_access_stvec_supervisor_key_56_clear>:
    41216078:	1053b073          	csrc	stvec,x7
    4121607c:	0040006f          	j	41216080 <end_super_label>

0000000041216080 <end_super_label>:
    41216080:	000f0fb7          	lui	x31,0xf0
    41216084:	001f8f9b          	addiw	x31,x31,1 # f0001 <__section_os_data_1+0x75001>
    41216088:	00cf9f93          	slli	x31,x31,0xc
    4121608c:	004f8f93          	addi	x31,x31,4
    41216090:	00000073          	ecall

Disassembly of section .os_data:

000000000007a000 <passed_addr_ptr>:
   7a000:	50b0                	.insn	2, 0x50b0
   7a002:	4101                	.insn	2, 0x4101
   7a004:	0000                	.insn	2, 0x0000
	...

000000000007a008 <failed_addr_ptr>:
   7a008:	50c0                	.insn	2, 0x50c0
   7a00a:	4101                	.insn	2, 0x4101
   7a00c:	0000                	.insn	2, 0x0000
	...

000000000007a010 <end_test_addr_ptr>:
   7a010:	50d0                	.insn	2, 0x50d0
   7a012:	4101                	.insn	2, 0x4101
   7a014:	0000                	.insn	2, 0x0000
	...

000000000007a018 <os_passed_addr_ptr>:
   7a018:	07b0                	.insn	2, 0x07b0
   7a01a:	4100                	.insn	2, 0x4100
   7a01c:	0000                	.insn	2, 0x0000
	...

000000000007a020 <os_failed_addr_ptr>:
   7a020:	07c0                	.insn	2, 0x07c0
   7a022:	4100                	.insn	2, 0x4100
   7a024:	0000                	.insn	2, 0x0000
	...

000000000007a028 <os_end_test_addr_ptr>:
   7a028:	07cc                	.insn	2, 0x07cc
   7a02a:	4100                	.insn	2, 0x4100
   7a02c:	0000                	.insn	2, 0x0000
	...

000000000007a030 <rvcp_prefix_str_data>:
   7a030:	5652                	.insn	2, 0x5652
   7a032:	203a5043          	fmadd.s	f0,f20,f3,f4,unknown
   7a036:	6554                	.insn	2, 0x6554
   7a038:	46207473          	csrrci	x8,0x462,0
   7a03c:	6c69                	.insn	2, 0x6c69
   7a03e:	2065                	.insn	2, 0x2065
	...

000000000007a041 <rvcp_testname_str_data>:
   7a041:	7074                	.insn	2, 0x7074
   7a043:	655f 6378 7065      	.insn	6, 0x70656378655f
   7a049:	6974                	.insn	2, 0x6974
   7a04b:	5f736e6f          	jal	x28,b0e41 <__section_os_data_1+0x35e41>
   7a04f:	0032                	.insn	2, 0x0032

000000000007a051 <rvcp_passed_str_data>:
   7a051:	4150                	.insn	2, 0x4150
   7a053:	44455353          	fround.h	f6,f10,unknown
	...

000000000007a058 <rvcp_failed_str_data>:
   7a058:	4146                	.insn	2, 0x4146
   7a05a:	4c49                	.insn	2, 0x4c49
   7a05c:	4445                	.insn	2, 0x4445
	...

000000000007a05f <rvcp_space_str_data>:
   7a05f:	0020                	.insn	2, 0x0020

000000000007a061 <rvcp_newline_str_data>:
   7a061:	000a                	.insn	2, 0x000a
   7a063:	0000                	.insn	2, 0x0000
   7a065:	0000                	.insn	2, 0x0000
	...

000000000007a068 <excp_ignored_count_mem>:
	...

000000000007a070 <machine_flags_mem>:
	...

000000000007a078 <user_flags_mem>:
	...

000000000007a080 <super_flags_mem>:
	...

000000000007a088 <machine_area_mem>:
	...

000000000007a090 <user_area_mem>:
	...

000000000007a098 <super_area_mem>:
	...

000000000007a0a0 <zero_data_mem>:
	...

000000000007a0a8 <machine_csr_jump_table_flags_mem>:
	...

000000000007a0b0 <super_csr_jump_table_flags_mem>:
	...

000000000007a0b8 <pte_access_flags_mem>:
	...

000000000007a0d0 <num_harts_ended_mem>:
	...

000000000007a0d8 <num_hard_fails_mem>:
	...

Disassembly of section .hart_context:

0000000000002000 <hart_context_0>:
    2000:	d000                	.insn	2, 0xd000
    2002:	00000ceb          	.insn	4, 0x0ceb
	...
    2016:	0000                	.insn	2, 0x0000
    2018:	0001                	.insn	2, 0x0001
    201a:	0000                	.insn	2, 0x0000
    201c:	0000                	.insn	2, 0x0000
    201e:	0000                	.insn	2, 0x0000
    2020:	ffff                	.insn	2, 0xffff
    2022:	ffff                	.insn	2, 0xffff
    2024:	ffff                	.insn	2, 0xffff
    2026:	ffff                	.insn	2, 0xffff
    2028:	ffff                	.insn	2, 0xffff
    202a:	ffff                	.insn	2, 0xffff
    202c:	ffff                	.insn	2, 0xffff
    202e:	ffff                	.insn	2, 0xffff
    2030:	ffff                	.insn	2, 0xffff
    2032:	ffff                	.insn	2, 0xffff
    2034:	ffff                	.insn	2, 0xffff
    2036:	ffff                	.insn	2, 0xffff
	...
    2050:	00ff 0000 0000 0000 	.insn	10, 0x00ff00000000000000ff
    2058:	00ff 
	...
    2176:	0000                	.insn	2, 0x0000
    2178:	ffff                	.insn	2, 0xffff
    217a:	ffff                	.insn	2, 0xffff
    217c:	ffff                	.insn	2, 0xffff
    217e:	ffff                	.insn	2, 0xffff
	...
    2188:	ffff                	.insn	2, 0xffff
    218a:	ffff                	.insn	2, 0xffff
	...

Disassembly of section .hart_stack_0:

000000000cebc000 <hart_stack_0>:
	...

Disassembly of section .io_htif:

0000000041040000 <tohost>:
	...

0000000041040040 <fromhost>:
	...

Disassembly of section .tp_csr_storage:

00000b214192c000 <.tp_csr_storage>:
 b214192c000:	c0de                	.insn	2, 0xc0de
 b214192c002:	c001                	.insn	2, 0xc001
 b214192c004:	0000                	.insn	2, 0x0000
	...

Disassembly of section .SID_EXCEP_04_SU_stack:

0000000000052000 <.SID_EXCEP_04_SU_stack>:
   52000:	c0de                	.insn	2, 0xc0de
   52002:	c001                	.insn	2, 0xc001
   52004:	0000                	.insn	2, 0x0000
	...

Disassembly of section .SID_EXCEP_05_stack:

0000188d565b5000 <.SID_EXCEP_05_stack>:
    188d565b5000:	c0de                	.insn	2, 0xc0de
    188d565b5002:	c001                	.insn	2, 0xc001
    188d565b5004:	0000                	.insn	2, 0x0000
	...

Disassembly of section .SID_EXCEP_06_stack:

0000329fc7f68000 <.SID_EXCEP_06_stack>:
    329fc7f68000:	c0de                	.insn	2, 0xc0de
    329fc7f68002:	c001                	.insn	2, 0xc001
    329fc7f68004:	0000                	.insn	2, 0x0000
	...

Disassembly of section .SID_EXCEP_07_stack:

0000000e01610000 <.SID_EXCEP_07_stack>:
   e01610000:	c0de                	.insn	2, 0xc0de
   e01610002:	c001                	.insn	2, 0xc001
   e01610004:	0000                	.insn	2, 0x0000
	...

Disassembly of section .SID_EXCEP_08_stack:

0000000022c03000 <.SID_EXCEP_08_stack>:
    22c03000:	c0de                	.insn	2, 0xc0de
    22c03002:	c001                	.insn	2, 0xc001
    22c03004:	0000                	.insn	2, 0x0000
	...

Disassembly of section .SID_EXCEP_10_stack:

0000000000024000 <.SID_EXCEP_10_stack>:
   24000:	c0de                	.insn	2, 0xc0de
   24002:	c001                	.insn	2, 0xc001
   24004:	0000                	.insn	2, 0x0000
	...

Disassembly of section .SID_EXCEP_15_U_stack:

0000038128c2a000 <.SID_EXCEP_15_U_stack>:
 38128c2a000:	c0de                	.insn	2, 0xc0de
 38128c2a002:	c001                	.insn	2, 0xc001
 38128c2a004:	0000                	.insn	2, 0x0000
	...

Disassembly of section .SID_EXCEP_16_stack:

00000000003b2000 <.SID_EXCEP_16_stack>:
  3b2000:	c0de                	.insn	2, 0xc0de
  3b2002:	c001                	.insn	2, 0xc001
  3b2004:	0000                	.insn	2, 0x0000
	...

Disassembly of section .SID_EXCEP_17_stack:

0000000000182000 <.SID_EXCEP_17_stack>:
  182000:	c0de                	.insn	2, 0xc0de
  182002:	c001                	.insn	2, 0xc001
  182004:	0000                	.insn	2, 0x0000
	...

Disassembly of section .SID_EXCEP_35_U_stack:

00000000001e3000 <.SID_EXCEP_35_U_stack>:
  1e3000:	c0de                	.insn	2, 0xc0de
  1e3002:	c001                	.insn	2, 0xc001
  1e3004:	0000                	.insn	2, 0x0000
	...

Disassembly of section .SID_EXCEP_37_stack:

0000000000020000 <.SID_EXCEP_37_stack>:
   20000:	c0de                	.insn	2, 0xc0de
   20002:	c001                	.insn	2, 0xc001
   20004:	0000                	.insn	2, 0x0000
	...

Disassembly of section .SID_EXCEP_38_stack:

0000000000005000 <.SID_EXCEP_38_stack>:
    5000:	c0de                	.insn	2, 0xc0de
    5002:	c001                	.insn	2, 0xc001
    5004:	0000                	.insn	2, 0x0000
	...

Disassembly of section .__pagetable_map_os_0x0000000042a9e000:

0000000042a9e000 <__pagetable_map_os_0x0000000042a9e000>:
    42a9e000:	2801                	.insn	2, 0x2801
    42a9e002:	000010cb          	fnmsub.s	f1,f0,f0,f0,rtz
	...
    42a9e036:	0000                	.insn	2, 0x0000
    42a9e038:	c401                	.insn	2, 0xc401
    42a9e03a:	113c                	.insn	2, 0x113c
	...
    42a9e0b0:	e001                	.insn	2, 0xe001
    42a9e0b2:	113c                	.insn	2, 0x113c
	...
    42a9e188:	a801                	.insn	2, 0xa801
    42a9e18a:	000010b3          	sll	x1,x0,x0
	...
    42a9e326:	0000                	.insn	2, 0x0000
    42a9e328:	4801                	.insn	2, 0x4801
    42a9e32a:	10a9                	.insn	2, 0x10a9
    42a9e32c:	0000                	.insn	2, 0x0000
	...

Disassembly of section .__pagetable_map_os_0x00000000432ca000:

00000000432ca000 <__pagetable_map_os_0x00000000432ca000>:
    432ca000:	2001                	.insn	2, 0x2001
    432ca002:	10b1                	.insn	2, 0x10b1
    432ca004:	0000                	.insn	2, 0x0000
    432ca006:	0000                	.insn	2, 0x0000
    432ca008:	4401                	.insn	2, 0x4401
    432ca00a:	10aa                	.insn	2, 0x10aa
	...
    432ca028:	2001                	.insn	2, 0x2001
    432ca02a:	10a9                	.insn	2, 0x10a9
	...
    432ca1c0:	ec01                	.insn	2, 0xec01
    432ca1c2:	10d9                	.insn	2, 0x10d9
    432ca1c4:	0000                	.insn	2, 0x0000
	...

Disassembly of section .__pagetable_map_os_0x0000000042a91000:

0000000042a91000 <__pagetable_map_os_0x0000000042a91000>:
	...
    42a91040:	6c01                	.insn	2, 0x6c01
    42a91042:	10a9                	.insn	2, 0x10a9
    42a91044:	0000                	.insn	2, 0x0000
    42a91046:	0000                	.insn	2, 0x0000
    42a91048:	5801                	.insn	2, 0x5801
    42a9104a:	10aa                	.insn	2, 0x10aa
	...
    42a910a8:	ac01                	.insn	2, 0xac01
    42a910aa:	113a                	.insn	2, 0x113a
    42a910ac:	0000                	.insn	2, 0x0000
	...

Disassembly of section .__pagetable_map_os_0x0000000042a5b000:

0000000042a5b000 <__pagetable_map_os_0x0000000042a5b000>:
	...
    42a5b080:	40df 1040 0000      	.insn	6, 0x104040df
    42a5b086:	0000                	.insn	2, 0x0000
    42a5b088:	104044cf          	fnmadd.s	f9,f0,f4,f2,rmm
    42a5b08c:	0000                	.insn	2, 0x0000
    42a5b08e:	0000                	.insn	2, 0x0000
    42a5b090:	104048cf          	fnmadd.s	f17,f0,f4,f2,rmm
    42a5b094:	0000                	.insn	2, 0x0000
    42a5b096:	0000                	.insn	2, 0x0000
    42a5b098:	10404ccf          	fnmadd.s	f25,f0,f4,f2,rmm
    42a5b09c:	0000                	.insn	2, 0x0000
    42a5b09e:	0000                	.insn	2, 0x0000
    42a5b0a0:	104050cf          	fnmadd.s	f1,f0,f4,f2,unknown
    42a5b0a4:	0000                	.insn	2, 0x0000
    42a5b0a6:	0000                	.insn	2, 0x0000
    42a5b0a8:	00df 10a0 0000      	.insn	6, 0x10a000df
    42a5b0ae:	0000                	.insn	2, 0x0000
    42a5b0b0:	04df 10a0 0000      	.insn	6, 0x10a004df
    42a5b0b6:	0000                	.insn	2, 0x0000
    42a5b0b8:	08df 10a0 0000      	.insn	6, 0x10a008df
    42a5b0be:	0000                	.insn	2, 0x0000
    42a5b0c0:	0cdf 10a0 0000      	.insn	6, 0x10a00cdf
    42a5b0c6:	0000                	.insn	2, 0x0000
    42a5b0c8:	10df 10a0 0000      	.insn	6, 0x10a010df
    42a5b0ce:	0000                	.insn	2, 0x0000
    42a5b0d0:	14df 10a0 0000      	.insn	6, 0x10a014df
    42a5b0d6:	0000                	.insn	2, 0x0000
    42a5b0d8:	18df 10a0 0000      	.insn	6, 0x10a018df
    42a5b0de:	0000                	.insn	2, 0x0000
    42a5b0e0:	1cdf 10a0 0000      	.insn	6, 0x10a01cdf
    42a5b0e6:	0000                	.insn	2, 0x0000
    42a5b0e8:	20df 10a0 0000      	.insn	6, 0x10a020df
    42a5b0ee:	0000                	.insn	2, 0x0000
    42a5b0f0:	24df 10a0 0000      	.insn	6, 0x10a024df
    42a5b0f6:	0000                	.insn	2, 0x0000
    42a5b0f8:	28df 10a0 0000      	.insn	6, 0x10a028df
    42a5b0fe:	0000                	.insn	2, 0x0000
    42a5b100:	2cdf 10a0 0000      	.insn	6, 0x10a02cdf
    42a5b106:	0000                	.insn	2, 0x0000
    42a5b108:	30df 10a0 0000      	.insn	6, 0x10a030df
    42a5b10e:	0000                	.insn	2, 0x0000
    42a5b110:	34df 10a0 0000      	.insn	6, 0x10a034df
    42a5b116:	0000                	.insn	2, 0x0000
    42a5b118:	38df 10a0 0000      	.insn	6, 0x10a038df
    42a5b11e:	0000                	.insn	2, 0x0000
    42a5b120:	3cdf 10a0 0000      	.insn	6, 0x10a03cdf
    42a5b126:	0000                	.insn	2, 0x0000
    42a5b128:	40df 10a0 0000      	.insn	6, 0x10a040df
    42a5b12e:	0000                	.insn	2, 0x0000
    42a5b130:	44df 10a0 0000      	.insn	6, 0x10a044df
    42a5b136:	0000                	.insn	2, 0x0000
    42a5b138:	48df 10a0 0000      	.insn	6, 0x10a048df
    42a5b13e:	0000                	.insn	2, 0x0000
    42a5b140:	4cdf 10a0 0000      	.insn	6, 0x10a04cdf
    42a5b146:	0000                	.insn	2, 0x0000
    42a5b148:	50df 10a0 0000      	.insn	6, 0x10a050df
    42a5b14e:	0000                	.insn	2, 0x0000
    42a5b150:	54df 10a0 0000      	.insn	6, 0x10a054df
    42a5b156:	0000                	.insn	2, 0x0000
    42a5b158:	58df 10a0 0000      	.insn	6, 0x10a058df
    42a5b15e:	0000                	.insn	2, 0x0000
    42a5b160:	5cdf 10a0 0000      	.insn	6, 0x10a05cdf
    42a5b166:	0000                	.insn	2, 0x0000
    42a5b168:	60df 10a0 0000      	.insn	6, 0x10a060df
    42a5b16e:	0000                	.insn	2, 0x0000
    42a5b170:	64df 10a0 0000      	.insn	6, 0x10a064df
    42a5b176:	0000                	.insn	2, 0x0000
    42a5b178:	68df 10a0 0000      	.insn	6, 0x10a068df
    42a5b17e:	0000                	.insn	2, 0x0000
    42a5b180:	6cdf 10a0 0000      	.insn	6, 0x10a06cdf
    42a5b186:	0000                	.insn	2, 0x0000
    42a5b188:	70df 10a0 0000      	.insn	6, 0x10a070df
    42a5b18e:	0000                	.insn	2, 0x0000
    42a5b190:	74df 10a0 0000      	.insn	6, 0x10a074df
    42a5b196:	0000                	.insn	2, 0x0000
    42a5b198:	78df 10a0 0000      	.insn	6, 0x10a078df
    42a5b19e:	0000                	.insn	2, 0x0000
    42a5b1a0:	7cdf 10a0 0000      	.insn	6, 0x10a07cdf
    42a5b1a6:	0000                	.insn	2, 0x0000
    42a5b1a8:	80df 10a0 0000      	.insn	6, 0x10a080df
    42a5b1ae:	0000                	.insn	2, 0x0000
    42a5b1b0:	84df 10a0 0000      	.insn	6, 0x10a084df
    42a5b1b6:	0000                	.insn	2, 0x0000
    42a5b1b8:	88df 10a0 0000      	.insn	6, 0x10a088df
    42a5b1be:	0000                	.insn	2, 0x0000
    42a5b1c0:	8cdf 10a0 0000      	.insn	6, 0x10a08cdf
    42a5b1c6:	0000                	.insn	2, 0x0000
    42a5b1c8:	90df 10a0 0000      	.insn	6, 0x10a090df
    42a5b1ce:	0000                	.insn	2, 0x0000
    42a5b1d0:	94df 10a0 0000      	.insn	6, 0x10a094df
    42a5b1d6:	0000                	.insn	2, 0x0000
    42a5b1d8:	98df 10a0 0000      	.insn	6, 0x10a098df
    42a5b1de:	0000                	.insn	2, 0x0000
    42a5b1e0:	9cdf 10a0 0000      	.insn	6, 0x10a09cdf
    42a5b1e6:	0000                	.insn	2, 0x0000
    42a5b1e8:	a0df 10a0 0000      	.insn	6, 0x10a0a0df
    42a5b1ee:	0000                	.insn	2, 0x0000
    42a5b1f0:	a4df 10a0 0000      	.insn	6, 0x10a0a4df
    42a5b1f6:	0000                	.insn	2, 0x0000
    42a5b1f8:	a8df 10a0 0000      	.insn	6, 0x10a0a8df
    42a5b1fe:	0000                	.insn	2, 0x0000
    42a5b200:	00df 1041 0000      	.insn	6, 0x104100df
    42a5b206:	0000                	.insn	2, 0x0000
    42a5b208:	b0df 10a0 0000      	.insn	6, 0x10a0b0df
    42a5b20e:	0000                	.insn	2, 0x0000
    42a5b210:	b4df 10a0 0000      	.insn	6, 0x10a0b4df
    42a5b216:	0000                	.insn	2, 0x0000
    42a5b218:	b8df 10a0 0000      	.insn	6, 0x10a0b8df
    42a5b21e:	0000                	.insn	2, 0x0000
    42a5b220:	bcdf 10a0 0000      	.insn	6, 0x10a0bcdf
    42a5b226:	0000                	.insn	2, 0x0000
    42a5b228:	c0df 10a0 0000      	.insn	6, 0x10a0c0df
    42a5b22e:	0000                	.insn	2, 0x0000
    42a5b230:	c4df 10a0 0000      	.insn	6, 0x10a0c4df
    42a5b236:	0000                	.insn	2, 0x0000
    42a5b238:	c8df 10a0 0000      	.insn	6, 0x10a0c8df
    42a5b23e:	0000                	.insn	2, 0x0000
    42a5b240:	ccdf 10a0 0000      	.insn	6, 0x10a0ccdf
    42a5b246:	0000                	.insn	2, 0x0000
    42a5b248:	d0df 10a0 0000      	.insn	6, 0x10a0d0df
    42a5b24e:	0000                	.insn	2, 0x0000
    42a5b250:	d4df 10a0 0000      	.insn	6, 0x10a0d4df
    42a5b256:	0000                	.insn	2, 0x0000
    42a5b258:	d8df 10a0 0000      	.insn	6, 0x10a0d8df
    42a5b25e:	0000                	.insn	2, 0x0000
    42a5b260:	dcdf 10a0 0000      	.insn	6, 0x10a0dcdf
    42a5b266:	0000                	.insn	2, 0x0000
    42a5b268:	e0df 10a0 0000      	.insn	6, 0x10a0e0df
    42a5b26e:	0000                	.insn	2, 0x0000
    42a5b270:	e4df 10a0 0000      	.insn	6, 0x10a0e4df
    42a5b276:	0000                	.insn	2, 0x0000
    42a5b278:	e8df 10a0 0000      	.insn	6, 0x10a0e8df
    42a5b27e:	0000                	.insn	2, 0x0000
    42a5b280:	ecdf 10a0 0000      	.insn	6, 0x10a0ecdf
    42a5b286:	0000                	.insn	2, 0x0000
    42a5b288:	f0df 10a0 0000      	.insn	6, 0x10a0f0df
    42a5b28e:	0000                	.insn	2, 0x0000
    42a5b290:	f4df 10a0 0000      	.insn	6, 0x10a0f4df
    42a5b296:	0000                	.insn	2, 0x0000
    42a5b298:	f8df 10a0 0000      	.insn	6, 0x10a0f8df
    42a5b29e:	0000                	.insn	2, 0x0000
    42a5b2a0:	fcdf 10a0 0000      	.insn	6, 0x10a0fcdf
    42a5b2a6:	0000                	.insn	2, 0x0000
    42a5b2a8:	00df 10a1 0000      	.insn	6, 0x10a100df
    42a5b2ae:	0000                	.insn	2, 0x0000
    42a5b2b0:	04df 10a1 0000      	.insn	6, 0x10a104df
    42a5b2b6:	0000                	.insn	2, 0x0000
    42a5b2b8:	08df 10a1 0000      	.insn	6, 0x10a108df
    42a5b2be:	0000                	.insn	2, 0x0000
    42a5b2c0:	0cdf 10a1 0000      	.insn	6, 0x10a10cdf
    42a5b2c6:	0000                	.insn	2, 0x0000
    42a5b2c8:	10df 10a1 0000      	.insn	6, 0x10a110df
    42a5b2ce:	0000                	.insn	2, 0x0000
    42a5b2d0:	14df 10a1 0000      	.insn	6, 0x10a114df
    42a5b2d6:	0000                	.insn	2, 0x0000
    42a5b2d8:	18df 10a1 0000      	.insn	6, 0x10a118df
    42a5b2de:	0000                	.insn	2, 0x0000
    42a5b2e0:	1cdf 10a1 0000      	.insn	6, 0x10a11cdf
    42a5b2e6:	0000                	.insn	2, 0x0000
    42a5b2e8:	20df 10a1 0000      	.insn	6, 0x10a120df
    42a5b2ee:	0000                	.insn	2, 0x0000
    42a5b2f0:	24df 10a1 0000      	.insn	6, 0x10a124df
    42a5b2f6:	0000                	.insn	2, 0x0000
    42a5b2f8:	28df 10a1 0000      	.insn	6, 0x10a128df
    42a5b2fe:	0000                	.insn	2, 0x0000
    42a5b300:	2cdf 10a1 0000      	.insn	6, 0x10a12cdf
    42a5b306:	0000                	.insn	2, 0x0000
    42a5b308:	30df 10a1 0000      	.insn	6, 0x10a130df
    42a5b30e:	0000                	.insn	2, 0x0000
    42a5b310:	34df 10a1 0000      	.insn	6, 0x10a134df
    42a5b316:	0000                	.insn	2, 0x0000
    42a5b318:	38df 10a1 0000      	.insn	6, 0x10a138df
    42a5b31e:	0000                	.insn	2, 0x0000
    42a5b320:	3cdf 10a1 0000      	.insn	6, 0x10a13cdf
    42a5b326:	0000                	.insn	2, 0x0000
    42a5b328:	40df 10a1 0000      	.insn	6, 0x10a140df
    42a5b32e:	0000                	.insn	2, 0x0000
    42a5b330:	44df 10a1 0000      	.insn	6, 0x10a144df
    42a5b336:	0000                	.insn	2, 0x0000
    42a5b338:	48df 10a1 0000      	.insn	6, 0x10a148df
    42a5b33e:	0000                	.insn	2, 0x0000
    42a5b340:	4cdf 10a1 0000      	.insn	6, 0x10a14cdf
    42a5b346:	0000                	.insn	2, 0x0000
    42a5b348:	50df 10a1 0000      	.insn	6, 0x10a150df
    42a5b34e:	0000                	.insn	2, 0x0000
    42a5b350:	54df 10a1 0000      	.insn	6, 0x10a154df
    42a5b356:	0000                	.insn	2, 0x0000
    42a5b358:	58df 10a1 0000      	.insn	6, 0x10a158df
    42a5b35e:	0000                	.insn	2, 0x0000
    42a5b360:	5cdf 10a1 0000      	.insn	6, 0x10a15cdf
    42a5b366:	0000                	.insn	2, 0x0000
    42a5b368:	60df 10a1 0000      	.insn	6, 0x10a160df
    42a5b36e:	0000                	.insn	2, 0x0000
    42a5b370:	64df 10a1 0000      	.insn	6, 0x10a164df
    42a5b376:	0000                	.insn	2, 0x0000
    42a5b378:	68df 10a1 0000      	.insn	6, 0x10a168df
    42a5b37e:	0000                	.insn	2, 0x0000
    42a5b380:	6cdf 10a1 0000      	.insn	6, 0x10a16cdf
    42a5b386:	0000                	.insn	2, 0x0000
    42a5b388:	70df 10a1 0000      	.insn	6, 0x10a170df
    42a5b38e:	0000                	.insn	2, 0x0000
    42a5b390:	74df 10a1 0000      	.insn	6, 0x10a174df
    42a5b396:	0000                	.insn	2, 0x0000
    42a5b398:	78df 10a1 0000      	.insn	6, 0x10a178df
    42a5b39e:	0000                	.insn	2, 0x0000
    42a5b3a0:	7cdf 10a1 0000      	.insn	6, 0x10a17cdf
    42a5b3a6:	0000                	.insn	2, 0x0000
    42a5b3a8:	80df 10a1 0000      	.insn	6, 0x10a180df
    42a5b3ae:	0000                	.insn	2, 0x0000
    42a5b3b0:	84df 10a1 0000      	.insn	6, 0x10a184df
    42a5b3b6:	0000                	.insn	2, 0x0000
    42a5b3b8:	88df 10a1 0000      	.insn	6, 0x10a188df
    42a5b3be:	0000                	.insn	2, 0x0000
    42a5b3c0:	8cdf 10a1 0000      	.insn	6, 0x10a18cdf
    42a5b3c6:	0000                	.insn	2, 0x0000
    42a5b3c8:	90df 10a1 0000      	.insn	6, 0x10a190df
    42a5b3ce:	0000                	.insn	2, 0x0000
    42a5b3d0:	94df 10a1 0000      	.insn	6, 0x10a194df
    42a5b3d6:	0000                	.insn	2, 0x0000
    42a5b3d8:	98df 10a1 0000      	.insn	6, 0x10a198df
    42a5b3de:	0000                	.insn	2, 0x0000
    42a5b3e0:	9cdf 10a1 0000      	.insn	6, 0x10a19cdf
    42a5b3e6:	0000                	.insn	2, 0x0000
    42a5b3e8:	a0df 10a1 0000      	.insn	6, 0x10a1a0df
    42a5b3ee:	0000                	.insn	2, 0x0000
    42a5b3f0:	a4df 10a1 0000      	.insn	6, 0x10a1a4df
    42a5b3f6:	0000                	.insn	2, 0x0000
    42a5b3f8:	a8df 10a1 0000      	.insn	6, 0x10a1a8df
    42a5b3fe:	0000                	.insn	2, 0x0000
    42a5b400:	acdf 10a1 0000      	.insn	6, 0x10a1acdf
    42a5b406:	0000                	.insn	2, 0x0000
    42a5b408:	b0df 10a1 0000      	.insn	6, 0x10a1b0df
    42a5b40e:	0000                	.insn	2, 0x0000
    42a5b410:	b4df 10a1 0000      	.insn	6, 0x10a1b4df
    42a5b416:	0000                	.insn	2, 0x0000
    42a5b418:	b8df 10a1 0000      	.insn	6, 0x10a1b8df
    42a5b41e:	0000                	.insn	2, 0x0000
    42a5b420:	bcdf 10a1 0000      	.insn	6, 0x10a1bcdf
    42a5b426:	0000                	.insn	2, 0x0000
    42a5b428:	c0df 10a1 0000      	.insn	6, 0x10a1c0df
    42a5b42e:	0000                	.insn	2, 0x0000
    42a5b430:	c4df 10a1 0000      	.insn	6, 0x10a1c4df
    42a5b436:	0000                	.insn	2, 0x0000
    42a5b438:	c8df 10a1 0000      	.insn	6, 0x10a1c8df
    42a5b43e:	0000                	.insn	2, 0x0000
    42a5b440:	ccdf 10a1 0000      	.insn	6, 0x10a1ccdf
    42a5b446:	0000                	.insn	2, 0x0000
    42a5b448:	d0df 10a1 0000      	.insn	6, 0x10a1d0df
    42a5b44e:	0000                	.insn	2, 0x0000
    42a5b450:	d4df 10a1 0000      	.insn	6, 0x10a1d4df
    42a5b456:	0000                	.insn	2, 0x0000
    42a5b458:	d8df 10a1 0000      	.insn	6, 0x10a1d8df
    42a5b45e:	0000                	.insn	2, 0x0000
    42a5b460:	dcdf 10a1 0000      	.insn	6, 0x10a1dcdf
    42a5b466:	0000                	.insn	2, 0x0000
    42a5b468:	e0df 10a1 0000      	.insn	6, 0x10a1e0df
    42a5b46e:	0000                	.insn	2, 0x0000
    42a5b470:	e4df 10a1 0000      	.insn	6, 0x10a1e4df
    42a5b476:	0000                	.insn	2, 0x0000
    42a5b478:	e8df 10a1 0000      	.insn	6, 0x10a1e8df
    42a5b47e:	0000                	.insn	2, 0x0000
    42a5b480:	ecdf 10a1 0000      	.insn	6, 0x10a1ecdf
    42a5b486:	0000                	.insn	2, 0x0000
    42a5b488:	f0df 10a1 0000      	.insn	6, 0x10a1f0df
    42a5b48e:	0000                	.insn	2, 0x0000
    42a5b490:	f4df 10a1 0000      	.insn	6, 0x10a1f4df
    42a5b496:	0000                	.insn	2, 0x0000
    42a5b498:	f8df 10a1 0000      	.insn	6, 0x10a1f8df
    42a5b49e:	0000                	.insn	2, 0x0000
    42a5b4a0:	fcdf 10a1 0000      	.insn	6, 0x10a1fcdf
    42a5b4a6:	0000                	.insn	2, 0x0000
    42a5b4a8:	10a200cf          	fnmadd.s	f1,f4,f10,f2,rne
    42a5b4ac:	0000                	.insn	2, 0x0000
    42a5b4ae:	0000                	.insn	2, 0x0000
    42a5b4b0:	10a204cf          	fnmadd.s	f9,f4,f10,f2,rne
    42a5b4b4:	0000                	.insn	2, 0x0000
    42a5b4b6:	0000                	.insn	2, 0x0000
    42a5b4b8:	10a208cf          	fnmadd.s	f17,f4,f10,f2,rne
    42a5b4bc:	0000                	.insn	2, 0x0000
    42a5b4be:	0000                	.insn	2, 0x0000
    42a5b4c0:	10a20ccf          	fnmadd.s	f25,f4,f10,f2,rne
    42a5b4c4:	0000                	.insn	2, 0x0000
    42a5b4c6:	0000                	.insn	2, 0x0000
    42a5b4c8:	10a210cf          	fnmadd.s	f1,f4,f10,f2,rtz
    42a5b4cc:	0000                	.insn	2, 0x0000
    42a5b4ce:	0000                	.insn	2, 0x0000
    42a5b4d0:	10a214cf          	fnmadd.s	f9,f4,f10,f2,rtz
    42a5b4d4:	0000                	.insn	2, 0x0000
    42a5b4d6:	0000                	.insn	2, 0x0000
    42a5b4d8:	10a218cf          	fnmadd.s	f17,f4,f10,f2,rtz
    42a5b4dc:	0000                	.insn	2, 0x0000
    42a5b4de:	0000                	.insn	2, 0x0000
    42a5b4e0:	10a21ccf          	fnmadd.s	f25,f4,f10,f2,rtz
    42a5b4e4:	0000                	.insn	2, 0x0000
    42a5b4e6:	0000                	.insn	2, 0x0000
    42a5b4e8:	10a220cf          	fnmadd.s	f1,f4,f10,f2,rdn
    42a5b4ec:	0000                	.insn	2, 0x0000
    42a5b4ee:	0000                	.insn	2, 0x0000
    42a5b4f0:	10a224cf          	fnmadd.s	f9,f4,f10,f2,rdn
    42a5b4f4:	0000                	.insn	2, 0x0000
    42a5b4f6:	0000                	.insn	2, 0x0000
    42a5b4f8:	10a228cf          	fnmadd.s	f17,f4,f10,f2,rdn
    42a5b4fc:	0000                	.insn	2, 0x0000
    42a5b4fe:	0000                	.insn	2, 0x0000
    42a5b500:	10a22ccf          	fnmadd.s	f25,f4,f10,f2,rdn
    42a5b504:	0000                	.insn	2, 0x0000
    42a5b506:	0000                	.insn	2, 0x0000
    42a5b508:	10a230cf          	fnmadd.s	f1,f4,f10,f2,rup
    42a5b50c:	0000                	.insn	2, 0x0000
    42a5b50e:	0000                	.insn	2, 0x0000
    42a5b510:	10a234cf          	fnmadd.s	f9,f4,f10,f2,rup
    42a5b514:	0000                	.insn	2, 0x0000
    42a5b516:	0000                	.insn	2, 0x0000
    42a5b518:	10a238cf          	fnmadd.s	f17,f4,f10,f2,rup
    42a5b51c:	0000                	.insn	2, 0x0000
    42a5b51e:	0000                	.insn	2, 0x0000
    42a5b520:	10a23ccf          	fnmadd.s	f25,f4,f10,f2,rup
    42a5b524:	0000                	.insn	2, 0x0000
    42a5b526:	0000                	.insn	2, 0x0000
    42a5b528:	10a240cf          	fnmadd.s	f1,f4,f10,f2,rmm
    42a5b52c:	0000                	.insn	2, 0x0000
    42a5b52e:	0000                	.insn	2, 0x0000
    42a5b530:	10a244cf          	fnmadd.s	f9,f4,f10,f2,rmm
    42a5b534:	0000                	.insn	2, 0x0000
    42a5b536:	0000                	.insn	2, 0x0000
    42a5b538:	10a248cf          	fnmadd.s	f17,f4,f10,f2,rmm
    42a5b53c:	0000                	.insn	2, 0x0000
    42a5b53e:	0000                	.insn	2, 0x0000
    42a5b540:	10a24ccf          	fnmadd.s	f25,f4,f10,f2,rmm
    42a5b544:	0000                	.insn	2, 0x0000
    42a5b546:	0000                	.insn	2, 0x0000
    42a5b548:	10a250cf          	fnmadd.s	f1,f4,f10,f2,unknown
    42a5b54c:	0000                	.insn	2, 0x0000
    42a5b54e:	0000                	.insn	2, 0x0000
    42a5b550:	10a254cf          	fnmadd.s	f9,f4,f10,f2,unknown
    42a5b554:	0000                	.insn	2, 0x0000
    42a5b556:	0000                	.insn	2, 0x0000
    42a5b558:	10a258cf          	fnmadd.s	f17,f4,f10,f2,unknown
    42a5b55c:	0000                	.insn	2, 0x0000
    42a5b55e:	0000                	.insn	2, 0x0000
    42a5b560:	10a25ccf          	fnmadd.s	f25,f4,f10,f2,unknown
    42a5b564:	0000                	.insn	2, 0x0000
    42a5b566:	0000                	.insn	2, 0x0000
    42a5b568:	10a260cf          	fnmadd.s	f1,f4,f10,f2,unknown
    42a5b56c:	0000                	.insn	2, 0x0000
    42a5b56e:	0000                	.insn	2, 0x0000
    42a5b570:	10a264cf          	fnmadd.s	f9,f4,f10,f2,unknown
    42a5b574:	0000                	.insn	2, 0x0000
    42a5b576:	0000                	.insn	2, 0x0000
    42a5b578:	10a268cf          	fnmadd.s	f17,f4,f10,f2,unknown
    42a5b57c:	0000                	.insn	2, 0x0000
    42a5b57e:	0000                	.insn	2, 0x0000
    42a5b580:	10a26ccf          	fnmadd.s	f25,f4,f10,f2,unknown
    42a5b584:	0000                	.insn	2, 0x0000
    42a5b586:	0000                	.insn	2, 0x0000
    42a5b588:	10a270cf          	fnmadd.s	f1,f4,f10,f2
    42a5b58c:	0000                	.insn	2, 0x0000
    42a5b58e:	0000                	.insn	2, 0x0000
    42a5b590:	10a274cf          	fnmadd.s	f9,f4,f10,f2
    42a5b594:	0000                	.insn	2, 0x0000
    42a5b596:	0000                	.insn	2, 0x0000
    42a5b598:	10a278cf          	fnmadd.s	f17,f4,f10,f2
    42a5b59c:	0000                	.insn	2, 0x0000
    42a5b59e:	0000                	.insn	2, 0x0000
    42a5b5a0:	10a27ccf          	fnmadd.s	f25,f4,f10,f2
    42a5b5a4:	0000                	.insn	2, 0x0000
    42a5b5a6:	0000                	.insn	2, 0x0000
    42a5b5a8:	10a280cf          	fnmadd.s	f1,f5,f10,f2,rne
    42a5b5ac:	0000                	.insn	2, 0x0000
    42a5b5ae:	0000                	.insn	2, 0x0000
    42a5b5b0:	10a284cf          	fnmadd.s	f9,f5,f10,f2,rne
    42a5b5b4:	0000                	.insn	2, 0x0000
    42a5b5b6:	0000                	.insn	2, 0x0000
    42a5b5b8:	10a288cf          	fnmadd.s	f17,f5,f10,f2,rne
    42a5b5bc:	0000                	.insn	2, 0x0000
    42a5b5be:	0000                	.insn	2, 0x0000
    42a5b5c0:	10a28ccf          	fnmadd.s	f25,f5,f10,f2,rne
    42a5b5c4:	0000                	.insn	2, 0x0000
    42a5b5c6:	0000                	.insn	2, 0x0000
    42a5b5c8:	10a290cf          	fnmadd.s	f1,f5,f10,f2,rtz
    42a5b5cc:	0000                	.insn	2, 0x0000
    42a5b5ce:	0000                	.insn	2, 0x0000
    42a5b5d0:	10a294cf          	fnmadd.s	f9,f5,f10,f2,rtz
    42a5b5d4:	0000                	.insn	2, 0x0000
    42a5b5d6:	0000                	.insn	2, 0x0000
    42a5b5d8:	10a298cf          	fnmadd.s	f17,f5,f10,f2,rtz
    42a5b5dc:	0000                	.insn	2, 0x0000
    42a5b5de:	0000                	.insn	2, 0x0000
    42a5b5e0:	10a29ccf          	fnmadd.s	f25,f5,f10,f2,rtz
    42a5b5e4:	0000                	.insn	2, 0x0000
    42a5b5e6:	0000                	.insn	2, 0x0000
    42a5b5e8:	10a2a0cf          	fnmadd.s	f1,f5,f10,f2,rdn
    42a5b5ec:	0000                	.insn	2, 0x0000
    42a5b5ee:	0000                	.insn	2, 0x0000
    42a5b5f0:	10a2a4cf          	fnmadd.s	f9,f5,f10,f2,rdn
    42a5b5f4:	0000                	.insn	2, 0x0000
    42a5b5f6:	0000                	.insn	2, 0x0000
    42a5b5f8:	10a2a8cf          	fnmadd.s	f17,f5,f10,f2,rdn
    42a5b5fc:	0000                	.insn	2, 0x0000
    42a5b5fe:	0000                	.insn	2, 0x0000
    42a5b600:	10a2accf          	fnmadd.s	f25,f5,f10,f2,rdn
    42a5b604:	0000                	.insn	2, 0x0000
    42a5b606:	0000                	.insn	2, 0x0000
    42a5b608:	10a2b0cf          	fnmadd.s	f1,f5,f10,f2,rup
    42a5b60c:	0000                	.insn	2, 0x0000
    42a5b60e:	0000                	.insn	2, 0x0000
    42a5b610:	10a2b4cf          	fnmadd.s	f9,f5,f10,f2,rup
    42a5b614:	0000                	.insn	2, 0x0000
    42a5b616:	0000                	.insn	2, 0x0000
    42a5b618:	10a2b8cf          	fnmadd.s	f17,f5,f10,f2,rup
    42a5b61c:	0000                	.insn	2, 0x0000
    42a5b61e:	0000                	.insn	2, 0x0000
    42a5b620:	10a2bccf          	fnmadd.s	f25,f5,f10,f2,rup
    42a5b624:	0000                	.insn	2, 0x0000
    42a5b626:	0000                	.insn	2, 0x0000
    42a5b628:	10a2c0cf          	fnmadd.s	f1,f5,f10,f2,rmm
    42a5b62c:	0000                	.insn	2, 0x0000
    42a5b62e:	0000                	.insn	2, 0x0000
    42a5b630:	10a2c4cf          	fnmadd.s	f9,f5,f10,f2,rmm
    42a5b634:	0000                	.insn	2, 0x0000
    42a5b636:	0000                	.insn	2, 0x0000
    42a5b638:	10a2c8cf          	fnmadd.s	f17,f5,f10,f2,rmm
    42a5b63c:	0000                	.insn	2, 0x0000
    42a5b63e:	0000                	.insn	2, 0x0000
    42a5b640:	10a2cccf          	fnmadd.s	f25,f5,f10,f2,rmm
    42a5b644:	0000                	.insn	2, 0x0000
    42a5b646:	0000                	.insn	2, 0x0000
    42a5b648:	10a2d0cf          	fnmadd.s	f1,f5,f10,f2,unknown
    42a5b64c:	0000                	.insn	2, 0x0000
    42a5b64e:	0000                	.insn	2, 0x0000
    42a5b650:	10a2d4cf          	fnmadd.s	f9,f5,f10,f2,unknown
    42a5b654:	0000                	.insn	2, 0x0000
    42a5b656:	0000                	.insn	2, 0x0000
    42a5b658:	10a2d8cf          	fnmadd.s	f17,f5,f10,f2,unknown
    42a5b65c:	0000                	.insn	2, 0x0000
    42a5b65e:	0000                	.insn	2, 0x0000
    42a5b660:	10a2dccf          	fnmadd.s	f25,f5,f10,f2,unknown
    42a5b664:	0000                	.insn	2, 0x0000
    42a5b666:	0000                	.insn	2, 0x0000
    42a5b668:	10a2e0cf          	fnmadd.s	f1,f5,f10,f2,unknown
    42a5b66c:	0000                	.insn	2, 0x0000
    42a5b66e:	0000                	.insn	2, 0x0000
    42a5b670:	10a2e4cf          	fnmadd.s	f9,f5,f10,f2,unknown
    42a5b674:	0000                	.insn	2, 0x0000
    42a5b676:	0000                	.insn	2, 0x0000
    42a5b678:	10a2e8cf          	fnmadd.s	f17,f5,f10,f2,unknown
    42a5b67c:	0000                	.insn	2, 0x0000
    42a5b67e:	0000                	.insn	2, 0x0000
    42a5b680:	10a2eccf          	fnmadd.s	f25,f5,f10,f2,unknown
    42a5b684:	0000                	.insn	2, 0x0000
    42a5b686:	0000                	.insn	2, 0x0000
    42a5b688:	10a2f0cf          	fnmadd.s	f1,f5,f10,f2
    42a5b68c:	0000                	.insn	2, 0x0000
    42a5b68e:	0000                	.insn	2, 0x0000
    42a5b690:	10a2f4cf          	fnmadd.s	f9,f5,f10,f2
    42a5b694:	0000                	.insn	2, 0x0000
    42a5b696:	0000                	.insn	2, 0x0000
    42a5b698:	10a2f8cf          	fnmadd.s	f17,f5,f10,f2
    42a5b69c:	0000                	.insn	2, 0x0000
    42a5b69e:	0000                	.insn	2, 0x0000
    42a5b6a0:	10a2fccf          	fnmadd.s	f25,f5,f10,f2
    42a5b6a4:	0000                	.insn	2, 0x0000
    42a5b6a6:	0000                	.insn	2, 0x0000
    42a5b6a8:	10a300cf          	fnmadd.s	f1,f6,f10,f2,rne
    42a5b6ac:	0000                	.insn	2, 0x0000
    42a5b6ae:	0000                	.insn	2, 0x0000
    42a5b6b0:	10a304cf          	fnmadd.s	f9,f6,f10,f2,rne
    42a5b6b4:	0000                	.insn	2, 0x0000
    42a5b6b6:	0000                	.insn	2, 0x0000
    42a5b6b8:	10a308cf          	fnmadd.s	f17,f6,f10,f2,rne
    42a5b6bc:	0000                	.insn	2, 0x0000
    42a5b6be:	0000                	.insn	2, 0x0000
    42a5b6c0:	10a30ccf          	fnmadd.s	f25,f6,f10,f2,rne
    42a5b6c4:	0000                	.insn	2, 0x0000
    42a5b6c6:	0000                	.insn	2, 0x0000
    42a5b6c8:	10a310cf          	fnmadd.s	f1,f6,f10,f2,rtz
    42a5b6cc:	0000                	.insn	2, 0x0000
    42a5b6ce:	0000                	.insn	2, 0x0000
    42a5b6d0:	10a314cf          	fnmadd.s	f9,f6,f10,f2,rtz
    42a5b6d4:	0000                	.insn	2, 0x0000
    42a5b6d6:	0000                	.insn	2, 0x0000
    42a5b6d8:	10a318cf          	fnmadd.s	f17,f6,f10,f2,rtz
    42a5b6dc:	0000                	.insn	2, 0x0000
    42a5b6de:	0000                	.insn	2, 0x0000
    42a5b6e0:	10a31ccf          	fnmadd.s	f25,f6,f10,f2,rtz
    42a5b6e4:	0000                	.insn	2, 0x0000
    42a5b6e6:	0000                	.insn	2, 0x0000
    42a5b6e8:	10a320cf          	fnmadd.s	f1,f6,f10,f2,rdn
    42a5b6ec:	0000                	.insn	2, 0x0000
    42a5b6ee:	0000                	.insn	2, 0x0000
    42a5b6f0:	10a324cf          	fnmadd.s	f9,f6,f10,f2,rdn
    42a5b6f4:	0000                	.insn	2, 0x0000
    42a5b6f6:	0000                	.insn	2, 0x0000
    42a5b6f8:	10a328cf          	fnmadd.s	f17,f6,f10,f2,rdn
    42a5b6fc:	0000                	.insn	2, 0x0000
    42a5b6fe:	0000                	.insn	2, 0x0000
    42a5b700:	10a32ccf          	fnmadd.s	f25,f6,f10,f2,rdn
    42a5b704:	0000                	.insn	2, 0x0000
    42a5b706:	0000                	.insn	2, 0x0000
    42a5b708:	10a330cf          	fnmadd.s	f1,f6,f10,f2,rup
    42a5b70c:	0000                	.insn	2, 0x0000
    42a5b70e:	0000                	.insn	2, 0x0000
    42a5b710:	10a334cf          	fnmadd.s	f9,f6,f10,f2,rup
    42a5b714:	0000                	.insn	2, 0x0000
    42a5b716:	0000                	.insn	2, 0x0000
    42a5b718:	10a338cf          	fnmadd.s	f17,f6,f10,f2,rup
    42a5b71c:	0000                	.insn	2, 0x0000
    42a5b71e:	0000                	.insn	2, 0x0000
    42a5b720:	10a33ccf          	fnmadd.s	f25,f6,f10,f2,rup
    42a5b724:	0000                	.insn	2, 0x0000
    42a5b726:	0000                	.insn	2, 0x0000
    42a5b728:	10a340cf          	fnmadd.s	f1,f6,f10,f2,rmm
    42a5b72c:	0000                	.insn	2, 0x0000
    42a5b72e:	0000                	.insn	2, 0x0000
    42a5b730:	10a344cf          	fnmadd.s	f9,f6,f10,f2,rmm
    42a5b734:	0000                	.insn	2, 0x0000
    42a5b736:	0000                	.insn	2, 0x0000
    42a5b738:	10a348cf          	fnmadd.s	f17,f6,f10,f2,rmm
    42a5b73c:	0000                	.insn	2, 0x0000
    42a5b73e:	0000                	.insn	2, 0x0000
    42a5b740:	10a34ccf          	fnmadd.s	f25,f6,f10,f2,rmm
    42a5b744:	0000                	.insn	2, 0x0000
    42a5b746:	0000                	.insn	2, 0x0000
    42a5b748:	10a350cf          	fnmadd.s	f1,f6,f10,f2,unknown
    42a5b74c:	0000                	.insn	2, 0x0000
    42a5b74e:	0000                	.insn	2, 0x0000
    42a5b750:	10a354cf          	fnmadd.s	f9,f6,f10,f2,unknown
    42a5b754:	0000                	.insn	2, 0x0000
    42a5b756:	0000                	.insn	2, 0x0000
    42a5b758:	10a358cf          	fnmadd.s	f17,f6,f10,f2,unknown
    42a5b75c:	0000                	.insn	2, 0x0000
    42a5b75e:	0000                	.insn	2, 0x0000
    42a5b760:	10a35ccf          	fnmadd.s	f25,f6,f10,f2,unknown
    42a5b764:	0000                	.insn	2, 0x0000
    42a5b766:	0000                	.insn	2, 0x0000
    42a5b768:	10a360cf          	fnmadd.s	f1,f6,f10,f2,unknown
    42a5b76c:	0000                	.insn	2, 0x0000
    42a5b76e:	0000                	.insn	2, 0x0000
    42a5b770:	10a364cf          	fnmadd.s	f9,f6,f10,f2,unknown
    42a5b774:	0000                	.insn	2, 0x0000
    42a5b776:	0000                	.insn	2, 0x0000
    42a5b778:	10a368cf          	fnmadd.s	f17,f6,f10,f2,unknown
    42a5b77c:	0000                	.insn	2, 0x0000
    42a5b77e:	0000                	.insn	2, 0x0000
    42a5b780:	10a36ccf          	fnmadd.s	f25,f6,f10,f2,unknown
    42a5b784:	0000                	.insn	2, 0x0000
    42a5b786:	0000                	.insn	2, 0x0000
    42a5b788:	10a370cf          	fnmadd.s	f1,f6,f10,f2
    42a5b78c:	0000                	.insn	2, 0x0000
    42a5b78e:	0000                	.insn	2, 0x0000
    42a5b790:	10a374cf          	fnmadd.s	f9,f6,f10,f2
    42a5b794:	0000                	.insn	2, 0x0000
    42a5b796:	0000                	.insn	2, 0x0000
    42a5b798:	10a378cf          	fnmadd.s	f17,f6,f10,f2
    42a5b79c:	0000                	.insn	2, 0x0000
    42a5b79e:	0000                	.insn	2, 0x0000
    42a5b7a0:	10a37ccf          	fnmadd.s	f25,f6,f10,f2
    42a5b7a4:	0000                	.insn	2, 0x0000
    42a5b7a6:	0000                	.insn	2, 0x0000
    42a5b7a8:	10a380cf          	fnmadd.s	f1,f7,f10,f2,rne
    42a5b7ac:	0000                	.insn	2, 0x0000
    42a5b7ae:	0000                	.insn	2, 0x0000
    42a5b7b0:	10a384cf          	fnmadd.s	f9,f7,f10,f2,rne
    42a5b7b4:	0000                	.insn	2, 0x0000
    42a5b7b6:	0000                	.insn	2, 0x0000
    42a5b7b8:	10a388cf          	fnmadd.s	f17,f7,f10,f2,rne
    42a5b7bc:	0000                	.insn	2, 0x0000
    42a5b7be:	0000                	.insn	2, 0x0000
    42a5b7c0:	10a38ccf          	fnmadd.s	f25,f7,f10,f2,rne
    42a5b7c4:	0000                	.insn	2, 0x0000
    42a5b7c6:	0000                	.insn	2, 0x0000
    42a5b7c8:	10a390cf          	fnmadd.s	f1,f7,f10,f2,rtz
    42a5b7cc:	0000                	.insn	2, 0x0000
    42a5b7ce:	0000                	.insn	2, 0x0000
    42a5b7d0:	10a394cf          	fnmadd.s	f9,f7,f10,f2,rtz
    42a5b7d4:	0000                	.insn	2, 0x0000
    42a5b7d6:	0000                	.insn	2, 0x0000
    42a5b7d8:	10a398cf          	fnmadd.s	f17,f7,f10,f2,rtz
    42a5b7dc:	0000                	.insn	2, 0x0000
    42a5b7de:	0000                	.insn	2, 0x0000
    42a5b7e0:	10a39ccf          	fnmadd.s	f25,f7,f10,f2,rtz
    42a5b7e4:	0000                	.insn	2, 0x0000
    42a5b7e6:	0000                	.insn	2, 0x0000
    42a5b7e8:	10a3a0cf          	fnmadd.s	f1,f7,f10,f2,rdn
    42a5b7ec:	0000                	.insn	2, 0x0000
    42a5b7ee:	0000                	.insn	2, 0x0000
    42a5b7f0:	10a3a4cf          	fnmadd.s	f9,f7,f10,f2,rdn
    42a5b7f4:	0000                	.insn	2, 0x0000
    42a5b7f6:	0000                	.insn	2, 0x0000
    42a5b7f8:	10a3a8cf          	fnmadd.s	f17,f7,f10,f2,rdn
    42a5b7fc:	0000                	.insn	2, 0x0000
    42a5b7fe:	0000                	.insn	2, 0x0000
    42a5b800:	10a3accf          	fnmadd.s	f25,f7,f10,f2,rdn
    42a5b804:	0000                	.insn	2, 0x0000
    42a5b806:	0000                	.insn	2, 0x0000
    42a5b808:	10a3b0cf          	fnmadd.s	f1,f7,f10,f2,rup
    42a5b80c:	0000                	.insn	2, 0x0000
    42a5b80e:	0000                	.insn	2, 0x0000
    42a5b810:	10a3b4cf          	fnmadd.s	f9,f7,f10,f2,rup
    42a5b814:	0000                	.insn	2, 0x0000
    42a5b816:	0000                	.insn	2, 0x0000
    42a5b818:	10a3b8cf          	fnmadd.s	f17,f7,f10,f2,rup
    42a5b81c:	0000                	.insn	2, 0x0000
    42a5b81e:	0000                	.insn	2, 0x0000
    42a5b820:	10a3bccf          	fnmadd.s	f25,f7,f10,f2,rup
    42a5b824:	0000                	.insn	2, 0x0000
    42a5b826:	0000                	.insn	2, 0x0000
    42a5b828:	10a3c0cf          	fnmadd.s	f1,f7,f10,f2,rmm
    42a5b82c:	0000                	.insn	2, 0x0000
    42a5b82e:	0000                	.insn	2, 0x0000
    42a5b830:	10a3c4cf          	fnmadd.s	f9,f7,f10,f2,rmm
    42a5b834:	0000                	.insn	2, 0x0000
    42a5b836:	0000                	.insn	2, 0x0000
    42a5b838:	10a3c8cf          	fnmadd.s	f17,f7,f10,f2,rmm
    42a5b83c:	0000                	.insn	2, 0x0000
    42a5b83e:	0000                	.insn	2, 0x0000
    42a5b840:	10a3cccf          	fnmadd.s	f25,f7,f10,f2,rmm
    42a5b844:	0000                	.insn	2, 0x0000
    42a5b846:	0000                	.insn	2, 0x0000
    42a5b848:	10a3d0cf          	fnmadd.s	f1,f7,f10,f2,unknown
    42a5b84c:	0000                	.insn	2, 0x0000
    42a5b84e:	0000                	.insn	2, 0x0000
    42a5b850:	10a3d4cf          	fnmadd.s	f9,f7,f10,f2,unknown
    42a5b854:	0000                	.insn	2, 0x0000
    42a5b856:	0000                	.insn	2, 0x0000
    42a5b858:	10a3d8cf          	fnmadd.s	f17,f7,f10,f2,unknown
    42a5b85c:	0000                	.insn	2, 0x0000
    42a5b85e:	0000                	.insn	2, 0x0000
    42a5b860:	10a3dccf          	fnmadd.s	f25,f7,f10,f2,unknown
    42a5b864:	0000                	.insn	2, 0x0000
    42a5b866:	0000                	.insn	2, 0x0000
    42a5b868:	10a3e0cf          	fnmadd.s	f1,f7,f10,f2,unknown
    42a5b86c:	0000                	.insn	2, 0x0000
    42a5b86e:	0000                	.insn	2, 0x0000
    42a5b870:	10a3e4cf          	fnmadd.s	f9,f7,f10,f2,unknown
    42a5b874:	0000                	.insn	2, 0x0000
    42a5b876:	0000                	.insn	2, 0x0000
    42a5b878:	10a3e8cf          	fnmadd.s	f17,f7,f10,f2,unknown
    42a5b87c:	0000                	.insn	2, 0x0000
    42a5b87e:	0000                	.insn	2, 0x0000
    42a5b880:	10a3eccf          	fnmadd.s	f25,f7,f10,f2,unknown
    42a5b884:	0000                	.insn	2, 0x0000
    42a5b886:	0000                	.insn	2, 0x0000
    42a5b888:	10a3f0cf          	fnmadd.s	f1,f7,f10,f2
    42a5b88c:	0000                	.insn	2, 0x0000
    42a5b88e:	0000                	.insn	2, 0x0000
    42a5b890:	10a3f4cf          	fnmadd.s	f9,f7,f10,f2
    42a5b894:	0000                	.insn	2, 0x0000
    42a5b896:	0000                	.insn	2, 0x0000
    42a5b898:	10a3f8cf          	fnmadd.s	f17,f7,f10,f2
    42a5b89c:	0000                	.insn	2, 0x0000
    42a5b89e:	0000                	.insn	2, 0x0000
    42a5b8a0:	10a3fccf          	fnmadd.s	f25,f7,f10,f2
    42a5b8a4:	0000                	.insn	2, 0x0000
    42a5b8a6:	0000                	.insn	2, 0x0000
    42a5b8a8:	00df 10a4 0000      	.insn	6, 0x10a400df
    42a5b8ae:	0000                	.insn	2, 0x0000
    42a5b8b0:	04df 10a4 0000      	.insn	6, 0x10a404df
    42a5b8b6:	0000                	.insn	2, 0x0000
    42a5b8b8:	08df 10a4 0000      	.insn	6, 0x10a408df
    42a5b8be:	0000                	.insn	2, 0x0000
    42a5b8c0:	0cdf 10a4 0000      	.insn	6, 0x10a40cdf
    42a5b8c6:	0000                	.insn	2, 0x0000
    42a5b8c8:	10df 10a4 0000      	.insn	6, 0x10a410df
    42a5b8ce:	0000                	.insn	2, 0x0000
    42a5b8d0:	14df 10a4 0000      	.insn	6, 0x10a414df
    42a5b8d6:	0000                	.insn	2, 0x0000
    42a5b8d8:	18df 10a4 0000      	.insn	6, 0x10a418df
    42a5b8de:	0000                	.insn	2, 0x0000
    42a5b8e0:	1cdf 10a4 0000      	.insn	6, 0x10a41cdf
    42a5b8e6:	0000                	.insn	2, 0x0000
    42a5b8e8:	20df 10a4 0000      	.insn	6, 0x10a420df
    42a5b8ee:	0000                	.insn	2, 0x0000
    42a5b8f0:	24df 10a4 0000      	.insn	6, 0x10a424df
    42a5b8f6:	0000                	.insn	2, 0x0000
    42a5b8f8:	28df 10a4 0000      	.insn	6, 0x10a428df
    42a5b8fe:	0000                	.insn	2, 0x0000
    42a5b900:	2cdf 10a4 0000      	.insn	6, 0x10a42cdf
    42a5b906:	0000                	.insn	2, 0x0000
    42a5b908:	30df 10a4 0000      	.insn	6, 0x10a430df
    42a5b90e:	0000                	.insn	2, 0x0000
    42a5b910:	34df 10a4 0000      	.insn	6, 0x10a434df
    42a5b916:	0000                	.insn	2, 0x0000
    42a5b918:	38df 10a4 0000      	.insn	6, 0x10a438df
    42a5b91e:	0000                	.insn	2, 0x0000
    42a5b920:	3cdf 10a4 0000      	.insn	6, 0x10a43cdf
    42a5b926:	0000                	.insn	2, 0x0000
    42a5b928:	40df 10a4 0000      	.insn	6, 0x10a440df
    42a5b92e:	0000                	.insn	2, 0x0000
    42a5b930:	44df 10a4 0000      	.insn	6, 0x10a444df
    42a5b936:	0000                	.insn	2, 0x0000
    42a5b938:	48df 10a4 0000      	.insn	6, 0x10a448df
    42a5b93e:	0000                	.insn	2, 0x0000
    42a5b940:	4cdf 10a4 0000      	.insn	6, 0x10a44cdf
    42a5b946:	0000                	.insn	2, 0x0000
    42a5b948:	50df 10a4 0000      	.insn	6, 0x10a450df
    42a5b94e:	0000                	.insn	2, 0x0000
    42a5b950:	54df 10a4 0000      	.insn	6, 0x10a454df
    42a5b956:	0000                	.insn	2, 0x0000
    42a5b958:	58df 10a4 0000      	.insn	6, 0x10a458df
    42a5b95e:	0000                	.insn	2, 0x0000
    42a5b960:	5cdf 10a4 0000      	.insn	6, 0x10a45cdf
    42a5b966:	0000                	.insn	2, 0x0000
    42a5b968:	60df 10a4 0000      	.insn	6, 0x10a460df
    42a5b96e:	0000                	.insn	2, 0x0000
    42a5b970:	64df 10a4 0000      	.insn	6, 0x10a464df
    42a5b976:	0000                	.insn	2, 0x0000
    42a5b978:	68df 10a4 0000      	.insn	6, 0x10a468df
    42a5b97e:	0000                	.insn	2, 0x0000
    42a5b980:	6cdf 10a4 0000      	.insn	6, 0x10a46cdf
    42a5b986:	0000                	.insn	2, 0x0000
    42a5b988:	70df 10a4 0000      	.insn	6, 0x10a470df
    42a5b98e:	0000                	.insn	2, 0x0000
    42a5b990:	74df 10a4 0000      	.insn	6, 0x10a474df
    42a5b996:	0000                	.insn	2, 0x0000
    42a5b998:	78df 10a4 0000      	.insn	6, 0x10a478df
    42a5b99e:	0000                	.insn	2, 0x0000
    42a5b9a0:	7cdf 10a4 0000      	.insn	6, 0x10a47cdf
    42a5b9a6:	0000                	.insn	2, 0x0000
    42a5b9a8:	80df 10a4 0000      	.insn	6, 0x10a480df
    42a5b9ae:	0000                	.insn	2, 0x0000
    42a5b9b0:	84df 10a4 0000      	.insn	6, 0x10a484df
    42a5b9b6:	0000                	.insn	2, 0x0000
    42a5b9b8:	88df 10a4 0000      	.insn	6, 0x10a488df
    42a5b9be:	0000                	.insn	2, 0x0000
    42a5b9c0:	8cdf 10a4 0000      	.insn	6, 0x10a48cdf
    42a5b9c6:	0000                	.insn	2, 0x0000
    42a5b9c8:	90df 10a4 0000      	.insn	6, 0x10a490df
    42a5b9ce:	0000                	.insn	2, 0x0000
    42a5b9d0:	94df 10a4 0000      	.insn	6, 0x10a494df
    42a5b9d6:	0000                	.insn	2, 0x0000
    42a5b9d8:	98df 10a4 0000      	.insn	6, 0x10a498df
    42a5b9de:	0000                	.insn	2, 0x0000
    42a5b9e0:	9cdf 10a4 0000      	.insn	6, 0x10a49cdf
    42a5b9e6:	0000                	.insn	2, 0x0000
    42a5b9e8:	a0df 10a4 0000      	.insn	6, 0x10a4a0df
    42a5b9ee:	0000                	.insn	2, 0x0000
    42a5b9f0:	a4df 10a4 0000      	.insn	6, 0x10a4a4df
    42a5b9f6:	0000                	.insn	2, 0x0000
    42a5b9f8:	a8df 10a4 0000      	.insn	6, 0x10a4a8df
    42a5b9fe:	0000                	.insn	2, 0x0000
    42a5ba00:	acdf 10a4 0000      	.insn	6, 0x10a4acdf
    42a5ba06:	0000                	.insn	2, 0x0000
    42a5ba08:	b0df 10a4 0000      	.insn	6, 0x10a4b0df
    42a5ba0e:	0000                	.insn	2, 0x0000
    42a5ba10:	b4df 10a4 0000      	.insn	6, 0x10a4b4df
    42a5ba16:	0000                	.insn	2, 0x0000
    42a5ba18:	b8df 10a4 0000      	.insn	6, 0x10a4b8df
    42a5ba1e:	0000                	.insn	2, 0x0000
    42a5ba20:	bcdf 10a4 0000      	.insn	6, 0x10a4bcdf
    42a5ba26:	0000                	.insn	2, 0x0000
    42a5ba28:	c0df 10a4 0000      	.insn	6, 0x10a4c0df
    42a5ba2e:	0000                	.insn	2, 0x0000
    42a5ba30:	c4df 10a4 0000      	.insn	6, 0x10a4c4df
    42a5ba36:	0000                	.insn	2, 0x0000
    42a5ba38:	c8df 10a4 0000      	.insn	6, 0x10a4c8df
    42a5ba3e:	0000                	.insn	2, 0x0000
    42a5ba40:	ccdf 10a4 0000      	.insn	6, 0x10a4ccdf
    42a5ba46:	0000                	.insn	2, 0x0000
    42a5ba48:	d0df 10a4 0000      	.insn	6, 0x10a4d0df
    42a5ba4e:	0000                	.insn	2, 0x0000
    42a5ba50:	d4df 10a4 0000      	.insn	6, 0x10a4d4df
    42a5ba56:	0000                	.insn	2, 0x0000
    42a5ba58:	d8df 10a4 0000      	.insn	6, 0x10a4d8df
    42a5ba5e:	0000                	.insn	2, 0x0000
    42a5ba60:	dcdf 10a4 0000      	.insn	6, 0x10a4dcdf
    42a5ba66:	0000                	.insn	2, 0x0000
    42a5ba68:	e0df 10a4 0000      	.insn	6, 0x10a4e0df
    42a5ba6e:	0000                	.insn	2, 0x0000
    42a5ba70:	e4df 10a4 0000      	.insn	6, 0x10a4e4df
    42a5ba76:	0000                	.insn	2, 0x0000
    42a5ba78:	e8df 10a4 0000      	.insn	6, 0x10a4e8df
    42a5ba7e:	0000                	.insn	2, 0x0000
    42a5ba80:	ecdf 10a4 0000      	.insn	6, 0x10a4ecdf
    42a5ba86:	0000                	.insn	2, 0x0000
    42a5ba88:	f0df 10a4 0000      	.insn	6, 0x10a4f0df
    42a5ba8e:	0000                	.insn	2, 0x0000
    42a5ba90:	f4df 10a4 0000      	.insn	6, 0x10a4f4df
    42a5ba96:	0000                	.insn	2, 0x0000
    42a5ba98:	f8df 10a4 0000      	.insn	6, 0x10a4f8df
    42a5ba9e:	0000                	.insn	2, 0x0000
    42a5baa0:	fcdf 10a4 0000      	.insn	6, 0x10a4fcdf
    42a5baa6:	0000                	.insn	2, 0x0000
    42a5baa8:	00df 10a5 0000      	.insn	6, 0x10a500df
    42a5baae:	0000                	.insn	2, 0x0000
    42a5bab0:	04df 10a5 0000      	.insn	6, 0x10a504df
    42a5bab6:	0000                	.insn	2, 0x0000
    42a5bab8:	08df 10a5 0000      	.insn	6, 0x10a508df
    42a5babe:	0000                	.insn	2, 0x0000
    42a5bac0:	0cdf 10a5 0000      	.insn	6, 0x10a50cdf
    42a5bac6:	0000                	.insn	2, 0x0000
    42a5bac8:	10df 10a5 0000      	.insn	6, 0x10a510df
    42a5bace:	0000                	.insn	2, 0x0000
    42a5bad0:	14df 10a5 0000      	.insn	6, 0x10a514df
    42a5bad6:	0000                	.insn	2, 0x0000
    42a5bad8:	18df 10a5 0000      	.insn	6, 0x10a518df
    42a5bade:	0000                	.insn	2, 0x0000
    42a5bae0:	1cdf 10a5 0000      	.insn	6, 0x10a51cdf
    42a5bae6:	0000                	.insn	2, 0x0000
    42a5bae8:	20df 10a5 0000      	.insn	6, 0x10a520df
    42a5baee:	0000                	.insn	2, 0x0000
    42a5baf0:	24df 10a5 0000      	.insn	6, 0x10a524df
    42a5baf6:	0000                	.insn	2, 0x0000
    42a5baf8:	28df 10a5 0000      	.insn	6, 0x10a528df
    42a5bafe:	0000                	.insn	2, 0x0000
    42a5bb00:	2cdf 10a5 0000      	.insn	6, 0x10a52cdf
    42a5bb06:	0000                	.insn	2, 0x0000
    42a5bb08:	30df 10a5 0000      	.insn	6, 0x10a530df
    42a5bb0e:	0000                	.insn	2, 0x0000
    42a5bb10:	34df 10a5 0000      	.insn	6, 0x10a534df
    42a5bb16:	0000                	.insn	2, 0x0000
    42a5bb18:	38df 10a5 0000      	.insn	6, 0x10a538df
    42a5bb1e:	0000                	.insn	2, 0x0000
    42a5bb20:	3cdf 10a5 0000      	.insn	6, 0x10a53cdf
    42a5bb26:	0000                	.insn	2, 0x0000
    42a5bb28:	40df 10a5 0000      	.insn	6, 0x10a540df
    42a5bb2e:	0000                	.insn	2, 0x0000
    42a5bb30:	44df 10a5 0000      	.insn	6, 0x10a544df
    42a5bb36:	0000                	.insn	2, 0x0000
    42a5bb38:	48df 10a5 0000      	.insn	6, 0x10a548df
    42a5bb3e:	0000                	.insn	2, 0x0000
    42a5bb40:	4cdf 10a5 0000      	.insn	6, 0x10a54cdf
    42a5bb46:	0000                	.insn	2, 0x0000
    42a5bb48:	50df 10a5 0000      	.insn	6, 0x10a550df
    42a5bb4e:	0000                	.insn	2, 0x0000
    42a5bb50:	54df 10a5 0000      	.insn	6, 0x10a554df
    42a5bb56:	0000                	.insn	2, 0x0000
    42a5bb58:	58df 10a5 0000      	.insn	6, 0x10a558df
    42a5bb5e:	0000                	.insn	2, 0x0000
    42a5bb60:	5cdf 10a5 0000      	.insn	6, 0x10a55cdf
    42a5bb66:	0000                	.insn	2, 0x0000
    42a5bb68:	60df 10a5 0000      	.insn	6, 0x10a560df
    42a5bb6e:	0000                	.insn	2, 0x0000
    42a5bb70:	64df 10a5 0000      	.insn	6, 0x10a564df
    42a5bb76:	0000                	.insn	2, 0x0000
    42a5bb78:	68df 10a5 0000      	.insn	6, 0x10a568df
    42a5bb7e:	0000                	.insn	2, 0x0000
    42a5bb80:	6cdf 10a5 0000      	.insn	6, 0x10a56cdf
    42a5bb86:	0000                	.insn	2, 0x0000
    42a5bb88:	70df 10a5 0000      	.insn	6, 0x10a570df
    42a5bb8e:	0000                	.insn	2, 0x0000
    42a5bb90:	74df 10a5 0000      	.insn	6, 0x10a574df
    42a5bb96:	0000                	.insn	2, 0x0000
    42a5bb98:	78df 10a5 0000      	.insn	6, 0x10a578df
    42a5bb9e:	0000                	.insn	2, 0x0000
    42a5bba0:	7cdf 10a5 0000      	.insn	6, 0x10a57cdf
    42a5bba6:	0000                	.insn	2, 0x0000
    42a5bba8:	80df 10a5 0000      	.insn	6, 0x10a580df
    42a5bbae:	0000                	.insn	2, 0x0000
    42a5bbb0:	84df 10a5 0000      	.insn	6, 0x10a584df
    42a5bbb6:	0000                	.insn	2, 0x0000
    42a5bbb8:	88df 10a5 0000      	.insn	6, 0x10a588df
    42a5bbbe:	0000                	.insn	2, 0x0000
    42a5bbc0:	8cdf 10a5 0000      	.insn	6, 0x10a58cdf
    42a5bbc6:	0000                	.insn	2, 0x0000
    42a5bbc8:	90df 10a5 0000      	.insn	6, 0x10a590df
    42a5bbce:	0000                	.insn	2, 0x0000
    42a5bbd0:	94df 10a5 0000      	.insn	6, 0x10a594df
    42a5bbd6:	0000                	.insn	2, 0x0000
    42a5bbd8:	98df 10a5 0000      	.insn	6, 0x10a598df
    42a5bbde:	0000                	.insn	2, 0x0000
    42a5bbe0:	9cdf 10a5 0000      	.insn	6, 0x10a59cdf
    42a5bbe6:	0000                	.insn	2, 0x0000
    42a5bbe8:	a0df 10a5 0000      	.insn	6, 0x10a5a0df
    42a5bbee:	0000                	.insn	2, 0x0000
    42a5bbf0:	a4df 10a5 0000      	.insn	6, 0x10a5a4df
    42a5bbf6:	0000                	.insn	2, 0x0000
    42a5bbf8:	a8df 10a5 0000      	.insn	6, 0x10a5a8df
    42a5bbfe:	0000                	.insn	2, 0x0000
    42a5bc00:	acdf 10a5 0000      	.insn	6, 0x10a5acdf
    42a5bc06:	0000                	.insn	2, 0x0000
    42a5bc08:	b0df 10a5 0000      	.insn	6, 0x10a5b0df
    42a5bc0e:	0000                	.insn	2, 0x0000
    42a5bc10:	b4df 10a5 0000      	.insn	6, 0x10a5b4df
    42a5bc16:	0000                	.insn	2, 0x0000
    42a5bc18:	b8df 10a5 0000      	.insn	6, 0x10a5b8df
    42a5bc1e:	0000                	.insn	2, 0x0000
    42a5bc20:	bcdf 10a5 0000      	.insn	6, 0x10a5bcdf
    42a5bc26:	0000                	.insn	2, 0x0000
    42a5bc28:	c0df 10a5 0000      	.insn	6, 0x10a5c0df
    42a5bc2e:	0000                	.insn	2, 0x0000
    42a5bc30:	c4df 10a5 0000      	.insn	6, 0x10a5c4df
    42a5bc36:	0000                	.insn	2, 0x0000
    42a5bc38:	c8df 10a5 0000      	.insn	6, 0x10a5c8df
    42a5bc3e:	0000                	.insn	2, 0x0000
    42a5bc40:	ccdf 10a5 0000      	.insn	6, 0x10a5ccdf
    42a5bc46:	0000                	.insn	2, 0x0000
    42a5bc48:	d0df 10a5 0000      	.insn	6, 0x10a5d0df
    42a5bc4e:	0000                	.insn	2, 0x0000
    42a5bc50:	d4df 10a5 0000      	.insn	6, 0x10a5d4df
    42a5bc56:	0000                	.insn	2, 0x0000
    42a5bc58:	d8df 10a5 0000      	.insn	6, 0x10a5d8df
    42a5bc5e:	0000                	.insn	2, 0x0000
    42a5bc60:	dcdf 10a5 0000      	.insn	6, 0x10a5dcdf
    42a5bc66:	0000                	.insn	2, 0x0000
    42a5bc68:	e0df 10a5 0000      	.insn	6, 0x10a5e0df
    42a5bc6e:	0000                	.insn	2, 0x0000
    42a5bc70:	e4df 10a5 0000      	.insn	6, 0x10a5e4df
    42a5bc76:	0000                	.insn	2, 0x0000
    42a5bc78:	e8df 10a5 0000      	.insn	6, 0x10a5e8df
    42a5bc7e:	0000                	.insn	2, 0x0000
    42a5bc80:	ecdf 10a5 0000      	.insn	6, 0x10a5ecdf
    42a5bc86:	0000                	.insn	2, 0x0000
    42a5bc88:	f0df 10a5 0000      	.insn	6, 0x10a5f0df
    42a5bc8e:	0000                	.insn	2, 0x0000
    42a5bc90:	f4df 10a5 0000      	.insn	6, 0x10a5f4df
    42a5bc96:	0000                	.insn	2, 0x0000
    42a5bc98:	f8df 10a5 0000      	.insn	6, 0x10a5f8df
    42a5bc9e:	0000                	.insn	2, 0x0000
    42a5bca0:	fcdf 10a5 0000      	.insn	6, 0x10a5fcdf
	...

Disassembly of section .__pagetable_map_os_0x0000000042a96000:

0000000042a96000 <__pagetable_map_os_0x0000000042a96000>:
	...
    42a960b0:	10a804cf          	fnmadd.s	f9,f16,f10,f2,rne
    42a960b4:	0000                	.insn	2, 0x0000
	...

Disassembly of section .__pagetable_map_os_0x0000000044eab000:

0000000044eab000 <__pagetable_map_os_0x0000000044eab000>:
	...
    44eab4f0:	78df 10aa 0000      	.insn	6, 0x10aa78df
	...

Disassembly of section .__pagetable_map_os_0x0000000042a48000:

0000000042a48000 <__pagetable_map_os_0x0000000042a48000>:
	...
    42a48c80:	7c01                	.insn	2, 0x7c01
    42a48c82:	10ac                	.insn	2, 0x10ac
    42a48c84:	0000                	.insn	2, 0x0000
	...

Disassembly of section .__pagetable_map_os_0x0000000042b1f000:

0000000042b1f000 <__pagetable_map_os_0x0000000042b1f000>:
	...
    42b1fee0:	40df 10fb 0000      	.insn	6, 0x10fb40df
    42b1fee6:	0000                	.insn	2, 0x0000
    42b1fee8:	44df 10fb 0000      	.insn	6, 0x10fb44df
	...

Disassembly of section .__pagetable_map_os_0x0000000042c48000:

0000000042c48000 <__pagetable_map_os_0x0000000042c48000>:
    42c48000:	1c01                	.insn	2, 0x1c01
    42c48002:	113e                	.insn	2, 0x113e
    42c48004:	0000                	.insn	2, 0x0000
    42c48006:	0000                	.insn	2, 0x0000
    42c48008:	3401                	.insn	2, 0x3401
    42c4800a:	10a9                	.insn	2, 0x10a9
	...
    42c48338:	3001                	.insn	2, 0x3001
    42c4833a:	10a9                	.insn	2, 0x10a9
	...
    42c488b0:	3001                	.insn	2, 0x3001
    42c488b2:	10da                	.insn	2, 0x10da
    42c488b4:	0000                	.insn	2, 0x0000
	...

Disassembly of section .__pagetable_map_os_0x0000000044f87000:

0000000044f87000 <__pagetable_map_os_0x0000000044f87000>:
	...
    44f87010:	fcdf 10b3 0000      	.insn	6, 0x10b3fcdf
	...
    44f87026:	0000                	.insn	2, 0x0000
    44f87028:	10fb34d7          	.insn	4, 0x10fb34d7
	...
    44f87100:	113c9cd7          	vfmin.vv	v25,v19,v25,v0.t
	...
    44f87120:	10c710d7          	vfmin.vv	v1,v12,v14,v0.t
	...
    44f87290:	10d880d7          	vminu.vv	v1,v13,v17,v0.t
	...
    44f873d0:	38df 10fb 0000      	.insn	6, 0x10fb38df
    44f873d6:	0000                	.insn	2, 0x0000
    44f873d8:	3cdf 10fb 0000      	.insn	6, 0x10fb3cdf
	...
    44f87c0e:	0000                	.insn	2, 0x0000
    44f87c10:	113ce4d7          	.insn	4, 0x113ce4d7
	...
    44f87f18:	10a9e0d7          	.insn	4, 0x10a9e0d7
    44f87f1c:	0000                	.insn	2, 0x0000
	...

Disassembly of section .__pagetable_map_os_0x0000000042a4c000:

0000000042a4c000 <__pagetable_map_os_0x0000000042a4c000>:
	...
    42a4c5e0:	c0df 10da 0000      	.insn	6, 0x10dac0df
	...

Disassembly of section .__pagetable_map_os_0x000000004368c000:

000000004368c000 <__pagetable_map_os_0x000000004368c000>:
	...
    4368c018:	10a938d7          	.insn	4, 0x10a938d7
    4368c01c:	0000                	.insn	2, 0x0000
	...

Disassembly of section .__pagetable_map_os_0x0000000042a4d000:

0000000042a4d000 <__pagetable_map_os_0x0000000042a4d000>:
	...
    42a4dd90:	109ffcd7          	vsetvli	x25,x31,265
    42a4dd94:	0000                	.insn	2, 0x0000
	...

Disassembly of section .__pagetable_map_os_0x000000004367b000:

000000004367b000 <__pagetable_map_os_0x000000004367b000>:
	...
    4367b058:	5401                	.insn	2, 0x5401
    4367b05a:	113a                	.insn	2, 0x113a
    4367b05c:	0000                	.insn	2, 0x0000
	...

Disassembly of section .__pagetable_map_os_0x0000000044e95000:

0000000044e95000 <__pagetable_map_os_0x0000000044e95000>:
	...
    44e95080:	10d884d7          	vminu.vv	v9,v13,v17,v0.t
    44e95084:	0000                	.insn	2, 0x0000
	...

Disassembly of section .__pagetable_map_os_0x0000000044f38000:

0000000044f38000 <__pagetable_map_os_0x0000000044f38000>:
	...
    44f38428:	3c01                	.insn	2, 0x3c01
    44f3842a:	000010ab          	.insn	4, 0x10ab
	...

Disassembly of section .__pagetable_map_os_0x0000000042acf000:

0000000042acf000 <__pagetable_map_os_0x0000000042acf000>:
	...
    42acf060:	2001                	.insn	2, 0x2001
    42acf062:	113e                	.insn	2, 0x113e
    42acf064:	0000                	.insn	2, 0x0000
	...

Disassembly of section .__pagetable_map_os_0x0000000044f88000:

0000000044f88000 <__pagetable_map_os_0x0000000044f88000>:
	...
    44f88960:	10af00d7          	vminu.vv	v1,v10,v30,v0.t
    44f88964:	0000                	.insn	2, 0x0000
	...

Disassembly of section .__pagetable_map_os_0x0000000042cea000:

0000000042cea000 <__pagetable_map_os_0x0000000042cea000>:
	...
    42cea1a8:	2c01                	.insn	2, 0x2c01
    42cea1aa:	10aa                	.insn	2, 0x10aa
    42cea1ac:	0000                	.insn	2, 0x0000
	...

Disassembly of section .__pagetable_map_os_0x0000000042a8b000:

0000000042a8b000 <__pagetable_map_os_0x0000000042a8b000>:
	...
    42a8b590:	f801                	.insn	2, 0xf801
    42a8b592:	109f 0000 0000      	.insn	6, 0x109f

Disassembly of section .__pagetable_map_os_0x00000000427fe000:

00000000427fe000 <__pagetable_map_os_0x00000000427fe000>:
	...
    427feda8:	10d9a0d7          	vredminu.vs	v1,v13,v19,v0.t
    427fedac:	0000                	.insn	2, 0x0000
	...

Disassembly of section .__pagetable_map_os_0x0000000042a52000:

0000000042a52000 <__pagetable_map_os_0x0000000042a52000>:
	...
    42a523f8:	0801                	.insn	2, 0x0801
    42a523fa:	10a9                	.insn	2, 0x10a9
    42a523fc:	0000                	.insn	2, 0x0000
	...

Disassembly of section .__pagetable_map_os_0x0000000042a42000:

0000000042a42000 <__pagetable_map_os_0x0000000042a42000>:
	...
    42a421f8:	4001                	.insn	2, 0x4001
    42a421fa:	10a9                	.insn	2, 0x10a9
    42a421fc:	0000                	.insn	2, 0x0000
	...

Disassembly of section .__pagetable_map_os_0x0000000042a50000:

0000000042a50000 <__pagetable_map_os_0x0000000042a50000>:
	...
    42a50b40:	113b7cd7          	vsetvli	x25,x22,275
    42a50b44:	0000                	.insn	2, 0x0000
	...

Disassembly of section .__pagetable_map_os_0x0000000044f31000:

0000000044f31000 <__pagetable_map_os_0x0000000044f31000>:
	...
    44f31020:	5801                	.insn	2, 0x5801
    44f31022:	10ca                	.insn	2, 0x10ca
    44f31024:	0000                	.insn	2, 0x0000
	...

Disassembly of section .__pagetable_map_os_0x0000000043296000:

0000000043296000 <__pagetable_map_os_0x0000000043296000>:
	...
    43296a30:	5401                	.insn	2, 0x5401
    43296a32:	10b0                	.insn	2, 0x10b0
    43296a34:	0000                	.insn	2, 0x0000
	...

Disassembly of section .__pagetable_map_os_0x0000000042c15000:

0000000042c15000 <__pagetable_map_os_0x0000000042c15000>:
	...
    42c15150:	113644d7          	vminu.vx	v9,v19,x12,v0.t
    42c15154:	0000                	.insn	2, 0x0000
	...
