
/home/abdullah/RiescueC/riescue/10x_R/svinval/testsuite/svinval/super_sv48/tp_svinval_1:     file format elf64-littleriscv


Disassembly of section .runtime:

0000000041000000 <_start>:
    41000000:	00000093          	li	x1,0
    41000004:	00000113          	li	x2,0
    41000008:	00000193          	li	x3,0
    4100000c:	00000213          	li	x4,0
    41000010:	00000293          	li	x5,0
    41000014:	00000313          	li	x6,0
    41000018:	00000393          	li	x7,0
    4100001c:	00000413          	li	x8,0
    41000020:	00000493          	li	x9,0
    41000024:	00000513          	li	x10,0
    41000028:	00000593          	li	x11,0
    4100002c:	00000613          	li	x12,0
    41000030:	00000693          	li	x13,0
    41000034:	00000713          	li	x14,0
    41000038:	00000793          	li	x15,0
    4100003c:	00000813          	li	x16,0
    41000040:	00000893          	li	x17,0
    41000044:	00000913          	li	x18,0
    41000048:	00000993          	li	x19,0
    4100004c:	00000a13          	li	x20,0
    41000050:	00000a93          	li	x21,0
    41000054:	00000b13          	li	x22,0
    41000058:	00000b93          	li	x23,0
    4100005c:	00000c13          	li	x24,0
    41000060:	00000c93          	li	x25,0
    41000064:	00000d13          	li	x26,0
    41000068:	00000d93          	li	x27,0
    4100006c:	00000e13          	li	x28,0
    41000070:	00000e93          	li	x29,0
    41000074:	00000f13          	li	x30,0
    41000078:	00000f93          	li	x31,0

000000004100007c <loader__load_panic_address>:
    4100007c:	00001297          	auipc	x5,0x1
    41000080:	9b828293          	addi	x5,x5,-1608 # 41000a34 <eot__failed>
    41000084:	30529073          	csrw	mtvec,x5

0000000041000088 <loader__initialize_runtime>:
    41000088:	00000293          	li	x5,0
    4100008c:	3012a2f3          	csrrs	x5,misa,x5

0000000041000090 <loader__set_mstatus>:
    41000090:	000402b7          	lui	x5,0x40
    41000094:	00a2829b          	addiw	x5,x5,10 # 4000a <pma_region_0_size+0xa>
    41000098:	3002a2f3          	csrrs	x5,mstatus,x5
    4100009c:	42354237          	lui	x4,0x42354
    410000a0:	34021073          	csrw	mscratch,x4

00000000410000a4 <loader__setup_menvcfg>:
    410000a4:	00000297          	auipc	x5,0x0
    410000a8:	47c28293          	addi	x5,x5,1148 # 41000520 <trap_handler_m__trap_entry>
    410000ac:	30529073          	csrw	mtvec,x5

00000000410000b0 <loader__enable_paging>:
    410000b0:	fff900b7          	lui	x1,0xfff90
    410000b4:	1230809b          	addiw	x1,x1,291 # fffffffffff90123 <mem2+0xffffdefffff8f123>
    410000b8:	02009093          	slli	x1,x1,0x20
    410000bc:	04508093          	addi	x1,x1,69
    410000c0:	00c09093          	slli	x1,x1,0xc
    410000c4:	bbc08093          	addi	x1,x1,-1092
    410000c8:	18009073          	csrw	satp,x1

00000000410000cc <loader__done>:
    410000cc:	1910006f          	j	41000a5c <scheduler__init>

00000000410000d0 <loader__panic>:
    410000d0:	1650006f          	j	41000a34 <eot__failed>

00000000410000d4 <syscalls__syscall_check_schedule_next_test>:
    410000d4:	00f0029b          	addiw	x5,x0,15
    410000d8:	01c29293          	slli	x5,x5,0x1c
    410000dc:	00128293          	addi	x5,x5,1
    410000e0:	01f29a63          	bne	x5,x31,410000f4 <syscalls__syscall_check_fail_test>
    410000e4:	00000317          	auipc	x6,0x0
    410000e8:	43c30313          	addi	x6,x6,1084 # 41000520 <trap_handler_m__trap_entry>
    410000ec:	30531073          	csrw	mtvec,x6
    410000f0:	6740006f          	j	41000764 <enter_scheduler>

00000000410000f4 <syscalls__syscall_check_fail_test>:
    410000f4:	00f0029b          	addiw	x5,x0,15
    410000f8:	01c29293          	slli	x5,x5,0x1c
    410000fc:	00228293          	addi	x5,x5,2
    41000100:	01f29a63          	bne	x5,x31,41000114 <syscalls__syscall_check_end_test_without_failure>
    41000104:	00000317          	auipc	x6,0x0
    41000108:	41c30313          	addi	x6,x6,1052 # 41000520 <trap_handler_m__trap_entry>
    4100010c:	30531073          	csrw	mtvec,x6
    41000110:	6840006f          	j	41000794 <test_failed>

0000000041000114 <syscalls__syscall_check_end_test_without_failure>:
    41000114:	00f0029b          	addiw	x5,x0,15
    41000118:	01c29293          	slli	x5,x5,0x1c
    4100011c:	00328293          	addi	x5,x5,3
    41000120:	01f29a63          	bne	x5,x31,41000134 <syscalls__syscall_check_switch_machine_mode>
    41000124:	00000317          	auipc	x6,0x0
    41000128:	3fc30313          	addi	x6,x6,1020 # 41000520 <trap_handler_m__trap_entry>
    4100012c:	30531073          	csrw	mtvec,x6
    41000130:	6700006f          	j	410007a0 <os_end_test>

0000000041000134 <syscalls__syscall_check_switch_machine_mode>:
    41000134:	000f02b7          	lui	x5,0xf0
    41000138:	0012829b          	addiw	x5,x5,1 # f0001 <SID_SVINVAL_14_sinval_vma_opcode_nonx0_nonx0_stack+0x9001>
    4100013c:	00c29293          	slli	x5,x5,0xc
    41000140:	00128293          	addi	x5,x5,1
    41000144:	0a5f8463          	beq	x31,x5,410001ec <syscalls__os_fn_f0001001>

0000000041000148 <syscalls__syscall_check_switch_super_mode>:
    41000148:	000f02b7          	lui	x5,0xf0
    4100014c:	0012829b          	addiw	x5,x5,1 # f0001 <SID_SVINVAL_14_sinval_vma_opcode_nonx0_nonx0_stack+0x9001>
    41000150:	00c29293          	slli	x5,x5,0xc
    41000154:	00228293          	addi	x5,x5,2
    41000158:	0c5f8063          	beq	x31,x5,41000218 <syscalls__os_fn_f0001002>

000000004100015c <syscalls__syscall_check_switch_user_mode>:
    4100015c:	000f02b7          	lui	x5,0xf0
    41000160:	0012829b          	addiw	x5,x5,1 # f0001 <SID_SVINVAL_14_sinval_vma_opcode_nonx0_nonx0_stack+0x9001>
    41000164:	00c29293          	slli	x5,x5,0xc
    41000168:	00328293          	addi	x5,x5,3
    4100016c:	0a5f8a63          	beq	x31,x5,41000220 <syscalls__os_fn_f0001003>

0000000041000170 <syscalls__syscall_check_switch_test_mode>:
    41000170:	000f02b7          	lui	x5,0xf0
    41000174:	0012829b          	addiw	x5,x5,1 # f0001 <SID_SVINVAL_14_sinval_vma_opcode_nonx0_nonx0_stack+0x9001>
    41000178:	00c29293          	slli	x5,x5,0xc
    4100017c:	00428293          	addi	x5,x5,4
    41000180:	0c5f8463          	beq	x31,x5,41000248 <syscalls__os_fn_f0001004>

0000000041000184 <syscalls__syscall_machine_csr_rw>:
    41000184:	000f02b7          	lui	x5,0xf0
    41000188:	0012829b          	addiw	x5,x5,1 # f0001 <SID_SVINVAL_14_sinval_vma_opcode_nonx0_nonx0_stack+0x9001>
    4100018c:	00c29293          	slli	x5,x5,0xc
    41000190:	00528293          	addi	x5,x5,5
    41000194:	0e5f8063          	beq	x31,x5,41000274 <syscalls__os_fn_f0001005>

0000000041000198 <syscalls__syscall_supervisor_csr_rw>:
    41000198:	000f02b7          	lui	x5,0xf0
    4100019c:	0012829b          	addiw	x5,x5,1 # f0001 <SID_SVINVAL_14_sinval_vma_opcode_nonx0_nonx0_stack+0x9001>
    410001a0:	00c29293          	slli	x5,x5,0xc
    410001a4:	00628293          	addi	x5,x5,6
    410001a8:	0e5f8c63          	beq	x31,x5,410002a0 <syscalls__os_fn_f0001006>

00000000410001ac <syscalls__syscall_machine_pte_read>:
    410001ac:	000f02b7          	lui	x5,0xf0
    410001b0:	0012829b          	addiw	x5,x5,1 # f0001 <SID_SVINVAL_14_sinval_vma_opcode_nonx0_nonx0_stack+0x9001>
    410001b4:	00c29293          	slli	x5,x5,0xc
    410001b8:	00728293          	addi	x5,x5,7
    410001bc:	0e5f8663          	beq	x31,x5,410002a8 <syscalls__os_fn_f0001007>

00000000410001c0 <syscalls__syscall_machine_pte_write>:
    410001c0:	000f02b7          	lui	x5,0xf0
    410001c4:	0012829b          	addiw	x5,x5,1 # f0001 <SID_SVINVAL_14_sinval_vma_opcode_nonx0_nonx0_stack+0x9001>
    410001c8:	00c29293          	slli	x5,x5,0xc
    410001cc:	00828293          	addi	x5,x5,8
    410001d0:	1c5f8263          	beq	x31,x5,41000394 <syscalls__os_fn_f0001008>

00000000410001d4 <syscalls__syscall_check_get_hart_context>:
    410001d4:	000782b7          	lui	x5,0x78
    410001d8:	0012829b          	addiw	x5,x5,1 # 78001 <mem5__pt_level2+0x18001>
    410001dc:	00d29293          	slli	x5,x5,0xd
    410001e0:	00128293          	addi	x5,x5,1
    410001e4:	285f8e63          	beq	x31,x5,41000480 <syscalls__os_get_hart_context>
    410001e8:	4940006f          	j	4100067c <trap_handler_m__check_exception_label>

00000000410001ec <syscalls__os_fn_f0001001>:
    410001ec:	000022b7          	lui	x5,0x2
    410001f0:	8002829b          	addiw	x5,x5,-2048 # 1800 <pma_region_1_size+0x800>
    410001f4:	3002b073          	csrc	mstatus,x5
    410001f8:	000022b7          	lui	x5,0x2
    410001fc:	8002829b          	addiw	x5,x5,-2048 # 1800 <pma_region_1_size+0x800>
    41000200:	3002a073          	csrs	mstatus,x5
    41000204:	0010029b          	addiw	x5,x0,1
    41000208:	02729293          	slli	x5,x5,0x27
    4100020c:	3002b073          	csrc	mstatus,x5
    41000210:	411942b7          	lui	x5,0x41194
    41000214:	27c0006f          	j	41000490 <syscalls__ret_from_os_fn>

0000000041000218 <syscalls__os_fn_f0001002>:
    41000218:	410942b7          	lui	x5,0x41094
    4100021c:	2740006f          	j	41000490 <syscalls__ret_from_os_fn>

0000000041000220 <syscalls__os_fn_f0001003>:
    41000220:	000022b7          	lui	x5,0x2
    41000224:	8002829b          	addiw	x5,x5,-2048 # 1800 <pma_region_1_size+0x800>
    41000228:	3002b073          	csrc	mstatus,x5
    4100022c:	00000293          	li	x5,0
    41000230:	3002a073          	csrs	mstatus,x5
    41000234:	0010029b          	addiw	x5,x0,1
    41000238:	02729293          	slli	x5,x5,0x27
    4100023c:	3002b073          	csrc	mstatus,x5
    41000240:	411142b7          	lui	x5,0x41114
    41000244:	24c0006f          	j	41000490 <syscalls__ret_from_os_fn>

0000000041000248 <syscalls__os_fn_f0001004>:
    41000248:	000022b7          	lui	x5,0x2
    4100024c:	8002829b          	addiw	x5,x5,-2048 # 1800 <pma_region_1_size+0x800>
    41000250:	3002b073          	csrc	mstatus,x5
    41000254:	000012b7          	lui	x5,0x1
    41000258:	8002829b          	addiw	x5,x5,-2048 # 800 <XLEN+0x7c0>
    4100025c:	3002a073          	csrs	mstatus,x5
    41000260:	0010029b          	addiw	x5,x0,1
    41000264:	02729293          	slli	x5,x5,0x27
    41000268:	3002b073          	csrc	mstatus,x5
    4100026c:	17823283          	ld	x5,376(x4) # 42354178 <__section_hart_context+0x178>
    41000270:	2200006f          	j	41000490 <syscalls__ret_from_os_fn>

0000000041000274 <syscalls__os_fn_f0001005>:
    41000274:	000022b7          	lui	x5,0x2
    41000278:	8002829b          	addiw	x5,x5,-2048 # 1800 <pma_region_1_size+0x800>
    4100027c:	3002b073          	csrc	mstatus,x5
    41000280:	000022b7          	lui	x5,0x2
    41000284:	8002829b          	addiw	x5,x5,-2048 # 1800 <pma_region_1_size+0x800>
    41000288:	3002a073          	csrs	mstatus,x5
    4100028c:	0010029b          	addiw	x5,x0,1
    41000290:	02729293          	slli	x5,x5,0x27
    41000294:	3002b073          	csrc	mstatus,x5
    41000298:	412142b7          	lui	x5,0x41214
    4100029c:	1f40006f          	j	41000490 <syscalls__ret_from_os_fn>

00000000410002a0 <syscalls__os_fn_f0001006>:
    410002a0:	412152b7          	lui	x5,0x41215
    410002a4:	1ec0006f          	j	41000490 <syscalls__ret_from_os_fn>

00000000410002a8 <syscalls__os_fn_f0001007>:
    410002a8:	424c4fb7          	lui	x31,0x424c4
    410002ac:	0b0f8f9b          	addiw	x31,x31,176 # 424c40b0 <pte_access_flags_pa>
    410002b0:	000fbf83          	ld	x31,0(x31)
    410002b4:	424c42b7          	lui	x5,0x424c4
    410002b8:	0b82829b          	addiw	x5,x5,184 # 424c40b8 <pte_access_flags_pa+0x8>
    410002bc:	0002b283          	ld	x5,0(x5)
    410002c0:	424c4e37          	lui	x28,0x424c4
    410002c4:	0c0e0e1b          	addiw	x28,x28,192 # 424c40c0 <pte_access_flags_pa+0x10>
    410002c8:	000e3e03          	ld	x28,0(x28)

00000000410002cc <syscalls__pte_walk_check_glevel_without_gstage_read>:
    410002cc:	fff00f93          	li	x31,-1
    410002d0:	0dfe1063          	bne	x28,x31,41000390 <syscalls__pte_walk_fail_read>
    410002d4:	18002373          	csrr	x6,satp
    410002d8:	03c35e93          	srli	x29,x6,0x3c
    410002dc:	01431313          	slli	x6,x6,0x14
    410002e0:	01435313          	srli	x6,x6,0x14
    410002e4:	00c31313          	slli	x6,x6,0xc
    410002e8:	ff8e8e93          	addi	x29,x29,-8
    410002ec:	003e9f13          	slli	x30,x29,0x3
    410002f0:	01df0eb3          	add	x29,x30,x29
    410002f4:	01ee8e93          	addi	x29,x29,30
    410002f8:	00000f13          	li	x30,0

00000000410002fc <syscalls__pte_walk_loop_read>:
    410002fc:	424c4fb7          	lui	x31,0x424c4
    41000300:	0b0f8f9b          	addiw	x31,x31,176 # 424c40b0 <pte_access_flags_pa>
    41000304:	000fbf83          	ld	x31,0(x31)
    41000308:	01dfdfb3          	srl	x31,x31,x29
    4100030c:	1fffff93          	andi	x31,x31,511
    41000310:	003f9f93          	slli	x31,x31,0x3
    41000314:	01f30333          	add	x6,x6,x31
    41000318:	005f0e63          	beq	x30,x5,41000334 <syscalls__pte_walk_done_read>
    4100031c:	00033f83          	ld	x31,0(x6)
    41000320:	00afdf93          	srli	x31,x31,0xa
    41000324:	00cf9313          	slli	x6,x31,0xc
    41000328:	001f0f13          	addi	x30,x30,1
    4100032c:	ff7e8e93          	addi	x29,x29,-9
    41000330:	fcdff06f          	j	410002fc <syscalls__pte_walk_loop_read>

0000000041000334 <syscalls__pte_walk_done_read>:
    41000334:	fff00f93          	li	x31,-1
    41000338:	05fe0263          	beq	x28,x31,4100037c <syscalls__pte_walk_final_read>

000000004100033c <syscalls__pte_walk_gstage_read>:
    4100033c:	424c4fb7          	lui	x31,0x424c4
    41000340:	0b0f8f9b          	addiw	x31,x31,176 # 424c40b0 <pte_access_flags_pa>
    41000344:	006fb023          	sd	x6,0(x31)
    41000348:	000e0293          	mv	x5,x28
    4100034c:	fff00e13          	li	x28,-1
    41000350:	68002373          	csrr	x6,hgatp
    41000354:	03c35e93          	srli	x29,x6,0x3c
    41000358:	01431313          	slli	x6,x6,0x14
    4100035c:	01435313          	srli	x6,x6,0x14
    41000360:	00c31313          	slli	x6,x6,0xc
    41000364:	ff8e8e93          	addi	x29,x29,-8
    41000368:	003e9f13          	slli	x30,x29,0x3
    4100036c:	01df0eb3          	add	x29,x30,x29
    41000370:	01ee8e93          	addi	x29,x29,30
    41000374:	00000f13          	li	x30,0
    41000378:	f85ff06f          	j	410002fc <syscalls__pte_walk_loop_read>

000000004100037c <syscalls__pte_walk_final_read>:
    4100037c:	00033383          	ld	x7,0(x6)
    41000380:	341022f3          	csrr	x5,mepc
    41000384:	00428293          	addi	x5,x5,4
    41000388:	16523c23          	sd	x5,376(x4) # 178 <XLEN+0x138>
    4100038c:	ebdff06f          	j	41000248 <syscalls__os_fn_f0001004>

0000000041000390 <syscalls__pte_walk_fail_read>:
    41000390:	4040006f          	j	41000794 <test_failed>

0000000041000394 <syscalls__os_fn_f0001008>:
    41000394:	424c4fb7          	lui	x31,0x424c4
    41000398:	0b0f8f9b          	addiw	x31,x31,176 # 424c40b0 <pte_access_flags_pa>
    4100039c:	000fbf83          	ld	x31,0(x31)
    410003a0:	424c42b7          	lui	x5,0x424c4
    410003a4:	0b82829b          	addiw	x5,x5,184 # 424c40b8 <pte_access_flags_pa+0x8>
    410003a8:	0002b283          	ld	x5,0(x5)
    410003ac:	424c4e37          	lui	x28,0x424c4
    410003b0:	0c0e0e1b          	addiw	x28,x28,192 # 424c40c0 <pte_access_flags_pa+0x10>
    410003b4:	000e3e03          	ld	x28,0(x28)

00000000410003b8 <syscalls__pte_walk_check_glevel_without_gstage_write>:
    410003b8:	fff00f93          	li	x31,-1
    410003bc:	0dfe1063          	bne	x28,x31,4100047c <syscalls__pte_walk_fail_write>
    410003c0:	18002373          	csrr	x6,satp
    410003c4:	03c35e93          	srli	x29,x6,0x3c
    410003c8:	01431313          	slli	x6,x6,0x14
    410003cc:	01435313          	srli	x6,x6,0x14
    410003d0:	00c31313          	slli	x6,x6,0xc
    410003d4:	ff8e8e93          	addi	x29,x29,-8
    410003d8:	003e9f13          	slli	x30,x29,0x3
    410003dc:	01df0eb3          	add	x29,x30,x29
    410003e0:	01ee8e93          	addi	x29,x29,30
    410003e4:	00000f13          	li	x30,0

00000000410003e8 <syscalls__pte_walk_loop_write>:
    410003e8:	424c4fb7          	lui	x31,0x424c4
    410003ec:	0b0f8f9b          	addiw	x31,x31,176 # 424c40b0 <pte_access_flags_pa>
    410003f0:	000fbf83          	ld	x31,0(x31)
    410003f4:	01dfdfb3          	srl	x31,x31,x29
    410003f8:	1fffff93          	andi	x31,x31,511
    410003fc:	003f9f93          	slli	x31,x31,0x3
    41000400:	01f30333          	add	x6,x6,x31
    41000404:	005f0e63          	beq	x30,x5,41000420 <syscalls__pte_walk_done_write>
    41000408:	00033f83          	ld	x31,0(x6)
    4100040c:	00afdf93          	srli	x31,x31,0xa
    41000410:	00cf9313          	slli	x6,x31,0xc
    41000414:	001f0f13          	addi	x30,x30,1
    41000418:	ff7e8e93          	addi	x29,x29,-9
    4100041c:	fcdff06f          	j	410003e8 <syscalls__pte_walk_loop_write>

0000000041000420 <syscalls__pte_walk_done_write>:
    41000420:	fff00f93          	li	x31,-1
    41000424:	05fe0263          	beq	x28,x31,41000468 <syscalls__pte_walk_final_write>

0000000041000428 <syscalls__pte_walk_gstage_write>:
    41000428:	424c4fb7          	lui	x31,0x424c4
    4100042c:	0b0f8f9b          	addiw	x31,x31,176 # 424c40b0 <pte_access_flags_pa>
    41000430:	006fb023          	sd	x6,0(x31)
    41000434:	000e0293          	mv	x5,x28
    41000438:	fff00e13          	li	x28,-1
    4100043c:	68002373          	csrr	x6,hgatp
    41000440:	03c35e93          	srli	x29,x6,0x3c
    41000444:	01431313          	slli	x6,x6,0x14
    41000448:	01435313          	srli	x6,x6,0x14
    4100044c:	00c31313          	slli	x6,x6,0xc
    41000450:	ff8e8e93          	addi	x29,x29,-8
    41000454:	003e9f13          	slli	x30,x29,0x3
    41000458:	01df0eb3          	add	x29,x30,x29
    4100045c:	01ee8e93          	addi	x29,x29,30
    41000460:	00000f13          	li	x30,0
    41000464:	f85ff06f          	j	410003e8 <syscalls__pte_walk_loop_write>

0000000041000468 <syscalls__pte_walk_final_write>:
    41000468:	00733023          	sd	x7,0(x6)
    4100046c:	341022f3          	csrr	x5,mepc
    41000470:	00428293          	addi	x5,x5,4
    41000474:	16523c23          	sd	x5,376(x4) # 178 <XLEN+0x138>
    41000478:	dd1ff06f          	j	41000248 <syscalls__os_fn_f0001004>

000000004100047c <syscalls__pte_walk_fail_write>:
    4100047c:	3180006f          	j	41000794 <test_failed>

0000000041000480 <syscalls__os_get_hart_context>:
    41000480:	14002573          	csrr	x10,sscratch
    41000484:	341022f3          	csrr	x5,mepc
    41000488:	00428293          	addi	x5,x5,4
    4100048c:	0040006f          	j	41000490 <syscalls__ret_from_os_fn>

0000000041000490 <syscalls__ret_from_os_fn>:
    41000490:	34102373          	csrr	x6,mepc
    41000494:	00430313          	addi	x6,x6,4
    41000498:	16623c23          	sd	x6,376(x4) # 178 <XLEN+0x138>
    4100049c:	34129073          	csrw	mepc,x5
    410004a0:	fff00f93          	li	x31,-1
    410004a4:	2a40006f          	j	41000748 <trap_handler_m__skip_xepc_write>

00000000410004a8 <trap_handler_m__invalid_interrupt>:
    410004a8:	2ec0006f          	j	41000794 <test_failed>

00000000410004ac <trap_handler_m__clear_all_interrupts>:
    410004ac:	34401073          	csrw	mip,x0
    410004b0:	30200073          	mret

00000000410004b4 <trap_handler_m___CLEAR_SSI>:
    410004b4:	00200293          	li	x5,2
    410004b8:	3442b073          	csrc	mip,x5
    410004bc:	30200073          	mret

00000000410004c0 <trap_handler_m___CLEAR_MSI>:
    410004c0:	00800293          	li	x5,8
    410004c4:	3442b073          	csrc	mip,x5
    410004c8:	30200073          	mret

00000000410004cc <trap_handler_m___CLEAR_STI>:
    410004cc:	02000293          	li	x5,32
    410004d0:	3442b073          	csrc	mip,x5
    410004d4:	30200073          	mret

00000000410004d8 <trap_handler_m___CLEAR_MTI>:
    410004d8:	08000293          	li	x5,128
    410004dc:	3442b073          	csrc	mip,x5
    410004e0:	30200073          	mret

00000000410004e4 <trap_handler_m___CLEAR_SEI>:
    410004e4:	20000293          	li	x5,512
    410004e8:	3442b073          	csrc	mip,x5
    410004ec:	30200073          	mret

00000000410004f0 <trap_handler_m___CLEAR_MEI>:
    410004f0:	000012b7          	lui	x5,0x1
    410004f4:	8002829b          	addiw	x5,x5,-2048 # 800 <XLEN+0x7c0>
    410004f8:	3442b073          	csrc	mip,x5
    410004fc:	30200073          	mret

0000000041000500 <trap_handler_m___CLEAR_COI>:
    41000500:	000022b7          	lui	x5,0x2
    41000504:	3442b073          	csrc	mip,x5
    41000508:	30200073          	mret

000000004100050c <trap_handler_m__clear_highest_priority_interrupt>:
    4100050c:	344022f3          	csrr	x5,mip
    41000510:	40500333          	neg	x6,x5
    41000514:	0062f2b3          	and	x5,x5,x6
    41000518:	3442b073          	csrc	mip,x5
    4100051c:	30200073          	mret

0000000041000520 <trap_handler_m__trap_entry>:
    41000520:	0fc0006f          	j	4100061c <trap_handler_m__trap_handler>

0000000041000524 <trap_handler_m__interrupt_vector_table>:
    41000524:	f91ff06f          	j	410004b4 <trap_handler_m___CLEAR_SSI>
    41000528:	f81ff06f          	j	410004a8 <trap_handler_m__invalid_interrupt>
    4100052c:	f95ff06f          	j	410004c0 <trap_handler_m___CLEAR_MSI>
    41000530:	f79ff06f          	j	410004a8 <trap_handler_m__invalid_interrupt>
    41000534:	f99ff06f          	j	410004cc <trap_handler_m___CLEAR_STI>
    41000538:	f71ff06f          	j	410004a8 <trap_handler_m__invalid_interrupt>
    4100053c:	f9dff06f          	j	410004d8 <trap_handler_m___CLEAR_MTI>
    41000540:	f69ff06f          	j	410004a8 <trap_handler_m__invalid_interrupt>
    41000544:	fa1ff06f          	j	410004e4 <trap_handler_m___CLEAR_SEI>
    41000548:	f61ff06f          	j	410004a8 <trap_handler_m__invalid_interrupt>
    4100054c:	fa5ff06f          	j	410004f0 <trap_handler_m___CLEAR_MEI>
    41000550:	f59ff06f          	j	410004a8 <trap_handler_m__invalid_interrupt>
    41000554:	fadff06f          	j	41000500 <trap_handler_m___CLEAR_COI>
    41000558:	f51ff06f          	j	410004a8 <trap_handler_m__invalid_interrupt>
    4100055c:	f4dff06f          	j	410004a8 <trap_handler_m__invalid_interrupt>
    41000560:	fadff06f          	j	4100050c <trap_handler_m__clear_highest_priority_interrupt>
    41000564:	fa9ff06f          	j	4100050c <trap_handler_m__clear_highest_priority_interrupt>
    41000568:	fa5ff06f          	j	4100050c <trap_handler_m__clear_highest_priority_interrupt>
    4100056c:	fa1ff06f          	j	4100050c <trap_handler_m__clear_highest_priority_interrupt>
    41000570:	f9dff06f          	j	4100050c <trap_handler_m__clear_highest_priority_interrupt>
    41000574:	f99ff06f          	j	4100050c <trap_handler_m__clear_highest_priority_interrupt>
    41000578:	f95ff06f          	j	4100050c <trap_handler_m__clear_highest_priority_interrupt>
    4100057c:	f91ff06f          	j	4100050c <trap_handler_m__clear_highest_priority_interrupt>
    41000580:	f8dff06f          	j	4100050c <trap_handler_m__clear_highest_priority_interrupt>
    41000584:	f89ff06f          	j	4100050c <trap_handler_m__clear_highest_priority_interrupt>
    41000588:	f85ff06f          	j	4100050c <trap_handler_m__clear_highest_priority_interrupt>
    4100058c:	f81ff06f          	j	4100050c <trap_handler_m__clear_highest_priority_interrupt>
    41000590:	f7dff06f          	j	4100050c <trap_handler_m__clear_highest_priority_interrupt>
    41000594:	f79ff06f          	j	4100050c <trap_handler_m__clear_highest_priority_interrupt>
    41000598:	f75ff06f          	j	4100050c <trap_handler_m__clear_highest_priority_interrupt>
    4100059c:	f71ff06f          	j	4100050c <trap_handler_m__clear_highest_priority_interrupt>
    410005a0:	f6dff06f          	j	4100050c <trap_handler_m__clear_highest_priority_interrupt>
    410005a4:	f69ff06f          	j	4100050c <trap_handler_m__clear_highest_priority_interrupt>
    410005a8:	f65ff06f          	j	4100050c <trap_handler_m__clear_highest_priority_interrupt>
    410005ac:	f61ff06f          	j	4100050c <trap_handler_m__clear_highest_priority_interrupt>
    410005b0:	f5dff06f          	j	4100050c <trap_handler_m__clear_highest_priority_interrupt>
    410005b4:	f59ff06f          	j	4100050c <trap_handler_m__clear_highest_priority_interrupt>
    410005b8:	f55ff06f          	j	4100050c <trap_handler_m__clear_highest_priority_interrupt>
    410005bc:	f51ff06f          	j	4100050c <trap_handler_m__clear_highest_priority_interrupt>
    410005c0:	f4dff06f          	j	4100050c <trap_handler_m__clear_highest_priority_interrupt>
    410005c4:	f49ff06f          	j	4100050c <trap_handler_m__clear_highest_priority_interrupt>
    410005c8:	f45ff06f          	j	4100050c <trap_handler_m__clear_highest_priority_interrupt>
    410005cc:	f41ff06f          	j	4100050c <trap_handler_m__clear_highest_priority_interrupt>
    410005d0:	f3dff06f          	j	4100050c <trap_handler_m__clear_highest_priority_interrupt>
    410005d4:	f39ff06f          	j	4100050c <trap_handler_m__clear_highest_priority_interrupt>
    410005d8:	f35ff06f          	j	4100050c <trap_handler_m__clear_highest_priority_interrupt>
    410005dc:	f31ff06f          	j	4100050c <trap_handler_m__clear_highest_priority_interrupt>
    410005e0:	f2dff06f          	j	4100050c <trap_handler_m__clear_highest_priority_interrupt>
    410005e4:	f29ff06f          	j	4100050c <trap_handler_m__clear_highest_priority_interrupt>
    410005e8:	f25ff06f          	j	4100050c <trap_handler_m__clear_highest_priority_interrupt>
    410005ec:	f21ff06f          	j	4100050c <trap_handler_m__clear_highest_priority_interrupt>
    410005f0:	f1dff06f          	j	4100050c <trap_handler_m__clear_highest_priority_interrupt>
    410005f4:	f19ff06f          	j	4100050c <trap_handler_m__clear_highest_priority_interrupt>
    410005f8:	f15ff06f          	j	4100050c <trap_handler_m__clear_highest_priority_interrupt>
    410005fc:	f11ff06f          	j	4100050c <trap_handler_m__clear_highest_priority_interrupt>
    41000600:	f0dff06f          	j	4100050c <trap_handler_m__clear_highest_priority_interrupt>
    41000604:	f09ff06f          	j	4100050c <trap_handler_m__clear_highest_priority_interrupt>
    41000608:	f05ff06f          	j	4100050c <trap_handler_m__clear_highest_priority_interrupt>
    4100060c:	f01ff06f          	j	4100050c <trap_handler_m__clear_highest_priority_interrupt>
    41000610:	efdff06f          	j	4100050c <trap_handler_m__clear_highest_priority_interrupt>
    41000614:	ef9ff06f          	j	4100050c <trap_handler_m__clear_highest_priority_interrupt>
    41000618:	ef5ff06f          	j	4100050c <trap_handler_m__clear_highest_priority_interrupt>

000000004100061c <trap_handler_m__trap_handler>:
    4100061c:	342022f3          	csrr	x5,mcause
    41000620:	fff0031b          	addiw	x6,x0,-1
    41000624:	03f31313          	slli	x6,x6,0x3f
    41000628:	00537333          	and	x6,x6,x5
    4100062c:	02030263          	beqz	x6,41000650 <trap_handler_m__exception_path>

0000000041000630 <trap_handler_m__interrupt_handler>:
    41000630:	fff0031b          	addiw	x6,x0,-1
    41000634:	03f31313          	slli	x6,x6,0x3f
    41000638:	0062c2b3          	xor	x5,x5,x6
    4100063c:	00000317          	auipc	x6,0x0
    41000640:	ee430313          	addi	x6,x6,-284 # 41000520 <trap_handler_m__trap_entry>
    41000644:	00229293          	slli	x5,x5,0x2
    41000648:	005302b3          	add	x5,x6,x5
    4100064c:	00028067          	jr	x5 # 2000 <pma_region_1_size+0x1000>

0000000041000650 <trap_handler_m__exception_path>:
    41000650:	34021273          	csrrw	x4,mscratch,x4
    41000654:	00000297          	auipc	x5,0x0
    41000658:	10828293          	addi	x5,x5,264 # 4100075c <trap_handler_m__trap_panic>
    4100065c:	30529073          	csrw	mtvec,x5
    41000660:	0040006f          	j	41000664 <trap_handler_m__excp_entry>

0000000041000664 <trap_handler_m__excp_entry>:
    41000664:	34202373          	csrr	x6,mcause
    41000668:	00800293          	li	x5,8
    4100066c:	00534863          	blt	x6,x5,4100067c <trap_handler_m__check_exception_label>
    41000670:	00b00293          	li	x5,11
    41000674:	0062c463          	blt	x5,x6,4100067c <trap_handler_m__check_exception_label>
    41000678:	a5dff06f          	j	410000d4 <syscalls__syscall_check_schedule_next_test>

000000004100067c <trap_handler_m__check_exception_label>:
    4100067c:	04623c23          	sd	x6,88(x4) # 58 <XLEN+0x18>
    41000680:	341022f3          	csrr	x5,mepc
    41000684:	02523423          	sd	x5,40(x4) # 28 <SECURE_ACCESS_PROBABILITY+0xa>
    41000688:	01820283          	lb	x5,24(x4) # 18 <STORE_GUEST_PAGE_FAULT+0x1>
    4100068c:	00029863          	bnez	x5,4100069c <trap_handler_m__check_excp>
    41000690:	00128293          	addi	x5,x5,1
    41000694:	00520c23          	sb	x5,24(x4) # 18 <STORE_GUEST_PAGE_FAULT+0x1>
    41000698:	0980006f          	j	41000730 <trap_handler_m__ecall_from_machine>

000000004100069c <trap_handler_m__check_excp>:
    4100069c:	06823283          	ld	x5,104(x4) # 68 <XLEN+0x28>
    410006a0:	06023423          	sd	x0,104(x4) # 68 <XLEN+0x28>
    410006a4:	00028663          	beqz	x5,410006b0 <trap_handler_m__skip_mode_check>
    410006a8:	00100393          	li	x7,1
    410006ac:	0e729463          	bne	x5,x7,41000794 <test_failed>

00000000410006b0 <trap_handler_m__skip_mode_check>:
    410006b0:	05023283          	ld	x5,80(x4) # 50 <XLEN+0x10>
    410006b4:	04023823          	sd	x0,80(x4) # 50 <XLEN+0x10>
    410006b8:	0c531e63          	bne	x6,x5,41000794 <test_failed>
    410006bc:	03823283          	ld	x5,56(x4) # 38 <SECURE_ACCESS_PROBABILITY+0x1a>
    410006c0:	02023c23          	sd	x0,56(x4) # 38 <SECURE_ACCESS_PROBABILITY+0x1a>
    410006c4:	06029463          	bnez	x5,4100072c <trap_handler_m__skip_gva_check>
    410006c8:	02023303          	ld	x6,32(x4) # 20 <SECURE_ACCESS_PROBABILITY+0x2>
    410006cc:	02023023          	sd	x0,32(x4) # 20 <SECURE_ACCESS_PROBABILITY+0x2>
    410006d0:	02823283          	ld	x5,40(x4) # 28 <SECURE_ACCESS_PROBABILITY+0xa>
    410006d4:	02023423          	sd	x0,40(x4) # 28 <SECURE_ACCESS_PROBABILITY+0xa>
    410006d8:	0a531e63          	bne	x6,x5,41000794 <test_failed>
    410006dc:	04023283          	ld	x5,64(x4) # 40 <XLEN>
    410006e0:	04023023          	sd	x0,64(x4) # 40 <XLEN>
    410006e4:	00028663          	beqz	x5,410006f0 <trap_handler_m__skip_nonzero_tval_check>

00000000410006e8 <trap_handler_m__nonzero_tval_check>:
    410006e8:	34302373          	csrr	x6,mtval
    410006ec:	0a531463          	bne	x6,x5,41000794 <test_failed>

00000000410006f0 <trap_handler_m__skip_nonzero_tval_check>:
    410006f0:	04823283          	ld	x5,72(x4) # 48 <XLEN+0x8>
    410006f4:	04023423          	sd	x0,72(x4) # 48 <XLEN+0x8>
    410006f8:	00028663          	beqz	x5,41000704 <trap_handler_m__skip_nonzero_htval_check>

00000000410006fc <trap_handler_m__nonzero_htval_check>:
    410006fc:	34b02373          	csrr	x6,0x34b
    41000700:	08531a63          	bne	x6,x5,41000794 <test_failed>

0000000041000704 <trap_handler_m__skip_nonzero_htval_check>:
    41000704:	06023283          	ld	x5,96(x4) # 60 <XLEN+0x20>
    41000708:	06023023          	sd	x0,96(x4) # 60 <XLEN+0x20>
    4100070c:	02028063          	beqz	x5,4100072c <trap_handler_m__skip_gva_check>

0000000041000710 <trap_handler_m__gva_check>:
    41000710:	30002373          	csrr	x6,mstatus
    41000714:	02635313          	srli	x6,x6,0x26
    41000718:	00137313          	andi	x6,x6,1
    4100071c:	06030c63          	beqz	x6,41000794 <test_failed>
    41000720:	0010031b          	addiw	x6,x0,1
    41000724:	02631313          	slli	x6,x6,0x26
    41000728:	30033073          	csrc	mstatus,x6

000000004100072c <trap_handler_m__skip_gva_check>:
    4100072c:	0040006f          	j	41000730 <trap_handler_m__ecall_from_machine>

0000000041000730 <trap_handler_m__ecall_from_machine>:
    41000730:	03023283          	ld	x5,48(x4) # 30 <SECURE_ACCESS_PROBABILITY+0x12>
    41000734:	02023823          	sd	x0,48(x4) # 30 <SECURE_ACCESS_PROBABILITY+0x12>
    41000738:	07023303          	ld	x6,112(x4) # 70 <XLEN+0x30>
    4100073c:	06023823          	sd	x0,112(x4) # 70 <XLEN+0x30>
    41000740:	00031463          	bnez	x6,41000748 <trap_handler_m__skip_xepc_write>
    41000744:	34129073          	csrw	mepc,x5

0000000041000748 <trap_handler_m__skip_xepc_write>:
    41000748:	00000317          	auipc	x6,0x0
    4100074c:	dd830313          	addi	x6,x6,-552 # 41000520 <trap_handler_m__trap_entry>
    41000750:	30531073          	csrw	mtvec,x6
    41000754:	34021273          	csrrw	x4,mscratch,x4
    41000758:	30200073          	mret

000000004100075c <trap_handler_m__trap_panic>:
    4100075c:	00000193          	li	x3,0
    41000760:	2b00006f          	j	41000a10 <eot__end_test>

0000000041000764 <enter_scheduler>:
    41000764:	0002f337          	lui	x6,0x2f
    41000768:	ab73031b          	addiw	x6,x6,-1353 # 2eab7 <mem4__pt_level1+0x12ab7>
    4100076c:	00e31313          	slli	x6,x6,0xe
    41000770:	0de30313          	addi	x6,x6,222
    41000774:	02628063          	beq	x5,x6,41000794 <test_failed>
    41000778:	00000513          	li	x10,0
    4100077c:	030000ef          	jal	410007ac <rvcp_print_test_result>
    41000780:	3140006f          	j	41000a94 <scheduler__dispatch>

0000000041000784 <test_passed>:
    41000784:	34021273          	csrrw	x4,mscratch,x4
    41000788:	00000513          	li	x10,0
    4100078c:	020000ef          	jal	410007ac <rvcp_print_test_result>
    41000790:	3040006f          	j	41000a94 <scheduler__dispatch>

0000000041000794 <test_failed>:
    41000794:	34021273          	csrrw	x4,mscratch,x4
    41000798:	00300193          	li	x3,3
    4100079c:	2740006f          	j	41000a10 <eot__end_test>

00000000410007a0 <os_end_test>:
    410007a0:	34021273          	csrrw	x4,mscratch,x4
    410007a4:	00100193          	li	x3,1
    410007a8:	2680006f          	j	41000a10 <eot__end_test>

00000000410007ac <rvcp_print_test_result>:
    410007ac:	00050e13          	mv	x28,x10
    410007b0:	18823283          	ld	x5,392(x4) # 188 <XLEN+0x148>
    410007b4:	0010031b          	addiw	x6,x0,1
    410007b8:	02031313          	slli	x6,x6,0x20
    410007bc:	ffe30313          	addi	x6,x6,-2
    410007c0:	1c628063          	beq	x5,x6,41000980 <rvcp_print_test_result+0x1d4>
    410007c4:	0010031b          	addiw	x6,x0,1
    410007c8:	02031313          	slli	x6,x6,0x20
    410007cc:	fff30313          	addi	x6,x6,-1
    410007d0:	1a628863          	beq	x5,x6,41000980 <rvcp_print_test_result+0x1d4>
    410007d4:	1a02c663          	bltz	x5,41000980 <rvcp_print_test_result+0x1d4>
    410007d8:	00000317          	auipc	x6,0x0
    410007dc:	3ac30313          	addi	x6,x6,940 # 41000b84 <dtest_descriptor_table>
    410007e0:	00329393          	slli	x7,x5,0x3
    410007e4:	00730333          	add	x6,x6,x7
    410007e8:	00033e83          	ld	x29,0(x6)
    410007ec:	424c4f37          	lui	x30,0x424c4
    410007f0:	030f0f1b          	addiw	x30,x30,48 # 424c4030 <rvcp_prefix_str_pa>
    410007f4:	000f4283          	lbu	x5,0(x30)
    410007f8:	02028663          	beqz	x5,41000824 <rvcp_print_test_result+0x78>
    410007fc:	1010031b          	addiw	x6,x0,257
    41000800:	03031313          	slli	x6,x6,0x30
    41000804:	005362b3          	or	x5,x6,x5
    41000808:	0003f317          	auipc	x6,0x3f
    4100080c:	7f830313          	addi	x6,x6,2040 # 41040000 <tohost>
    41000810:	00033383          	ld	x7,0(x6)
    41000814:	fe039ee3          	bnez	x7,41000810 <rvcp_print_test_result+0x64>
    41000818:	00533023          	sd	x5,0(x6)
    4100081c:	001f0f13          	addi	x30,x30,1
    41000820:	fd5ff06f          	j	410007f4 <rvcp_print_test_result+0x48>
    41000824:	424c4f37          	lui	x30,0x424c4
    41000828:	041f0f1b          	addiw	x30,x30,65 # 424c4041 <rvcp_testname_str_pa>
    4100082c:	000f4283          	lbu	x5,0(x30)
    41000830:	02028663          	beqz	x5,4100085c <rvcp_print_test_result+0xb0>
    41000834:	1010031b          	addiw	x6,x0,257
    41000838:	03031313          	slli	x6,x6,0x30
    4100083c:	005362b3          	or	x5,x6,x5
    41000840:	0003f317          	auipc	x6,0x3f
    41000844:	7c030313          	addi	x6,x6,1984 # 41040000 <tohost>
    41000848:	00033383          	ld	x7,0(x6)
    4100084c:	fe039ee3          	bnez	x7,41000848 <rvcp_print_test_result+0x9c>
    41000850:	00533023          	sd	x5,0(x6)
    41000854:	001f0f13          	addi	x30,x30,1
    41000858:	fd5ff06f          	j	4100082c <rvcp_print_test_result+0x80>
    4100085c:	424c4f37          	lui	x30,0x424c4
    41000860:	05cf0f1b          	addiw	x30,x30,92 # 424c405c <rvcp_space_str_pa>
    41000864:	000f4283          	lbu	x5,0(x30)
    41000868:	02028663          	beqz	x5,41000894 <rvcp_print_test_result+0xe8>
    4100086c:	1010031b          	addiw	x6,x0,257
    41000870:	03031313          	slli	x6,x6,0x30
    41000874:	005362b3          	or	x5,x6,x5
    41000878:	0003f317          	auipc	x6,0x3f
    4100087c:	78830313          	addi	x6,x6,1928 # 41040000 <tohost>
    41000880:	00033383          	ld	x7,0(x6)
    41000884:	fe039ee3          	bnez	x7,41000880 <rvcp_print_test_result+0xd4>
    41000888:	00533023          	sd	x5,0(x6)
    4100088c:	001f0f13          	addi	x30,x30,1
    41000890:	fd5ff06f          	j	41000864 <rvcp_print_test_result+0xb8>
    41000894:	000e8f13          	mv	x30,x29
    41000898:	000f4283          	lbu	x5,0(x30)
    4100089c:	02028663          	beqz	x5,410008c8 <rvcp_print_test_result+0x11c>
    410008a0:	1010031b          	addiw	x6,x0,257
    410008a4:	03031313          	slli	x6,x6,0x30
    410008a8:	005362b3          	or	x5,x6,x5
    410008ac:	0003f317          	auipc	x6,0x3f
    410008b0:	75430313          	addi	x6,x6,1876 # 41040000 <tohost>
    410008b4:	00033383          	ld	x7,0(x6)
    410008b8:	fe039ee3          	bnez	x7,410008b4 <rvcp_print_test_result+0x108>
    410008bc:	00533023          	sd	x5,0(x6)
    410008c0:	001f0f13          	addi	x30,x30,1
    410008c4:	fd5ff06f          	j	41000898 <rvcp_print_test_result+0xec>
    410008c8:	424c4f37          	lui	x30,0x424c4
    410008cc:	05cf0f1b          	addiw	x30,x30,92 # 424c405c <rvcp_space_str_pa>
    410008d0:	000f4283          	lbu	x5,0(x30)
    410008d4:	02028663          	beqz	x5,41000900 <rvcp_print_test_result+0x154>
    410008d8:	1010031b          	addiw	x6,x0,257
    410008dc:	03031313          	slli	x6,x6,0x30
    410008e0:	005362b3          	or	x5,x6,x5
    410008e4:	0003f317          	auipc	x6,0x3f
    410008e8:	71c30313          	addi	x6,x6,1820 # 41040000 <tohost>
    410008ec:	00033383          	ld	x7,0(x6)
    410008f0:	fe039ee3          	bnez	x7,410008ec <rvcp_print_test_result+0x140>
    410008f4:	00533023          	sd	x5,0(x6)
    410008f8:	001f0f13          	addi	x30,x30,1
    410008fc:	fd5ff06f          	j	410008d0 <rvcp_print_test_result+0x124>
    41000900:	000e1863          	bnez	x28,41000910 <rvcp_print_test_result+0x164>
    41000904:	424c4f37          	lui	x30,0x424c4
    41000908:	04ef0f1b          	addiw	x30,x30,78 # 424c404e <rvcp_passed_str_pa>
    4100090c:	00c0006f          	j	41000918 <rvcp_print_test_result+0x16c>
    41000910:	424c4f37          	lui	x30,0x424c4
    41000914:	055f0f1b          	addiw	x30,x30,85 # 424c4055 <rvcp_failed_str_pa>
    41000918:	000f4283          	lbu	x5,0(x30)
    4100091c:	02028663          	beqz	x5,41000948 <rvcp_print_test_result+0x19c>
    41000920:	1010031b          	addiw	x6,x0,257
    41000924:	03031313          	slli	x6,x6,0x30
    41000928:	005362b3          	or	x5,x6,x5
    4100092c:	0003f317          	auipc	x6,0x3f
    41000930:	6d430313          	addi	x6,x6,1748 # 41040000 <tohost>
    41000934:	00033383          	ld	x7,0(x6)
    41000938:	fe039ee3          	bnez	x7,41000934 <rvcp_print_test_result+0x188>
    4100093c:	00533023          	sd	x5,0(x6)
    41000940:	001f0f13          	addi	x30,x30,1
    41000944:	fd5ff06f          	j	41000918 <rvcp_print_test_result+0x16c>
    41000948:	424c4f37          	lui	x30,0x424c4
    4100094c:	05ef0f1b          	addiw	x30,x30,94 # 424c405e <rvcp_newline_str_pa>
    41000950:	000f4283          	lbu	x5,0(x30)
    41000954:	02028663          	beqz	x5,41000980 <rvcp_print_test_result+0x1d4>
    41000958:	1010031b          	addiw	x6,x0,257
    4100095c:	03031313          	slli	x6,x6,0x30
    41000960:	005362b3          	or	x5,x6,x5
    41000964:	0003f317          	auipc	x6,0x3f
    41000968:	69c30313          	addi	x6,x6,1692 # 41040000 <tohost>
    4100096c:	00033383          	ld	x7,0(x6)
    41000970:	fe039ee3          	bnez	x7,4100096c <rvcp_print_test_result+0x1c0>
    41000974:	00533023          	sd	x5,0(x6)
    41000978:	001f0f13          	addi	x30,x30,1
    4100097c:	fd5ff06f          	j	41000950 <rvcp_print_test_result+0x1a4>
    41000980:	00008067          	ret

0000000041000984 <os_rng_orig>:
    41000984:	f14023f3          	csrr	x7,mhartid
    41000988:	00068313          	mv	x6,x13
    4100098c:	026383b3          	mul	x7,x7,x6
    41000990:	00058313          	mv	x6,x11
    41000994:	00730333          	add	x6,x6,x7
    41000998:	00033283          	ld	x5,0(x6)
    4100099c:	01529313          	slli	x6,x5,0x15
    410009a0:	0062c2b3          	xor	x5,x5,x6
    410009a4:	0232d313          	srli	x6,x5,0x23
    410009a8:	0062c2b3          	xor	x5,x5,x6
    410009ac:	00429313          	slli	x6,x5,0x4
    410009b0:	0062c2b3          	xor	x5,x5,x6
    410009b4:	00058313          	mv	x6,x11
    410009b8:	00730333          	add	x6,x6,x7
    410009bc:	00533023          	sd	x5,0(x6)
    410009c0:	00060313          	mv	x6,x12
    410009c4:	0262f2b3          	remu	x5,x5,x6
    410009c8:	00028513          	mv	x10,x5
    410009cc:	00008067          	ret
    410009d0:	02a00513          	li	x10,42
    410009d4:	001965b7          	lui	x11,0x196
    410009d8:	60d5859b          	addiw	x11,x11,1549 # 19660d <mem7__pt_level3+0x745ed>
    410009dc:	3c6ef637          	lui	x12,0x3c6ef
    410009e0:	35f6061b          	addiw	x12,x12,863 # 3c6ef35f <SID_SVINVAL_01_opcode_coverage_stack+0x262635f>
    410009e4:	02200693          	li	x13,34
    410009e8:	02b50533          	mul	x10,x10,x11
    410009ec:	00c50533          	add	x10,x10,x12
    410009f0:	02d56533          	rem	x10,x10,x13
    410009f4:	00b00593          	li	x11,11
    410009f8:	02b56533          	rem	x10,x10,x11
    410009fc:	00008067          	ret

0000000041000a00 <tohost_mutex>:
	...

0000000041000a08 <tohost_addr_mem>:
    41000a08:	0000                	.insn	2, 0x0000
    41000a0a:	4104                	.insn	2, 0x4104
    41000a0c:	0000                	.insn	2, 0x0000
	...

0000000041000a10 <eot__end_test>:
    41000a10:	00100293          	li	x5,1
    41000a14:	00328463          	beq	x5,x3,41000a1c <eot__passed>
    41000a18:	01c0006f          	j	41000a34 <eot__failed>

0000000041000a1c <eot__passed>:
    41000a1c:	0ff0000f          	fence
    41000a20:	00000297          	auipc	x5,0x0
    41000a24:	fe82b283          	ld	x5,-24(x5) # 41000a08 <tohost_addr_mem>
    41000a28:	00100313          	li	x6,1
    41000a2c:	0062a023          	sw	x6,0(x5)
    41000a30:	0240006f          	j	41000a54 <eot__halt>

0000000041000a34 <eot__failed>:
    41000a34:	00100513          	li	x10,1
    41000a38:	d75ff0ef          	jal	410007ac <rvcp_print_test_result>
    41000a3c:	0ff0000f          	fence
    41000a40:	00000297          	auipc	x5,0x0
    41000a44:	fc82b283          	ld	x5,-56(x5) # 41000a08 <tohost_addr_mem>
    41000a48:	00300313          	li	x6,3
    41000a4c:	0062a023          	sw	x6,0(x5)
    41000a50:	0040006f          	j	41000a54 <eot__halt>

0000000041000a54 <eot__halt>:
    41000a54:	10500073          	wfi
    41000a58:	ffdff06f          	j	41000a54 <eot__halt>

0000000041000a5c <scheduler__init>:
    41000a5c:	00000297          	auipc	x5,0x0
    41000a60:	0c028293          	addi	x5,x5,192 # 41000b1c <scheduler__panic>
    41000a64:	305292f3          	csrrw	x5,mtvec,x5
    41000a68:	18523023          	sd	x5,384(x4) # 180 <XLEN+0x140>
    41000a6c:	00b00293          	li	x5,11
    41000a70:	18523823          	sd	x5,400(x4) # 190 <XLEN+0x150>
    41000a74:	0010029b          	addiw	x5,x0,1
    41000a78:	02029293          	slli	x5,x5,0x20
    41000a7c:	ffe28293          	addi	x5,x5,-2
    41000a80:	18523423          	sd	x5,392(x4) # 188 <XLEN+0x148>
    41000a84:	00000317          	auipc	x6,0x0
    41000a88:	32030313          	addi	x6,x6,800 # 41000da4 <scheduler__test_setup_ptr>
    41000a8c:	00033303          	ld	x6,0(x6)
    41000a90:	0640006f          	j	41000af4 <scheduler__execute_test>

0000000041000a94 <scheduler__dispatch>:
    41000a94:	00000297          	auipc	x5,0x0
    41000a98:	08828293          	addi	x5,x5,136 # 41000b1c <scheduler__panic>
    41000a9c:	305292f3          	csrrw	x5,mtvec,x5
    41000aa0:	18523023          	sd	x5,384(x4) # 180 <XLEN+0x140>

0000000041000aa4 <scheduler__csr_read_randomization>:
    41000aa4:	140022f3          	csrr	x5,sscratch
    41000aa8:	f13022f3          	csrr	x5,mimpid
    41000aac:	105022f3          	csrr	x5,stvec
    41000ab0:	b02022f3          	csrr	x5,minstret
    41000ab4:	142022f3          	csrr	x5,scause

0000000041000ab8 <scheduler__load_num_runs>:
    41000ab8:	19023303          	ld	x6,400(x4) # 190 <XLEN+0x150>
    41000abc:	04030c63          	beqz	x6,41000b14 <scheduler__finished>

0000000041000ac0 <scheduler__decrement_num_runs>:
    41000ac0:	fff30393          	addi	x7,x6,-1
    41000ac4:	18723823          	sd	x7,400(x4) # 190 <XLEN+0x150>
    41000ac8:	00000e17          	auipc	x28,0x0
    41000acc:	2b0e0e13          	addi	x28,x28,688 # 41000d78 <dtest_index_map>
    41000ad0:	00239e93          	slli	x29,x7,0x2
    41000ad4:	01de0e33          	add	x28,x28,x29
    41000ad8:	000e2e03          	lw	x28,0(x28)
    41000adc:	19c23423          	sd	x28,392(x4) # 188 <XLEN+0x148>

0000000041000ae0 <scheduler__calc_test_pointer>:
    41000ae0:	00339293          	slli	x5,x7,0x3

0000000041000ae4 <scheduler__load_test_addr>:
    41000ae4:	00000317          	auipc	x6,0x0
    41000ae8:	04830313          	addi	x6,x6,72 # 41000b2c <os_test_sequence>
    41000aec:	006282b3          	add	x5,x5,x6
    41000af0:	0002b303          	ld	x6,0(x5)

0000000041000af4 <scheduler__execute_test>:
    41000af4:	18023283          	ld	x5,384(x4) # 180 <XLEN+0x140>
    41000af8:	30529073          	csrw	mtvec,x5
    41000afc:	34021273          	csrrw	x4,mscratch,x4
    41000b00:	00000213          	li	x4,0
    41000b04:	14131073          	csrw	sepc,x6
    41000b08:	10000293          	li	x5,256
    41000b0c:	1002a073          	csrs	sstatus,x5
    41000b10:	10200073          	sret

0000000041000b14 <scheduler__finished>:
    41000b14:	00100193          	li	x3,1
    41000b18:	ef9ff06f          	j	41000a10 <eot__end_test>

0000000041000b1c <scheduler__panic>:
    41000b1c:	00000193          	li	x3,0
    41000b20:	ef1ff06f          	j	41000a10 <eot__end_test>

0000000041000b24 <num_runs>:
    41000b24:	0000000b          	.insn	4, 0x000b
    41000b28:	0000                	.insn	2, 0x0000
	...

0000000041000b2c <os_test_sequence>:
    41000b2c:	4e6c                	.insn	2, 0x4e6c
    41000b2e:	4101                	.insn	2, 0x4101
    41000b30:	0000                	.insn	2, 0x0000
    41000b32:	0000                	.insn	2, 0x0000
    41000b34:	4d94                	.insn	2, 0x4d94
    41000b36:	4101                	.insn	2, 0x4101
    41000b38:	0000                	.insn	2, 0x0000
    41000b3a:	0000                	.insn	2, 0x0000
    41000b3c:	4e04                	.insn	2, 0x4e04
    41000b3e:	4101                	.insn	2, 0x4101
    41000b40:	0000                	.insn	2, 0x0000
    41000b42:	0000                	.insn	2, 0x0000
    41000b44:	4e38                	.insn	2, 0x4e38
    41000b46:	4101                	.insn	2, 0x4101
    41000b48:	0000                	.insn	2, 0x0000
    41000b4a:	0000                	.insn	2, 0x0000
    41000b4c:	4dcc                	.insn	2, 0x4dcc
    41000b4e:	4101                	.insn	2, 0x4101
    41000b50:	0000                	.insn	2, 0x0000
    41000b52:	0000                	.insn	2, 0x0000
    41000b54:	4c34                	.insn	2, 0x4c34
    41000b56:	4101                	.insn	2, 0x4101
    41000b58:	0000                	.insn	2, 0x0000
    41000b5a:	0000                	.insn	2, 0x0000
    41000b5c:	48b4                	.insn	2, 0x48b4
    41000b5e:	4101                	.insn	2, 0x4101
    41000b60:	0000                	.insn	2, 0x0000
    41000b62:	0000                	.insn	2, 0x0000
    41000b64:	4130                	.insn	2, 0x4130
    41000b66:	4101                	.insn	2, 0x4101
    41000b68:	0000                	.insn	2, 0x0000
    41000b6a:	0000                	.insn	2, 0x0000
    41000b6c:	4ad4                	.insn	2, 0x4ad4
    41000b6e:	4101                	.insn	2, 0x4101
    41000b70:	0000                	.insn	2, 0x0000
    41000b72:	0000                	.insn	2, 0x0000
    41000b74:	4184                	.insn	2, 0x4184
    41000b76:	4101                	.insn	2, 0x4101
    41000b78:	0000                	.insn	2, 0x0000
    41000b7a:	0000                	.insn	2, 0x0000
    41000b7c:	4348                	.insn	2, 0x4348
    41000b7e:	4101                	.insn	2, 0x4101
    41000b80:	0000                	.insn	2, 0x0000
	...

0000000041000b84 <dtest_descriptor_table>:
    41000b84:	0bd4                	.insn	2, 0x0bd4
    41000b86:	4100                	.insn	2, 0x4100
    41000b88:	0000                	.insn	2, 0x0000
    41000b8a:	0000                	.insn	2, 0x0000
    41000b8c:	41000bf3          	.insn	4, 0x41000bf3
    41000b90:	0000                	.insn	2, 0x0000
    41000b92:	0000                	.insn	2, 0x0000
    41000b94:	0c1a                	.insn	2, 0x0c1a
    41000b96:	4100                	.insn	2, 0x4100
    41000b98:	0000                	.insn	2, 0x0000
    41000b9a:	0000                	.insn	2, 0x0000
    41000b9c:	0c4e                	.insn	2, 0x0c4e
    41000b9e:	4100                	.insn	2, 0x4100
    41000ba0:	0000                	.insn	2, 0x0000
    41000ba2:	0000                	.insn	2, 0x0000
    41000ba4:	0c7a                	.insn	2, 0x0c7a
    41000ba6:	4100                	.insn	2, 0x4100
    41000ba8:	0000                	.insn	2, 0x0000
    41000baa:	0000                	.insn	2, 0x0000
    41000bac:	0ca1                	.insn	2, 0x0ca1
    41000bae:	4100                	.insn	2, 0x4100
    41000bb0:	0000                	.insn	2, 0x0000
    41000bb2:	0000                	.insn	2, 0x0000
    41000bb4:	0cce                	.insn	2, 0x0cce
    41000bb6:	4100                	.insn	2, 0x4100
    41000bb8:	0000                	.insn	2, 0x0000
    41000bba:	0000                	.insn	2, 0x0000
    41000bbc:	0cf8                	.insn	2, 0x0cf8
    41000bbe:	4100                	.insn	2, 0x4100
    41000bc0:	0000                	.insn	2, 0x0000
    41000bc2:	0000                	.insn	2, 0x0000
    41000bc4:	0d22                	.insn	2, 0x0d22
    41000bc6:	4100                	.insn	2, 0x4100
    41000bc8:	0000                	.insn	2, 0x0000
    41000bca:	0000                	.insn	2, 0x0000
    41000bcc:	41000d4f          	fnmadd.s	f26,f0,f16,f8,rne
    41000bd0:	0000                	.insn	2, 0x0000
	...

0000000041000bd4 <dtest_name_0>:
    41000bd4:	5f444953          	.insn	4, 0x5f444953
    41000bd8:	4e495653          	.insn	4, 0x4e495653
    41000bdc:	4156                	.insn	2, 0x4156
    41000bde:	5f4c                	.insn	2, 0x5f4c
    41000be0:	3130                	.insn	2, 0x3130
    41000be2:	6f5f 6370 646f      	.insn	6, 0x646f63706f5f
    41000be8:	5f65                	.insn	2, 0x5f65
    41000bea:	65766f63          	bltu	x12,x23,41001248 <__section__runtime_1+0x248>
    41000bee:	6172                	.insn	2, 0x6172
    41000bf0:	          	.insn	4, 0x53006567

0000000041000bf3 <dtest_name_1>:
    41000bf3:	5f444953          	.insn	4, 0x5f444953
    41000bf7:	4e495653          	.insn	4, 0x4e495653
    41000bfb:	4156                	.insn	2, 0x4156
    41000bfd:	5f4c                	.insn	2, 0x5f4c
    41000bff:	3330                	.insn	2, 0x3330
    41000c01:	695f 766e 6c61      	.insn	6, 0x6c61766e695f
    41000c07:	6469                	.insn	2, 0x6469
    41000c09:	7461                	.insn	2, 0x7461
    41000c0b:	6f69                	.insn	2, 0x6f69
    41000c0d:	5f6e                	.insn	2, 0x5f6e
    41000c0f:	75716573          	csrrsi	x10,0x757,2
    41000c13:	6e65                	.insn	2, 0x6e65
    41000c15:	315f6563          	bltu	x30,x21,41000f1f <scheduler__test_cleanup_ptr+0x173>
	...

0000000041000c1a <dtest_name_2>:
    41000c1a:	5f444953          	.insn	4, 0x5f444953
    41000c1e:	4e495653          	.insn	4, 0x4e495653
    41000c22:	4156                	.insn	2, 0x4156
    41000c24:	5f4c                	.insn	2, 0x5f4c
    41000c26:	3430                	.insn	2, 0x3430
    41000c28:	695f 766e 6c61      	.insn	6, 0x6c61766e695f
    41000c2e:	6469                	.insn	2, 0x6469
    41000c30:	7461                	.insn	2, 0x7461
    41000c32:	6f69                	.insn	2, 0x6f69
    41000c34:	5f6e                	.insn	2, 0x5f6e
    41000c36:	75716573          	csrrsi	x10,0x757,2
    41000c3a:	6e65                	.insn	2, 0x6e65
    41000c3c:	325f6563          	bltu	x30,x5,41000f66 <scheduler__test_cleanup_ptr+0x1ba>
    41000c40:	6d5f 6c75 6974      	.insn	6, 0x69746c756d5f
    41000c46:	6c70                	.insn	2, 0x6c70
    41000c48:	5f65                	.insn	2, 0x5f65
    41000c4a:	6176                	.insn	2, 0x6176
    41000c4c:	          	.insn	4, 0x49530073

0000000041000c4e <dtest_name_3>:
    41000c4e:	5f444953          	.insn	4, 0x5f444953
    41000c52:	4e495653          	.insn	4, 0x4e495653
    41000c56:	4156                	.insn	2, 0x4156
    41000c58:	5f4c                	.insn	2, 0x5f4c
    41000c5a:	3530                	.insn	2, 0x3530
    41000c5c:	6e5f 6e6f 635f      	.insn	6, 0x635f6e6f6e5f
    41000c62:	65736e6f          	jal	x28,41037ab8 <__section__code_35+0xab8>
    41000c66:	69747563          	bgeu	x8,x23,410012f0 <__section__runtime_1+0x2f0>
    41000c6a:	6576                	.insn	2, 0x6576
    41000c6c:	695f 766e 6c61      	.insn	6, 0x6c61766e695f
    41000c72:	6469                	.insn	2, 0x6469
    41000c74:	7461                	.insn	2, 0x7461
    41000c76:	6f69                	.insn	2, 0x6f69
    41000c78:	006e                	.insn	2, 0x006e

0000000041000c7a <dtest_name_4>:
    41000c7a:	5f444953          	.insn	4, 0x5f444953
    41000c7e:	4e495653          	.insn	4, 0x4e495653
    41000c82:	4156                	.insn	2, 0x4156
    41000c84:	5f4c                	.insn	2, 0x5f4c
    41000c86:	3730                	.insn	2, 0x3730
    41000c88:	665f 7561 746c      	.insn	6, 0x746c7561665f
    41000c8e:	695f 5f6e 6d73      	.insn	6, 0x6d735f6e695f
    41000c94:	5f65646f          	jal	x8,4105728a <__section__code_67+0x28a>
    41000c98:	68746977          	.insn	4, 0x68746977
    41000c9c:	745f 6d76       	.insn	6, 0x53006d76745f

0000000041000ca1 <dtest_name_5>:
    41000ca1:	5f444953          	.insn	4, 0x5f444953
    41000ca5:	4e495653          	.insn	4, 0x4e495653
    41000ca9:	4156                	.insn	2, 0x4156
    41000cab:	5f4c                	.insn	2, 0x5f4c
    41000cad:	3930                	.insn	2, 0x3930
    41000caf:	745f 6d76 735f      	.insn	6, 0x735f6d76745f
    41000cb5:	6566                	.insn	2, 0x6566
    41000cb7:	636e                	.insn	2, 0x636e
    41000cb9:	5f65                	.insn	2, 0x5f65
    41000cbb:	766e6973          	csrrsi	x18,0x766,28
    41000cbf:	6c61                	.insn	2, 0x6c61
    41000cc1:	735f 6566 636e      	.insn	6, 0x636e6566735f
    41000cc7:	5f65                	.insn	2, 0x5f65
    41000cc9:	6c66                	.insn	2, 0x6c66
    41000ccb:	          	jal	x14,410081fb <__section__runtime_8+0x1fb>

0000000041000cce <dtest_name_6>:
    41000cce:	5f444953          	.insn	4, 0x5f444953
    41000cd2:	4e495653          	.insn	4, 0x4e495653
    41000cd6:	4156                	.insn	2, 0x4156
    41000cd8:	5f4c                	.insn	2, 0x5f4c
    41000cda:	3231                	.insn	2, 0x3231
    41000cdc:	735f 6e69 6176      	.insn	6, 0x61766e69735f
    41000ce2:	5f6c                	.insn	2, 0x5f6c
    41000ce4:	6d76                	.insn	2, 0x6d76
    41000ce6:	5f61                	.insn	2, 0x5f61
    41000ce8:	6f63706f          	j	410383de <__section__code_36+0x3de>
    41000cec:	6564                	.insn	2, 0x6564
    41000cee:	785f 5f30 6f6e      	.insn	6, 0x6f6e5f30785f
    41000cf4:	786e                	.insn	2, 0x786e
    41000cf6:	0030                	.insn	2, 0x0030

0000000041000cf8 <dtest_name_7>:
    41000cf8:	5f444953          	.insn	4, 0x5f444953
    41000cfc:	4e495653          	.insn	4, 0x4e495653
    41000d00:	4156                	.insn	2, 0x4156
    41000d02:	5f4c                	.insn	2, 0x5f4c
    41000d04:	3331                	.insn	2, 0x3331
    41000d06:	735f 6e69 6176      	.insn	6, 0x61766e69735f
    41000d0c:	5f6c                	.insn	2, 0x5f6c
    41000d0e:	6d76                	.insn	2, 0x6d76
    41000d10:	5f61                	.insn	2, 0x5f61
    41000d12:	6f63706f          	j	41038408 <__section__code_36+0x408>
    41000d16:	6564                	.insn	2, 0x6564
    41000d18:	6e5f 6e6f 3078      	.insn	6, 0x30786e6f6e5f
    41000d1e:	785f 0030       	.insn	6, 0x49530030785f

0000000041000d22 <dtest_name_8>:
    41000d22:	5f444953          	.insn	4, 0x5f444953
    41000d26:	4e495653          	.insn	4, 0x4e495653
    41000d2a:	4156                	.insn	2, 0x4156
    41000d2c:	5f4c                	.insn	2, 0x5f4c
    41000d2e:	3431                	.insn	2, 0x3431
    41000d30:	735f 6e69 6176      	.insn	6, 0x61766e69735f
    41000d36:	5f6c                	.insn	2, 0x5f6c
    41000d38:	6d76                	.insn	2, 0x6d76
    41000d3a:	5f61                	.insn	2, 0x5f61
    41000d3c:	6f63706f          	j	41038432 <__section__code_36+0x432>
    41000d40:	6564                	.insn	2, 0x6564
    41000d42:	6e5f 6e6f 3078      	.insn	6, 0x30786e6f6e5f
    41000d48:	6e5f 6e6f 3078      	.insn	6, 0x30786e6f6e5f
	...

0000000041000d4f <dtest_name_9>:
    41000d4f:	5f444953          	.insn	4, 0x5f444953
    41000d53:	4e495653          	.insn	4, 0x4e495653
    41000d57:	4156                	.insn	2, 0x4156
    41000d59:	5f4c                	.insn	2, 0x5f4c
    41000d5b:	3531                	.insn	2, 0x3531
    41000d5d:	735f 6e69 6176      	.insn	6, 0x61766e69735f
    41000d63:	5f6c                	.insn	2, 0x5f6c
    41000d65:	6d76                	.insn	2, 0x6d76
    41000d67:	5f61                	.insn	2, 0x5f61
    41000d69:	6f63706f          	j	4103845f <__section__code_36+0x45f>
    41000d6d:	6564                	.insn	2, 0x6564
    41000d6f:	785f 5f30 3078      	.insn	6, 0x30785f30785f
    41000d75:	0000                	.insn	2, 0x0000
	...

0000000041000d78 <dtest_index_map>:
    41000d78:	ffff                	.insn	2, 0xffff
    41000d7a:	ffff                	.insn	2, 0xffff
    41000d7c:	0006                	.insn	2, 0x0006
    41000d7e:	0000                	.insn	2, 0x0000
    41000d80:	0008                	.insn	2, 0x0008
    41000d82:	0000                	.insn	2, 0x0000
    41000d84:	0009                	.insn	2, 0x0009
    41000d86:	0000                	.insn	2, 0x0000
    41000d88:	00000007          	vle8.v	v0,(x0),v0.t
    41000d8c:	0005                	.insn	2, 0x0005
    41000d8e:	0000                	.insn	2, 0x0000
    41000d90:	00000003          	lb	x0,0(x0) # 0 <ALL_4KB_PAGES>
    41000d94:	0000                	.insn	2, 0x0000
    41000d96:	0000                	.insn	2, 0x0000
    41000d98:	0004                	.insn	2, 0x0004
    41000d9a:	0000                	.insn	2, 0x0000
    41000d9c:	0001                	.insn	2, 0x0001
    41000d9e:	0000                	.insn	2, 0x0000
    41000da0:	0002                	.insn	2, 0x0002
	...

0000000041000da4 <scheduler__test_setup_ptr>:
    41000da4:	4120                	.insn	2, 0x4120
    41000da6:	4101                	.insn	2, 0x4101
    41000da8:	0000                	.insn	2, 0x0000
	...

0000000041000dac <scheduler__test_cleanup_ptr>:
    41000dac:	4e6c                	.insn	2, 0x4e6c
    41000dae:	4101                	.insn	2, 0x4101
    41000db0:	0000                	.insn	2, 0x0000
	...

Disassembly of section .runtime_s:

0000000041010000 <trap_handler_s__invalid_interrupt>:
    41010000:	1740006f          	j	41010174 <trap_handler_s__test_failed>

0000000041010004 <trap_handler_s__clear_all_interrupts>:
    41010004:	14401073          	csrw	sip,x0
    41010008:	10200073          	sret

000000004101000c <trap_handler_s___CLEAR_SSI>:
    4101000c:	00200293          	li	x5,2
    41010010:	1442b073          	csrc	sip,x5
    41010014:	10200073          	sret

0000000041010018 <trap_handler_s___CLEAR_MSI>:
    41010018:	00800293          	li	x5,8
    4101001c:	1442b073          	csrc	sip,x5
    41010020:	10200073          	sret

0000000041010024 <trap_handler_s___CLEAR_STI>:
    41010024:	02000293          	li	x5,32
    41010028:	1442b073          	csrc	sip,x5
    4101002c:	10200073          	sret

0000000041010030 <trap_handler_s___CLEAR_MTI>:
    41010030:	08000293          	li	x5,128
    41010034:	1442b073          	csrc	sip,x5
    41010038:	10200073          	sret

000000004101003c <trap_handler_s___CLEAR_SEI>:
    4101003c:	20000293          	li	x5,512
    41010040:	1442b073          	csrc	sip,x5
    41010044:	10200073          	sret

0000000041010048 <trap_handler_s___CLEAR_MEI>:
    41010048:	000012b7          	lui	x5,0x1
    4101004c:	8002829b          	addiw	x5,x5,-2048 # 800 <XLEN+0x7c0>
    41010050:	1442b073          	csrc	sip,x5
    41010054:	10200073          	sret

0000000041010058 <trap_handler_s___CLEAR_COI>:
    41010058:	000022b7          	lui	x5,0x2
    4101005c:	1442b073          	csrc	sip,x5
    41010060:	10200073          	sret

0000000041010064 <trap_handler_s__clear_highest_priority_interrupt>:
    41010064:	144022f3          	csrr	x5,sip
    41010068:	40500333          	neg	x6,x5
    4101006c:	0062f2b3          	and	x5,x5,x6
    41010070:	1442b073          	csrc	sip,x5
    41010074:	10200073          	sret

0000000041010078 <trap_handler_s__trap_entry>:
    41010078:	10c0006f          	j	41010184 <trap_handler_s__trap_handler>

000000004101007c <trap_handler_s__interrupt_vector_table>:
    4101007c:	f91ff06f          	j	4101000c <trap_handler_s___CLEAR_SSI>
    41010080:	f81ff06f          	j	41010000 <trap_handler_s__invalid_interrupt>
    41010084:	f95ff06f          	j	41010018 <trap_handler_s___CLEAR_MSI>
    41010088:	f79ff06f          	j	41010000 <trap_handler_s__invalid_interrupt>
    4101008c:	f99ff06f          	j	41010024 <trap_handler_s___CLEAR_STI>
    41010090:	f71ff06f          	j	41010000 <trap_handler_s__invalid_interrupt>
    41010094:	f9dff06f          	j	41010030 <trap_handler_s___CLEAR_MTI>
    41010098:	f69ff06f          	j	41010000 <trap_handler_s__invalid_interrupt>
    4101009c:	fa1ff06f          	j	4101003c <trap_handler_s___CLEAR_SEI>
    410100a0:	f61ff06f          	j	41010000 <trap_handler_s__invalid_interrupt>
    410100a4:	fa5ff06f          	j	41010048 <trap_handler_s___CLEAR_MEI>
    410100a8:	f59ff06f          	j	41010000 <trap_handler_s__invalid_interrupt>
    410100ac:	fadff06f          	j	41010058 <trap_handler_s___CLEAR_COI>
    410100b0:	f51ff06f          	j	41010000 <trap_handler_s__invalid_interrupt>
    410100b4:	f4dff06f          	j	41010000 <trap_handler_s__invalid_interrupt>
    410100b8:	fadff06f          	j	41010064 <trap_handler_s__clear_highest_priority_interrupt>
    410100bc:	fa9ff06f          	j	41010064 <trap_handler_s__clear_highest_priority_interrupt>
    410100c0:	fa5ff06f          	j	41010064 <trap_handler_s__clear_highest_priority_interrupt>
    410100c4:	fa1ff06f          	j	41010064 <trap_handler_s__clear_highest_priority_interrupt>
    410100c8:	f9dff06f          	j	41010064 <trap_handler_s__clear_highest_priority_interrupt>
    410100cc:	f99ff06f          	j	41010064 <trap_handler_s__clear_highest_priority_interrupt>
    410100d0:	f95ff06f          	j	41010064 <trap_handler_s__clear_highest_priority_interrupt>
    410100d4:	f91ff06f          	j	41010064 <trap_handler_s__clear_highest_priority_interrupt>
    410100d8:	f8dff06f          	j	41010064 <trap_handler_s__clear_highest_priority_interrupt>
    410100dc:	f89ff06f          	j	41010064 <trap_handler_s__clear_highest_priority_interrupt>
    410100e0:	f85ff06f          	j	41010064 <trap_handler_s__clear_highest_priority_interrupt>
    410100e4:	f81ff06f          	j	41010064 <trap_handler_s__clear_highest_priority_interrupt>
    410100e8:	f7dff06f          	j	41010064 <trap_handler_s__clear_highest_priority_interrupt>
    410100ec:	f79ff06f          	j	41010064 <trap_handler_s__clear_highest_priority_interrupt>
    410100f0:	f75ff06f          	j	41010064 <trap_handler_s__clear_highest_priority_interrupt>
    410100f4:	f71ff06f          	j	41010064 <trap_handler_s__clear_highest_priority_interrupt>
    410100f8:	f6dff06f          	j	41010064 <trap_handler_s__clear_highest_priority_interrupt>
    410100fc:	f69ff06f          	j	41010064 <trap_handler_s__clear_highest_priority_interrupt>
    41010100:	f65ff06f          	j	41010064 <trap_handler_s__clear_highest_priority_interrupt>
    41010104:	f61ff06f          	j	41010064 <trap_handler_s__clear_highest_priority_interrupt>
    41010108:	f5dff06f          	j	41010064 <trap_handler_s__clear_highest_priority_interrupt>
    4101010c:	f59ff06f          	j	41010064 <trap_handler_s__clear_highest_priority_interrupt>
    41010110:	f55ff06f          	j	41010064 <trap_handler_s__clear_highest_priority_interrupt>
    41010114:	f51ff06f          	j	41010064 <trap_handler_s__clear_highest_priority_interrupt>
    41010118:	f4dff06f          	j	41010064 <trap_handler_s__clear_highest_priority_interrupt>
    4101011c:	f49ff06f          	j	41010064 <trap_handler_s__clear_highest_priority_interrupt>
    41010120:	f45ff06f          	j	41010064 <trap_handler_s__clear_highest_priority_interrupt>
    41010124:	f41ff06f          	j	41010064 <trap_handler_s__clear_highest_priority_interrupt>
    41010128:	f3dff06f          	j	41010064 <trap_handler_s__clear_highest_priority_interrupt>
    4101012c:	f39ff06f          	j	41010064 <trap_handler_s__clear_highest_priority_interrupt>
    41010130:	f35ff06f          	j	41010064 <trap_handler_s__clear_highest_priority_interrupt>
    41010134:	f31ff06f          	j	41010064 <trap_handler_s__clear_highest_priority_interrupt>
    41010138:	f2dff06f          	j	41010064 <trap_handler_s__clear_highest_priority_interrupt>
    4101013c:	f29ff06f          	j	41010064 <trap_handler_s__clear_highest_priority_interrupt>
    41010140:	f25ff06f          	j	41010064 <trap_handler_s__clear_highest_priority_interrupt>
    41010144:	f21ff06f          	j	41010064 <trap_handler_s__clear_highest_priority_interrupt>
    41010148:	f1dff06f          	j	41010064 <trap_handler_s__clear_highest_priority_interrupt>
    4101014c:	f19ff06f          	j	41010064 <trap_handler_s__clear_highest_priority_interrupt>
    41010150:	f15ff06f          	j	41010064 <trap_handler_s__clear_highest_priority_interrupt>
    41010154:	f11ff06f          	j	41010064 <trap_handler_s__clear_highest_priority_interrupt>
    41010158:	f0dff06f          	j	41010064 <trap_handler_s__clear_highest_priority_interrupt>
    4101015c:	f09ff06f          	j	41010064 <trap_handler_s__clear_highest_priority_interrupt>
    41010160:	f05ff06f          	j	41010064 <trap_handler_s__clear_highest_priority_interrupt>
    41010164:	f01ff06f          	j	41010064 <trap_handler_s__clear_highest_priority_interrupt>
    41010168:	efdff06f          	j	41010064 <trap_handler_s__clear_highest_priority_interrupt>
    4101016c:	ef9ff06f          	j	41010064 <trap_handler_s__clear_highest_priority_interrupt>
    41010170:	ef5ff06f          	j	41010064 <trap_handler_s__clear_highest_priority_interrupt>

0000000041010174 <trap_handler_s__test_failed>:
    41010174:	00f00f9b          	addiw	x31,x0,15
    41010178:	01cf9f93          	slli	x31,x31,0x1c
    4101017c:	002f8f93          	addi	x31,x31,2
    41010180:	00000073          	ecall

0000000041010184 <trap_handler_s__trap_handler>:
    41010184:	142022f3          	csrr	x5,scause
    41010188:	fff0031b          	addiw	x6,x0,-1
    4101018c:	03f31313          	slli	x6,x6,0x3f
    41010190:	00537333          	and	x6,x6,x5
    41010194:	02030263          	beqz	x6,410101b8 <trap_handler_s__exception_path>

0000000041010198 <trap_handler_s__interrupt_handler>:
    41010198:	fff0031b          	addiw	x6,x0,-1
    4101019c:	03f31313          	slli	x6,x6,0x3f
    410101a0:	0062c2b3          	xor	x5,x5,x6
    410101a4:	00000317          	auipc	x6,0x0
    410101a8:	ed430313          	addi	x6,x6,-300 # 41010078 <trap_handler_s__trap_entry>
    410101ac:	00229293          	slli	x5,x5,0x2
    410101b0:	005302b3          	add	x5,x6,x5
    410101b4:	00028067          	jr	x5 # 2000 <pma_region_1_size+0x1000>

00000000410101b8 <trap_handler_s__exception_path>:
    410101b8:	14021273          	csrrw	x4,sscratch,x4
    410101bc:	00000297          	auipc	x5,0x0
    410101c0:	0cc28293          	addi	x5,x5,204 # 41010288 <trap_handler_s__trap_panic>
    410101c4:	10529073          	csrw	stvec,x5
    410101c8:	0040006f          	j	410101cc <trap_handler_s__excp_entry>

00000000410101cc <trap_handler_s__excp_entry>:
    410101cc:	14202373          	csrr	x6,scause
    410101d0:	00800293          	li	x5,8
    410101d4:	00534863          	blt	x6,x5,410101e4 <trap_handler_s__check_exception_label>
    410101d8:	00b00293          	li	x5,11
    410101dc:	0062c463          	blt	x5,x6,410101e4 <trap_handler_s__check_exception_label>
    410101e0:	0a80006f          	j	41010288 <trap_handler_s__trap_panic>

00000000410101e4 <trap_handler_s__check_exception_label>:
    410101e4:	04623c23          	sd	x6,88(x4) # 58 <XLEN+0x18>
    410101e8:	141022f3          	csrr	x5,sepc
    410101ec:	02523423          	sd	x5,40(x4) # 28 <SECURE_ACCESS_PROBABILITY+0xa>
    410101f0:	01820283          	lb	x5,24(x4) # 18 <STORE_GUEST_PAGE_FAULT+0x1>
    410101f4:	00029863          	bnez	x5,41010204 <trap_handler_s__check_excp>
    410101f8:	00128293          	addi	x5,x5,1
    410101fc:	00520c23          	sb	x5,24(x4) # 18 <STORE_GUEST_PAGE_FAULT+0x1>
    41010200:	05c0006f          	j	4101025c <trap_handler_s__ecall_from_machine>

0000000041010204 <trap_handler_s__check_excp>:
    41010204:	06823283          	ld	x5,104(x4) # 68 <XLEN+0x28>
    41010208:	06023423          	sd	x0,104(x4) # 68 <XLEN+0x28>
    4101020c:	00028663          	beqz	x5,41010218 <trap_handler_s__skip_mode_check>
    41010210:	00300393          	li	x7,3
    41010214:	f67290e3          	bne	x5,x7,41010174 <trap_handler_s__test_failed>

0000000041010218 <trap_handler_s__skip_mode_check>:
    41010218:	05023283          	ld	x5,80(x4) # 50 <XLEN+0x10>
    4101021c:	04023823          	sd	x0,80(x4) # 50 <XLEN+0x10>
    41010220:	f4531ae3          	bne	x6,x5,41010174 <trap_handler_s__test_failed>
    41010224:	03823283          	ld	x5,56(x4) # 38 <SECURE_ACCESS_PROBABILITY+0x1a>
    41010228:	02023c23          	sd	x0,56(x4) # 38 <SECURE_ACCESS_PROBABILITY+0x1a>
    4101022c:	02029663          	bnez	x5,41010258 <trap_handler_s__skip_nonzero_tval_check>
    41010230:	02023303          	ld	x6,32(x4) # 20 <SECURE_ACCESS_PROBABILITY+0x2>
    41010234:	02023023          	sd	x0,32(x4) # 20 <SECURE_ACCESS_PROBABILITY+0x2>
    41010238:	02823283          	ld	x5,40(x4) # 28 <SECURE_ACCESS_PROBABILITY+0xa>
    4101023c:	02023423          	sd	x0,40(x4) # 28 <SECURE_ACCESS_PROBABILITY+0xa>
    41010240:	f2531ae3          	bne	x6,x5,41010174 <trap_handler_s__test_failed>
    41010244:	04023283          	ld	x5,64(x4) # 40 <XLEN>
    41010248:	04023023          	sd	x0,64(x4) # 40 <XLEN>
    4101024c:	00028663          	beqz	x5,41010258 <trap_handler_s__skip_nonzero_tval_check>

0000000041010250 <trap_handler_s__nonzero_tval_check>:
    41010250:	14302373          	csrr	x6,stval
    41010254:	f25310e3          	bne	x6,x5,41010174 <trap_handler_s__test_failed>

0000000041010258 <trap_handler_s__skip_nonzero_tval_check>:
    41010258:	0040006f          	j	4101025c <trap_handler_s__ecall_from_machine>

000000004101025c <trap_handler_s__ecall_from_machine>:
    4101025c:	03023283          	ld	x5,48(x4) # 30 <SECURE_ACCESS_PROBABILITY+0x12>
    41010260:	02023823          	sd	x0,48(x4) # 30 <SECURE_ACCESS_PROBABILITY+0x12>
    41010264:	07023303          	ld	x6,112(x4) # 70 <XLEN+0x30>
    41010268:	06023823          	sd	x0,112(x4) # 70 <XLEN+0x30>
    4101026c:	00031463          	bnez	x6,41010274 <trap_handler_s__skip_xepc_write>
    41010270:	14129073          	csrw	sepc,x5

0000000041010274 <trap_handler_s__skip_xepc_write>:
    41010274:	00000317          	auipc	x6,0x0
    41010278:	e0430313          	addi	x6,x6,-508 # 41010078 <trap_handler_s__trap_entry>
    4101027c:	10531073          	csrw	stvec,x6
    41010280:	14021273          	csrrw	x4,sscratch,x4
    41010284:	10200073          	sret

0000000041010288 <trap_handler_s__trap_panic>:
    41010288:	00000193          	li	x3,0
    4101028c:	00f00f9b          	addiw	x31,x0,15
    41010290:	01cf9f93          	slli	x31,x31,0x1c
    41010294:	002f8f93          	addi	x31,x31,2
    41010298:	00000073          	ecall

Disassembly of section .code:

00000000410140f0 <passed>:
    410140f0:	00f00f9b          	addiw	x31,x0,15
    410140f4:	01cf9f93          	slli	x31,x31,0x1c
    410140f8:	001f8f93          	addi	x31,x31,1
    410140fc:	00000073          	ecall

0000000041014100 <failed>:
    41014100:	00f00f9b          	addiw	x31,x0,15
    41014104:	01cf9f93          	slli	x31,x31,0x1c
    41014108:	002f8f93          	addi	x31,x31,2
    4101410c:	00000073          	ecall

0000000041014110 <end_test>:
    41014110:	00f00f9b          	addiw	x31,x0,15
    41014114:	01cf9f93          	slli	x31,x31,0x1c
    41014118:	003f8f93          	addi	x31,x31,3
    4101411c:	00000073          	ecall

0000000041014120 <test_setup>:
    41014120:	00f00f9b          	addiw	x31,x0,15
    41014124:	01cf9f93          	slli	x31,x31,0x1c
    41014128:	001f8f93          	addi	x31,x31,1
    4101412c:	00000073          	ecall

0000000041014130 <SID_SVINVAL_01_opcode_coverage>:
    41014130:	3a0c9137          	lui	x2,0x3a0c9
    41014134:	000012b7          	lui	x5,0x1
    41014138:	00510133          	add	x2,x2,x5
    4101413c:	ff017113          	andi	x2,x2,-16
    41014140:	03900f9b          	addiw	x31,x0,57
    41014144:	027f9f93          	slli	x31,x31,0x27
    41014148:	160f8073          	sinval.vma	x31,x0
    4101414c:	18000073          	sfence.w.inval
    41014150:	18100073          	sfence.inval.ir
    41014154:	00100f13          	li	x30,1
    41014158:	01ef0e63          	beq	x30,x30,41014174 <SID_SVINVAL_01_opcode_coverage_passed>
    4101415c:	00dc7437          	lui	x8,0xdc7
    41014160:	3ef4041b          	addiw	x8,x8,1007 # dc73ef <SID_SVINVAL_03_invalidation_sequence_1_stack+0x1633ef>
    41014164:	00e41413          	slli	x8,x8,0xe
    41014168:	00840413          	addi	x8,x8,8
    4101416c:	00043783          	ld	x15,0(x8)
    41014170:	00078067          	jr	x15

0000000041014174 <SID_SVINVAL_01_opcode_coverage_passed>:
    41014174:	00f00f9b          	addiw	x31,x0,15
    41014178:	01cf9f93          	slli	x31,x31,0x1c
    4101417c:	001f8f93          	addi	x31,x31,1
    41014180:	00000073          	ecall

0000000041014184 <SID_SVINVAL_03_invalidation_sequence_1>:
    41014184:	00c64137          	lui	x2,0xc64
    41014188:	000012b7          	lui	x5,0x1
    4101418c:	00510133          	add	x2,x2,x5
    41014190:	ff017113          	andi	x2,x2,-16
    41014194:	00500a9b          	addiw	x21,x0,5
    41014198:	027a9a93          	slli	x21,x21,0x27
    4101419c:	000acd83          	lbu	x27,0(x21)
    410141a0:	0000ea37          	lui	x20,0xe
    410141a4:	eada0a1b          	addiw	x20,x20,-339 # dead <mem10+0x2ead>
    410141a8:	36a82237          	lui	x4,0x36a82
    410141ac:	99d2021b          	addiw	x4,x4,-1635 # 36a8199d <mem1__pt_level2+0x74a599d>
    410141b0:	00d21213          	slli	x4,x4,0xd
    410141b4:	00f00e13          	li	x28,15
    410141b8:	05c23823          	sd	x28,80(x4) # 50 <XLEN+0x10>
    410141bc:	00000e17          	auipc	x28,0x0
    410141c0:	050e0e13          	addi	x28,x28,80 # 4101420c <fault_label_0>
    410141c4:	03c23023          	sd	x28,32(x4) # 20 <SECURE_ACCESS_PROBABILITY+0x2>
    410141c8:	00000e13          	li	x28,0
    410141cc:	05c23023          	sd	x28,64(x4) # 40 <XLEN>
    410141d0:	00000e13          	li	x28,0
    410141d4:	05c23423          	sd	x28,72(x4) # 48 <XLEN+0x8>
    410141d8:	00000e17          	auipc	x28,0x0
    410141dc:	050e0e13          	addi	x28,x28,80 # 41014228 <excp_return_label_0>
    410141e0:	03c23823          	sd	x28,48(x4) # 30 <SECURE_ACCESS_PROBABILITY+0x12>
    410141e4:	00000e13          	li	x28,0
    410141e8:	03c23c23          	sd	x28,56(x4) # 38 <SECURE_ACCESS_PROBABILITY+0x1a>
    410141ec:	00000e13          	li	x28,0
    410141f0:	07c23023          	sd	x28,96(x4) # 60 <XLEN+0x20>
    410141f4:	00000e13          	li	x28,0
    410141f8:	07c23423          	sd	x28,104(x4) # 68 <XLEN+0x28>
    410141fc:	00000e13          	li	x28,0
    41014200:	07c23823          	sd	x28,112(x4) # 70 <XLEN+0x30>
    41014204:	0050061b          	addiw	x12,x0,5
    41014208:	02761613          	slli	x12,x12,0x27

000000004101420c <fault_label_0>:
    4101420c:	01462023          	sw	x20,0(x12)
    41014210:	00dc74b7          	lui	x9,0xdc7
    41014214:	3ef4849b          	addiw	x9,x9,1007 # dc73ef <SID_SVINVAL_03_invalidation_sequence_1_stack+0x1633ef>
    41014218:	00e49493          	slli	x9,x9,0xe
    4101421c:	00848493          	addi	x9,x9,8
    41014220:	0004bc83          	ld	x25,0(x9)
    41014224:	000c8067          	jr	x25

0000000041014228 <excp_return_label_0>:
    41014228:	00dc7fb7          	lui	x31,0xdc7
    4101422c:	3eff8f9b          	addiw	x31,x31,1007 # dc73ef <SID_SVINVAL_03_invalidation_sequence_1_stack+0x1633ef>
    41014230:	00ef9f93          	slli	x31,x31,0xe
    41014234:	0b0f8f93          	addi	x31,x31,176
    41014238:	0050029b          	addiw	x5,x0,5
    4101423c:	02729293          	slli	x5,x5,0x27
    41014240:	005fb023          	sd	x5,0(x31)
    41014244:	00300293          	li	x5,3
    41014248:	005fb423          	sd	x5,8(x31)
    4101424c:	fff00293          	li	x5,-1
    41014250:	005fb823          	sd	x5,16(x31)
    41014254:	000f0fb7          	lui	x31,0xf0
    41014258:	001f8f9b          	addiw	x31,x31,1 # f0001 <SID_SVINVAL_14_sinval_vma_opcode_nonx0_nonx0_stack+0x9001>
    4101425c:	00cf9f93          	slli	x31,x31,0xc
    41014260:	007f8f93          	addi	x31,x31,7
    41014264:	00000073          	ecall
    41014268:	00038413          	mv	x8,x7
    4101426c:	00400c13          	li	x24,4
    41014270:	0183ee33          	or	x28,x7,x24
    41014274:	000e0393          	mv	x7,x28
    41014278:	00dc7fb7          	lui	x31,0xdc7
    4101427c:	3eff8f9b          	addiw	x31,x31,1007 # dc73ef <SID_SVINVAL_03_invalidation_sequence_1_stack+0x1633ef>
    41014280:	00ef9f93          	slli	x31,x31,0xe
    41014284:	0b0f8f93          	addi	x31,x31,176
    41014288:	0050029b          	addiw	x5,x0,5
    4101428c:	02729293          	slli	x5,x5,0x27
    41014290:	005fb023          	sd	x5,0(x31)
    41014294:	00300293          	li	x5,3
    41014298:	005fb423          	sd	x5,8(x31)
    4101429c:	fff00293          	li	x5,-1
    410142a0:	005fb823          	sd	x5,16(x31)
    410142a4:	000f0fb7          	lui	x31,0xf0
    410142a8:	001f8f9b          	addiw	x31,x31,1 # f0001 <SID_SVINVAL_14_sinval_vma_opcode_nonx0_nonx0_stack+0x9001>
    410142ac:	00cf9f93          	slli	x31,x31,0xc
    410142b0:	008f8f93          	addi	x31,x31,8
    410142b4:	00000073          	ecall
    410142b8:	18000073          	sfence.w.inval
    410142bc:	0050049b          	addiw	x9,x0,5
    410142c0:	02749493          	slli	x9,x9,0x27
    410142c4:	16048073          	sinval.vma	x9,x0
    410142c8:	18100073          	sfence.inval.ir
    410142cc:	0050031b          	addiw	x6,x0,5
    410142d0:	02731313          	slli	x6,x6,0x27
    410142d4:	01432023          	sw	x20,0(x6)
    410142d8:	00dc7fb7          	lui	x31,0xdc7
    410142dc:	3eff8f9b          	addiw	x31,x31,1007 # dc73ef <SID_SVINVAL_03_invalidation_sequence_1_stack+0x1633ef>
    410142e0:	00ef9f93          	slli	x31,x31,0xe
    410142e4:	0b0f8f93          	addi	x31,x31,176
    410142e8:	0050029b          	addiw	x5,x0,5
    410142ec:	02729293          	slli	x5,x5,0x27
    410142f0:	005fb023          	sd	x5,0(x31)
    410142f4:	00300293          	li	x5,3
    410142f8:	005fb423          	sd	x5,8(x31)
    410142fc:	fff00293          	li	x5,-1
    41014300:	005fb823          	sd	x5,16(x31)
    41014304:	000f0fb7          	lui	x31,0xf0
    41014308:	001f8f9b          	addiw	x31,x31,1 # f0001 <SID_SVINVAL_14_sinval_vma_opcode_nonx0_nonx0_stack+0x9001>
    4101430c:	00cf9f93          	slli	x31,x31,0xc
    41014310:	007f8f93          	addi	x31,x31,7
    41014314:	00000073          	ecall
    41014318:	00038a13          	mv	x20,x7
    4101431c:	01441e63          	bne	x8,x20,41014338 <SID_SVINVAL_03_invalidation_sequence_1_passed>
    41014320:	00dc7fb7          	lui	x31,0xdc7
    41014324:	3eff8f9b          	addiw	x31,x31,1007 # dc73ef <SID_SVINVAL_03_invalidation_sequence_1_stack+0x1633ef>
    41014328:	00ef9f93          	slli	x31,x31,0xe
    4101432c:	008f8f93          	addi	x31,x31,8
    41014330:	000fb983          	ld	x19,0(x31)
    41014334:	00098067          	jr	x19

0000000041014338 <SID_SVINVAL_03_invalidation_sequence_1_passed>:
    41014338:	00f00f9b          	addiw	x31,x0,15
    4101433c:	01cf9f93          	slli	x31,x31,0x1c
    41014340:	001f8f93          	addi	x31,x31,1
    41014344:	00000073          	ecall

0000000041014348 <SID_SVINVAL_04_invalidation_sequence_2_multiple_vas>:
    41014348:	000ff137          	lui	x2,0xff
    4101434c:	fbf1011b          	addiw	x2,x2,-65 # fefbf <SID_SVINVAL_14_sinval_vma_opcode_nonx0_nonx0_stack+0x17fbf>
    41014350:	00e11113          	slli	x2,x2,0xe
    41014354:	000012b7          	lui	x5,0x1
    41014358:	00510133          	add	x2,x2,x5
    4101435c:	ff017113          	andi	x2,x2,-16
    41014360:	0210099b          	addiw	x19,x0,33
    41014364:	01c99993          	slli	x19,x19,0x1c
    41014368:	00198993          	addi	x19,x19,1
    4101436c:	00c99993          	slli	x19,x19,0xc
    41014370:	00099f03          	lh	x30,0(x19)
    41014374:	24000337          	lui	x6,0x24000
    41014378:	0013031b          	addiw	x6,x6,1 # 24000001 <mem5__pt_level0+0x88a2001>
    4101437c:	00d31313          	slli	x6,x6,0xd
    41014380:	00034c03          	lbu	x24,0(x6)
    41014384:	32000737          	lui	x14,0x32000
    41014388:	0017071b          	addiw	x14,x14,1 # 32000001 <mem1__pt_level2+0x2a24001>
    4101438c:	00e71713          	slli	x14,x14,0xe
    41014390:	00072c03          	lw	x24,0(x14)
    41014394:	0000ecb7          	lui	x25,0xe
    41014398:	eadc8c9b          	addiw	x25,x25,-339 # dead <mem10+0x2ead>
    4101439c:	36a82237          	lui	x4,0x36a82
    410143a0:	99d2021b          	addiw	x4,x4,-1635 # 36a8199d <mem1__pt_level2+0x74a599d>
    410143a4:	00d21213          	slli	x4,x4,0xd
    410143a8:	00f00e13          	li	x28,15
    410143ac:	05c23823          	sd	x28,80(x4) # 50 <XLEN+0x10>
    410143b0:	00000e17          	auipc	x28,0x0
    410143b4:	058e0e13          	addi	x28,x28,88 # 41014408 <fault_label_1>
    410143b8:	03c23023          	sd	x28,32(x4) # 20 <SECURE_ACCESS_PROBABILITY+0x2>
    410143bc:	00000e13          	li	x28,0
    410143c0:	05c23023          	sd	x28,64(x4) # 40 <XLEN>
    410143c4:	00000e13          	li	x28,0
    410143c8:	05c23423          	sd	x28,72(x4) # 48 <XLEN+0x8>
    410143cc:	00000e17          	auipc	x28,0x0
    410143d0:	058e0e13          	addi	x28,x28,88 # 41014424 <excp_return_label_1>
    410143d4:	03c23823          	sd	x28,48(x4) # 30 <SECURE_ACCESS_PROBABILITY+0x12>
    410143d8:	00000e13          	li	x28,0
    410143dc:	03c23c23          	sd	x28,56(x4) # 38 <SECURE_ACCESS_PROBABILITY+0x1a>
    410143e0:	00000e13          	li	x28,0
    410143e4:	07c23023          	sd	x28,96(x4) # 60 <XLEN+0x20>
    410143e8:	00000e13          	li	x28,0
    410143ec:	07c23423          	sd	x28,104(x4) # 68 <XLEN+0x28>
    410143f0:	00000e13          	li	x28,0
    410143f4:	07c23823          	sd	x28,112(x4) # 70 <XLEN+0x30>
    410143f8:	02100d1b          	addiw	x26,x0,33
    410143fc:	01cd1d13          	slli	x26,x26,0x1c
    41014400:	001d0d13          	addi	x26,x26,1
    41014404:	00cd1d13          	slli	x26,x26,0xc

0000000041014408 <fault_label_1>:
    41014408:	019d0023          	sb	x25,0(x26)
    4101440c:	00dc7eb7          	lui	x29,0xdc7
    41014410:	3efe8e9b          	addiw	x29,x29,1007 # dc73ef <SID_SVINVAL_03_invalidation_sequence_1_stack+0x1633ef>
    41014414:	00ee9e93          	slli	x29,x29,0xe
    41014418:	008e8e93          	addi	x29,x29,8
    4101441c:	000eb783          	ld	x15,0(x29)
    41014420:	00078067          	jr	x15

0000000041014424 <excp_return_label_1>:
    41014424:	36a82237          	lui	x4,0x36a82
    41014428:	99d2021b          	addiw	x4,x4,-1635 # 36a8199d <mem1__pt_level2+0x74a599d>
    4101442c:	00d21213          	slli	x4,x4,0xd
    41014430:	00f00e13          	li	x28,15
    41014434:	05c23823          	sd	x28,80(x4) # 50 <XLEN+0x10>
    41014438:	00000e17          	auipc	x28,0x0
    4101443c:	054e0e13          	addi	x28,x28,84 # 4101448c <fault_label_2>
    41014440:	03c23023          	sd	x28,32(x4) # 20 <SECURE_ACCESS_PROBABILITY+0x2>
    41014444:	00000e13          	li	x28,0
    41014448:	05c23023          	sd	x28,64(x4) # 40 <XLEN>
    4101444c:	00000e13          	li	x28,0
    41014450:	05c23423          	sd	x28,72(x4) # 48 <XLEN+0x8>
    41014454:	00000e17          	auipc	x28,0x0
    41014458:	054e0e13          	addi	x28,x28,84 # 410144a8 <excp_return_label_2>
    4101445c:	03c23823          	sd	x28,48(x4) # 30 <SECURE_ACCESS_PROBABILITY+0x12>
    41014460:	00000e13          	li	x28,0
    41014464:	03c23c23          	sd	x28,56(x4) # 38 <SECURE_ACCESS_PROBABILITY+0x1a>
    41014468:	00000e13          	li	x28,0
    4101446c:	07c23023          	sd	x28,96(x4) # 60 <XLEN+0x20>
    41014470:	00000e13          	li	x28,0
    41014474:	07c23423          	sd	x28,104(x4) # 68 <XLEN+0x28>
    41014478:	00000e13          	li	x28,0
    4101447c:	07c23823          	sd	x28,112(x4) # 70 <XLEN+0x30>
    41014480:	24000ab7          	lui	x21,0x24000
    41014484:	001a8a9b          	addiw	x21,x21,1 # 24000001 <mem5__pt_level0+0x88a2001>
    41014488:	00da9a93          	slli	x21,x21,0xd

000000004101448c <fault_label_2>:
    4101448c:	019a8023          	sb	x25,0(x21)
    41014490:	00dc7837          	lui	x16,0xdc7
    41014494:	3ef8081b          	addiw	x16,x16,1007 # dc73ef <SID_SVINVAL_03_invalidation_sequence_1_stack+0x1633ef>
    41014498:	00e81813          	slli	x16,x16,0xe
    4101449c:	00880813          	addi	x16,x16,8
    410144a0:	00083e83          	ld	x29,0(x16)
    410144a4:	000e8067          	jr	x29

00000000410144a8 <excp_return_label_2>:
    410144a8:	36a82237          	lui	x4,0x36a82
    410144ac:	99d2021b          	addiw	x4,x4,-1635 # 36a8199d <mem1__pt_level2+0x74a599d>
    410144b0:	00d21213          	slli	x4,x4,0xd
    410144b4:	00f00e13          	li	x28,15
    410144b8:	05c23823          	sd	x28,80(x4) # 50 <XLEN+0x10>
    410144bc:	00000e17          	auipc	x28,0x0
    410144c0:	054e0e13          	addi	x28,x28,84 # 41014510 <fault_label_3>
    410144c4:	03c23023          	sd	x28,32(x4) # 20 <SECURE_ACCESS_PROBABILITY+0x2>
    410144c8:	00000e13          	li	x28,0
    410144cc:	05c23023          	sd	x28,64(x4) # 40 <XLEN>
    410144d0:	00000e13          	li	x28,0
    410144d4:	05c23423          	sd	x28,72(x4) # 48 <XLEN+0x8>
    410144d8:	00000e17          	auipc	x28,0x0
    410144dc:	054e0e13          	addi	x28,x28,84 # 4101452c <excp_return_label_3>
    410144e0:	03c23823          	sd	x28,48(x4) # 30 <SECURE_ACCESS_PROBABILITY+0x12>
    410144e4:	00000e13          	li	x28,0
    410144e8:	03c23c23          	sd	x28,56(x4) # 38 <SECURE_ACCESS_PROBABILITY+0x1a>
    410144ec:	00000e13          	li	x28,0
    410144f0:	07c23023          	sd	x28,96(x4) # 60 <XLEN+0x20>
    410144f4:	00000e13          	li	x28,0
    410144f8:	07c23423          	sd	x28,104(x4) # 68 <XLEN+0x28>
    410144fc:	00000e13          	li	x28,0
    41014500:	07c23823          	sd	x28,112(x4) # 70 <XLEN+0x30>
    41014504:	320008b7          	lui	x17,0x32000
    41014508:	0018889b          	addiw	x17,x17,1 # 32000001 <mem1__pt_level2+0x2a24001>
    4101450c:	00e89893          	slli	x17,x17,0xe

0000000041014510 <fault_label_3>:
    41014510:	01988023          	sb	x25,0(x17)
    41014514:	00dc78b7          	lui	x17,0xdc7
    41014518:	3ef8889b          	addiw	x17,x17,1007 # dc73ef <SID_SVINVAL_03_invalidation_sequence_1_stack+0x1633ef>
    4101451c:	00e89893          	slli	x17,x17,0xe
    41014520:	00888893          	addi	x17,x17,8
    41014524:	0008b983          	ld	x19,0(x17)
    41014528:	00098067          	jr	x19

000000004101452c <excp_return_label_3>:
    4101452c:	00dc7fb7          	lui	x31,0xdc7
    41014530:	3eff8f9b          	addiw	x31,x31,1007 # dc73ef <SID_SVINVAL_03_invalidation_sequence_1_stack+0x1633ef>
    41014534:	00ef9f93          	slli	x31,x31,0xe
    41014538:	0b0f8f93          	addi	x31,x31,176
    4101453c:	0210029b          	addiw	x5,x0,33
    41014540:	01c29293          	slli	x5,x5,0x1c
    41014544:	00128293          	addi	x5,x5,1 # 1001 <pma_region_1_size+0x1>
    41014548:	00c29293          	slli	x5,x5,0xc
    4101454c:	005fb023          	sd	x5,0(x31)
    41014550:	00300293          	li	x5,3
    41014554:	005fb423          	sd	x5,8(x31)
    41014558:	fff00293          	li	x5,-1
    4101455c:	005fb823          	sd	x5,16(x31)
    41014560:	000f0fb7          	lui	x31,0xf0
    41014564:	001f8f9b          	addiw	x31,x31,1 # f0001 <SID_SVINVAL_14_sinval_vma_opcode_nonx0_nonx0_stack+0x9001>
    41014568:	00cf9f93          	slli	x31,x31,0xc
    4101456c:	007f8f93          	addi	x31,x31,7
    41014570:	00000073          	ecall
    41014574:	00038b93          	mv	x23,x7
    41014578:	00400413          	li	x8,4
    4101457c:	0083e733          	or	x14,x7,x8
    41014580:	00070393          	mv	x7,x14
    41014584:	00dc7fb7          	lui	x31,0xdc7
    41014588:	3eff8f9b          	addiw	x31,x31,1007 # dc73ef <SID_SVINVAL_03_invalidation_sequence_1_stack+0x1633ef>
    4101458c:	00ef9f93          	slli	x31,x31,0xe
    41014590:	0b0f8f93          	addi	x31,x31,176
    41014594:	0210029b          	addiw	x5,x0,33
    41014598:	01c29293          	slli	x5,x5,0x1c
    4101459c:	00128293          	addi	x5,x5,1
    410145a0:	00c29293          	slli	x5,x5,0xc
    410145a4:	005fb023          	sd	x5,0(x31)
    410145a8:	00300293          	li	x5,3
    410145ac:	005fb423          	sd	x5,8(x31)
    410145b0:	fff00293          	li	x5,-1
    410145b4:	005fb823          	sd	x5,16(x31)
    410145b8:	000f0fb7          	lui	x31,0xf0
    410145bc:	001f8f9b          	addiw	x31,x31,1 # f0001 <SID_SVINVAL_14_sinval_vma_opcode_nonx0_nonx0_stack+0x9001>
    410145c0:	00cf9f93          	slli	x31,x31,0xc
    410145c4:	008f8f93          	addi	x31,x31,8
    410145c8:	00000073          	ecall
    410145cc:	00dc7fb7          	lui	x31,0xdc7
    410145d0:	3eff8f9b          	addiw	x31,x31,1007 # dc73ef <SID_SVINVAL_03_invalidation_sequence_1_stack+0x1633ef>
    410145d4:	00ef9f93          	slli	x31,x31,0xe
    410145d8:	0b0f8f93          	addi	x31,x31,176
    410145dc:	240002b7          	lui	x5,0x24000
    410145e0:	0012829b          	addiw	x5,x5,1 # 24000001 <mem5__pt_level0+0x88a2001>
    410145e4:	00d29293          	slli	x5,x5,0xd
    410145e8:	005fb023          	sd	x5,0(x31)
    410145ec:	00300293          	li	x5,3
    410145f0:	005fb423          	sd	x5,8(x31)
    410145f4:	fff00293          	li	x5,-1
    410145f8:	005fb823          	sd	x5,16(x31)
    410145fc:	000f0fb7          	lui	x31,0xf0
    41014600:	001f8f9b          	addiw	x31,x31,1 # f0001 <SID_SVINVAL_14_sinval_vma_opcode_nonx0_nonx0_stack+0x9001>
    41014604:	00cf9f93          	slli	x31,x31,0xc
    41014608:	007f8f93          	addi	x31,x31,7
    4101460c:	00000073          	ecall
    41014610:	00038713          	mv	x14,x7
    41014614:	00400993          	li	x19,4
    41014618:	0133e633          	or	x12,x7,x19
    4101461c:	00060393          	mv	x7,x12
    41014620:	00dc7fb7          	lui	x31,0xdc7
    41014624:	3eff8f9b          	addiw	x31,x31,1007 # dc73ef <SID_SVINVAL_03_invalidation_sequence_1_stack+0x1633ef>
    41014628:	00ef9f93          	slli	x31,x31,0xe
    4101462c:	0b0f8f93          	addi	x31,x31,176
    41014630:	240002b7          	lui	x5,0x24000
    41014634:	0012829b          	addiw	x5,x5,1 # 24000001 <mem5__pt_level0+0x88a2001>
    41014638:	00d29293          	slli	x5,x5,0xd
    4101463c:	005fb023          	sd	x5,0(x31)
    41014640:	00300293          	li	x5,3
    41014644:	005fb423          	sd	x5,8(x31)
    41014648:	fff00293          	li	x5,-1
    4101464c:	005fb823          	sd	x5,16(x31)
    41014650:	000f0fb7          	lui	x31,0xf0
    41014654:	001f8f9b          	addiw	x31,x31,1 # f0001 <SID_SVINVAL_14_sinval_vma_opcode_nonx0_nonx0_stack+0x9001>
    41014658:	00cf9f93          	slli	x31,x31,0xc
    4101465c:	008f8f93          	addi	x31,x31,8
    41014660:	00000073          	ecall
    41014664:	00dc7fb7          	lui	x31,0xdc7
    41014668:	3eff8f9b          	addiw	x31,x31,1007 # dc73ef <SID_SVINVAL_03_invalidation_sequence_1_stack+0x1633ef>
    4101466c:	00ef9f93          	slli	x31,x31,0xe
    41014670:	0b0f8f93          	addi	x31,x31,176
    41014674:	320002b7          	lui	x5,0x32000
    41014678:	0012829b          	addiw	x5,x5,1 # 32000001 <mem1__pt_level2+0x2a24001>
    4101467c:	00e29293          	slli	x5,x5,0xe
    41014680:	005fb023          	sd	x5,0(x31)
    41014684:	00300293          	li	x5,3
    41014688:	005fb423          	sd	x5,8(x31)
    4101468c:	fff00293          	li	x5,-1
    41014690:	005fb823          	sd	x5,16(x31)
    41014694:	000f0fb7          	lui	x31,0xf0
    41014698:	001f8f9b          	addiw	x31,x31,1 # f0001 <SID_SVINVAL_14_sinval_vma_opcode_nonx0_nonx0_stack+0x9001>
    4101469c:	00cf9f93          	slli	x31,x31,0xc
    410146a0:	007f8f93          	addi	x31,x31,7
    410146a4:	00000073          	ecall
    410146a8:	00038a13          	mv	x20,x7
    410146ac:	00400613          	li	x12,4
    410146b0:	00c3ef33          	or	x30,x7,x12
    410146b4:	000f0393          	mv	x7,x30
    410146b8:	00dc7fb7          	lui	x31,0xdc7
    410146bc:	3eff8f9b          	addiw	x31,x31,1007 # dc73ef <SID_SVINVAL_03_invalidation_sequence_1_stack+0x1633ef>
    410146c0:	00ef9f93          	slli	x31,x31,0xe
    410146c4:	0b0f8f93          	addi	x31,x31,176
    410146c8:	320002b7          	lui	x5,0x32000
    410146cc:	0012829b          	addiw	x5,x5,1 # 32000001 <mem1__pt_level2+0x2a24001>
    410146d0:	00e29293          	slli	x5,x5,0xe
    410146d4:	005fb023          	sd	x5,0(x31)
    410146d8:	00300293          	li	x5,3
    410146dc:	005fb423          	sd	x5,8(x31)
    410146e0:	fff00293          	li	x5,-1
    410146e4:	005fb823          	sd	x5,16(x31)
    410146e8:	000f0fb7          	lui	x31,0xf0
    410146ec:	001f8f9b          	addiw	x31,x31,1 # f0001 <SID_SVINVAL_14_sinval_vma_opcode_nonx0_nonx0_stack+0x9001>
    410146f0:	00cf9f93          	slli	x31,x31,0xc
    410146f4:	008f8f93          	addi	x31,x31,8
    410146f8:	00000073          	ecall
    410146fc:	18000073          	sfence.w.inval
    41014700:	0210069b          	addiw	x13,x0,33
    41014704:	01c69693          	slli	x13,x13,0x1c
    41014708:	00168693          	addi	x13,x13,1
    4101470c:	00c69693          	slli	x13,x13,0xc
    41014710:	16068073          	sinval.vma	x13,x0
    41014714:	24000d37          	lui	x26,0x24000
    41014718:	001d0d1b          	addiw	x26,x26,1 # 24000001 <mem5__pt_level0+0x88a2001>
    4101471c:	00dd1d13          	slli	x26,x26,0xd
    41014720:	160d0073          	sinval.vma	x26,x0
    41014724:	320009b7          	lui	x19,0x32000
    41014728:	0019899b          	addiw	x19,x19,1 # 32000001 <mem1__pt_level2+0x2a24001>
    4101472c:	00e99993          	slli	x19,x19,0xe
    41014730:	16098073          	sinval.vma	x19,x0
    41014734:	18100073          	sfence.inval.ir
    41014738:	02100e9b          	addiw	x29,x0,33
    4101473c:	01ce9e93          	slli	x29,x29,0x1c
    41014740:	001e8e93          	addi	x29,x29,1
    41014744:	00ce9e93          	slli	x29,x29,0xc
    41014748:	d00cf8d3          	fcvt.s.w	f17,x25
    4101474c:	011ea027          	fsw	f17,0(x29)
    41014750:	24000eb7          	lui	x29,0x24000
    41014754:	001e8e9b          	addiw	x29,x29,1 # 24000001 <mem5__pt_level0+0x88a2001>
    41014758:	00de9e93          	slli	x29,x29,0xd
    4101475c:	d21c83d3          	fcvt.d.wu	f7,x25
    41014760:	007eb027          	fsd	f7,0(x29)
    41014764:	32000c37          	lui	x24,0x32000
    41014768:	001c0c1b          	addiw	x24,x24,1 # 32000001 <mem1__pt_level2+0x2a24001>
    4101476c:	00ec1c13          	slli	x24,x24,0xe
    41014770:	019c0023          	sb	x25,0(x24)
    41014774:	00dc7fb7          	lui	x31,0xdc7
    41014778:	3eff8f9b          	addiw	x31,x31,1007 # dc73ef <SID_SVINVAL_03_invalidation_sequence_1_stack+0x1633ef>
    4101477c:	00ef9f93          	slli	x31,x31,0xe
    41014780:	0b0f8f93          	addi	x31,x31,176
    41014784:	0210029b          	addiw	x5,x0,33
    41014788:	01c29293          	slli	x5,x5,0x1c
    4101478c:	00128293          	addi	x5,x5,1
    41014790:	00c29293          	slli	x5,x5,0xc
    41014794:	005fb023          	sd	x5,0(x31)
    41014798:	00300293          	li	x5,3
    4101479c:	005fb423          	sd	x5,8(x31)
    410147a0:	fff00293          	li	x5,-1
    410147a4:	005fb823          	sd	x5,16(x31)
    410147a8:	000f0fb7          	lui	x31,0xf0
    410147ac:	001f8f9b          	addiw	x31,x31,1 # f0001 <SID_SVINVAL_14_sinval_vma_opcode_nonx0_nonx0_stack+0x9001>
    410147b0:	00cf9f93          	slli	x31,x31,0xc
    410147b4:	007f8f93          	addi	x31,x31,7
    410147b8:	00000073          	ecall
    410147bc:	00038893          	mv	x17,x7
    410147c0:	00dc7fb7          	lui	x31,0xdc7
    410147c4:	3eff8f9b          	addiw	x31,x31,1007 # dc73ef <SID_SVINVAL_03_invalidation_sequence_1_stack+0x1633ef>
    410147c8:	00ef9f93          	slli	x31,x31,0xe
    410147cc:	0b0f8f93          	addi	x31,x31,176
    410147d0:	240002b7          	lui	x5,0x24000
    410147d4:	0012829b          	addiw	x5,x5,1 # 24000001 <mem5__pt_level0+0x88a2001>
    410147d8:	00d29293          	slli	x5,x5,0xd
    410147dc:	005fb023          	sd	x5,0(x31)
    410147e0:	00300293          	li	x5,3
    410147e4:	005fb423          	sd	x5,8(x31)
    410147e8:	fff00293          	li	x5,-1
    410147ec:	005fb823          	sd	x5,16(x31)
    410147f0:	000f0fb7          	lui	x31,0xf0
    410147f4:	001f8f9b          	addiw	x31,x31,1 # f0001 <SID_SVINVAL_14_sinval_vma_opcode_nonx0_nonx0_stack+0x9001>
    410147f8:	00cf9f93          	slli	x31,x31,0xc
    410147fc:	007f8f93          	addi	x31,x31,7
    41014800:	00000073          	ecall
    41014804:	00038c13          	mv	x24,x7
    41014808:	00dc7fb7          	lui	x31,0xdc7
    4101480c:	3eff8f9b          	addiw	x31,x31,1007 # dc73ef <SID_SVINVAL_03_invalidation_sequence_1_stack+0x1633ef>
    41014810:	00ef9f93          	slli	x31,x31,0xe
    41014814:	0b0f8f93          	addi	x31,x31,176
    41014818:	320002b7          	lui	x5,0x32000
    4101481c:	0012829b          	addiw	x5,x5,1 # 32000001 <mem1__pt_level2+0x2a24001>
    41014820:	00e29293          	slli	x5,x5,0xe
    41014824:	005fb023          	sd	x5,0(x31)
    41014828:	00300293          	li	x5,3
    4101482c:	005fb423          	sd	x5,8(x31)
    41014830:	fff00293          	li	x5,-1
    41014834:	005fb823          	sd	x5,16(x31)
    41014838:	000f0fb7          	lui	x31,0xf0
    4101483c:	001f8f9b          	addiw	x31,x31,1 # f0001 <SID_SVINVAL_14_sinval_vma_opcode_nonx0_nonx0_stack+0x9001>
    41014840:	00cf9f93          	slli	x31,x31,0xc
    41014844:	007f8f93          	addi	x31,x31,7
    41014848:	00000073          	ecall
    4101484c:	00038d13          	mv	x26,x7
    41014850:	011b9e63          	bne	x23,x17,4101486c <pass_label_2>
    41014854:	00dc7437          	lui	x8,0xdc7
    41014858:	3ef4041b          	addiw	x8,x8,1007 # dc73ef <SID_SVINVAL_03_invalidation_sequence_1_stack+0x1633ef>
    4101485c:	00e41413          	slli	x8,x8,0xe
    41014860:	00840413          	addi	x8,x8,8
    41014864:	00043383          	ld	x7,0(x8)
    41014868:	00038067          	jr	x7

000000004101486c <pass_label_2>:
    4101486c:	01871e63          	bne	x14,x24,41014888 <pass_label_3>
    41014870:	00dc7537          	lui	x10,0xdc7
    41014874:	3ef5051b          	addiw	x10,x10,1007 # dc73ef <SID_SVINVAL_03_invalidation_sequence_1_stack+0x1633ef>
    41014878:	00e51513          	slli	x10,x10,0xe
    4101487c:	00850513          	addi	x10,x10,8
    41014880:	00053e83          	ld	x29,0(x10)
    41014884:	000e8067          	jr	x29

0000000041014888 <pass_label_3>:
    41014888:	01aa1e63          	bne	x20,x26,410148a4 <SID_SVINVAL_04_invalidation_sequence_2_multiple_vas_passed>
    4101488c:	00dc7337          	lui	x6,0xdc7
    41014890:	3ef3031b          	addiw	x6,x6,1007 # dc73ef <SID_SVINVAL_03_invalidation_sequence_1_stack+0x1633ef>
    41014894:	00e31313          	slli	x6,x6,0xe
    41014898:	00830313          	addi	x6,x6,8
    4101489c:	00033a03          	ld	x20,0(x6)
    410148a0:	000a0067          	jr	x20

00000000410148a4 <SID_SVINVAL_04_invalidation_sequence_2_multiple_vas_passed>:
    410148a4:	00f00f9b          	addiw	x31,x0,15
    410148a8:	01cf9f93          	slli	x31,x31,0x1c
    410148ac:	001f8f93          	addi	x31,x31,1
    410148b0:	00000073          	ecall

00000000410148b4 <SID_SVINVAL_05_non_consecutive_invalidation>:
    410148b4:	28000137          	lui	x2,0x28000
    410148b8:	0011011b          	addiw	x2,x2,1 # 28000001 <mem5__pt_level0+0xc8a2001>
    410148bc:	00d11113          	slli	x2,x2,0xd
    410148c0:	000012b7          	lui	x5,0x1
    410148c4:	00510133          	add	x2,x2,x5
    410148c8:	ff017113          	andi	x2,x2,-16
    410148cc:	00700d9b          	addiw	x27,x0,7
    410148d0:	029d9d93          	slli	x27,x27,0x29
    410148d4:	000deb03          	lwu	x22,0(x27)
    410148d8:	0000e5b7          	lui	x11,0xe
    410148dc:	ead5859b          	addiw	x11,x11,-339 # dead <mem10+0x2ead>
    410148e0:	36a82237          	lui	x4,0x36a82
    410148e4:	99d2021b          	addiw	x4,x4,-1635 # 36a8199d <mem1__pt_level2+0x74a599d>
    410148e8:	00d21213          	slli	x4,x4,0xd
    410148ec:	00f00e13          	li	x28,15
    410148f0:	05c23823          	sd	x28,80(x4) # 50 <XLEN+0x10>
    410148f4:	00000e17          	auipc	x28,0x0
    410148f8:	050e0e13          	addi	x28,x28,80 # 41014944 <fault_label_4>
    410148fc:	03c23023          	sd	x28,32(x4) # 20 <SECURE_ACCESS_PROBABILITY+0x2>
    41014900:	00000e13          	li	x28,0
    41014904:	05c23023          	sd	x28,64(x4) # 40 <XLEN>
    41014908:	00000e13          	li	x28,0
    4101490c:	05c23423          	sd	x28,72(x4) # 48 <XLEN+0x8>
    41014910:	00000e17          	auipc	x28,0x0
    41014914:	050e0e13          	addi	x28,x28,80 # 41014960 <excp_return_label_4>
    41014918:	03c23823          	sd	x28,48(x4) # 30 <SECURE_ACCESS_PROBABILITY+0x12>
    4101491c:	00000e13          	li	x28,0
    41014920:	03c23c23          	sd	x28,56(x4) # 38 <SECURE_ACCESS_PROBABILITY+0x1a>
    41014924:	00000e13          	li	x28,0
    41014928:	07c23023          	sd	x28,96(x4) # 60 <XLEN+0x20>
    4101492c:	00000e13          	li	x28,0
    41014930:	07c23423          	sd	x28,104(x4) # 68 <XLEN+0x28>
    41014934:	00000e13          	li	x28,0
    41014938:	07c23823          	sd	x28,112(x4) # 70 <XLEN+0x30>
    4101493c:	00700b1b          	addiw	x22,x0,7
    41014940:	029b1b13          	slli	x22,x22,0x29

0000000041014944 <fault_label_4>:
    41014944:	00bb2023          	sw	x11,0(x22)
    41014948:	00dc7637          	lui	x12,0xdc7
    4101494c:	3ef6061b          	addiw	x12,x12,1007 # dc73ef <SID_SVINVAL_03_invalidation_sequence_1_stack+0x1633ef>
    41014950:	00e61613          	slli	x12,x12,0xe
    41014954:	00860613          	addi	x12,x12,8
    41014958:	00063c83          	ld	x25,0(x12)
    4101495c:	000c8067          	jr	x25

0000000041014960 <excp_return_label_4>:
    41014960:	00dc7fb7          	lui	x31,0xdc7
    41014964:	3eff8f9b          	addiw	x31,x31,1007 # dc73ef <SID_SVINVAL_03_invalidation_sequence_1_stack+0x1633ef>
    41014968:	00ef9f93          	slli	x31,x31,0xe
    4101496c:	0b0f8f93          	addi	x31,x31,176
    41014970:	0070029b          	addiw	x5,x0,7
    41014974:	02929293          	slli	x5,x5,0x29
    41014978:	005fb023          	sd	x5,0(x31)
    4101497c:	00300293          	li	x5,3
    41014980:	005fb423          	sd	x5,8(x31)
    41014984:	fff00293          	li	x5,-1
    41014988:	005fb823          	sd	x5,16(x31)
    4101498c:	000f0fb7          	lui	x31,0xf0
    41014990:	001f8f9b          	addiw	x31,x31,1 # f0001 <SID_SVINVAL_14_sinval_vma_opcode_nonx0_nonx0_stack+0x9001>
    41014994:	00cf9f93          	slli	x31,x31,0xc
    41014998:	007f8f93          	addi	x31,x31,7
    4101499c:	00000073          	ecall
    410149a0:	00038b93          	mv	x23,x7
    410149a4:	00400a13          	li	x20,4
    410149a8:	0143eeb3          	or	x29,x7,x20
    410149ac:	000e8393          	mv	x7,x29
    410149b0:	00dc7fb7          	lui	x31,0xdc7
    410149b4:	3eff8f9b          	addiw	x31,x31,1007 # dc73ef <SID_SVINVAL_03_invalidation_sequence_1_stack+0x1633ef>
    410149b8:	00ef9f93          	slli	x31,x31,0xe
    410149bc:	0b0f8f93          	addi	x31,x31,176
    410149c0:	0070029b          	addiw	x5,x0,7
    410149c4:	02929293          	slli	x5,x5,0x29
    410149c8:	005fb023          	sd	x5,0(x31)
    410149cc:	00300293          	li	x5,3
    410149d0:	005fb423          	sd	x5,8(x31)
    410149d4:	fff00293          	li	x5,-1
    410149d8:	005fb823          	sd	x5,16(x31)
    410149dc:	000f0fb7          	lui	x31,0xf0
    410149e0:	001f8f9b          	addiw	x31,x31,1 # f0001 <SID_SVINVAL_14_sinval_vma_opcode_nonx0_nonx0_stack+0x9001>
    410149e4:	00cf9f93          	slli	x31,x31,0xc
    410149e8:	008f8f93          	addi	x31,x31,8
    410149ec:	00000073          	ecall
    410149f0:	18000073          	sfence.w.inval
    410149f4:	000383b7          	lui	x7,0x38
    410149f8:	7eb3839b          	addiw	x7,x7,2027 # 387eb <mem2__pt_level3+0x15db>
    410149fc:	00e39393          	slli	x7,x7,0xe
    41014a00:	9da38393          	addi	x7,x7,-1574
    41014a04:	00016337          	lui	x6,0x16
    41014a08:	7f53031b          	addiw	x6,x6,2037 # 167f5 <mem5__pt_level1+0x57f5>
    41014a0c:	00f31313          	slli	x6,x6,0xf
    41014a10:	aaa30313          	addi	x6,x6,-1366
    41014a14:	0263cfbb          	divw	x31,x7,x6
    41014a18:	0070049b          	addiw	x9,x0,7
    41014a1c:	02949493          	slli	x9,x9,0x29
    41014a20:	16048073          	sinval.vma	x9,x0
    41014a24:	000c7ab7          	lui	x21,0xc7
    41014a28:	9d5a8a9b          	addiw	x21,x21,-1579 # c69d5 <mem5__pt_level2+0x669d5>
    41014a2c:	00ca9a93          	slli	x21,x21,0xc
    41014a30:	bdba8a93          	addi	x21,x21,-1061
    41014a34:	000564b7          	lui	x9,0x56
    41014a38:	5594849b          	addiw	x9,x9,1369 # 56559 <pma_region_0_size+0x16559>
    41014a3c:	00d49493          	slli	x9,x9,0xd
    41014a40:	a6e48493          	addi	x9,x9,-1426
    41014a44:	d03afe53          	fcvt.s.lu	f28,x21
    41014a48:	d234fa53          	fcvt.d.lu	f20,x9
    41014a4c:	034e79d3          	fadd.d	f19,f28,f20
    41014a50:	18100073          	sfence.inval.ir
    41014a54:	00700e9b          	addiw	x29,x0,7
    41014a58:	029e9e93          	slli	x29,x29,0x29
    41014a5c:	d015f6d3          	fcvt.s.wu	f13,x11
    41014a60:	00deb027          	fsd	f13,0(x29)
    41014a64:	00dc7fb7          	lui	x31,0xdc7
    41014a68:	3eff8f9b          	addiw	x31,x31,1007 # dc73ef <SID_SVINVAL_03_invalidation_sequence_1_stack+0x1633ef>
    41014a6c:	00ef9f93          	slli	x31,x31,0xe
    41014a70:	0b0f8f93          	addi	x31,x31,176
    41014a74:	0070029b          	addiw	x5,x0,7
    41014a78:	02929293          	slli	x5,x5,0x29
    41014a7c:	005fb023          	sd	x5,0(x31)
    41014a80:	00300293          	li	x5,3
    41014a84:	005fb423          	sd	x5,8(x31)
    41014a88:	fff00293          	li	x5,-1
    41014a8c:	005fb823          	sd	x5,16(x31)
    41014a90:	000f0fb7          	lui	x31,0xf0
    41014a94:	001f8f9b          	addiw	x31,x31,1 # f0001 <SID_SVINVAL_14_sinval_vma_opcode_nonx0_nonx0_stack+0x9001>
    41014a98:	00cf9f93          	slli	x31,x31,0xc
    41014a9c:	007f8f93          	addi	x31,x31,7
    41014aa0:	00000073          	ecall
    41014aa4:	00038a93          	mv	x21,x7
    41014aa8:	015b9e63          	bne	x23,x21,41014ac4 <SID_SVINVAL_05_non_consecutive_invalidation_passed>
    41014aac:	00dc7837          	lui	x16,0xdc7
    41014ab0:	3ef8081b          	addiw	x16,x16,1007 # dc73ef <SID_SVINVAL_03_invalidation_sequence_1_stack+0x1633ef>
    41014ab4:	00e81813          	slli	x16,x16,0xe
    41014ab8:	00880813          	addi	x16,x16,8
    41014abc:	00083883          	ld	x17,0(x16)
    41014ac0:	00088067          	jr	x17

0000000041014ac4 <SID_SVINVAL_05_non_consecutive_invalidation_passed>:
    41014ac4:	00f00f9b          	addiw	x31,x0,15
    41014ac8:	01cf9f93          	slli	x31,x31,0x1c
    41014acc:	001f8f93          	addi	x31,x31,1
    41014ad0:	00000073          	ecall

0000000041014ad4 <SID_SVINVAL_07_fault_in_smode_with_tvm>:
    41014ad4:	00040137          	lui	x2,0x40
    41014ad8:	c451011b          	addiw	x2,x2,-955 # 3fc45 <mem7__pt_level2+0x6c45>
    41014adc:	00f11113          	slli	x2,x2,0xf
    41014ae0:	eed10113          	addi	x2,x2,-275
    41014ae4:	00c11113          	slli	x2,x2,0xc
    41014ae8:	00dc7fb7          	lui	x31,0xdc7
    41014aec:	3eff8f9b          	addiw	x31,x31,1007 # dc73ef <SID_SVINVAL_03_invalidation_sequence_1_stack+0x1633ef>
    41014af0:	00ef9f93          	slli	x31,x31,0xe
    41014af4:	0a0f8f93          	addi	x31,x31,160
    41014af8:	00100f13          	li	x30,1
    41014afc:	01efb023          	sd	x30,0(x31)
    41014b00:	000f0fb7          	lui	x31,0xf0
    41014b04:	001f8f9b          	addiw	x31,x31,1 # f0001 <SID_SVINVAL_14_sinval_vma_opcode_nonx0_nonx0_stack+0x9001>
    41014b08:	00cf9f93          	slli	x31,x31,0xc
    41014b0c:	005f8f93          	addi	x31,x31,5
    41014b10:	00000073          	ecall
    41014b14:	00713023          	sd	x7,0(x2)
    41014b18:	01387137          	lui	x2,0x1387
    41014b1c:	3db1011b          	addiw	x2,x2,987 # 13873db <SID_SVINVAL_03_invalidation_sequence_1_stack+0x7233db>
    41014b20:	00d11113          	slli	x2,x2,0xd
    41014b24:	000012b7          	lui	x5,0x1
    41014b28:	00510133          	add	x2,x2,x5
    41014b2c:	ff017113          	andi	x2,x2,-16
    41014b30:	001003b7          	lui	x7,0x100
    41014b34:	00dc7fb7          	lui	x31,0xdc7
    41014b38:	3eff8f9b          	addiw	x31,x31,1007 # dc73ef <SID_SVINVAL_03_invalidation_sequence_1_stack+0x1633ef>
    41014b3c:	00ef9f93          	slli	x31,x31,0xe
    41014b40:	0a0f8f93          	addi	x31,x31,160
    41014b44:	00200f13          	li	x30,2
    41014b48:	01efb023          	sd	x30,0(x31)
    41014b4c:	000f0fb7          	lui	x31,0xf0
    41014b50:	001f8f9b          	addiw	x31,x31,1 # f0001 <SID_SVINVAL_14_sinval_vma_opcode_nonx0_nonx0_stack+0x9001>
    41014b54:	00cf9f93          	slli	x31,x31,0xc
    41014b58:	005f8f93          	addi	x31,x31,5
    41014b5c:	00000073          	ecall
    41014b60:	01d00c1b          	addiw	x24,x0,29
    41014b64:	028c1c13          	slli	x24,x24,0x28
    41014b68:	36a82237          	lui	x4,0x36a82
    41014b6c:	99d2021b          	addiw	x4,x4,-1635 # 36a8199d <mem1__pt_level2+0x74a599d>
    41014b70:	00d21213          	slli	x4,x4,0xd
    41014b74:	00200e13          	li	x28,2
    41014b78:	05c23823          	sd	x28,80(x4) # 50 <XLEN+0x10>
    41014b7c:	00000e17          	auipc	x28,0x0
    41014b80:	048e0e13          	addi	x28,x28,72 # 41014bc4 <fault_label_5>
    41014b84:	03c23023          	sd	x28,32(x4) # 20 <SECURE_ACCESS_PROBABILITY+0x2>
    41014b88:	00000e13          	li	x28,0
    41014b8c:	05c23023          	sd	x28,64(x4) # 40 <XLEN>
    41014b90:	00000e13          	li	x28,0
    41014b94:	05c23423          	sd	x28,72(x4) # 48 <XLEN+0x8>
    41014b98:	00000e17          	auipc	x28,0x0
    41014b9c:	048e0e13          	addi	x28,x28,72 # 41014be0 <excp_return_label_5>
    41014ba0:	03c23823          	sd	x28,48(x4) # 30 <SECURE_ACCESS_PROBABILITY+0x12>
    41014ba4:	00000e13          	li	x28,0
    41014ba8:	03c23c23          	sd	x28,56(x4) # 38 <SECURE_ACCESS_PROBABILITY+0x1a>
    41014bac:	00000e13          	li	x28,0
    41014bb0:	07c23023          	sd	x28,96(x4) # 60 <XLEN+0x20>
    41014bb4:	00000e13          	li	x28,0
    41014bb8:	07c23423          	sd	x28,104(x4) # 68 <XLEN+0x28>
    41014bbc:	00000e13          	li	x28,0
    41014bc0:	07c23823          	sd	x28,112(x4) # 70 <XLEN+0x30>

0000000041014bc4 <fault_label_5>:
    41014bc4:	160c0073          	sinval.vma	x24,x0
    41014bc8:	00dc7737          	lui	x14,0xdc7
    41014bcc:	3ef7071b          	addiw	x14,x14,1007 # dc73ef <SID_SVINVAL_03_invalidation_sequence_1_stack+0x1633ef>
    41014bd0:	00e71713          	slli	x14,x14,0xe
    41014bd4:	00870713          	addi	x14,x14,8
    41014bd8:	00073303          	ld	x6,0(x14)
    41014bdc:	00030067          	jr	x6

0000000041014be0 <excp_return_label_5>:
    41014be0:	00040137          	lui	x2,0x40
    41014be4:	c451011b          	addiw	x2,x2,-955 # 3fc45 <mem7__pt_level2+0x6c45>
    41014be8:	00f11113          	slli	x2,x2,0xf
    41014bec:	eed10113          	addi	x2,x2,-275
    41014bf0:	00c11113          	slli	x2,x2,0xc
    41014bf4:	00013383          	ld	x7,0(x2)
    41014bf8:	00dc7fb7          	lui	x31,0xdc7
    41014bfc:	3eff8f9b          	addiw	x31,x31,1007 # dc73ef <SID_SVINVAL_03_invalidation_sequence_1_stack+0x1633ef>
    41014c00:	00ef9f93          	slli	x31,x31,0xe
    41014c04:	0a0f8f93          	addi	x31,x31,160
    41014c08:	00300f13          	li	x30,3
    41014c0c:	01efb023          	sd	x30,0(x31)
    41014c10:	000f0fb7          	lui	x31,0xf0
    41014c14:	001f8f9b          	addiw	x31,x31,1 # f0001 <SID_SVINVAL_14_sinval_vma_opcode_nonx0_nonx0_stack+0x9001>
    41014c18:	00cf9f93          	slli	x31,x31,0xc
    41014c1c:	005f8f93          	addi	x31,x31,5
    41014c20:	00000073          	ecall

0000000041014c24 <SID_SVINVAL_07_fault_in_smode_with_tvm_passed>:
    41014c24:	00f00f9b          	addiw	x31,x0,15
    41014c28:	01cf9f93          	slli	x31,x31,0x1c
    41014c2c:	001f8f93          	addi	x31,x31,1
    41014c30:	00000073          	ecall

0000000041014c34 <SID_SVINVAL_09_tvm_sfence_sinval_sfence_flow>:
    41014c34:	00040137          	lui	x2,0x40
    41014c38:	c451011b          	addiw	x2,x2,-955 # 3fc45 <mem7__pt_level2+0x6c45>
    41014c3c:	00f11113          	slli	x2,x2,0xf
    41014c40:	eed10113          	addi	x2,x2,-275
    41014c44:	00c11113          	slli	x2,x2,0xc
    41014c48:	00dc7fb7          	lui	x31,0xdc7
    41014c4c:	3eff8f9b          	addiw	x31,x31,1007 # dc73ef <SID_SVINVAL_03_invalidation_sequence_1_stack+0x1633ef>
    41014c50:	00ef9f93          	slli	x31,x31,0xe
    41014c54:	0a0f8f93          	addi	x31,x31,160
    41014c58:	00100f13          	li	x30,1
    41014c5c:	01efb023          	sd	x30,0(x31)
    41014c60:	000f0fb7          	lui	x31,0xf0
    41014c64:	001f8f9b          	addiw	x31,x31,1 # f0001 <SID_SVINVAL_14_sinval_vma_opcode_nonx0_nonx0_stack+0x9001>
    41014c68:	00cf9f93          	slli	x31,x31,0xc
    41014c6c:	005f8f93          	addi	x31,x31,5
    41014c70:	00000073          	ecall
    41014c74:	00713023          	sd	x7,0(x2)
    41014c78:	05498137          	lui	x2,0x5498
    41014c7c:	000012b7          	lui	x5,0x1
    41014c80:	00510133          	add	x2,x2,x5
    41014c84:	ff017113          	andi	x2,x2,-16
    41014c88:	001003b7          	lui	x7,0x100
    41014c8c:	00dc7fb7          	lui	x31,0xdc7
    41014c90:	3eff8f9b          	addiw	x31,x31,1007 # dc73ef <SID_SVINVAL_03_invalidation_sequence_1_stack+0x1633ef>
    41014c94:	00ef9f93          	slli	x31,x31,0xe
    41014c98:	0a0f8f93          	addi	x31,x31,160
    41014c9c:	00200f13          	li	x30,2
    41014ca0:	01efb023          	sd	x30,0(x31)
    41014ca4:	000f0fb7          	lui	x31,0xf0
    41014ca8:	001f8f9b          	addiw	x31,x31,1 # f0001 <SID_SVINVAL_14_sinval_vma_opcode_nonx0_nonx0_stack+0x9001>
    41014cac:	00cf9f93          	slli	x31,x31,0xc
    41014cb0:	005f8f93          	addi	x31,x31,5
    41014cb4:	00000073          	ecall
    41014cb8:	18000073          	sfence.w.inval
    41014cbc:	0010071b          	addiw	x14,x0,1
    41014cc0:	02971713          	slli	x14,x14,0x29
    41014cc4:	36a82237          	lui	x4,0x36a82
    41014cc8:	99d2021b          	addiw	x4,x4,-1635 # 36a8199d <mem1__pt_level2+0x74a599d>
    41014ccc:	00d21213          	slli	x4,x4,0xd
    41014cd0:	00200e13          	li	x28,2
    41014cd4:	05c23823          	sd	x28,80(x4) # 50 <XLEN+0x10>
    41014cd8:	00000e17          	auipc	x28,0x0
    41014cdc:	048e0e13          	addi	x28,x28,72 # 41014d20 <fault_label_6>
    41014ce0:	03c23023          	sd	x28,32(x4) # 20 <SECURE_ACCESS_PROBABILITY+0x2>
    41014ce4:	00000e13          	li	x28,0
    41014ce8:	05c23023          	sd	x28,64(x4) # 40 <XLEN>
    41014cec:	00000e13          	li	x28,0
    41014cf0:	05c23423          	sd	x28,72(x4) # 48 <XLEN+0x8>
    41014cf4:	00000e17          	auipc	x28,0x0
    41014cf8:	048e0e13          	addi	x28,x28,72 # 41014d3c <excp_return_label_6>
    41014cfc:	03c23823          	sd	x28,48(x4) # 30 <SECURE_ACCESS_PROBABILITY+0x12>
    41014d00:	00000e13          	li	x28,0
    41014d04:	03c23c23          	sd	x28,56(x4) # 38 <SECURE_ACCESS_PROBABILITY+0x1a>
    41014d08:	00000e13          	li	x28,0
    41014d0c:	07c23023          	sd	x28,96(x4) # 60 <XLEN+0x20>
    41014d10:	00000e13          	li	x28,0
    41014d14:	07c23423          	sd	x28,104(x4) # 68 <XLEN+0x28>
    41014d18:	00000e13          	li	x28,0
    41014d1c:	07c23823          	sd	x28,112(x4) # 70 <XLEN+0x30>

0000000041014d20 <fault_label_6>:
    41014d20:	16070073          	sinval.vma	x14,x0
    41014d24:	00dc7cb7          	lui	x25,0xdc7
    41014d28:	3efc8c9b          	addiw	x25,x25,1007 # dc73ef <SID_SVINVAL_03_invalidation_sequence_1_stack+0x1633ef>
    41014d2c:	00ec9c93          	slli	x25,x25,0xe
    41014d30:	008c8c93          	addi	x25,x25,8
    41014d34:	000cbd03          	ld	x26,0(x25)
    41014d38:	000d0067          	jr	x26

0000000041014d3c <excp_return_label_6>:
    41014d3c:	18100073          	sfence.inval.ir
    41014d40:	00040137          	lui	x2,0x40
    41014d44:	c451011b          	addiw	x2,x2,-955 # 3fc45 <mem7__pt_level2+0x6c45>
    41014d48:	00f11113          	slli	x2,x2,0xf
    41014d4c:	eed10113          	addi	x2,x2,-275
    41014d50:	00c11113          	slli	x2,x2,0xc
    41014d54:	00013383          	ld	x7,0(x2)
    41014d58:	00dc7fb7          	lui	x31,0xdc7
    41014d5c:	3eff8f9b          	addiw	x31,x31,1007 # dc73ef <SID_SVINVAL_03_invalidation_sequence_1_stack+0x1633ef>
    41014d60:	00ef9f93          	slli	x31,x31,0xe
    41014d64:	0a0f8f93          	addi	x31,x31,160
    41014d68:	00300f13          	li	x30,3
    41014d6c:	01efb023          	sd	x30,0(x31)
    41014d70:	000f0fb7          	lui	x31,0xf0
    41014d74:	001f8f9b          	addiw	x31,x31,1 # f0001 <SID_SVINVAL_14_sinval_vma_opcode_nonx0_nonx0_stack+0x9001>
    41014d78:	00cf9f93          	slli	x31,x31,0xc
    41014d7c:	005f8f93          	addi	x31,x31,5
    41014d80:	00000073          	ecall

0000000041014d84 <SID_SVINVAL_09_tvm_sfence_sinval_sfence_flow_passed>:
    41014d84:	00f00f9b          	addiw	x31,x0,15
    41014d88:	01cf9f93          	slli	x31,x31,0x1c
    41014d8c:	001f8f93          	addi	x31,x31,1
    41014d90:	00000073          	ecall

0000000041014d94 <SID_SVINVAL_12_sinval_vma_opcode_x0_nonx0>:
    41014d94:	02fbb137          	lui	x2,0x2fbb
    41014d98:	49f1011b          	addiw	x2,x2,1183 # 2fbb49f <mem0__pt_level0+0xef149f>
    41014d9c:	00e11113          	slli	x2,x2,0xe
    41014da0:	000012b7          	lui	x5,0x1
    41014da4:	00510133          	add	x2,x2,x5
    41014da8:	ff017113          	andi	x2,x2,-16
    41014dac:	00100693          	li	x13,1
    41014db0:	18000073          	sfence.w.inval
    41014db4:	16d00073          	sinval.vma	x0,x13
    41014db8:	18100073          	sfence.inval.ir

0000000041014dbc <SID_SVINVAL_12_sinval_vma_opcode_x0_nonx0_passed>:
    41014dbc:	00f00f9b          	addiw	x31,x0,15
    41014dc0:	01cf9f93          	slli	x31,x31,0x1c
    41014dc4:	001f8f93          	addi	x31,x31,1
    41014dc8:	00000073          	ecall

0000000041014dcc <SID_SVINVAL_13_sinval_vma_opcode_nonx0_x0>:
    41014dcc:	0055a137          	lui	x2,0x55a
    41014dd0:	000012b7          	lui	x5,0x1
    41014dd4:	00510133          	add	x2,x2,x5
    41014dd8:	ff017113          	andi	x2,x2,-16
    41014ddc:	18000073          	sfence.w.inval
    41014de0:	000e0937          	lui	x18,0xe0
    41014de4:	9239091b          	addiw	x18,x18,-1757 # df923 <hart_stack_0_end+0x4923>
    41014de8:	01091913          	slli	x18,x18,0x10
    41014dec:	16090073          	sinval.vma	x18,x0
    41014df0:	18100073          	sfence.inval.ir

0000000041014df4 <SID_SVINVAL_13_sinval_vma_opcode_nonx0_x0_passed>:
    41014df4:	00f00f9b          	addiw	x31,x0,15
    41014df8:	01cf9f93          	slli	x31,x31,0x1c
    41014dfc:	001f8f93          	addi	x31,x31,1
    41014e00:	00000073          	ecall

0000000041014e04 <SID_SVINVAL_14_sinval_vma_opcode_nonx0_nonx0>:
    41014e04:	000e7137          	lui	x2,0xe7
    41014e08:	000012b7          	lui	x5,0x1
    41014e0c:	00510133          	add	x2,x2,x5
    41014e10:	ff017113          	andi	x2,x2,-16
    41014e14:	00100b13          	li	x22,1
    41014e18:	18000073          	sfence.w.inval
    41014e1c:	0000b8b7          	lui	x17,0xb
    41014e20:	17688073          	sinval.vma	x17,x22
    41014e24:	18100073          	sfence.inval.ir

0000000041014e28 <SID_SVINVAL_14_sinval_vma_opcode_nonx0_nonx0_passed>:
    41014e28:	00f00f9b          	addiw	x31,x0,15
    41014e2c:	01cf9f93          	slli	x31,x31,0x1c
    41014e30:	001f8f93          	addi	x31,x31,1
    41014e34:	00000073          	ecall

0000000041014e38 <SID_SVINVAL_15_sinval_vma_opcode_x0_x0>:
    41014e38:	0cf69137          	lui	x2,0xcf69
    41014e3c:	95b1011b          	addiw	x2,x2,-1701 # cf6895b <SID_SVINVAL_09_tvm_sfence_sinval_sfence_flow_stack+0x7ad095b>
    41014e40:	00e11113          	slli	x2,x2,0xe
    41014e44:	000012b7          	lui	x5,0x1
    41014e48:	00510133          	add	x2,x2,x5
    41014e4c:	ff017113          	andi	x2,x2,-16
    41014e50:	18000073          	sfence.w.inval
    41014e54:	16000073          	sinval.vma	x0,x0
    41014e58:	18100073          	sfence.inval.ir

0000000041014e5c <SID_SVINVAL_15_sinval_vma_opcode_x0_x0_passed>:
    41014e5c:	00f00f9b          	addiw	x31,x0,15
    41014e60:	01cf9f93          	slli	x31,x31,0x1c
    41014e64:	001f8f93          	addi	x31,x31,1
    41014e68:	00000073          	ecall

0000000041014e6c <test_cleanup>:
    41014e6c:	00f00f9b          	addiw	x31,x0,15
    41014e70:	01cf9f93          	slli	x31,x31,0x1c
    41014e74:	001f8f93          	addi	x31,x31,1
    41014e78:	00000073          	ecall

0000000041014e7c <local_test_failed>:
    41014e7c:	00f00f9b          	addiw	x31,x0,15
    41014e80:	01cf9f93          	slli	x31,x31,0x1c
    41014e84:	002f8f93          	addi	x31,x31,2
    41014e88:	00000073          	ecall

Disassembly of section .csr_machine_0:

0000000041214000 <csr_access_mstatus_machine_key_3_write-0x40>:
    41214000:	424c4fb7          	lui	x31,0x424c4
    41214004:	0a0f8f9b          	addiw	x31,x31,160 # 424c40a0 <machine_csr_jump_table_flags_pa>
    41214008:	000fbf83          	ld	x31,0(x31)
    4121400c:	00300293          	li	x5,3
    41214010:	025f8863          	beq	x31,x5,41214040 <csr_access_mstatus_machine_key_3_write>
    41214014:	00100293          	li	x5,1
    41214018:	025f8863          	beq	x31,x5,41214048 <csr_access_mstatus_machine_key_1_read>
    4121401c:	00200293          	li	x5,2
    41214020:	025f8863          	beq	x31,x5,41214050 <csr_access_mstatus_machine_key_2_set>
    41214024:	00400293          	li	x5,4
    41214028:	025f8863          	beq	x31,x5,41214058 <csr_access_mstatus_machine_key_4_clear>
    4121402c:	00600293          	li	x5,6
    41214030:	025f8863          	beq	x31,x5,41214060 <csr_access_mtvec_machine_key_6_set>
    41214034:	00500293          	li	x5,5
    41214038:	025f8863          	beq	x31,x5,41214068 <csr_access_mtvec_machine_key_5_clear>
    4121403c:	0340006f          	j	41214070 <end_machine_label>

0000000041214040 <csr_access_mstatus_machine_key_3_write>:
    41214040:	30039073          	csrw	mstatus,x7
    41214044:	02c0006f          	j	41214070 <end_machine_label>

0000000041214048 <csr_access_mstatus_machine_key_1_read>:
    41214048:	300023f3          	csrr	x7,mstatus
    4121404c:	0240006f          	j	41214070 <end_machine_label>

0000000041214050 <csr_access_mstatus_machine_key_2_set>:
    41214050:	3003a073          	csrs	mstatus,x7
    41214054:	01c0006f          	j	41214070 <end_machine_label>

0000000041214058 <csr_access_mstatus_machine_key_4_clear>:
    41214058:	3003b073          	csrc	mstatus,x7
    4121405c:	0140006f          	j	41214070 <end_machine_label>

0000000041214060 <csr_access_mtvec_machine_key_6_set>:
    41214060:	3053a073          	csrs	mtvec,x7
    41214064:	00c0006f          	j	41214070 <end_machine_label>

0000000041214068 <csr_access_mtvec_machine_key_5_clear>:
    41214068:	3053b073          	csrc	mtvec,x7
    4121406c:	0040006f          	j	41214070 <end_machine_label>

0000000041214070 <end_machine_label>:
    41214070:	000f0fb7          	lui	x31,0xf0
    41214074:	001f8f9b          	addiw	x31,x31,1 # f0001 <SID_SVINVAL_14_sinval_vma_opcode_nonx0_nonx0_stack+0x9001>
    41214078:	00cf9f93          	slli	x31,x31,0xc
    4121407c:	004f8f93          	addi	x31,x31,4
    41214080:	00000073          	ecall

Disassembly of section .csr_super_0:

0000000041215000 <end_super_label-0x18>:
    41215000:	00dc7fb7          	lui	x31,0xdc7
    41215004:	3eff8f9b          	addiw	x31,x31,1007 # dc73ef <SID_SVINVAL_03_invalidation_sequence_1_stack+0x1633ef>
    41215008:	00ef9f93          	slli	x31,x31,0xe
    4121500c:	0a8f8f93          	addi	x31,x31,168
    41215010:	000fbf83          	ld	x31,0(x31)
    41215014:	0040006f          	j	41215018 <end_super_label>

0000000041215018 <end_super_label>:
    41215018:	000f0fb7          	lui	x31,0xf0
    4121501c:	001f8f9b          	addiw	x31,x31,1 # f0001 <SID_SVINVAL_14_sinval_vma_opcode_nonx0_nonx0_stack+0x9001>
    41215020:	00cf9f93          	slli	x31,x31,0xc
    41215024:	004f8f93          	addi	x31,x31,4
    41215028:	00000073          	ecall

Disassembly of section .os_data:

000000371cfbc000 <passed_addr_ptr>:
  371cfbc000:	40f0                	.insn	2, 0x40f0
  371cfbc002:	4101                	.insn	2, 0x4101
  371cfbc004:	0000                	.insn	2, 0x0000
	...

000000371cfbc008 <failed_addr_ptr>:
  371cfbc008:	4100                	.insn	2, 0x4100
  371cfbc00a:	4101                	.insn	2, 0x4101
  371cfbc00c:	0000                	.insn	2, 0x0000
	...

000000371cfbc010 <end_test_addr_ptr>:
  371cfbc010:	4110                	.insn	2, 0x4110
  371cfbc012:	4101                	.insn	2, 0x4101
  371cfbc014:	0000                	.insn	2, 0x0000
	...

000000371cfbc018 <os_passed_addr_ptr>:
  371cfbc018:	0784                	.insn	2, 0x0784
  371cfbc01a:	4100                	.insn	2, 0x4100
  371cfbc01c:	0000                	.insn	2, 0x0000
	...

000000371cfbc020 <os_failed_addr_ptr>:
  371cfbc020:	0794                	.insn	2, 0x0794
  371cfbc022:	4100                	.insn	2, 0x4100
  371cfbc024:	0000                	.insn	2, 0x0000
	...

000000371cfbc028 <os_end_test_addr_ptr>:
  371cfbc028:	07a0                	.insn	2, 0x07a0
  371cfbc02a:	4100                	.insn	2, 0x4100
  371cfbc02c:	0000                	.insn	2, 0x0000
	...

000000371cfbc030 <rvcp_prefix_str_data>:
  371cfbc030:	5652                	.insn	2, 0x5652
  371cfbc032:	203a5043          	fmadd.s	f0,f20,f3,f4,unknown
  371cfbc036:	6554                	.insn	2, 0x6554
  371cfbc038:	46207473          	csrrci	x8,0x462,0
  371cfbc03c:	6c69                	.insn	2, 0x6c69
  371cfbc03e:	2065                	.insn	2, 0x2065
	...

000000371cfbc041 <rvcp_testname_str_data>:
  371cfbc041:	7074                	.insn	2, 0x7074
  371cfbc043:	735f 6976 766e      	.insn	6, 0x766e6976735f
  371cfbc049:	6c61                	.insn	2, 0x6c61
  371cfbc04b:	315f        	.insn	6, 0x53415000315f

000000371cfbc04e <rvcp_passed_str_data>:
  371cfbc04e:	4150                	.insn	2, 0x4150
  371cfbc050:	44455353          	fround.h	f6,f10,unknown
	...

000000371cfbc055 <rvcp_failed_str_data>:
  371cfbc055:	4146                	.insn	2, 0x4146
  371cfbc057:	4c49                	.insn	2, 0x4c49
  371cfbc059:	4445                	.insn	2, 0x4445
	...

000000371cfbc05c <rvcp_space_str_data>:
  371cfbc05c:	0020                	.insn	2, 0x0020

000000371cfbc05e <rvcp_newline_str_data>:
  371cfbc05e:	000a                	.insn	2, 0x000a

000000371cfbc060 <excp_ignored_count_mem>:
	...

000000371cfbc068 <machine_flags_mem>:
	...

000000371cfbc070 <user_flags_mem>:
	...

000000371cfbc078 <super_flags_mem>:
	...

000000371cfbc080 <machine_area_mem>:
	...

000000371cfbc088 <user_area_mem>:
	...

000000371cfbc090 <super_area_mem>:
	...

000000371cfbc098 <zero_data_mem>:
	...

000000371cfbc0a0 <machine_csr_jump_table_flags_mem>:
	...

000000371cfbc0a8 <super_csr_jump_table_flags_mem>:
	...

000000371cfbc0b0 <pte_access_flags_mem>:
	...

000000371cfbc0c8 <num_harts_ended_mem>:
	...

000000371cfbc0d0 <num_hard_fails_mem>:
	...

Disassembly of section .hart_context:

000006d50333a000 <hart_context_0>:
 6d50333a000:	b000                	.insn	2, 0xb000
 6d50333a002:	000d                	.insn	2, 0x000d
	...
 6d50333a018:	0001                	.insn	2, 0x0001
 6d50333a01a:	0000                	.insn	2, 0x0000
 6d50333a01c:	0000                	.insn	2, 0x0000
 6d50333a01e:	0000                	.insn	2, 0x0000
 6d50333a020:	ffff                	.insn	2, 0xffff
 6d50333a022:	ffff                	.insn	2, 0xffff
 6d50333a024:	ffff                	.insn	2, 0xffff
 6d50333a026:	ffff                	.insn	2, 0xffff
 6d50333a028:	ffff                	.insn	2, 0xffff
 6d50333a02a:	ffff                	.insn	2, 0xffff
 6d50333a02c:	ffff                	.insn	2, 0xffff
 6d50333a02e:	ffff                	.insn	2, 0xffff
 6d50333a030:	ffff                	.insn	2, 0xffff
 6d50333a032:	ffff                	.insn	2, 0xffff
 6d50333a034:	ffff                	.insn	2, 0xffff
 6d50333a036:	ffff                	.insn	2, 0xffff
	...
 6d50333a050:	00ff 0000 0000 0000 	.insn	10, 0x00ff00000000000000ff
 6d50333a058:	00ff 
	...
 6d50333a176:	0000                	.insn	2, 0x0000
 6d50333a178:	ffff                	.insn	2, 0xffff
 6d50333a17a:	ffff                	.insn	2, 0xffff
 6d50333a17c:	ffff                	.insn	2, 0xffff
 6d50333a17e:	ffff                	.insn	2, 0xffff
	...
 6d50333a188:	ffff                	.insn	2, 0xffff
 6d50333a18a:	ffff                	.insn	2, 0xffff
	...

Disassembly of section .hart_stack_0:

00000000000da000 <hart_stack_0>:
	...

Disassembly of section .io_htif:

0000000041040000 <tohost>:
	...

0000000041040040 <fromhost>:
	...

Disassembly of section .mem0:

00001c8000000000 <.mem0>:
    1c8000000000:	c0de                	.insn	2, 0xc0de
    1c8000000002:	c001                	.insn	2, 0xc001
    1c8000000004:	0000                	.insn	2, 0x0000
	...

Disassembly of section .mem1:

0000028000000000 <.mem1>:
 28000000000:	c0de                	.insn	2, 0xc0de
 28000000002:	c001                	.insn	2, 0xc001
 28000000004:	0000                	.insn	2, 0x0000
	...

Disassembly of section .mem2:

0000210000001000 <.mem2>:
    210000001000:	c0de                	.insn	2, 0xc0de
    210000001002:	c001                	.insn	2, 0xc001
    210000001004:	0000                	.insn	2, 0x0000
	...

Disassembly of section .mem3:

0000048000002000 <.mem3>:
 48000002000:	c0de                	.insn	2, 0xc0de
 48000002002:	c001                	.insn	2, 0xc001
 48000002004:	0000                	.insn	2, 0x0000
	...

Disassembly of section .mem4:

00000c8000004000 <.mem4>:
 c8000004000:	c0de                	.insn	2, 0xc0de
 c8000004002:	c001                	.insn	2, 0xc001
 c8000004004:	0000                	.insn	2, 0x0000
	...

Disassembly of section .mem5:

00000e0000000000 <.mem5>:
 e0000000000:	c0de                	.insn	2, 0xc0de
 e0000000002:	c001                	.insn	2, 0xc001
 e0000000004:	0000                	.insn	2, 0x0000
	...

Disassembly of section .mem6:

00001d0000000000 <.mem6>:
    1d0000000000:	c0de                	.insn	2, 0xc0de
    1d0000000002:	c001                	.insn	2, 0xc001
    1d0000000004:	0000                	.insn	2, 0x0000
	...

Disassembly of section .mem7:

0000020000000000 <.mem7>:
 20000000000:	c0de                	.insn	2, 0xc0de
 20000000002:	c001                	.insn	2, 0xc001
 20000000004:	0000                	.insn	2, 0x0000
	...

Disassembly of section .mem8:

0000000000009000 <.mem8>:
    9000:	c0de                	.insn	2, 0xc0de
    9002:	c001                	.insn	2, 0xc001
    9004:	0000                	.insn	2, 0x0000
	...

Disassembly of section .mem9:

0000000df9230000 <.mem9>:
   df9230000:	c0de                	.insn	2, 0xc0de
   df9230002:	c001                	.insn	2, 0xc001
   df9230004:	0000                	.insn	2, 0x0000
	...

Disassembly of section .mem10:

000000000000b000 <.mem10>:
    b000:	c0de                	.insn	2, 0xc0de
    b002:	c001                	.insn	2, 0xc001
    b004:	0000                	.insn	2, 0x0000
	...

Disassembly of section .tp_csr_storage:

00001fe227eed000 <.tp_csr_storage>:
    1fe227eed000:	c0de                	.insn	2, 0xc0de
    1fe227eed002:	c001                	.insn	2, 0xc001
    1fe227eed004:	0000                	.insn	2, 0x0000
	...

Disassembly of section .SID_SVINVAL_01_opcode_coverage_stack:

000000003a0c9000 <.SID_SVINVAL_01_opcode_coverage_stack>:
    3a0c9000:	c0de                	.insn	2, 0xc0de
    3a0c9002:	c001                	.insn	2, 0xc001
    3a0c9004:	0000                	.insn	2, 0x0000
	...

Disassembly of section .SID_SVINVAL_03_invalidation_sequence_1_stack:

0000000000c64000 <.SID_SVINVAL_03_invalidation_sequence_1_stack>:
  c64000:	c0de                	.insn	2, 0xc0de
  c64002:	c001                	.insn	2, 0xc001
  c64004:	0000                	.insn	2, 0x0000
	...

Disassembly of section .SID_SVINVAL_04_invalidation_sequence_2_multiple_vas_stack:

00000003fbefc000 <.SID_SVINVAL_04_invalidation_sequence_2_multiple_vas_stack>:
   3fbefc000:	c0de                	.insn	2, 0xc0de
   3fbefc002:	c001                	.insn	2, 0xc001
   3fbefc004:	0000                	.insn	2, 0x0000
	...

Disassembly of section .SID_SVINVAL_05_non_consecutive_invalidation_stack:

0000050000002000 <.SID_SVINVAL_05_non_consecutive_invalidation_stack>:
 50000002000:	c0de                	.insn	2, 0xc0de
 50000002002:	c001                	.insn	2, 0xc001
 50000002004:	0000                	.insn	2, 0x0000
	...

Disassembly of section .SID_SVINVAL_07_fault_in_smode_with_tvm_stack:

000000270e7b6000 <.SID_SVINVAL_07_fault_in_smode_with_tvm_stack>:
  270e7b6000:	c0de                	.insn	2, 0xc0de
  270e7b6002:	c001                	.insn	2, 0xc001
  270e7b6004:	0000                	.insn	2, 0x0000
	...

Disassembly of section .SID_SVINVAL_09_tvm_sfence_sinval_sfence_flow_stack:

0000000005498000 <.SID_SVINVAL_09_tvm_sfence_sinval_sfence_flow_stack>:
 5498000:	c0de                	.insn	2, 0xc0de
 5498002:	c001                	.insn	2, 0xc001
 5498004:	0000                	.insn	2, 0x0000
	...

Disassembly of section .SID_SVINVAL_12_sinval_vma_opcode_x0_nonx0_stack:

000000beed27c000 <.SID_SVINVAL_12_sinval_vma_opcode_x0_nonx0_stack>:
  beed27c000:	c0de                	.insn	2, 0xc0de
  beed27c002:	c001                	.insn	2, 0xc001
  beed27c004:	0000                	.insn	2, 0x0000
	...

Disassembly of section .SID_SVINVAL_13_sinval_vma_opcode_nonx0_x0_stack:

000000000055a000 <.SID_SVINVAL_13_sinval_vma_opcode_nonx0_x0_stack>:
  55a000:	c0de                	.insn	2, 0xc0de
  55a002:	c001                	.insn	2, 0xc001
  55a004:	0000                	.insn	2, 0x0000
	...

Disassembly of section .SID_SVINVAL_14_sinval_vma_opcode_nonx0_nonx0_stack:

00000000000e7000 <.SID_SVINVAL_14_sinval_vma_opcode_nonx0_nonx0_stack>:
   e7000:	c0de                	.insn	2, 0xc0de
   e7002:	c001                	.insn	2, 0xc001
   e7004:	0000                	.insn	2, 0x0000
	...

Disassembly of section .SID_SVINVAL_15_sinval_vma_opcode_x0_x0_stack:

0000033da256c000 <.SID_SVINVAL_15_sinval_vma_opcode_x0_x0_stack>:
 33da256c000:	c0de                	.insn	2, 0xc0de
 33da256c002:	c001                	.insn	2, 0xc001
 33da256c004:	0000                	.insn	2, 0x0000
	...

Disassembly of section .__pagetable_map_os_0x0000000044bbc000:

0000000044bbc000 <__pagetable_map_os_0x0000000044bbc000>:
    44bbc000:	7001                	.insn	2, 0x7001
    44bbc002:	1105                	.insn	2, 0x1105
    44bbc004:	0000                	.insn	2, 0x0000
    44bbc006:	0000                	.insn	2, 0x0000
    44bbc008:	4401                	.insn	2, 0x4401
    44bbc00a:	10d1                	.insn	2, 0x10d1
	...
    44bbc020:	1401                	.insn	2, 0x1401
    44bbc022:	112d                	.insn	2, 0x112d
    44bbc024:	0000                	.insn	2, 0x0000
    44bbc026:	0000                	.insn	2, 0x0000
    44bbc028:	ec01                	.insn	2, 0xec01
    44bbc02a:	10f6                	.insn	2, 0x10f6
    44bbc02c:	0000                	.insn	2, 0x0000
    44bbc02e:	0000                	.insn	2, 0x0000
    44bbc030:	3c01                	.insn	2, 0x3c01
    44bbc032:	0000108b          	.insn	4, 0x108b
	...
    44bbc046:	0000                	.insn	2, 0x0000
    44bbc048:	6401                	.insn	2, 0x6401
    44bbc04a:	1085                	.insn	2, 0x1085
    44bbc04c:	0000                	.insn	2, 0x0000
    44bbc04e:	0000                	.insn	2, 0x0000
    44bbc050:	ec01                	.insn	2, 0xec01
    44bbc052:	112e                	.insn	2, 0x112e
	...
    44bbc068:	0c01                	.insn	2, 0x0c01
    44bbc06a:	10c4                	.insn	2, 0x10c4
	...
    44bbc0c8:	f001                	.insn	2, 0xf001
    44bbc0ca:	1049                	.insn	2, 0x1049
	...
    44bbc0e0:	7001                	.insn	2, 0x7001
    44bbc0e2:	108d                	.insn	2, 0x108d
	...
    44bbc1c8:	dc01                	.insn	2, 0xdc01
    44bbc1ca:	1062                	.insn	2, 0x1062
    44bbc1cc:	0000                	.insn	2, 0x0000
    44bbc1ce:	0000                	.insn	2, 0x0000
    44bbc1d0:	8801                	.insn	2, 0x8801
    44bbc1d2:	0000108b          	.insn	4, 0x108b
	...
    44bbc1f6:	0000                	.insn	2, 0x0000
    44bbc1f8:	d001                	.insn	2, 0xd001
    44bbc1fa:	112e                	.insn	2, 0x112e
	...
    44bbc210:	a401                	.insn	2, 0xa401
    44bbc212:	1088                	.insn	2, 0x1088
    44bbc214:	0000                	.insn	2, 0x0000
	...

Disassembly of section .__pagetable_map_os_0x000000004415c000:

000000004415c000 <__pagetable_map_os_0x000000004415c000>:
    4415c000:	e801                	.insn	2, 0xe801
    4415c002:	112e                	.insn	2, 0x112e
    4415c004:	0000                	.insn	2, 0x0000
    4415c006:	0000                	.insn	2, 0x0000
    4415c008:	7c01                	.insn	2, 0x7c01
    4415c00a:	108d                	.insn	2, 0x108d
	...
    4415c030:	7001                	.insn	2, 0x7001
    4415c032:	1088                	.insn	2, 0x1088
	...
    4415c068:	9001                	.insn	2, 0x9001
    4415c06a:	109e                	.insn	2, 0x109e
	...
    4415c078:	f001                	.insn	2, 0xf001
    4415c07a:	108d                	.insn	2, 0x108d
	...
    4415c0e8:	4c01                	.insn	2, 0x4c01
    4415c0ea:	0000108b          	.insn	4, 0x108b
	...
    4415c166:	0000                	.insn	2, 0x0000
    4415c168:	6001                	.insn	2, 0x6001
    4415c16a:	1085                	.insn	2, 0x1085
	...
    4415c1b8:	c801                	.insn	2, 0xc801
    4415c1ba:	1049                	.insn	2, 0x1049
	...
    4415c3e0:	d801                	.insn	2, 0xd801
    4415c3e2:	1090                	.insn	2, 0x1090
	...
    4415c4e0:	2801                	.insn	2, 0x2801
    4415c4e2:	10c2                	.insn	2, 0x10c2
	...
    4415c6e0:	7801                	.insn	2, 0x7801
    4415c6e2:	0000108b          	.insn	4, 0x108b
	...
    4415c79e:	0000                	.insn	2, 0x0000
    4415c7a0:	b401                	.insn	2, 0xb401
    4415c7a2:	108c                	.insn	2, 0x108c
    4415c7a4:	0000                	.insn	2, 0x0000
	...

Disassembly of section .__pagetable_map_os_0x000000004235f000:

000000004235f000 <__pagetable_map_os_0x000000004235f000>:
    4235f000:	a801                	.insn	2, 0xa801
    4235f002:	1065                	.insn	2, 0x1065
    4235f004:	0000                	.insn	2, 0x0000
    4235f006:	0000                	.insn	2, 0x0000
    4235f008:	5801                	.insn	2, 0x5801
    4235f00a:	10d1                	.insn	2, 0x10d1
	...
    4235f030:	7c01                	.insn	2, 0x7c01
    4235f032:	108e                	.insn	2, 0x108e
	...
    4235f040:	c401                	.insn	2, 0xc401
    4235f042:	108d                	.insn	2, 0x108d
    4235f044:	0000                	.insn	2, 0x0000
    4235f046:	0000                	.insn	2, 0x0000
    4235f048:	e001                	.insn	2, 0xe001
    4235f04a:	112e                	.insn	2, 0x112e
	...
    4235f128:	ec01                	.insn	2, 0xec01
    4235f12a:	000010c7          	fmsub.s	f1,f0,f0,f0,rtz
	...

Disassembly of section .__pagetable_map_os_0x0000000042371000:

0000000042371000 <__pagetable_map_os_0x0000000042371000>:
	...
    42371080:	104040cf          	fnmadd.s	f1,f0,f4,f2,rmm
    42371084:	0000                	.insn	2, 0x0000
    42371086:	0000                	.insn	2, 0x0000
    42371088:	104044cf          	fnmadd.s	f9,f0,f4,f2,rmm
    4237108c:	0000                	.insn	2, 0x0000
    4237108e:	0000                	.insn	2, 0x0000
    42371090:	104048cf          	fnmadd.s	f17,f0,f4,f2,rmm
    42371094:	0000                	.insn	2, 0x0000
    42371096:	0000                	.insn	2, 0x0000
    42371098:	10404ccf          	fnmadd.s	f25,f0,f4,f2,rmm
    4237109c:	0000                	.insn	2, 0x0000
    4237109e:	0000                	.insn	2, 0x0000
    423710a0:	10b000cf          	fnmadd.s	f1,f0,f11,f2,rne
    423710a4:	0000                	.insn	2, 0x0000
    423710a6:	0000                	.insn	2, 0x0000
    423710a8:	10b004cf          	fnmadd.s	f9,f0,f11,f2,rne
    423710ac:	0000                	.insn	2, 0x0000
    423710ae:	0000                	.insn	2, 0x0000
    423710b0:	10b008cf          	fnmadd.s	f17,f0,f11,f2,rne
    423710b4:	0000                	.insn	2, 0x0000
    423710b6:	0000                	.insn	2, 0x0000
    423710b8:	10b00ccf          	fnmadd.s	f25,f0,f11,f2,rne
    423710bc:	0000                	.insn	2, 0x0000
    423710be:	0000                	.insn	2, 0x0000
    423710c0:	10b010cf          	fnmadd.s	f1,f0,f11,f2,rtz
    423710c4:	0000                	.insn	2, 0x0000
    423710c6:	0000                	.insn	2, 0x0000
    423710c8:	10b014cf          	fnmadd.s	f9,f0,f11,f2,rtz
    423710cc:	0000                	.insn	2, 0x0000
    423710ce:	0000                	.insn	2, 0x0000
    423710d0:	10b018cf          	fnmadd.s	f17,f0,f11,f2,rtz
    423710d4:	0000                	.insn	2, 0x0000
    423710d6:	0000                	.insn	2, 0x0000
    423710d8:	10b01ccf          	fnmadd.s	f25,f0,f11,f2,rtz
    423710dc:	0000                	.insn	2, 0x0000
    423710de:	0000                	.insn	2, 0x0000
    423710e0:	10b020cf          	fnmadd.s	f1,f0,f11,f2,rdn
    423710e4:	0000                	.insn	2, 0x0000
    423710e6:	0000                	.insn	2, 0x0000
    423710e8:	10b024cf          	fnmadd.s	f9,f0,f11,f2,rdn
    423710ec:	0000                	.insn	2, 0x0000
    423710ee:	0000                	.insn	2, 0x0000
    423710f0:	10b028cf          	fnmadd.s	f17,f0,f11,f2,rdn
    423710f4:	0000                	.insn	2, 0x0000
    423710f6:	0000                	.insn	2, 0x0000
    423710f8:	10b02ccf          	fnmadd.s	f25,f0,f11,f2,rdn
    423710fc:	0000                	.insn	2, 0x0000
    423710fe:	0000                	.insn	2, 0x0000
    42371100:	10b030cf          	fnmadd.s	f1,f0,f11,f2,rup
    42371104:	0000                	.insn	2, 0x0000
    42371106:	0000                	.insn	2, 0x0000
    42371108:	10b034cf          	fnmadd.s	f9,f0,f11,f2,rup
    4237110c:	0000                	.insn	2, 0x0000
    4237110e:	0000                	.insn	2, 0x0000
    42371110:	10b038cf          	fnmadd.s	f17,f0,f11,f2,rup
    42371114:	0000                	.insn	2, 0x0000
    42371116:	0000                	.insn	2, 0x0000
    42371118:	10b03ccf          	fnmadd.s	f25,f0,f11,f2,rup
    4237111c:	0000                	.insn	2, 0x0000
    4237111e:	0000                	.insn	2, 0x0000
    42371120:	10b040cf          	fnmadd.s	f1,f0,f11,f2,rmm
    42371124:	0000                	.insn	2, 0x0000
    42371126:	0000                	.insn	2, 0x0000
    42371128:	10b044cf          	fnmadd.s	f9,f0,f11,f2,rmm
    4237112c:	0000                	.insn	2, 0x0000
    4237112e:	0000                	.insn	2, 0x0000
    42371130:	10b048cf          	fnmadd.s	f17,f0,f11,f2,rmm
    42371134:	0000                	.insn	2, 0x0000
    42371136:	0000                	.insn	2, 0x0000
    42371138:	10b04ccf          	fnmadd.s	f25,f0,f11,f2,rmm
    4237113c:	0000                	.insn	2, 0x0000
    4237113e:	0000                	.insn	2, 0x0000
    42371140:	10b050cf          	fnmadd.s	f1,f0,f11,f2,unknown
    42371144:	0000                	.insn	2, 0x0000
    42371146:	0000                	.insn	2, 0x0000
    42371148:	10b054cf          	fnmadd.s	f9,f0,f11,f2,unknown
    4237114c:	0000                	.insn	2, 0x0000
    4237114e:	0000                	.insn	2, 0x0000
    42371150:	10b058cf          	fnmadd.s	f17,f0,f11,f2,unknown
    42371154:	0000                	.insn	2, 0x0000
    42371156:	0000                	.insn	2, 0x0000
    42371158:	10b05ccf          	fnmadd.s	f25,f0,f11,f2,unknown
    4237115c:	0000                	.insn	2, 0x0000
    4237115e:	0000                	.insn	2, 0x0000
    42371160:	10b060cf          	fnmadd.s	f1,f0,f11,f2,unknown
    42371164:	0000                	.insn	2, 0x0000
    42371166:	0000                	.insn	2, 0x0000
    42371168:	10b064cf          	fnmadd.s	f9,f0,f11,f2,unknown
    4237116c:	0000                	.insn	2, 0x0000
    4237116e:	0000                	.insn	2, 0x0000
    42371170:	10b068cf          	fnmadd.s	f17,f0,f11,f2,unknown
    42371174:	0000                	.insn	2, 0x0000
    42371176:	0000                	.insn	2, 0x0000
    42371178:	10b06ccf          	fnmadd.s	f25,f0,f11,f2,unknown
    4237117c:	0000                	.insn	2, 0x0000
    4237117e:	0000                	.insn	2, 0x0000
    42371180:	10b070cf          	fnmadd.s	f1,f0,f11,f2
    42371184:	0000                	.insn	2, 0x0000
    42371186:	0000                	.insn	2, 0x0000
    42371188:	10b074cf          	fnmadd.s	f9,f0,f11,f2
    4237118c:	0000                	.insn	2, 0x0000
    4237118e:	0000                	.insn	2, 0x0000
    42371190:	10b078cf          	fnmadd.s	f17,f0,f11,f2
    42371194:	0000                	.insn	2, 0x0000
    42371196:	0000                	.insn	2, 0x0000
    42371198:	10b07ccf          	fnmadd.s	f25,f0,f11,f2
    4237119c:	0000                	.insn	2, 0x0000
    4237119e:	0000                	.insn	2, 0x0000
    423711a0:	10b080cf          	fnmadd.s	f1,f1,f11,f2,rne
    423711a4:	0000                	.insn	2, 0x0000
    423711a6:	0000                	.insn	2, 0x0000
    423711a8:	10b084cf          	fnmadd.s	f9,f1,f11,f2,rne
    423711ac:	0000                	.insn	2, 0x0000
    423711ae:	0000                	.insn	2, 0x0000
    423711b0:	10b088cf          	fnmadd.s	f17,f1,f11,f2,rne
    423711b4:	0000                	.insn	2, 0x0000
    423711b6:	0000                	.insn	2, 0x0000
    423711b8:	10b08ccf          	fnmadd.s	f25,f1,f11,f2,rne
    423711bc:	0000                	.insn	2, 0x0000
    423711be:	0000                	.insn	2, 0x0000
    423711c0:	10b090cf          	fnmadd.s	f1,f1,f11,f2,rtz
    423711c4:	0000                	.insn	2, 0x0000
    423711c6:	0000                	.insn	2, 0x0000
    423711c8:	10b094cf          	fnmadd.s	f9,f1,f11,f2,rtz
    423711cc:	0000                	.insn	2, 0x0000
    423711ce:	0000                	.insn	2, 0x0000
    423711d0:	10b098cf          	fnmadd.s	f17,f1,f11,f2,rtz
    423711d4:	0000                	.insn	2, 0x0000
    423711d6:	0000                	.insn	2, 0x0000
    423711d8:	10b09ccf          	fnmadd.s	f25,f1,f11,f2,rtz
    423711dc:	0000                	.insn	2, 0x0000
    423711de:	0000                	.insn	2, 0x0000
    423711e0:	10b0a0cf          	fnmadd.s	f1,f1,f11,f2,rdn
    423711e4:	0000                	.insn	2, 0x0000
    423711e6:	0000                	.insn	2, 0x0000
    423711e8:	10b0a4cf          	fnmadd.s	f9,f1,f11,f2,rdn
    423711ec:	0000                	.insn	2, 0x0000
    423711ee:	0000                	.insn	2, 0x0000
    423711f0:	10b0a8cf          	fnmadd.s	f17,f1,f11,f2,rdn
    423711f4:	0000                	.insn	2, 0x0000
    423711f6:	0000                	.insn	2, 0x0000
    423711f8:	10b0accf          	fnmadd.s	f25,f1,f11,f2,rdn
    423711fc:	0000                	.insn	2, 0x0000
    423711fe:	0000                	.insn	2, 0x0000
    42371200:	104100cf          	fnmadd.s	f1,f2,f4,f2,rne
    42371204:	0000                	.insn	2, 0x0000
    42371206:	0000                	.insn	2, 0x0000
    42371208:	10b0b4cf          	fnmadd.s	f9,f1,f11,f2,rup
    4237120c:	0000                	.insn	2, 0x0000
    4237120e:	0000                	.insn	2, 0x0000
    42371210:	10b0b8cf          	fnmadd.s	f17,f1,f11,f2,rup
    42371214:	0000                	.insn	2, 0x0000
    42371216:	0000                	.insn	2, 0x0000
    42371218:	10b0bccf          	fnmadd.s	f25,f1,f11,f2,rup
    4237121c:	0000                	.insn	2, 0x0000
    4237121e:	0000                	.insn	2, 0x0000
    42371220:	10b0c0cf          	fnmadd.s	f1,f1,f11,f2,rmm
    42371224:	0000                	.insn	2, 0x0000
    42371226:	0000                	.insn	2, 0x0000
    42371228:	10b0c4cf          	fnmadd.s	f9,f1,f11,f2,rmm
    4237122c:	0000                	.insn	2, 0x0000
    4237122e:	0000                	.insn	2, 0x0000
    42371230:	10b0c8cf          	fnmadd.s	f17,f1,f11,f2,rmm
    42371234:	0000                	.insn	2, 0x0000
    42371236:	0000                	.insn	2, 0x0000
    42371238:	10b0cccf          	fnmadd.s	f25,f1,f11,f2,rmm
    4237123c:	0000                	.insn	2, 0x0000
    4237123e:	0000                	.insn	2, 0x0000
    42371240:	10b0d0cf          	fnmadd.s	f1,f1,f11,f2,unknown
    42371244:	0000                	.insn	2, 0x0000
    42371246:	0000                	.insn	2, 0x0000
    42371248:	10b0d4cf          	fnmadd.s	f9,f1,f11,f2,unknown
    4237124c:	0000                	.insn	2, 0x0000
    4237124e:	0000                	.insn	2, 0x0000
    42371250:	10b0d8cf          	fnmadd.s	f17,f1,f11,f2,unknown
    42371254:	0000                	.insn	2, 0x0000
    42371256:	0000                	.insn	2, 0x0000
    42371258:	10b0dccf          	fnmadd.s	f25,f1,f11,f2,unknown
    4237125c:	0000                	.insn	2, 0x0000
    4237125e:	0000                	.insn	2, 0x0000
    42371260:	10b0e0cf          	fnmadd.s	f1,f1,f11,f2,unknown
    42371264:	0000                	.insn	2, 0x0000
    42371266:	0000                	.insn	2, 0x0000
    42371268:	10b0e4cf          	fnmadd.s	f9,f1,f11,f2,unknown
    4237126c:	0000                	.insn	2, 0x0000
    4237126e:	0000                	.insn	2, 0x0000
    42371270:	10b0e8cf          	fnmadd.s	f17,f1,f11,f2,unknown
    42371274:	0000                	.insn	2, 0x0000
    42371276:	0000                	.insn	2, 0x0000
    42371278:	10b0eccf          	fnmadd.s	f25,f1,f11,f2,unknown
    4237127c:	0000                	.insn	2, 0x0000
    4237127e:	0000                	.insn	2, 0x0000
    42371280:	10b0f0cf          	fnmadd.s	f1,f1,f11,f2
    42371284:	0000                	.insn	2, 0x0000
    42371286:	0000                	.insn	2, 0x0000
    42371288:	10b0f4cf          	fnmadd.s	f9,f1,f11,f2
    4237128c:	0000                	.insn	2, 0x0000
    4237128e:	0000                	.insn	2, 0x0000
    42371290:	10b0f8cf          	fnmadd.s	f17,f1,f11,f2
    42371294:	0000                	.insn	2, 0x0000
    42371296:	0000                	.insn	2, 0x0000
    42371298:	10b0fccf          	fnmadd.s	f25,f1,f11,f2
    4237129c:	0000                	.insn	2, 0x0000
    4237129e:	0000                	.insn	2, 0x0000
    423712a0:	10b100cf          	fnmadd.s	f1,f2,f11,f2,rne
    423712a4:	0000                	.insn	2, 0x0000
    423712a6:	0000                	.insn	2, 0x0000
    423712a8:	10b104cf          	fnmadd.s	f9,f2,f11,f2,rne
    423712ac:	0000                	.insn	2, 0x0000
    423712ae:	0000                	.insn	2, 0x0000
    423712b0:	10b108cf          	fnmadd.s	f17,f2,f11,f2,rne
    423712b4:	0000                	.insn	2, 0x0000
    423712b6:	0000                	.insn	2, 0x0000
    423712b8:	10b10ccf          	fnmadd.s	f25,f2,f11,f2,rne
    423712bc:	0000                	.insn	2, 0x0000
    423712be:	0000                	.insn	2, 0x0000
    423712c0:	10b110cf          	fnmadd.s	f1,f2,f11,f2,rtz
    423712c4:	0000                	.insn	2, 0x0000
    423712c6:	0000                	.insn	2, 0x0000
    423712c8:	10b114cf          	fnmadd.s	f9,f2,f11,f2,rtz
    423712cc:	0000                	.insn	2, 0x0000
    423712ce:	0000                	.insn	2, 0x0000
    423712d0:	10b118cf          	fnmadd.s	f17,f2,f11,f2,rtz
    423712d4:	0000                	.insn	2, 0x0000
    423712d6:	0000                	.insn	2, 0x0000
    423712d8:	10b11ccf          	fnmadd.s	f25,f2,f11,f2,rtz
    423712dc:	0000                	.insn	2, 0x0000
    423712de:	0000                	.insn	2, 0x0000
    423712e0:	10b120cf          	fnmadd.s	f1,f2,f11,f2,rdn
    423712e4:	0000                	.insn	2, 0x0000
    423712e6:	0000                	.insn	2, 0x0000
    423712e8:	10b124cf          	fnmadd.s	f9,f2,f11,f2,rdn
    423712ec:	0000                	.insn	2, 0x0000
    423712ee:	0000                	.insn	2, 0x0000
    423712f0:	10b128cf          	fnmadd.s	f17,f2,f11,f2,rdn
    423712f4:	0000                	.insn	2, 0x0000
    423712f6:	0000                	.insn	2, 0x0000
    423712f8:	10b12ccf          	fnmadd.s	f25,f2,f11,f2,rdn
    423712fc:	0000                	.insn	2, 0x0000
    423712fe:	0000                	.insn	2, 0x0000
    42371300:	10b130cf          	fnmadd.s	f1,f2,f11,f2,rup
    42371304:	0000                	.insn	2, 0x0000
    42371306:	0000                	.insn	2, 0x0000
    42371308:	10b134cf          	fnmadd.s	f9,f2,f11,f2,rup
    4237130c:	0000                	.insn	2, 0x0000
    4237130e:	0000                	.insn	2, 0x0000
    42371310:	10b138cf          	fnmadd.s	f17,f2,f11,f2,rup
    42371314:	0000                	.insn	2, 0x0000
    42371316:	0000                	.insn	2, 0x0000
    42371318:	10b13ccf          	fnmadd.s	f25,f2,f11,f2,rup
    4237131c:	0000                	.insn	2, 0x0000
    4237131e:	0000                	.insn	2, 0x0000
    42371320:	10b140cf          	fnmadd.s	f1,f2,f11,f2,rmm
    42371324:	0000                	.insn	2, 0x0000
    42371326:	0000                	.insn	2, 0x0000
    42371328:	10b144cf          	fnmadd.s	f9,f2,f11,f2,rmm
    4237132c:	0000                	.insn	2, 0x0000
    4237132e:	0000                	.insn	2, 0x0000
    42371330:	10b148cf          	fnmadd.s	f17,f2,f11,f2,rmm
    42371334:	0000                	.insn	2, 0x0000
    42371336:	0000                	.insn	2, 0x0000
    42371338:	10b14ccf          	fnmadd.s	f25,f2,f11,f2,rmm
    4237133c:	0000                	.insn	2, 0x0000
    4237133e:	0000                	.insn	2, 0x0000
    42371340:	10b150cf          	fnmadd.s	f1,f2,f11,f2,unknown
    42371344:	0000                	.insn	2, 0x0000
    42371346:	0000                	.insn	2, 0x0000
    42371348:	10b154cf          	fnmadd.s	f9,f2,f11,f2,unknown
    4237134c:	0000                	.insn	2, 0x0000
    4237134e:	0000                	.insn	2, 0x0000
    42371350:	10b158cf          	fnmadd.s	f17,f2,f11,f2,unknown
    42371354:	0000                	.insn	2, 0x0000
    42371356:	0000                	.insn	2, 0x0000
    42371358:	10b15ccf          	fnmadd.s	f25,f2,f11,f2,unknown
    4237135c:	0000                	.insn	2, 0x0000
    4237135e:	0000                	.insn	2, 0x0000
    42371360:	10b160cf          	fnmadd.s	f1,f2,f11,f2,unknown
    42371364:	0000                	.insn	2, 0x0000
    42371366:	0000                	.insn	2, 0x0000
    42371368:	10b164cf          	fnmadd.s	f9,f2,f11,f2,unknown
    4237136c:	0000                	.insn	2, 0x0000
    4237136e:	0000                	.insn	2, 0x0000
    42371370:	10b168cf          	fnmadd.s	f17,f2,f11,f2,unknown
    42371374:	0000                	.insn	2, 0x0000
    42371376:	0000                	.insn	2, 0x0000
    42371378:	10b16ccf          	fnmadd.s	f25,f2,f11,f2,unknown
    4237137c:	0000                	.insn	2, 0x0000
    4237137e:	0000                	.insn	2, 0x0000
    42371380:	10b170cf          	fnmadd.s	f1,f2,f11,f2
    42371384:	0000                	.insn	2, 0x0000
    42371386:	0000                	.insn	2, 0x0000
    42371388:	10b174cf          	fnmadd.s	f9,f2,f11,f2
    4237138c:	0000                	.insn	2, 0x0000
    4237138e:	0000                	.insn	2, 0x0000
    42371390:	10b178cf          	fnmadd.s	f17,f2,f11,f2
    42371394:	0000                	.insn	2, 0x0000
    42371396:	0000                	.insn	2, 0x0000
    42371398:	10b17ccf          	fnmadd.s	f25,f2,f11,f2
    4237139c:	0000                	.insn	2, 0x0000
    4237139e:	0000                	.insn	2, 0x0000
    423713a0:	10b180cf          	fnmadd.s	f1,f3,f11,f2,rne
    423713a4:	0000                	.insn	2, 0x0000
    423713a6:	0000                	.insn	2, 0x0000
    423713a8:	10b184cf          	fnmadd.s	f9,f3,f11,f2,rne
    423713ac:	0000                	.insn	2, 0x0000
    423713ae:	0000                	.insn	2, 0x0000
    423713b0:	10b188cf          	fnmadd.s	f17,f3,f11,f2,rne
    423713b4:	0000                	.insn	2, 0x0000
    423713b6:	0000                	.insn	2, 0x0000
    423713b8:	10b18ccf          	fnmadd.s	f25,f3,f11,f2,rne
    423713bc:	0000                	.insn	2, 0x0000
    423713be:	0000                	.insn	2, 0x0000
    423713c0:	10b190cf          	fnmadd.s	f1,f3,f11,f2,rtz
    423713c4:	0000                	.insn	2, 0x0000
    423713c6:	0000                	.insn	2, 0x0000
    423713c8:	10b194cf          	fnmadd.s	f9,f3,f11,f2,rtz
    423713cc:	0000                	.insn	2, 0x0000
    423713ce:	0000                	.insn	2, 0x0000
    423713d0:	10b198cf          	fnmadd.s	f17,f3,f11,f2,rtz
    423713d4:	0000                	.insn	2, 0x0000
    423713d6:	0000                	.insn	2, 0x0000
    423713d8:	10b19ccf          	fnmadd.s	f25,f3,f11,f2,rtz
    423713dc:	0000                	.insn	2, 0x0000
    423713de:	0000                	.insn	2, 0x0000
    423713e0:	10b1a0cf          	fnmadd.s	f1,f3,f11,f2,rdn
    423713e4:	0000                	.insn	2, 0x0000
    423713e6:	0000                	.insn	2, 0x0000
    423713e8:	10b1a4cf          	fnmadd.s	f9,f3,f11,f2,rdn
    423713ec:	0000                	.insn	2, 0x0000
    423713ee:	0000                	.insn	2, 0x0000
    423713f0:	10b1a8cf          	fnmadd.s	f17,f3,f11,f2,rdn
    423713f4:	0000                	.insn	2, 0x0000
    423713f6:	0000                	.insn	2, 0x0000
    423713f8:	10b1accf          	fnmadd.s	f25,f3,f11,f2,rdn
    423713fc:	0000                	.insn	2, 0x0000
    423713fe:	0000                	.insn	2, 0x0000
    42371400:	10b1b0cf          	fnmadd.s	f1,f3,f11,f2,rup
    42371404:	0000                	.insn	2, 0x0000
    42371406:	0000                	.insn	2, 0x0000
    42371408:	10b1b4cf          	fnmadd.s	f9,f3,f11,f2,rup
    4237140c:	0000                	.insn	2, 0x0000
    4237140e:	0000                	.insn	2, 0x0000
    42371410:	10b1b8cf          	fnmadd.s	f17,f3,f11,f2,rup
    42371414:	0000                	.insn	2, 0x0000
    42371416:	0000                	.insn	2, 0x0000
    42371418:	10b1bccf          	fnmadd.s	f25,f3,f11,f2,rup
    4237141c:	0000                	.insn	2, 0x0000
    4237141e:	0000                	.insn	2, 0x0000
    42371420:	10b1c0cf          	fnmadd.s	f1,f3,f11,f2,rmm
    42371424:	0000                	.insn	2, 0x0000
    42371426:	0000                	.insn	2, 0x0000
    42371428:	10b1c4cf          	fnmadd.s	f9,f3,f11,f2,rmm
    4237142c:	0000                	.insn	2, 0x0000
    4237142e:	0000                	.insn	2, 0x0000
    42371430:	10b1c8cf          	fnmadd.s	f17,f3,f11,f2,rmm
    42371434:	0000                	.insn	2, 0x0000
    42371436:	0000                	.insn	2, 0x0000
    42371438:	10b1cccf          	fnmadd.s	f25,f3,f11,f2,rmm
    4237143c:	0000                	.insn	2, 0x0000
    4237143e:	0000                	.insn	2, 0x0000
    42371440:	10b1d0cf          	fnmadd.s	f1,f3,f11,f2,unknown
    42371444:	0000                	.insn	2, 0x0000
    42371446:	0000                	.insn	2, 0x0000
    42371448:	10b1d4cf          	fnmadd.s	f9,f3,f11,f2,unknown
    4237144c:	0000                	.insn	2, 0x0000
    4237144e:	0000                	.insn	2, 0x0000
    42371450:	10b1d8cf          	fnmadd.s	f17,f3,f11,f2,unknown
    42371454:	0000                	.insn	2, 0x0000
    42371456:	0000                	.insn	2, 0x0000
    42371458:	10b1dccf          	fnmadd.s	f25,f3,f11,f2,unknown
    4237145c:	0000                	.insn	2, 0x0000
    4237145e:	0000                	.insn	2, 0x0000
    42371460:	10b1e0cf          	fnmadd.s	f1,f3,f11,f2,unknown
    42371464:	0000                	.insn	2, 0x0000
    42371466:	0000                	.insn	2, 0x0000
    42371468:	10b1e4cf          	fnmadd.s	f9,f3,f11,f2,unknown
    4237146c:	0000                	.insn	2, 0x0000
    4237146e:	0000                	.insn	2, 0x0000
    42371470:	10b1e8cf          	fnmadd.s	f17,f3,f11,f2,unknown
    42371474:	0000                	.insn	2, 0x0000
    42371476:	0000                	.insn	2, 0x0000
    42371478:	10b1eccf          	fnmadd.s	f25,f3,f11,f2,unknown
    4237147c:	0000                	.insn	2, 0x0000
    4237147e:	0000                	.insn	2, 0x0000
    42371480:	10b1f0cf          	fnmadd.s	f1,f3,f11,f2
    42371484:	0000                	.insn	2, 0x0000
    42371486:	0000                	.insn	2, 0x0000
    42371488:	10b1f4cf          	fnmadd.s	f9,f3,f11,f2
    4237148c:	0000                	.insn	2, 0x0000
    4237148e:	0000                	.insn	2, 0x0000
    42371490:	10b1f8cf          	fnmadd.s	f17,f3,f11,f2
    42371494:	0000                	.insn	2, 0x0000
    42371496:	0000                	.insn	2, 0x0000
    42371498:	10b1fccf          	fnmadd.s	f25,f3,f11,f2
    4237149c:	0000                	.insn	2, 0x0000
    4237149e:	0000                	.insn	2, 0x0000
    423714a0:	10b200cf          	fnmadd.s	f1,f4,f11,f2,rne
    423714a4:	0000                	.insn	2, 0x0000
    423714a6:	0000                	.insn	2, 0x0000
    423714a8:	10b204cf          	fnmadd.s	f9,f4,f11,f2,rne
    423714ac:	0000                	.insn	2, 0x0000
    423714ae:	0000                	.insn	2, 0x0000
    423714b0:	10b208cf          	fnmadd.s	f17,f4,f11,f2,rne
    423714b4:	0000                	.insn	2, 0x0000
    423714b6:	0000                	.insn	2, 0x0000
    423714b8:	10b20ccf          	fnmadd.s	f25,f4,f11,f2,rne
    423714bc:	0000                	.insn	2, 0x0000
    423714be:	0000                	.insn	2, 0x0000
    423714c0:	10b210cf          	fnmadd.s	f1,f4,f11,f2,rtz
    423714c4:	0000                	.insn	2, 0x0000
    423714c6:	0000                	.insn	2, 0x0000
    423714c8:	10b214cf          	fnmadd.s	f9,f4,f11,f2,rtz
    423714cc:	0000                	.insn	2, 0x0000
    423714ce:	0000                	.insn	2, 0x0000
    423714d0:	10b218cf          	fnmadd.s	f17,f4,f11,f2,rtz
    423714d4:	0000                	.insn	2, 0x0000
    423714d6:	0000                	.insn	2, 0x0000
    423714d8:	10b21ccf          	fnmadd.s	f25,f4,f11,f2,rtz
    423714dc:	0000                	.insn	2, 0x0000
    423714de:	0000                	.insn	2, 0x0000
    423714e0:	10b220cf          	fnmadd.s	f1,f4,f11,f2,rdn
    423714e4:	0000                	.insn	2, 0x0000
    423714e6:	0000                	.insn	2, 0x0000
    423714e8:	10b224cf          	fnmadd.s	f9,f4,f11,f2,rdn
    423714ec:	0000                	.insn	2, 0x0000
    423714ee:	0000                	.insn	2, 0x0000
    423714f0:	10b228cf          	fnmadd.s	f17,f4,f11,f2,rdn
    423714f4:	0000                	.insn	2, 0x0000
    423714f6:	0000                	.insn	2, 0x0000
    423714f8:	10b22ccf          	fnmadd.s	f25,f4,f11,f2,rdn
    423714fc:	0000                	.insn	2, 0x0000
    423714fe:	0000                	.insn	2, 0x0000
    42371500:	10b230cf          	fnmadd.s	f1,f4,f11,f2,rup
    42371504:	0000                	.insn	2, 0x0000
    42371506:	0000                	.insn	2, 0x0000
    42371508:	10b234cf          	fnmadd.s	f9,f4,f11,f2,rup
    4237150c:	0000                	.insn	2, 0x0000
    4237150e:	0000                	.insn	2, 0x0000
    42371510:	10b238cf          	fnmadd.s	f17,f4,f11,f2,rup
    42371514:	0000                	.insn	2, 0x0000
    42371516:	0000                	.insn	2, 0x0000
    42371518:	10b23ccf          	fnmadd.s	f25,f4,f11,f2,rup
    4237151c:	0000                	.insn	2, 0x0000
    4237151e:	0000                	.insn	2, 0x0000
    42371520:	10b240cf          	fnmadd.s	f1,f4,f11,f2,rmm
    42371524:	0000                	.insn	2, 0x0000
    42371526:	0000                	.insn	2, 0x0000
    42371528:	10b244cf          	fnmadd.s	f9,f4,f11,f2,rmm
    4237152c:	0000                	.insn	2, 0x0000
    4237152e:	0000                	.insn	2, 0x0000
    42371530:	10b248cf          	fnmadd.s	f17,f4,f11,f2,rmm
    42371534:	0000                	.insn	2, 0x0000
    42371536:	0000                	.insn	2, 0x0000
    42371538:	10b24ccf          	fnmadd.s	f25,f4,f11,f2,rmm
    4237153c:	0000                	.insn	2, 0x0000
    4237153e:	0000                	.insn	2, 0x0000
    42371540:	10b250cf          	fnmadd.s	f1,f4,f11,f2,unknown
    42371544:	0000                	.insn	2, 0x0000
    42371546:	0000                	.insn	2, 0x0000
    42371548:	10b254cf          	fnmadd.s	f9,f4,f11,f2,unknown
    4237154c:	0000                	.insn	2, 0x0000
    4237154e:	0000                	.insn	2, 0x0000
    42371550:	10b258cf          	fnmadd.s	f17,f4,f11,f2,unknown
    42371554:	0000                	.insn	2, 0x0000
    42371556:	0000                	.insn	2, 0x0000
    42371558:	10b25ccf          	fnmadd.s	f25,f4,f11,f2,unknown
    4237155c:	0000                	.insn	2, 0x0000
    4237155e:	0000                	.insn	2, 0x0000
    42371560:	10b260cf          	fnmadd.s	f1,f4,f11,f2,unknown
    42371564:	0000                	.insn	2, 0x0000
    42371566:	0000                	.insn	2, 0x0000
    42371568:	10b264cf          	fnmadd.s	f9,f4,f11,f2,unknown
    4237156c:	0000                	.insn	2, 0x0000
    4237156e:	0000                	.insn	2, 0x0000
    42371570:	10b268cf          	fnmadd.s	f17,f4,f11,f2,unknown
    42371574:	0000                	.insn	2, 0x0000
    42371576:	0000                	.insn	2, 0x0000
    42371578:	10b26ccf          	fnmadd.s	f25,f4,f11,f2,unknown
    4237157c:	0000                	.insn	2, 0x0000
    4237157e:	0000                	.insn	2, 0x0000
    42371580:	10b270cf          	fnmadd.s	f1,f4,f11,f2
    42371584:	0000                	.insn	2, 0x0000
    42371586:	0000                	.insn	2, 0x0000
    42371588:	10b274cf          	fnmadd.s	f9,f4,f11,f2
    4237158c:	0000                	.insn	2, 0x0000
    4237158e:	0000                	.insn	2, 0x0000
    42371590:	10b278cf          	fnmadd.s	f17,f4,f11,f2
    42371594:	0000                	.insn	2, 0x0000
    42371596:	0000                	.insn	2, 0x0000
    42371598:	10b27ccf          	fnmadd.s	f25,f4,f11,f2
    4237159c:	0000                	.insn	2, 0x0000
    4237159e:	0000                	.insn	2, 0x0000
    423715a0:	10b280cf          	fnmadd.s	f1,f5,f11,f2,rne
    423715a4:	0000                	.insn	2, 0x0000
    423715a6:	0000                	.insn	2, 0x0000
    423715a8:	10b284cf          	fnmadd.s	f9,f5,f11,f2,rne
    423715ac:	0000                	.insn	2, 0x0000
    423715ae:	0000                	.insn	2, 0x0000
    423715b0:	10b288cf          	fnmadd.s	f17,f5,f11,f2,rne
    423715b4:	0000                	.insn	2, 0x0000
    423715b6:	0000                	.insn	2, 0x0000
    423715b8:	10b28ccf          	fnmadd.s	f25,f5,f11,f2,rne
    423715bc:	0000                	.insn	2, 0x0000
    423715be:	0000                	.insn	2, 0x0000
    423715c0:	10b290cf          	fnmadd.s	f1,f5,f11,f2,rtz
    423715c4:	0000                	.insn	2, 0x0000
    423715c6:	0000                	.insn	2, 0x0000
    423715c8:	10b294cf          	fnmadd.s	f9,f5,f11,f2,rtz
    423715cc:	0000                	.insn	2, 0x0000
    423715ce:	0000                	.insn	2, 0x0000
    423715d0:	10b298cf          	fnmadd.s	f17,f5,f11,f2,rtz
    423715d4:	0000                	.insn	2, 0x0000
    423715d6:	0000                	.insn	2, 0x0000
    423715d8:	10b29ccf          	fnmadd.s	f25,f5,f11,f2,rtz
    423715dc:	0000                	.insn	2, 0x0000
    423715de:	0000                	.insn	2, 0x0000
    423715e0:	10b2a0cf          	fnmadd.s	f1,f5,f11,f2,rdn
    423715e4:	0000                	.insn	2, 0x0000
    423715e6:	0000                	.insn	2, 0x0000
    423715e8:	10b2a4cf          	fnmadd.s	f9,f5,f11,f2,rdn
    423715ec:	0000                	.insn	2, 0x0000
    423715ee:	0000                	.insn	2, 0x0000
    423715f0:	10b2a8cf          	fnmadd.s	f17,f5,f11,f2,rdn
    423715f4:	0000                	.insn	2, 0x0000
    423715f6:	0000                	.insn	2, 0x0000
    423715f8:	10b2accf          	fnmadd.s	f25,f5,f11,f2,rdn
    423715fc:	0000                	.insn	2, 0x0000
    423715fe:	0000                	.insn	2, 0x0000
    42371600:	10b2b0cf          	fnmadd.s	f1,f5,f11,f2,rup
    42371604:	0000                	.insn	2, 0x0000
    42371606:	0000                	.insn	2, 0x0000
    42371608:	10b2b4cf          	fnmadd.s	f9,f5,f11,f2,rup
    4237160c:	0000                	.insn	2, 0x0000
    4237160e:	0000                	.insn	2, 0x0000
    42371610:	10b2b8cf          	fnmadd.s	f17,f5,f11,f2,rup
    42371614:	0000                	.insn	2, 0x0000
    42371616:	0000                	.insn	2, 0x0000
    42371618:	10b2bccf          	fnmadd.s	f25,f5,f11,f2,rup
    4237161c:	0000                	.insn	2, 0x0000
    4237161e:	0000                	.insn	2, 0x0000
    42371620:	10b2c0cf          	fnmadd.s	f1,f5,f11,f2,rmm
    42371624:	0000                	.insn	2, 0x0000
    42371626:	0000                	.insn	2, 0x0000
    42371628:	10b2c4cf          	fnmadd.s	f9,f5,f11,f2,rmm
    4237162c:	0000                	.insn	2, 0x0000
    4237162e:	0000                	.insn	2, 0x0000
    42371630:	10b2c8cf          	fnmadd.s	f17,f5,f11,f2,rmm
    42371634:	0000                	.insn	2, 0x0000
    42371636:	0000                	.insn	2, 0x0000
    42371638:	10b2cccf          	fnmadd.s	f25,f5,f11,f2,rmm
    4237163c:	0000                	.insn	2, 0x0000
    4237163e:	0000                	.insn	2, 0x0000
    42371640:	10b2d0cf          	fnmadd.s	f1,f5,f11,f2,unknown
    42371644:	0000                	.insn	2, 0x0000
    42371646:	0000                	.insn	2, 0x0000
    42371648:	10b2d4cf          	fnmadd.s	f9,f5,f11,f2,unknown
    4237164c:	0000                	.insn	2, 0x0000
    4237164e:	0000                	.insn	2, 0x0000
    42371650:	10b2d8cf          	fnmadd.s	f17,f5,f11,f2,unknown
    42371654:	0000                	.insn	2, 0x0000
    42371656:	0000                	.insn	2, 0x0000
    42371658:	10b2dccf          	fnmadd.s	f25,f5,f11,f2,unknown
    4237165c:	0000                	.insn	2, 0x0000
    4237165e:	0000                	.insn	2, 0x0000
    42371660:	10b2e0cf          	fnmadd.s	f1,f5,f11,f2,unknown
    42371664:	0000                	.insn	2, 0x0000
    42371666:	0000                	.insn	2, 0x0000
    42371668:	10b2e4cf          	fnmadd.s	f9,f5,f11,f2,unknown
    4237166c:	0000                	.insn	2, 0x0000
    4237166e:	0000                	.insn	2, 0x0000
    42371670:	10b2e8cf          	fnmadd.s	f17,f5,f11,f2,unknown
    42371674:	0000                	.insn	2, 0x0000
    42371676:	0000                	.insn	2, 0x0000
    42371678:	10b2eccf          	fnmadd.s	f25,f5,f11,f2,unknown
    4237167c:	0000                	.insn	2, 0x0000
    4237167e:	0000                	.insn	2, 0x0000
    42371680:	10b2f0cf          	fnmadd.s	f1,f5,f11,f2
    42371684:	0000                	.insn	2, 0x0000
    42371686:	0000                	.insn	2, 0x0000
    42371688:	10b2f4cf          	fnmadd.s	f9,f5,f11,f2
    4237168c:	0000                	.insn	2, 0x0000
    4237168e:	0000                	.insn	2, 0x0000
    42371690:	10b2f8cf          	fnmadd.s	f17,f5,f11,f2
    42371694:	0000                	.insn	2, 0x0000
    42371696:	0000                	.insn	2, 0x0000
    42371698:	10b2fccf          	fnmadd.s	f25,f5,f11,f2
    4237169c:	0000                	.insn	2, 0x0000
    4237169e:	0000                	.insn	2, 0x0000
    423716a0:	10b300cf          	fnmadd.s	f1,f6,f11,f2,rne
    423716a4:	0000                	.insn	2, 0x0000
    423716a6:	0000                	.insn	2, 0x0000
    423716a8:	10b304cf          	fnmadd.s	f9,f6,f11,f2,rne
    423716ac:	0000                	.insn	2, 0x0000
    423716ae:	0000                	.insn	2, 0x0000
    423716b0:	10b308cf          	fnmadd.s	f17,f6,f11,f2,rne
    423716b4:	0000                	.insn	2, 0x0000
    423716b6:	0000                	.insn	2, 0x0000
    423716b8:	10b30ccf          	fnmadd.s	f25,f6,f11,f2,rne
    423716bc:	0000                	.insn	2, 0x0000
    423716be:	0000                	.insn	2, 0x0000
    423716c0:	10b310cf          	fnmadd.s	f1,f6,f11,f2,rtz
    423716c4:	0000                	.insn	2, 0x0000
    423716c6:	0000                	.insn	2, 0x0000
    423716c8:	10b314cf          	fnmadd.s	f9,f6,f11,f2,rtz
    423716cc:	0000                	.insn	2, 0x0000
    423716ce:	0000                	.insn	2, 0x0000
    423716d0:	10b318cf          	fnmadd.s	f17,f6,f11,f2,rtz
    423716d4:	0000                	.insn	2, 0x0000
    423716d6:	0000                	.insn	2, 0x0000
    423716d8:	10b31ccf          	fnmadd.s	f25,f6,f11,f2,rtz
    423716dc:	0000                	.insn	2, 0x0000
    423716de:	0000                	.insn	2, 0x0000
    423716e0:	10b320cf          	fnmadd.s	f1,f6,f11,f2,rdn
    423716e4:	0000                	.insn	2, 0x0000
    423716e6:	0000                	.insn	2, 0x0000
    423716e8:	10b324cf          	fnmadd.s	f9,f6,f11,f2,rdn
    423716ec:	0000                	.insn	2, 0x0000
    423716ee:	0000                	.insn	2, 0x0000
    423716f0:	10b328cf          	fnmadd.s	f17,f6,f11,f2,rdn
    423716f4:	0000                	.insn	2, 0x0000
    423716f6:	0000                	.insn	2, 0x0000
    423716f8:	10b32ccf          	fnmadd.s	f25,f6,f11,f2,rdn
    423716fc:	0000                	.insn	2, 0x0000
    423716fe:	0000                	.insn	2, 0x0000
    42371700:	10b330cf          	fnmadd.s	f1,f6,f11,f2,rup
    42371704:	0000                	.insn	2, 0x0000
    42371706:	0000                	.insn	2, 0x0000
    42371708:	10b334cf          	fnmadd.s	f9,f6,f11,f2,rup
    4237170c:	0000                	.insn	2, 0x0000
    4237170e:	0000                	.insn	2, 0x0000
    42371710:	10b338cf          	fnmadd.s	f17,f6,f11,f2,rup
    42371714:	0000                	.insn	2, 0x0000
    42371716:	0000                	.insn	2, 0x0000
    42371718:	10b33ccf          	fnmadd.s	f25,f6,f11,f2,rup
    4237171c:	0000                	.insn	2, 0x0000
    4237171e:	0000                	.insn	2, 0x0000
    42371720:	10b340cf          	fnmadd.s	f1,f6,f11,f2,rmm
    42371724:	0000                	.insn	2, 0x0000
    42371726:	0000                	.insn	2, 0x0000
    42371728:	10b344cf          	fnmadd.s	f9,f6,f11,f2,rmm
    4237172c:	0000                	.insn	2, 0x0000
    4237172e:	0000                	.insn	2, 0x0000
    42371730:	10b348cf          	fnmadd.s	f17,f6,f11,f2,rmm
    42371734:	0000                	.insn	2, 0x0000
    42371736:	0000                	.insn	2, 0x0000
    42371738:	10b34ccf          	fnmadd.s	f25,f6,f11,f2,rmm
    4237173c:	0000                	.insn	2, 0x0000
    4237173e:	0000                	.insn	2, 0x0000
    42371740:	10b350cf          	fnmadd.s	f1,f6,f11,f2,unknown
    42371744:	0000                	.insn	2, 0x0000
    42371746:	0000                	.insn	2, 0x0000
    42371748:	10b354cf          	fnmadd.s	f9,f6,f11,f2,unknown
    4237174c:	0000                	.insn	2, 0x0000
    4237174e:	0000                	.insn	2, 0x0000
    42371750:	10b358cf          	fnmadd.s	f17,f6,f11,f2,unknown
    42371754:	0000                	.insn	2, 0x0000
    42371756:	0000                	.insn	2, 0x0000
    42371758:	10b35ccf          	fnmadd.s	f25,f6,f11,f2,unknown
    4237175c:	0000                	.insn	2, 0x0000
    4237175e:	0000                	.insn	2, 0x0000
    42371760:	10b360cf          	fnmadd.s	f1,f6,f11,f2,unknown
    42371764:	0000                	.insn	2, 0x0000
    42371766:	0000                	.insn	2, 0x0000
    42371768:	10b364cf          	fnmadd.s	f9,f6,f11,f2,unknown
    4237176c:	0000                	.insn	2, 0x0000
    4237176e:	0000                	.insn	2, 0x0000
    42371770:	10b368cf          	fnmadd.s	f17,f6,f11,f2,unknown
    42371774:	0000                	.insn	2, 0x0000
    42371776:	0000                	.insn	2, 0x0000
    42371778:	10b36ccf          	fnmadd.s	f25,f6,f11,f2,unknown
    4237177c:	0000                	.insn	2, 0x0000
    4237177e:	0000                	.insn	2, 0x0000
    42371780:	10b370cf          	fnmadd.s	f1,f6,f11,f2
    42371784:	0000                	.insn	2, 0x0000
    42371786:	0000                	.insn	2, 0x0000
    42371788:	10b374cf          	fnmadd.s	f9,f6,f11,f2
    4237178c:	0000                	.insn	2, 0x0000
    4237178e:	0000                	.insn	2, 0x0000
    42371790:	10b378cf          	fnmadd.s	f17,f6,f11,f2
    42371794:	0000                	.insn	2, 0x0000
    42371796:	0000                	.insn	2, 0x0000
    42371798:	10b37ccf          	fnmadd.s	f25,f6,f11,f2
    4237179c:	0000                	.insn	2, 0x0000
    4237179e:	0000                	.insn	2, 0x0000
    423717a0:	10b380cf          	fnmadd.s	f1,f7,f11,f2,rne
    423717a4:	0000                	.insn	2, 0x0000
    423717a6:	0000                	.insn	2, 0x0000
    423717a8:	10b384cf          	fnmadd.s	f9,f7,f11,f2,rne
    423717ac:	0000                	.insn	2, 0x0000
    423717ae:	0000                	.insn	2, 0x0000
    423717b0:	10b388cf          	fnmadd.s	f17,f7,f11,f2,rne
    423717b4:	0000                	.insn	2, 0x0000
    423717b6:	0000                	.insn	2, 0x0000
    423717b8:	10b38ccf          	fnmadd.s	f25,f7,f11,f2,rne
    423717bc:	0000                	.insn	2, 0x0000
    423717be:	0000                	.insn	2, 0x0000
    423717c0:	10b390cf          	fnmadd.s	f1,f7,f11,f2,rtz
    423717c4:	0000                	.insn	2, 0x0000
    423717c6:	0000                	.insn	2, 0x0000
    423717c8:	10b394cf          	fnmadd.s	f9,f7,f11,f2,rtz
    423717cc:	0000                	.insn	2, 0x0000
    423717ce:	0000                	.insn	2, 0x0000
    423717d0:	10b398cf          	fnmadd.s	f17,f7,f11,f2,rtz
    423717d4:	0000                	.insn	2, 0x0000
    423717d6:	0000                	.insn	2, 0x0000
    423717d8:	10b39ccf          	fnmadd.s	f25,f7,f11,f2,rtz
    423717dc:	0000                	.insn	2, 0x0000
    423717de:	0000                	.insn	2, 0x0000
    423717e0:	10b3a0cf          	fnmadd.s	f1,f7,f11,f2,rdn
    423717e4:	0000                	.insn	2, 0x0000
    423717e6:	0000                	.insn	2, 0x0000
    423717e8:	10b3a4cf          	fnmadd.s	f9,f7,f11,f2,rdn
    423717ec:	0000                	.insn	2, 0x0000
    423717ee:	0000                	.insn	2, 0x0000
    423717f0:	10b3a8cf          	fnmadd.s	f17,f7,f11,f2,rdn
    423717f4:	0000                	.insn	2, 0x0000
    423717f6:	0000                	.insn	2, 0x0000
    423717f8:	10b3accf          	fnmadd.s	f25,f7,f11,f2,rdn
    423717fc:	0000                	.insn	2, 0x0000
    423717fe:	0000                	.insn	2, 0x0000
    42371800:	10b3b0cf          	fnmadd.s	f1,f7,f11,f2,rup
    42371804:	0000                	.insn	2, 0x0000
    42371806:	0000                	.insn	2, 0x0000
    42371808:	10b3b4cf          	fnmadd.s	f9,f7,f11,f2,rup
    4237180c:	0000                	.insn	2, 0x0000
    4237180e:	0000                	.insn	2, 0x0000
    42371810:	10b3b8cf          	fnmadd.s	f17,f7,f11,f2,rup
    42371814:	0000                	.insn	2, 0x0000
    42371816:	0000                	.insn	2, 0x0000
    42371818:	10b3bccf          	fnmadd.s	f25,f7,f11,f2,rup
    4237181c:	0000                	.insn	2, 0x0000
    4237181e:	0000                	.insn	2, 0x0000
    42371820:	10b3c0cf          	fnmadd.s	f1,f7,f11,f2,rmm
    42371824:	0000                	.insn	2, 0x0000
    42371826:	0000                	.insn	2, 0x0000
    42371828:	10b3c4cf          	fnmadd.s	f9,f7,f11,f2,rmm
    4237182c:	0000                	.insn	2, 0x0000
    4237182e:	0000                	.insn	2, 0x0000
    42371830:	10b3c8cf          	fnmadd.s	f17,f7,f11,f2,rmm
    42371834:	0000                	.insn	2, 0x0000
    42371836:	0000                	.insn	2, 0x0000
    42371838:	10b3cccf          	fnmadd.s	f25,f7,f11,f2,rmm
    4237183c:	0000                	.insn	2, 0x0000
    4237183e:	0000                	.insn	2, 0x0000
    42371840:	10b3d0cf          	fnmadd.s	f1,f7,f11,f2,unknown
    42371844:	0000                	.insn	2, 0x0000
    42371846:	0000                	.insn	2, 0x0000
    42371848:	10b3d4cf          	fnmadd.s	f9,f7,f11,f2,unknown
    4237184c:	0000                	.insn	2, 0x0000
    4237184e:	0000                	.insn	2, 0x0000
    42371850:	10b3d8cf          	fnmadd.s	f17,f7,f11,f2,unknown
    42371854:	0000                	.insn	2, 0x0000
    42371856:	0000                	.insn	2, 0x0000
    42371858:	10b3dccf          	fnmadd.s	f25,f7,f11,f2,unknown
    4237185c:	0000                	.insn	2, 0x0000
    4237185e:	0000                	.insn	2, 0x0000
    42371860:	10b3e0cf          	fnmadd.s	f1,f7,f11,f2,unknown
    42371864:	0000                	.insn	2, 0x0000
    42371866:	0000                	.insn	2, 0x0000
    42371868:	10b3e4cf          	fnmadd.s	f9,f7,f11,f2,unknown
    4237186c:	0000                	.insn	2, 0x0000
    4237186e:	0000                	.insn	2, 0x0000
    42371870:	10b3e8cf          	fnmadd.s	f17,f7,f11,f2,unknown
    42371874:	0000                	.insn	2, 0x0000
    42371876:	0000                	.insn	2, 0x0000
    42371878:	10b3eccf          	fnmadd.s	f25,f7,f11,f2,unknown
    4237187c:	0000                	.insn	2, 0x0000
    4237187e:	0000                	.insn	2, 0x0000
    42371880:	10b3f0cf          	fnmadd.s	f1,f7,f11,f2
    42371884:	0000                	.insn	2, 0x0000
    42371886:	0000                	.insn	2, 0x0000
    42371888:	10b3f4cf          	fnmadd.s	f9,f7,f11,f2
    4237188c:	0000                	.insn	2, 0x0000
    4237188e:	0000                	.insn	2, 0x0000
    42371890:	10b3f8cf          	fnmadd.s	f17,f7,f11,f2
    42371894:	0000                	.insn	2, 0x0000
    42371896:	0000                	.insn	2, 0x0000
    42371898:	10b3fccf          	fnmadd.s	f25,f7,f11,f2
    4237189c:	0000                	.insn	2, 0x0000
    4237189e:	0000                	.insn	2, 0x0000
    423718a0:	00df 10b4 0000      	.insn	6, 0x10b400df
    423718a6:	0000                	.insn	2, 0x0000
    423718a8:	04df 10b4 0000      	.insn	6, 0x10b404df
    423718ae:	0000                	.insn	2, 0x0000
    423718b0:	08df 10b4 0000      	.insn	6, 0x10b408df
    423718b6:	0000                	.insn	2, 0x0000
    423718b8:	0cdf 10b4 0000      	.insn	6, 0x10b40cdf
    423718be:	0000                	.insn	2, 0x0000
    423718c0:	10df 10b4 0000      	.insn	6, 0x10b410df
    423718c6:	0000                	.insn	2, 0x0000
    423718c8:	14df 10b4 0000      	.insn	6, 0x10b414df
    423718ce:	0000                	.insn	2, 0x0000
    423718d0:	18df 10b4 0000      	.insn	6, 0x10b418df
    423718d6:	0000                	.insn	2, 0x0000
    423718d8:	1cdf 10b4 0000      	.insn	6, 0x10b41cdf
    423718de:	0000                	.insn	2, 0x0000
    423718e0:	20df 10b4 0000      	.insn	6, 0x10b420df
    423718e6:	0000                	.insn	2, 0x0000
    423718e8:	24df 10b4 0000      	.insn	6, 0x10b424df
    423718ee:	0000                	.insn	2, 0x0000
    423718f0:	28df 10b4 0000      	.insn	6, 0x10b428df
    423718f6:	0000                	.insn	2, 0x0000
    423718f8:	2cdf 10b4 0000      	.insn	6, 0x10b42cdf
    423718fe:	0000                	.insn	2, 0x0000
    42371900:	30df 10b4 0000      	.insn	6, 0x10b430df
    42371906:	0000                	.insn	2, 0x0000
    42371908:	34df 10b4 0000      	.insn	6, 0x10b434df
    4237190e:	0000                	.insn	2, 0x0000
    42371910:	38df 10b4 0000      	.insn	6, 0x10b438df
    42371916:	0000                	.insn	2, 0x0000
    42371918:	3cdf 10b4 0000      	.insn	6, 0x10b43cdf
    4237191e:	0000                	.insn	2, 0x0000
    42371920:	40df 10b4 0000      	.insn	6, 0x10b440df
    42371926:	0000                	.insn	2, 0x0000
    42371928:	44df 10b4 0000      	.insn	6, 0x10b444df
    4237192e:	0000                	.insn	2, 0x0000
    42371930:	48df 10b4 0000      	.insn	6, 0x10b448df
    42371936:	0000                	.insn	2, 0x0000
    42371938:	4cdf 10b4 0000      	.insn	6, 0x10b44cdf
    4237193e:	0000                	.insn	2, 0x0000
    42371940:	50df 10b4 0000      	.insn	6, 0x10b450df
    42371946:	0000                	.insn	2, 0x0000
    42371948:	54df 10b4 0000      	.insn	6, 0x10b454df
    4237194e:	0000                	.insn	2, 0x0000
    42371950:	58df 10b4 0000      	.insn	6, 0x10b458df
    42371956:	0000                	.insn	2, 0x0000
    42371958:	5cdf 10b4 0000      	.insn	6, 0x10b45cdf
    4237195e:	0000                	.insn	2, 0x0000
    42371960:	60df 10b4 0000      	.insn	6, 0x10b460df
    42371966:	0000                	.insn	2, 0x0000
    42371968:	64df 10b4 0000      	.insn	6, 0x10b464df
    4237196e:	0000                	.insn	2, 0x0000
    42371970:	68df 10b4 0000      	.insn	6, 0x10b468df
    42371976:	0000                	.insn	2, 0x0000
    42371978:	6cdf 10b4 0000      	.insn	6, 0x10b46cdf
    4237197e:	0000                	.insn	2, 0x0000
    42371980:	70df 10b4 0000      	.insn	6, 0x10b470df
    42371986:	0000                	.insn	2, 0x0000
    42371988:	74df 10b4 0000      	.insn	6, 0x10b474df
    4237198e:	0000                	.insn	2, 0x0000
    42371990:	78df 10b4 0000      	.insn	6, 0x10b478df
    42371996:	0000                	.insn	2, 0x0000
    42371998:	7cdf 10b4 0000      	.insn	6, 0x10b47cdf
    4237199e:	0000                	.insn	2, 0x0000
    423719a0:	80df 10b4 0000      	.insn	6, 0x10b480df
    423719a6:	0000                	.insn	2, 0x0000
    423719a8:	84df 10b4 0000      	.insn	6, 0x10b484df
    423719ae:	0000                	.insn	2, 0x0000
    423719b0:	88df 10b4 0000      	.insn	6, 0x10b488df
    423719b6:	0000                	.insn	2, 0x0000
    423719b8:	8cdf 10b4 0000      	.insn	6, 0x10b48cdf
    423719be:	0000                	.insn	2, 0x0000
    423719c0:	90df 10b4 0000      	.insn	6, 0x10b490df
    423719c6:	0000                	.insn	2, 0x0000
    423719c8:	94df 10b4 0000      	.insn	6, 0x10b494df
    423719ce:	0000                	.insn	2, 0x0000
    423719d0:	98df 10b4 0000      	.insn	6, 0x10b498df
    423719d6:	0000                	.insn	2, 0x0000
    423719d8:	9cdf 10b4 0000      	.insn	6, 0x10b49cdf
    423719de:	0000                	.insn	2, 0x0000
    423719e0:	a0df 10b4 0000      	.insn	6, 0x10b4a0df
    423719e6:	0000                	.insn	2, 0x0000
    423719e8:	a4df 10b4 0000      	.insn	6, 0x10b4a4df
    423719ee:	0000                	.insn	2, 0x0000
    423719f0:	a8df 10b4 0000      	.insn	6, 0x10b4a8df
    423719f6:	0000                	.insn	2, 0x0000
    423719f8:	acdf 10b4 0000      	.insn	6, 0x10b4acdf
    423719fe:	0000                	.insn	2, 0x0000
    42371a00:	b0df 10b4 0000      	.insn	6, 0x10b4b0df
    42371a06:	0000                	.insn	2, 0x0000
    42371a08:	b4df 10b4 0000      	.insn	6, 0x10b4b4df
    42371a0e:	0000                	.insn	2, 0x0000
    42371a10:	b8df 10b4 0000      	.insn	6, 0x10b4b8df
    42371a16:	0000                	.insn	2, 0x0000
    42371a18:	bcdf 10b4 0000      	.insn	6, 0x10b4bcdf
    42371a1e:	0000                	.insn	2, 0x0000
    42371a20:	c0df 10b4 0000      	.insn	6, 0x10b4c0df
    42371a26:	0000                	.insn	2, 0x0000
    42371a28:	c4df 10b4 0000      	.insn	6, 0x10b4c4df
    42371a2e:	0000                	.insn	2, 0x0000
    42371a30:	c8df 10b4 0000      	.insn	6, 0x10b4c8df
    42371a36:	0000                	.insn	2, 0x0000
    42371a38:	ccdf 10b4 0000      	.insn	6, 0x10b4ccdf
    42371a3e:	0000                	.insn	2, 0x0000
    42371a40:	d0df 10b4 0000      	.insn	6, 0x10b4d0df
    42371a46:	0000                	.insn	2, 0x0000
    42371a48:	d4df 10b4 0000      	.insn	6, 0x10b4d4df
    42371a4e:	0000                	.insn	2, 0x0000
    42371a50:	d8df 10b4 0000      	.insn	6, 0x10b4d8df
    42371a56:	0000                	.insn	2, 0x0000
    42371a58:	dcdf 10b4 0000      	.insn	6, 0x10b4dcdf
    42371a5e:	0000                	.insn	2, 0x0000
    42371a60:	e0df 10b4 0000      	.insn	6, 0x10b4e0df
    42371a66:	0000                	.insn	2, 0x0000
    42371a68:	e4df 10b4 0000      	.insn	6, 0x10b4e4df
    42371a6e:	0000                	.insn	2, 0x0000
    42371a70:	e8df 10b4 0000      	.insn	6, 0x10b4e8df
    42371a76:	0000                	.insn	2, 0x0000
    42371a78:	ecdf 10b4 0000      	.insn	6, 0x10b4ecdf
    42371a7e:	0000                	.insn	2, 0x0000
    42371a80:	f0df 10b4 0000      	.insn	6, 0x10b4f0df
    42371a86:	0000                	.insn	2, 0x0000
    42371a88:	f4df 10b4 0000      	.insn	6, 0x10b4f4df
    42371a8e:	0000                	.insn	2, 0x0000
    42371a90:	f8df 10b4 0000      	.insn	6, 0x10b4f8df
    42371a96:	0000                	.insn	2, 0x0000
    42371a98:	fcdf 10b4 0000      	.insn	6, 0x10b4fcdf
    42371a9e:	0000                	.insn	2, 0x0000
    42371aa0:	00df 10b5 0000      	.insn	6, 0x10b500df
    42371aa6:	0000                	.insn	2, 0x0000
    42371aa8:	04df 10b5 0000      	.insn	6, 0x10b504df
    42371aae:	0000                	.insn	2, 0x0000
    42371ab0:	08df 10b5 0000      	.insn	6, 0x10b508df
    42371ab6:	0000                	.insn	2, 0x0000
    42371ab8:	0cdf 10b5 0000      	.insn	6, 0x10b50cdf
    42371abe:	0000                	.insn	2, 0x0000
    42371ac0:	10df 10b5 0000      	.insn	6, 0x10b510df
    42371ac6:	0000                	.insn	2, 0x0000
    42371ac8:	14df 10b5 0000      	.insn	6, 0x10b514df
    42371ace:	0000                	.insn	2, 0x0000
    42371ad0:	18df 10b5 0000      	.insn	6, 0x10b518df
    42371ad6:	0000                	.insn	2, 0x0000
    42371ad8:	1cdf 10b5 0000      	.insn	6, 0x10b51cdf
    42371ade:	0000                	.insn	2, 0x0000
    42371ae0:	20df 10b5 0000      	.insn	6, 0x10b520df
    42371ae6:	0000                	.insn	2, 0x0000
    42371ae8:	24df 10b5 0000      	.insn	6, 0x10b524df
    42371aee:	0000                	.insn	2, 0x0000
    42371af0:	28df 10b5 0000      	.insn	6, 0x10b528df
    42371af6:	0000                	.insn	2, 0x0000
    42371af8:	2cdf 10b5 0000      	.insn	6, 0x10b52cdf
    42371afe:	0000                	.insn	2, 0x0000
    42371b00:	30df 10b5 0000      	.insn	6, 0x10b530df
    42371b06:	0000                	.insn	2, 0x0000
    42371b08:	34df 10b5 0000      	.insn	6, 0x10b534df
    42371b0e:	0000                	.insn	2, 0x0000
    42371b10:	38df 10b5 0000      	.insn	6, 0x10b538df
    42371b16:	0000                	.insn	2, 0x0000
    42371b18:	3cdf 10b5 0000      	.insn	6, 0x10b53cdf
    42371b1e:	0000                	.insn	2, 0x0000
    42371b20:	40df 10b5 0000      	.insn	6, 0x10b540df
    42371b26:	0000                	.insn	2, 0x0000
    42371b28:	44df 10b5 0000      	.insn	6, 0x10b544df
    42371b2e:	0000                	.insn	2, 0x0000
    42371b30:	48df 10b5 0000      	.insn	6, 0x10b548df
    42371b36:	0000                	.insn	2, 0x0000
    42371b38:	4cdf 10b5 0000      	.insn	6, 0x10b54cdf
    42371b3e:	0000                	.insn	2, 0x0000
    42371b40:	50df 10b5 0000      	.insn	6, 0x10b550df
    42371b46:	0000                	.insn	2, 0x0000
    42371b48:	54df 10b5 0000      	.insn	6, 0x10b554df
    42371b4e:	0000                	.insn	2, 0x0000
    42371b50:	58df 10b5 0000      	.insn	6, 0x10b558df
    42371b56:	0000                	.insn	2, 0x0000
    42371b58:	5cdf 10b5 0000      	.insn	6, 0x10b55cdf
    42371b5e:	0000                	.insn	2, 0x0000
    42371b60:	60df 10b5 0000      	.insn	6, 0x10b560df
    42371b66:	0000                	.insn	2, 0x0000
    42371b68:	64df 10b5 0000      	.insn	6, 0x10b564df
    42371b6e:	0000                	.insn	2, 0x0000
    42371b70:	68df 10b5 0000      	.insn	6, 0x10b568df
    42371b76:	0000                	.insn	2, 0x0000
    42371b78:	6cdf 10b5 0000      	.insn	6, 0x10b56cdf
    42371b7e:	0000                	.insn	2, 0x0000
    42371b80:	70df 10b5 0000      	.insn	6, 0x10b570df
    42371b86:	0000                	.insn	2, 0x0000
    42371b88:	74df 10b5 0000      	.insn	6, 0x10b574df
    42371b8e:	0000                	.insn	2, 0x0000
    42371b90:	78df 10b5 0000      	.insn	6, 0x10b578df
    42371b96:	0000                	.insn	2, 0x0000
    42371b98:	7cdf 10b5 0000      	.insn	6, 0x10b57cdf
    42371b9e:	0000                	.insn	2, 0x0000
    42371ba0:	80df 10b5 0000      	.insn	6, 0x10b580df
    42371ba6:	0000                	.insn	2, 0x0000
    42371ba8:	84df 10b5 0000      	.insn	6, 0x10b584df
    42371bae:	0000                	.insn	2, 0x0000
    42371bb0:	88df 10b5 0000      	.insn	6, 0x10b588df
    42371bb6:	0000                	.insn	2, 0x0000
    42371bb8:	8cdf 10b5 0000      	.insn	6, 0x10b58cdf
    42371bbe:	0000                	.insn	2, 0x0000
    42371bc0:	90df 10b5 0000      	.insn	6, 0x10b590df
    42371bc6:	0000                	.insn	2, 0x0000
    42371bc8:	94df 10b5 0000      	.insn	6, 0x10b594df
    42371bce:	0000                	.insn	2, 0x0000
    42371bd0:	98df 10b5 0000      	.insn	6, 0x10b598df
    42371bd6:	0000                	.insn	2, 0x0000
    42371bd8:	9cdf 10b5 0000      	.insn	6, 0x10b59cdf
    42371bde:	0000                	.insn	2, 0x0000
    42371be0:	a0df 10b5 0000      	.insn	6, 0x10b5a0df
    42371be6:	0000                	.insn	2, 0x0000
    42371be8:	a4df 10b5 0000      	.insn	6, 0x10b5a4df
    42371bee:	0000                	.insn	2, 0x0000
    42371bf0:	a8df 10b5 0000      	.insn	6, 0x10b5a8df
    42371bf6:	0000                	.insn	2, 0x0000
    42371bf8:	acdf 10b5 0000      	.insn	6, 0x10b5acdf
    42371bfe:	0000                	.insn	2, 0x0000
    42371c00:	b0df 10b5 0000      	.insn	6, 0x10b5b0df
    42371c06:	0000                	.insn	2, 0x0000
    42371c08:	b4df 10b5 0000      	.insn	6, 0x10b5b4df
    42371c0e:	0000                	.insn	2, 0x0000
    42371c10:	b8df 10b5 0000      	.insn	6, 0x10b5b8df
    42371c16:	0000                	.insn	2, 0x0000
    42371c18:	bcdf 10b5 0000      	.insn	6, 0x10b5bcdf
    42371c1e:	0000                	.insn	2, 0x0000
    42371c20:	c0df 10b5 0000      	.insn	6, 0x10b5c0df
    42371c26:	0000                	.insn	2, 0x0000
    42371c28:	c4df 10b5 0000      	.insn	6, 0x10b5c4df
    42371c2e:	0000                	.insn	2, 0x0000
    42371c30:	c8df 10b5 0000      	.insn	6, 0x10b5c8df
    42371c36:	0000                	.insn	2, 0x0000
    42371c38:	ccdf 10b5 0000      	.insn	6, 0x10b5ccdf
    42371c3e:	0000                	.insn	2, 0x0000
    42371c40:	d0df 10b5 0000      	.insn	6, 0x10b5d0df
    42371c46:	0000                	.insn	2, 0x0000
    42371c48:	d4df 10b5 0000      	.insn	6, 0x10b5d4df
    42371c4e:	0000                	.insn	2, 0x0000
    42371c50:	d8df 10b5 0000      	.insn	6, 0x10b5d8df
    42371c56:	0000                	.insn	2, 0x0000
    42371c58:	dcdf 10b5 0000      	.insn	6, 0x10b5dcdf
    42371c5e:	0000                	.insn	2, 0x0000
    42371c60:	e0df 10b5 0000      	.insn	6, 0x10b5e0df
    42371c66:	0000                	.insn	2, 0x0000
    42371c68:	e4df 10b5 0000      	.insn	6, 0x10b5e4df
    42371c6e:	0000                	.insn	2, 0x0000
    42371c70:	e8df 10b5 0000      	.insn	6, 0x10b5e8df
    42371c76:	0000                	.insn	2, 0x0000
    42371c78:	ecdf 10b5 0000      	.insn	6, 0x10b5ecdf
    42371c7e:	0000                	.insn	2, 0x0000
    42371c80:	f0df 10b5 0000      	.insn	6, 0x10b5f0df
    42371c86:	0000                	.insn	2, 0x0000
    42371c88:	f4df 10b5 0000      	.insn	6, 0x10b5f4df
    42371c8e:	0000                	.insn	2, 0x0000
    42371c90:	f8df 10b5 0000      	.insn	6, 0x10b5f8df
    42371c96:	0000                	.insn	2, 0x0000
    42371c98:	fcdf 10b5 0000      	.insn	6, 0x10b5fcdf
	...

Disassembly of section .__pagetable_map_os_0x0000000044bb8000:

0000000044bb8000 <__pagetable_map_os_0x0000000044bb8000>:
	...
    44bb80a8:	10b804cf          	fnmadd.s	f9,f16,f11,f2,rne
    44bb80ac:	0000                	.insn	2, 0x0000
	...

Disassembly of section .__pagetable_map_os_0x00000000431fb000:

00000000431fb000 <__pagetable_map_os_0x00000000431fb000>:
	...
    431fbde0:	112ef0cf          	fnmadd.s	f1,f29,f18,f2
    431fbde4:	0000                	.insn	2, 0x0000
	...

Disassembly of section .__pagetable_map_os_0x0000000043456000:

0000000043456000 <__pagetable_map_os_0x0000000043456000>:
	...
    434564d8:	108b68cf          	fnmadd.s	f17,f22,f8,f2,unknown
    434564dc:	0000                	.insn	2, 0x0000
	...

Disassembly of section .__pagetable_map_os_0x000000004239f000:

000000004239f000 <__pagetable_map_os_0x000000004239f000>:
	...
    4239f9a0:	112ef0cf          	fnmadd.s	f1,f29,f18,f2
    4239f9a4:	0000                	.insn	2, 0x0000
	...

Disassembly of section .__pagetable_map_os_0x000000004196a000:

000000004196a000 <__pagetable_map_os_0x000000004196a000>:
	...
    4196af50:	1049cccf          	fnmadd.s	f25,f19,f4,f2,rmm
    4196af54:	0000                	.insn	2, 0x0000
	...

Disassembly of section .__pagetable_map_os_0x00000000422de000:

00000000422de000 <__pagetable_map_os_0x00000000422de000>:
	...
    422de738:	e401                	.insn	2, 0xe401
    422de73a:	112e                	.insn	2, 0x112e
    422de73c:	0000                	.insn	2, 0x0000
	...

Disassembly of section .__pagetable_map_os_0x0000000044bb9000:

0000000044bb9000 <__pagetable_map_os_0x0000000044bb9000>:
	...
    44bb9de0:	109310cf          	fnmadd.s	f1,f6,f9,f2,rtz
    44bb9de4:	0000                	.insn	2, 0x0000
    44bb9de6:	0000                	.insn	2, 0x0000
    44bb9de8:	109314cf          	fnmadd.s	f9,f6,f9,f2,rtz
    44bb9dec:	0000                	.insn	2, 0x0000
	...

Disassembly of section .__pagetable_map_os_0x0000000044bba000:

0000000044bba000 <__pagetable_map_os_0x0000000044bba000>:
    44bba000:	8401                	.insn	2, 0x8401
    44bba002:	0000108b          	.insn	4, 0x108b
	...
    44bba00e:	0000                	.insn	2, 0x0000
    44bba010:	b801                	.insn	2, 0xb801
    44bba012:	10d1                	.insn	2, 0x10d1
	...
    44bba020:	3401                	.insn	2, 0x3401
    44bba022:	1090                	.insn	2, 0x1090
    44bba024:	0000                	.insn	2, 0x0000
    44bba026:	0000                	.insn	2, 0x0000
    44bba028:	4c01                	.insn	2, 0x4c01
    44bba02a:	1085                	.insn	2, 0x1085
    44bba02c:	0000                	.insn	2, 0x0000
    44bba02e:	0000                	.insn	2, 0x0000
    44bba030:	9001                	.insn	2, 0x9001
    44bba032:	1088                	.insn	2, 0x1088
	...
    44bba050:	2c01                	.insn	2, 0x2c01
    44bba052:	1068                	.insn	2, 0x1068
	...
    44bba080:	9801                	.insn	2, 0x9801
    44bba082:	1128                	.insn	2, 0x1128
	...
    44bba150:	c801                	.insn	2, 0xc801
    44bba152:	1091                	.insn	2, 0x1091
	...
    44bba6d8:	8c01                	.insn	2, 0x8c01
    44bba6da:	1092                	.insn	2, 0x1092
	...
    44bbabd0:	3c01                	.insn	2, 0x3c01
    44bbabd2:	000010bb          	sllw	x1,x0,x0
	...
    44bbae7e:	0000                	.insn	2, 0x0000
    44bbae80:	fc01                	.insn	2, 0xfc01
    44bbae82:	10f6                	.insn	2, 0x10f6
	...
    44bbaf50:	4801                	.insn	2, 0x4801
    44bbaf52:	10e8                	.insn	2, 0x10e8
    44bbaf54:	0000                	.insn	2, 0x0000
	...

Disassembly of section .__pagetable_map_os_0x00000000422e1000:

00000000422e1000 <__pagetable_map_os_0x00000000422e1000>:
	...
    422e1040:	112ef0cf          	fnmadd.s	f1,f29,f18,f2
    422e1044:	0000                	.insn	2, 0x0000
    422e1046:	0000                	.insn	2, 0x0000
    422e1048:	104928c7          	fmsub.s	f17,f18,f4,f2,rdn
	...
    422e1058:	108e50c7          	fmsub.s	f1,f28,f8,f2,unknown
	...
    422e1080:	1049f0cf          	fnmadd.s	f1,f19,f4,f2
    422e1084:	0000                	.insn	2, 0x0000
    422e1086:	0000                	.insn	2, 0x0000
    422e1088:	10d148cf          	fnmadd.s	f17,f2,f13,f2,rmm
	...
    422e10c0:	108564cf          	fnmadd.s	f9,f10,f8,f2,unknown
	...
    422e10e0:	112ec8cf          	fnmadd.s	f17,f29,f18,f2,rmm
	...
    422e11b8:	112ef0cf          	fnmadd.s	f1,f29,f18,f2
	...
    422e11c8:	112d14cf          	fnmadd.s	f9,f26,f18,f2,rtz
	...
    422e1300:	108d70cf          	fnmadd.s	f1,f26,f8,f2
	...
    422e16d0:	1081c4cf          	fnmadd.s	f9,f3,f8,f2,rmm
    422e16d4:	0000                	.insn	2, 0x0000
    422e16d6:	0000                	.insn	2, 0x0000
    422e16d8:	109b7ccf          	fnmadd.s	f25,f22,f9,f2
	...
    422e1738:	112894c7          	fmsub.s	f9,f17,f18,f2,rtz
	...
    422e1910:	112ef0cf          	fnmadd.s	f1,f29,f18,f2
	...
    422e1de8:	108d74cf          	fnmadd.s	f9,f26,f8,f2
    422e1dec:	0000                	.insn	2, 0x0000
	...

Disassembly of section .__pagetable_map_os_0x0000000043dbf000:

0000000043dbf000 <__pagetable_map_os_0x0000000043dbf000>:
	...
    43dbf648:	112688c7          	fmsub.s	f17,f13,f18,f2,rne
    43dbf64c:	0000                	.insn	2, 0x0000
	...

Disassembly of section .__pagetable_map_os_0x0000000042224000:

0000000042224000 <__pagetable_map_os_0x0000000042224000>:
	...
    42224320:	112edcc7          	fmsub.s	f25,f29,f18,f2,unknown
    42224324:	0000                	.insn	2, 0x0000
	...

Disassembly of section .__pagetable_map_os_0x0000000042472000:

0000000042472000 <__pagetable_map_os_0x0000000042472000>:
	...
    424724c0:	11268cc7          	fmsub.s	f25,f13,f18,f2,rne
    424724c4:	0000                	.insn	2, 0x0000
	...

Disassembly of section .__pagetable_map_os_0x000000004346e000:

000000004346e000 <__pagetable_map_os_0x000000004346e000>:
	...
    4346ead0:	108e78c7          	fmsub.s	f17,f28,f8,f2
    4346ead4:	0000                	.insn	2, 0x0000
	...

Disassembly of section .__pagetable_map_os_0x0000000042153000:

0000000042153000 <__pagetable_map_os_0x0000000042153000>:
	...
    42153870:	1062dccf          	fnmadd.s	f25,f5,f6,f2,unknown
    42153874:	0000                	.insn	2, 0x0000
	...

Disassembly of section .__pagetable_map_os_0x0000000044a26000:

0000000044a26000 <__pagetable_map_os_0x0000000044a26000>:
	...
    44a26330:	108b88cf          	fnmadd.s	f17,f23,f8,f2,rne
	...
    44a26650:	108b64cf          	fnmadd.s	f9,f22,f8,f2,unknown
    44a26654:	0000                	.insn	2, 0x0000
	...

Disassembly of section .__pagetable_map_os_0x0000000042ecf000:

0000000042ecf000 <__pagetable_map_os_0x0000000042ecf000>:
	...
    42ecfee0:	10f6eccf          	fnmadd.s	f25,f13,f15,f2,unknown
    42ecfee4:	0000                	.insn	2, 0x0000
	...

Disassembly of section .__pagetable_map_os_0x0000000043a12000:

0000000043a12000 <__pagetable_map_os_0x0000000043a12000>:
	...
    43a12318:	108e4ccf          	fnmadd.s	f25,f28,f8,f2,rmm
    43a1231c:	0000                	.insn	2, 0x0000
    43a1231e:	0000                	.insn	2, 0x0000
    43a12320:	108e44cf          	fnmadd.s	f9,f28,f8,f2,rmm
    43a12324:	0000                	.insn	2, 0x0000
	...

Disassembly of section .__pagetable_map_os_0x000000004240d000:

000000004240d000 <__pagetable_map_os_0x000000004240d000>:
	...
    4240db38:	10930ccf          	fnmadd.s	f25,f6,f9,f2,rne
    4240db3c:	0000                	.insn	2, 0x0000
	...

Disassembly of section .__pagetable_map_os_0x00000000424a3000:

00000000424a3000 <__pagetable_map_os_0x00000000424a3000>:
	...
    424a3af0:	108b70cf          	fnmadd.s	f1,f22,f8,f2
    424a3af4:	0000                	.insn	2, 0x0000
	...

Disassembly of section .__pagetable_map_os_0x0000000041a0b000:

0000000041a0b000 <__pagetable_map_os_0x0000000041a0b000>:
	...
    41a0b798:	1128e4cf          	fnmadd.s	f9,f17,f18,f2,unknown
    41a0b79c:	0000                	.insn	2, 0x0000
	...

Disassembly of section .__pagetable_map_os_0x0000000041272000:

0000000041272000 <__pagetable_map_os_0x0000000041272000>:
	...
    41272e48:	cc01                	.insn	2, 0xcc01
    41272e4a:	112e                	.insn	2, 0x112e
    41272e4c:	0000                	.insn	2, 0x0000
	...

Disassembly of section .__pagetable_map_os_0x0000000044bb3000:

0000000044bb3000 <__pagetable_map_os_0x0000000044bb3000>:
	...
    44bb3180:	109ebcc7          	fmsub.s	f25,f29,f9,f2,rup
    44bb3184:	0000                	.insn	2, 0x0000
	...

Disassembly of section .__pagetable_map_os_0x000000004237c000:

000000004237c000 <__pagetable_map_os_0x000000004237c000>:
	...
    4237cef8:	0001                	.insn	2, 0x0001
    4237cefa:	000010f7          	.insn	4, 0x10f7
	...
    4237cf6e:	0000                	.insn	2, 0x0000
    4237cf70:	1801                	.insn	2, 0x1801
    4237cf72:	1090                	.insn	2, 0x1090
    4237cf74:	0000                	.insn	2, 0x0000
	...

Disassembly of section .__pagetable_map_os_0x0000000043dc0000:

0000000043dc0000 <__pagetable_map_os_0x0000000043dc0000>:
	...
    43dc07e0:	112e0cc7          	fmsub.s	f25,f28,f18,f2,rne
    43dc07e4:	0000                	.insn	2, 0x0000
	...

Disassembly of section .__pagetable_map_os_0x0000000042406000:

0000000042406000 <__pagetable_map_os_0x0000000042406000>:
	...
    42406570:	10f708cf          	fnmadd.s	f17,f14,f15,f2,rne
    42406574:	0000                	.insn	2, 0x0000
	...

Disassembly of section .__pagetable_map_os_0x000000004308a000:

000000004308a000 <__pagetable_map_os_0x000000004308a000>:
	...
    4308a398:	d001                	.insn	2, 0xd001
    4308a39a:	1128                	.insn	2, 0x1128
    4308a39c:	0000                	.insn	2, 0x0000
	...

Disassembly of section .__pagetable_map_os_0x0000000044a34000:

0000000044a34000 <__pagetable_map_os_0x0000000044a34000>:
	...
    44a34db0:	108830c7          	fmsub.s	f1,f16,f8,f2,rup
    44a34db4:	0000                	.insn	2, 0x0000
	...

Disassembly of section .__pagetable_map_os_0x000000004232d000:

000000004232d000 <__pagetable_map_os_0x000000004232d000>:
	...
    4232da88:	6c01                	.insn	2, 0x6c01
    4232da8a:	10e2                	.insn	2, 0x10e2
    4232da8c:	0000                	.insn	2, 0x0000
	...

Disassembly of section .__pagetable_map_os_0x000000004389b000:

000000004389b000 <__pagetable_map_os_0x000000004389b000>:
	...
    4389bbe8:	112ef0cf          	fnmadd.s	f1,f29,f18,f2
    4389bbec:	0000                	.insn	2, 0x0000
	...

Disassembly of section .__pagetable_map_os_0x00000000427a4000:

00000000427a4000 <__pagetable_map_os_0x00000000427a4000>:
	...
    427a4790:	9c01                	.insn	2, 0x9c01
    427a4792:	000010c3          	fmadd.s	f1,f0,f0,f0,rtz
	...

Disassembly of section .__pagetable_map_os_0x00000000430e7000:

00000000430e7000 <__pagetable_map_os_0x00000000430e7000>:
	...
    430e75f8:	112ef0cf          	fnmadd.s	f1,f29,f18,f2
    430e75fc:	0000                	.insn	2, 0x0000
	...

Disassembly of section .__pagetable_map_os_0x0000000042158000:

0000000042158000 <__pagetable_map_os_0x0000000042158000>:
	...
    42158430:	8c01                	.insn	2, 0x8c01
    42158432:	1104                	.insn	2, 0x1104
    42158434:	0000                	.insn	2, 0x0000
	...

Disassembly of section .__pagetable_map_os_0x0000000044123000:

0000000044123000 <__pagetable_map_os_0x0000000044123000>:
	...
    44123840:	108dbccf          	fnmadd.s	f25,f27,f8,f2,rup
    44123844:	0000                	.insn	2, 0x0000
	...

Disassembly of section .__pagetable_map_os_0x00000000422d3000:

00000000422d3000 <__pagetable_map_os_0x00000000422d3000>:
	...
    422d3978:	c401                	.insn	2, 0xc401
    422d397a:	10e1                	.insn	2, 0x10e1
    422d397c:	0000                	.insn	2, 0x0000
	...

Disassembly of section .__pagetable_map_os_0x0000000043871000:

0000000043871000 <__pagetable_map_os_0x0000000043871000>:
	...
    438717c0:	1088a4cf          	fnmadd.s	f9,f17,f8,f2,rdn
    438717c4:	0000                	.insn	2, 0x0000
	...

Disassembly of section .__pagetable_map_os_0x0000000042436000:

0000000042436000 <__pagetable_map_os_0x0000000042436000>:
	...
    424369d0:	1c01                	.insn	2, 0x1c01
    424369d2:	10be                	.insn	2, 0x10be
    424369d4:	0000                	.insn	2, 0x0000
	...

Disassembly of section .__pagetable_map_os_0x0000000042f87000:

0000000042f87000 <__pagetable_map_os_0x0000000042f87000>:
	...
    42f87380:	108b6ccf          	fnmadd.s	f25,f22,f8,f2,unknown
    42f87384:	0000                	.insn	2, 0x0000
    42f87386:	0000                	.insn	2, 0x0000
    42f87388:	112ef0cf          	fnmadd.s	f1,f29,f18,f2
    42f8738c:	0000                	.insn	2, 0x0000
	...

Disassembly of section .__pagetable_map_os_0x000000004221c000:

000000004221c000 <__pagetable_map_os_0x000000004221c000>:
	...
    4221c310:	f801                	.insn	2, 0xf801
    4221c312:	10ce                	.insn	2, 0x10ce
    4221c314:	0000                	.insn	2, 0x0000
	...

Disassembly of section .__pagetable_map_os_0x00000000433be000:

00000000433be000 <__pagetable_map_os_0x00000000433be000>:
	...
    433be910:	112ef0cf          	fnmadd.s	f1,f29,f18,f2
    433be914:	0000                	.insn	2, 0x0000
	...

Disassembly of section .__pagetable_map_os_0x0000000043451000:

0000000043451000 <__pagetable_map_os_0x0000000043451000>:
	...
    434517d8:	3001                	.insn	2, 0x3001
    434517da:	112e                	.insn	2, 0x112e
	...
    43451800:	ec01                	.insn	2, 0xec01
    43451802:	10ba                	.insn	2, 0x10ba
    43451804:	0000                	.insn	2, 0x0000
	...

Disassembly of section .__pagetable_map_os_0x0000000042ebb000:

0000000042ebb000 <__pagetable_map_os_0x0000000042ebb000>:
	...
    42ebb688:	d401                	.insn	2, 0xd401
    42ebb68a:	10ba                	.insn	2, 0x10ba
    42ebb68c:	0000                	.insn	2, 0x0000
	...

Disassembly of section .__pagetable_map_os_0x0000000042eb5000:

0000000042eb5000 <__pagetable_map_os_0x0000000042eb5000>:
	...
    42eb5a20:	109318cf          	fnmadd.s	f17,f6,f9,f2,rtz
    42eb5a24:	0000                	.insn	2, 0x0000
    42eb5a26:	0000                	.insn	2, 0x0000
    42eb5a28:	10931ccf          	fnmadd.s	f25,f6,f9,f2,rtz
    42eb5a2c:	0000                	.insn	2, 0x0000
	...

Disassembly of section .__pagetable_map_os_0x0000000044b8c000:

0000000044b8c000 <__pagetable_map_os_0x0000000044b8c000>:
	...
    44b8cb48:	3801                	.insn	2, 0x3801
    44b8cb4a:	112e                	.insn	2, 0x112e
    44b8cb4c:	0000                	.insn	2, 0x0000
	...

Disassembly of section .__pagetable_map_os_0x0000000044b8e000:

0000000044b8e000 <__pagetable_map_os_0x0000000044b8e000>:
	...
    44b8e3e0:	108e80c7          	fmsub.s	f1,f29,f8,f2,rne
    44b8e3e4:	0000                	.insn	2, 0x0000
	...

Disassembly of section .__pagetable_map_os_0x0000000043103000:

0000000043103000 <__pagetable_map_os_0x0000000043103000>:
	...
    43103aa0:	b801                	.insn	2, 0xb801
    43103aa2:	108c                	.insn	2, 0x108c
    43103aa4:	0000                	.insn	2, 0x0000
	...

Disassembly of section .__pagetable_map_os_0x000000004232e000:

000000004232e000 <__pagetable_map_os_0x000000004232e000>:
	...
    4232e0c8:	8801                	.insn	2, 0x8801
    4232e0ca:	10bc                	.insn	2, 0x10bc
    4232e0cc:	0000                	.insn	2, 0x0000
	...

Disassembly of section .__pagetable_map_os_0x0000000042f22000:

0000000042f22000 <__pagetable_map_os_0x0000000042f22000>:
	...
    42f229d0:	108d50cf          	fnmadd.s	f1,f26,f8,f2,unknown
    42f229d4:	0000                	.insn	2, 0x0000
	...

Disassembly of section .__pagetable_map_os_0x00000000418b7000:

00000000418b7000 <__pagetable_map_os_0x00000000418b7000>:
    418b7000:	0801                	.insn	2, 0x0801
    418b7002:	000010f7          	.insn	4, 0x10f7
	...

Disassembly of section .__pagetable_map_os_0x0000000043dc2000:

0000000043dc2000 <__pagetable_map_os_0x0000000043dc2000>:
    43dc2000:	6401                	.insn	2, 0x6401
    43dc2002:	0000108b          	.insn	4, 0x108b
	...

Disassembly of section .__pagetable_map_os_0x00000000422d9000:

00000000422d9000 <__pagetable_map_os_0x00000000422d9000>:
    422d9000:	10f2d0c7          	fmsub.s	f1,f5,f15,f2,unknown
    422d9004:	0000                	.insn	2, 0x0000
	...

Disassembly of section .__pagetable_map_os_0x0000000043dbb000:

0000000043dbb000 <__pagetable_map_os_0x0000000043dbb000>:
    43dbb000:	4401                	.insn	2, 0x4401
    43dbb002:	108e                	.insn	2, 0x108e
    43dbb004:	0000                	.insn	2, 0x0000
	...

Disassembly of section .__pagetable_map_os_0x0000000042391000:

0000000042391000 <__pagetable_map_os_0x0000000042391000>:
    42391000:	bc01                	.insn	2, 0xbc01
    42391002:	108d                	.insn	2, 0x108d
    42391004:	0000                	.insn	2, 0x0000
	...

Disassembly of section .__pagetable_map_os_0x000000004236f000:

000000004236f000 <__pagetable_map_os_0x000000004236f000>:
    4236f000:	108b38c3          	fmadd.s	f17,f22,f8,f2,rup
    4236f004:	0000                	.insn	2, 0x0000
	...

Disassembly of section .__pagetable_map_os_0x0000000042229000:

0000000042229000 <__pagetable_map_os_0x0000000042229000>:
    42229000:	0c01                	.insn	2, 0x0c01
    42229002:	00001093          	slli	x1,x0,0x0
	...

Disassembly of section .__pagetable_map_os_0x00000000424c3000:

00000000424c3000 <__pagetable_map_os_0x00000000424c3000>:
    424c3000:	6401                	.insn	2, 0x6401
    424c3002:	108e                	.insn	2, 0x108e
    424c3004:	0000                	.insn	2, 0x0000
	...

Disassembly of section .__pagetable_map_os_0x0000000042399000:

0000000042399000 <__pagetable_map_os_0x0000000042399000>:
	...
    42399008:	108c04c3          	fmadd.s	f9,f24,f8,f2,rne
    4239900c:	0000                	.insn	2, 0x0000
	...

Disassembly of section .__pagetable_map_os_0x0000000042159000:

0000000042159000 <__pagetable_map_os_0x0000000042159000>:
    42159000:	6801                	.insn	2, 0x6801
    42159002:	0000108b          	.insn	4, 0x108b
	...

Disassembly of section .__pagetable_map_os_0x00000000422da000:

00000000422da000 <__pagetable_map_os_0x00000000422da000>:
    422da000:	6c01                	.insn	2, 0x6c01
    422da002:	0000108b          	.insn	4, 0x108b
	...

Disassembly of section .__pagetable_map_os_0x00000000422db000:

00000000422db000 <__pagetable_map_os_0x00000000422db000>:
	...
    422db010:	11294cc3          	fmadd.s	f25,f18,f18,f2,rmm
    422db014:	0000                	.insn	2, 0x0000
	...

Disassembly of section .__pagetable_map_os_0x000000004127c000:

000000004127c000 <__pagetable_map_os_0x000000004127c000>:
    4127c000:	c801                	.insn	2, 0xc801
    4127c002:	112e                	.insn	2, 0x112e
    4127c004:	0000                	.insn	2, 0x0000
	...

Disassembly of section .__pagetable_map_os_0x0000000044bb2000:

0000000044bb2000 <__pagetable_map_os_0x0000000044bb2000>:
    44bb2000:	4c01                	.insn	2, 0x4c01
    44bb2002:	108e                	.insn	2, 0x108e
    44bb2004:	0000                	.insn	2, 0x0000
	...

Disassembly of section .__pagetable_map_os_0x0000000042393000:

0000000042393000 <__pagetable_map_os_0x0000000042393000>:
	...
    42393020:	112d18c3          	fmadd.s	f17,f26,f18,f2,rtz
    42393024:	0000                	.insn	2, 0x0000
	...

Disassembly of section .__pagetable_map_os_0x000000004235c000:

000000004235c000 <__pagetable_map_os_0x000000004235c000>:
    4235c000:	4801                	.insn	2, 0x4801
    4235c002:	10d1                	.insn	2, 0x10d1
    4235c004:	0000                	.insn	2, 0x0000
	...

Disassembly of section .__pagetable_map_os_0x0000000043452000:

0000000043452000 <__pagetable_map_os_0x0000000043452000>:
    43452000:	7001                	.insn	2, 0x7001
    43452002:	0000108b          	.insn	4, 0x108b
	...

Disassembly of section .__pagetable_map_os_0x00000000422dc000:

00000000422dc000 <__pagetable_map_os_0x00000000422dc000>:
    422dc000:	108e74c3          	fmadd.s	f9,f28,f8,f2
    422dc004:	0000                	.insn	2, 0x0000
	...

Disassembly of section .__pagetable_map_os_0x00000000422e2000:

00000000422e2000 <__pagetable_map_os_0x00000000422e2000>:
    422e2000:	7401                	.insn	2, 0x7401
    422e2002:	108d                	.insn	2, 0x108d
    422e2004:	0000                	.insn	2, 0x0000
	...

Disassembly of section .__pagetable_map_os_0x000000004235d000:

000000004235d000 <__pagetable_map_os_0x000000004235d000>:
    4235d000:	e401                	.insn	2, 0xe401
    4235d002:	1128                	.insn	2, 0x1128
    4235d004:	0000                	.insn	2, 0x0000
	...

Disassembly of section .__pagetable_map_os_0x0000000044a39000:

0000000044a39000 <__pagetable_map_os_0x0000000044a39000>:
    44a39000:	104d94c7          	fmsub.s	f9,f27,f4,f2,rtz
    44a39004:	0000                	.insn	2, 0x0000
	...

Disassembly of section .__pagetable_map_os_0x0000000044b45000:

0000000044b45000 <__pagetable_map_os_0x0000000044b45000>:
    44b45000:	cc01                	.insn	2, 0xcc01
    44b45002:	1049                	.insn	2, 0x1049
    44b45004:	0000                	.insn	2, 0x0000
	...

Disassembly of section .__pagetable_map_os_0x0000000041273000:

0000000041273000 <__pagetable_map_os_0x0000000041273000>:
    41273000:	7c01                	.insn	2, 0x7c01
    41273002:	0000109b          	slliw	x1,x0,0x0
	...

Disassembly of section .__pagetable_map_os_0x00000000426df000:

00000000426df000 <__pagetable_map_os_0x00000000426df000>:
    426df000:	104b14c7          	fmsub.s	f9,f22,f4,f2,rtz
    426df004:	0000                	.insn	2, 0x0000
	...

Disassembly of section .__pagetable_map_os_0x0000000044bb4000:

0000000044bb4000 <__pagetable_map_os_0x0000000044bb4000>:
	...
    44bb4c40:	e001                	.insn	2, 0xe001
    44bb4c42:	0000108b          	.insn	4, 0x108b
	...
    44bb4ed6:	0000                	.insn	2, 0x0000
    44bb4ed8:	e401                	.insn	2, 0xe401
    44bb4eda:	0000108b          	.insn	4, 0x108b
	...

Disassembly of section .__pagetable_map_os_0x00000000422f8000:

00000000422f8000 <__pagetable_map_os_0x00000000422f8000>:
	...
    422f89f8:	1801                	.insn	2, 0x1801
    422f89fa:	00001087          	flh	f1,0(x0) # 0 <ALL_4KB_PAGES>
	...

Disassembly of section .__pagetable_map_os_0x00000000421c6000:

00000000421c6000 <__pagetable_map_os_0x00000000421c6000>:
	...
    421c6768:	108b74c7          	fmsub.s	f9,f22,f8,f2
    421c676c:	0000                	.insn	2, 0x0000
	...

Disassembly of section .__pagetable_map_os_0x00000000422f9000:

00000000422f9000 <__pagetable_map_os_0x00000000422f9000>:
	...
    422f9070:	2401                	.insn	2, 0x2401
    422f9072:	108d                	.insn	2, 0x108d
    422f9074:	0000                	.insn	2, 0x0000
	...

Disassembly of section .__pagetable_map_os_0x0000000042349000:

0000000042349000 <__pagetable_map_os_0x0000000042349000>:
	...
    42349500:	108e64cf          	fnmadd.s	f9,f28,f8,f2,unknown
    42349504:	0000                	.insn	2, 0x0000
	...

Disassembly of section .__pagetable_map_os_0x0000000044bbb000:

0000000044bbb000 <__pagetable_map_os_0x0000000044bbb000>:
    44bbb000:	7c01                	.insn	2, 0x7c01
    44bbb002:	0000108b          	.insn	4, 0x108b
	...

Disassembly of section .__pagetable_map_os_0x00000000422df000:

00000000422df000 <__pagetable_map_os_0x00000000422df000>:
    422df000:	d001                	.insn	2, 0xd001
    422df002:	10c1                	.insn	2, 0x10c1
    422df004:	0000                	.insn	2, 0x0000
	...

Disassembly of section .__pagetable_map_os_0x0000000043074000:

0000000043074000 <__pagetable_map_os_0x0000000043074000>:
	...
    43074010:	108ca0c7          	fmsub.s	f1,f25,f8,f2,rdn
    43074014:	0000                	.insn	2, 0x0000
	...

Disassembly of section .__pagetable_map_os_0x00000000422cf000:

00000000422cf000 <__pagetable_map_os_0x00000000422cf000>:
	...
    422cf7b0:	f001                	.insn	2, 0xf001
    422cf7b2:	10f6                	.insn	2, 0x10f6
    422cf7b4:	0000                	.insn	2, 0x0000
	...

Disassembly of section .__pagetable_map_os_0x0000000043dbc000:

0000000043dbc000 <__pagetable_map_os_0x0000000043dbc000>:
	...
    43dbc890:	e001                	.insn	2, 0xe001
    43dbc892:	10ba                	.insn	2, 0x10ba
    43dbc894:	0000                	.insn	2, 0x0000
	...

Disassembly of section .__pagetable_map_os_0x0000000042eb8000:

0000000042eb8000 <__pagetable_map_os_0x0000000042eb8000>:
	...
    42eb8b60:	108d0cc7          	fmsub.s	f25,f26,f8,f2,rne
    42eb8b64:	0000                	.insn	2, 0x0000
	...
